///////////////////////////////////////////////////////////////////////////////
//                                                                            /
// IAR C/C++ Compiler V8.30.1.41636 for 8051            19/Oct/2017  13:11:19 /
// Copyright 2004-2013 IAR Systems AB.                                        /
//                                                                            /
//    Core               =  plain                                             /
//    Code model         =  banked                                            /
//    Data model         =  large                                             /
//    Calling convention =  xdata reentrant                                   /
//    Constant location  =  data_rom                                          /
//    Dptr setup         =  1,16                                              /
//                                                                            /
//    Source file        =  D:\¼ò±¦É½\ÊÙÏØ17-09-01 25\³ÌÐò\ÎÞÏß½Úµã³ÌÐò\code\ /
//                          Components\mt\MT_AF.c                             /
//    Command line       =  -f "D:\¼ò±¦É½\ÊÙÏØ17-09-01                        /
//                          25\³ÌÐò\ÎÞÏß½Úµã³ÌÐò\code\Projects\zstack\Samples /
//                          \SampleApp\CC2530DB\..\..\..\Tools\CC2530DB\f8wCo /
//                          ord.cfg" (-DCPU32MHZ -DROOT=__near_func           /
//                          -DMAC_CFG_APP_PENDING_QUEUE=TRUE                  /
//                          -DMAC_CFG_TX_DATA_MAX=5 -DMAC_CFG_TX_MAX=8        /
//                          -DMAC_CFG_RX_MAX=5 -DZDO_COORDINATOR -DRTR_NWK)   /
//                          -f "D:\¼ò±¦É½\ÊÙÏØ17-09-01                        /
//                          25\³ÌÐò\ÎÞÏß½Úµã³ÌÐò\code\Projects\zstack\Samples /
//                          \SampleApp\CC2530DB\..\..\..\Tools\CC2530DB\f8wCo /
//                          nfig.cfg" (-DZIGBEEPRO -DSECURE=0                 /
//                          -DZG_SECURE_DYNAMIC=0 -DREFLECTOR                 /
//                          -DDEFAULT_CHANLIST=0x00000800                     /
//                          -DZDAPP_CONFIG_PAN_ID=0xFFF1                      /
//                          -DNWK_START_DELAY=100 -DEXTENDED_JOINING_RANDOM_M /
//                          ASK=0x007F -DBEACON_REQUEST_DELAY=100             /
//                          -DBEACON_REQ_DELAY_MASK=0x00FF                    /
//                          -DLINK_STATUS_JITTER_MASK=0x007F                  /
//                          -DROUTE_EXPIRY_TIME=30 -DAPSC_ACK_WAIT_DURATION_P /
//                          OLLED=3000 -DNWK_INDIRECT_MSG_TIMEOUT=7           /
//                          -DMAX_RREQ_ENTRIES=8 -DAPSC_MAX_FRAME_RETRIES=3   /
//                          -DNWK_MAX_DATA_RETRIES=2                          /
//                          -DMAX_POLL_FAILURE_RETRIES=2 -DMAX_BCAST=9        /
//                          -DAPS_MAX_GROUPS=16 -DMAX_RTG_ENTRIES=40          /
//                          -DNWK_MAX_BINDING_ENTRIES=4                       /
//                          -DMAX_BINDING_CLUSTER_IDS=4                       /
//                          "-DDEFAULT_KEY={0x01, 0x03, 0x05, 0x07, 0x09,     /
//                          0x0B, 0x0D, 0x0F, 0x00, 0x02, 0x04, 0x06, 0x08,   /
//                          0x0A, 0x0C, 0x0D}" -DMAC_MAX_FRAME_SIZE=116       /
//                          -DZDNWKMGR_MIN_TRANSMISSIONS=20 "-DCONST=const    /
//                          __code" -DGENERIC=__generic                       /
//                          -DRFD_RCVC_ALWAYS_ON=FALSE -DPOLL_RATE=1000       /
//                          -DQUEUED_POLL_RATE=100 -DRESPONSE_POLL_RATE=100)  /
//                          -DREJOIN_POLL_RATE=440 "D:\¼ò±¦É½\ÊÙÏØ17-09-01    /
//                          25\³ÌÐò\ÎÞÏß½Úµã³ÌÐò\code\Components\mt\MT_AF.c"  /
//                          -D BUILD_ALL_DEVICES -D HOLD_AUTO_START -D        /
//                          LCD_SUPPORTED -D HAL_UART=FALSE -lC               /
//                          "D:\¼ò±¦É½\ÊÙÏØ17-09-01                           /
//                          25\³ÌÐò\ÎÞÏß½Úµã³ÌÐò\code\Projects\zstack\Samples /
//                          \SampleApp\CC2530DB\DemoEB\List\" -lA             /
//                          "D:\¼ò±¦É½\ÊÙÏØ17-09-01                           /
//                          25\³ÌÐò\ÎÞÏß½Úµã³ÌÐò\code\Projects\zstack\Samples /
//                          \SampleApp\CC2530DB\DemoEB\List\"                 /
//                          --diag_suppress Pe001,Pa010 -o                    /
//                          "D:\¼ò±¦É½\ÊÙÏØ17-09-01                           /
//                          25\³ÌÐò\ÎÞÏß½Úµã³ÌÐò\code\Projects\zstack\Samples /
//                          \SampleApp\CC2530DB\DemoEB\Obj\" -e               /
//                          --no_code_motion --debug --core=plain             /
//                          --dptr=16,1 --data_model=large                    /
//                          --code_model=banked --calling_convention=xdata_re /
//                          entrant --place_constants=data_rom                /
//                          --nr_virtual_regs 16 -I "D:\¼ò±¦É½\ÊÙÏØ17-09-01   /
//                          25\³ÌÐò\ÎÞÏß½Úµã³ÌÐò\code\Projects\zstack\Samples /
//                          \SampleApp\CC2530DB\" -I "D:\¼ò±¦É½\ÊÙÏØ17-09-01  /
//                          25\³ÌÐò\ÎÞÏß½Úµã³ÌÐò\code\Projects\zstack\Samples /
//                          \SampleApp\CC2530DB\..\Source\" -I                /
//                          "D:\¼ò±¦É½\ÊÙÏØ17-09-01                           /
//                          25\³ÌÐò\ÎÞÏß½Úµã³ÌÐò\code\Projects\zstack\Samples /
//                          \SampleApp\CC2530DB\..\Source\hardware\" -I       /
//                          "D:\¼ò±¦É½\ÊÙÏØ17-09-01                           /
//                          25\³ÌÐò\ÎÞÏß½Úµã³ÌÐò\code\Projects\zstack\Samples /
//                          \SampleApp\CC2530DB\..\..\..\ZMain\TI2530DB\" -I  /
//                          "D:\¼ò±¦É½\ÊÙÏØ17-09-01                           /
//                          25\³ÌÐò\ÎÞÏß½Úµã³ÌÐò\code\Projects\zstack\Samples /
//                          \SampleApp\CC2530DB\..\..\..\..\..\Components\hal /
//                          \include\" -I "D:\¼ò±¦É½\ÊÙÏØ17-09-01             /
//                          25\³ÌÐò\ÎÞÏß½Úµã³ÌÐò\code\Projects\zstack\Samples /
//                          \SampleApp\CC2530DB\..\..\..\..\..\Components\hal /
//                          \target\CC2530EB\" -I "D:\¼ò±¦É½\ÊÙÏØ17-09-01     /
//                          25\³ÌÐò\ÎÞÏß½Úµã³ÌÐò\code\Projects\zstack\Samples /
//                          \SampleApp\CC2530DB\..\..\..\..\..\Components\mac /
//                          \include\" -I "D:\¼ò±¦É½\ÊÙÏØ17-09-01             /
//                          25\³ÌÐò\ÎÞÏß½Úµã³ÌÐò\code\Projects\zstack\Samples /
//                          \SampleApp\CC2530DB\..\..\..\..\..\Components\mac /
//                          \high_level\" -I "D:\¼ò±¦É½\ÊÙÏØ17-09-01          /
//                          25\³ÌÐò\ÎÞÏß½Úµã³ÌÐò\code\Projects\zstack\Samples /
//                          \SampleApp\CC2530DB\..\..\..\..\..\Components\mac /
//                          \low_level\srf04\" -I "D:\¼ò±¦É½\ÊÙÏØ17-09-01     /
//                          25\³ÌÐò\ÎÞÏß½Úµã³ÌÐò\code\Projects\zstack\Samples /
//                          \SampleApp\CC2530DB\..\..\..\..\..\Components\mac /
//                          \low_level\srf04\single_chip\" -I                 /
//                          "D:\¼ò±¦É½\ÊÙÏØ17-09-01                           /
//                          25\³ÌÐò\ÎÞÏß½Úµã³ÌÐò\code\Projects\zstack\Samples /
//                          \SampleApp\CC2530DB\..\..\..\..\..\Components\mt\ /
//                          " -I "D:\¼ò±¦É½\ÊÙÏØ17-09-01                      /
//                          25\³ÌÐò\ÎÞÏß½Úµã³ÌÐò\code\Projects\zstack\Samples /
//                          \SampleApp\CC2530DB\..\..\..\..\..\Components\osa /
//                          l\include\" -I "D:\¼ò±¦É½\ÊÙÏØ17-09-01            /
//                          25\³ÌÐò\ÎÞÏß½Úµã³ÌÐò\code\Projects\zstack\Samples /
//                          \SampleApp\CC2530DB\..\..\..\..\..\Components\ser /
//                          vices\saddr\" -I "D:\¼ò±¦É½\ÊÙÏØ17-09-01          /
//                          25\³ÌÐò\ÎÞÏß½Úµã³ÌÐò\code\Projects\zstack\Samples /
//                          \SampleApp\CC2530DB\..\..\..\..\..\Components\ser /
//                          vices\sdata\" -I "D:\¼ò±¦É½\ÊÙÏØ17-09-01          /
//                          25\³ÌÐò\ÎÞÏß½Úµã³ÌÐò\code\Projects\zstack\Samples /
//                          \SampleApp\CC2530DB\..\..\..\..\..\Components\sta /
//                          ck\af\" -I "D:\¼ò±¦É½\ÊÙÏØ17-09-01                /
//                          25\³ÌÐò\ÎÞÏß½Úµã³ÌÐò\code\Projects\zstack\Samples /
//                          \SampleApp\CC2530DB\..\..\..\..\..\Components\sta /
//                          ck\nwk\" -I "D:\¼ò±¦É½\ÊÙÏØ17-09-01               /
//                          25\³ÌÐò\ÎÞÏß½Úµã³ÌÐò\code\Projects\zstack\Samples /
//                          \SampleApp\CC2530DB\..\..\..\..\..\Components\sta /
//                          ck\sapi\" -I "D:\¼ò±¦É½\ÊÙÏØ17-09-01              /
//                          25\³ÌÐò\ÎÞÏß½Úµã³ÌÐò\code\Projects\zstack\Samples /
//                          \SampleApp\CC2530DB\..\..\..\..\..\Components\sta /
//                          ck\sec\" -I "D:\¼ò±¦É½\ÊÙÏØ17-09-01               /
//                          25\³ÌÐò\ÎÞÏß½Úµã³ÌÐò\code\Projects\zstack\Samples /
//                          \SampleApp\CC2530DB\..\..\..\..\..\Components\sta /
//                          ck\sys\" -I "D:\¼ò±¦É½\ÊÙÏØ17-09-01               /
//                          25\³ÌÐò\ÎÞÏß½Úµã³ÌÐò\code\Projects\zstack\Samples /
//                          \SampleApp\CC2530DB\..\..\..\..\..\Components\sta /
//                          ck\zdo\" -I "D:\¼ò±¦É½\ÊÙÏØ17-09-01               /
//                          25\³ÌÐò\ÎÞÏß½Úµã³ÌÐò\code\Projects\zstack\Samples /
//                          \SampleApp\CC2530DB\..\..\..\..\..\Components\zma /
//                          c\" -I "D:\¼ò±¦É½\ÊÙÏØ17-09-01                    /
//                          25\³ÌÐò\ÎÞÏß½Úµã³ÌÐò\code\Projects\zstack\Samples /
//                          \SampleApp\CC2530DB\..\..\..\..\..\Components\zma /
//                          c\f8w\" -Ohz --require_prototypes                 /
//    List file          =  D:\¼ò±¦É½\ÊÙÏØ17-09-01 25\³ÌÐò\ÎÞÏß½Úµã³ÌÐò\code\ /
//                          Projects\zstack\Samples\SampleApp\CC2530DB\DemoEB /
//                          \List\MT_AF.s51                                   /
//                                                                            /
//                                                                            /
///////////////////////////////////////////////////////////////////////////////

        NAME MT_AF

        RTMODEL "__SystemLibrary", "CLib"
        RTMODEL "__calling_convention", "xdata_reentrant"
        RTMODEL "__code_model", "banked"
        RTMODEL "__core", "plain"
        RTMODEL "__data_model", "large"
        RTMODEL "__dptr_size", "16"
        RTMODEL "__extended_stack", "disabled"
        RTMODEL "__location_for_constants", "data"
        RTMODEL "__number_of_dptrs", "1"
        RTMODEL "__rt_version", "1"

        RSEG DOVERLAY:DATA:NOROOT(0)
        RSEG IOVERLAY:IDATA:NOROOT(0)
        RSEG ISTACK:IDATA:NOROOT(0)
        RSEG PSTACK:XDATA:NOROOT(0)
        RSEG XSTACK:XDATA:NOROOT(0)

        EXTERN ?V0
        EXTERN ?V1
        EXTERN ?V2
        EXTERN ?V4
        EXTERN ?V5
        EXTERN ?V3
        EXTERN ?V6
        EXTERN ?V7
        EXTERN ?V8
        EXTERN ?V9
        EXTERN ?V10
        EXTERN ?V12
        EXTERN ?V13
        EXTERN ?V11
        EXTERN ?V14
        EXTERN ?ALLOC_XSTACK8
        EXTERN ?BANKED_ENTER_XDATA
        EXTERN ?BANKED_LEAVE_XDATA
        EXTERN ?BDISPATCH
        EXTERN ?BRET
        EXTERN ?DEALLOC_XSTACK8
        EXTERN ?L_ADD
        EXTERN ?L_EQ_X
        EXTERN ?L_MOV_X
        EXTERN ?L_SHL
        EXTERN ?PUSH_XSTACK8_X_TWO
        EXTERN ?PUSH_XSTACK_I_ONE
        EXTERN ?PUSH_XSTACK_I_THREE
        EXTERN ?PUSH_XSTACK_I_TWO
        EXTERN ?UL_SHR
        EXTERN ?XLOAD_R0123
        EXTERN ?XSP
        EXTERN ?XSTACK_DISP0_8
        EXTERN ?XSTACK_DISP100_8
        EXTERN ?XSTACK_DISP101_8
        EXTERN ?XSTORE_R0123
        EXTERN __INIT_XDATA_Z

        PUBLIC ??MT_AfCommandProcessing?relay
        FUNCTION ??MT_AfCommandProcessing?relay,0203H
        PUBLIC ??MT_AfDataConfirm?relay
        FUNCTION ??MT_AfDataConfirm?relay,0203H
        PUBLIC ??MT_AfDataRequest?relay
        FUNCTION ??MT_AfDataRequest?relay,0203H
        PUBLIC ??MT_AfDataRequestSrcRtg?relay
        FUNCTION ??MT_AfDataRequestSrcRtg?relay,0203H
        FUNCTION ??MT_AfDataRetrieve?relay,0203H
        FUNCTION ??MT_AfDataStore?relay,0203H
        PUBLIC ??MT_AfExec?relay
        FUNCTION ??MT_AfExec?relay,0203H
        PUBLIC ??MT_AfIncomingMsg?relay
        FUNCTION ??MT_AfIncomingMsg?relay,0203H
        PUBLIC ??MT_AfRegister?relay
        FUNCTION ??MT_AfRegister?relay,0203H
        PUBLIC MT_AfCommandProcessing
        FUNCTION MT_AfCommandProcessing,021203H
        ARGFRAME XSTACK, 0, STACK
        LOCFRAME ISTACK, 1, STACK
        LOCFRAME XSTACK, 12, STACK
        PUBLIC MT_AfDataConfirm
        FUNCTION MT_AfDataConfirm,021203H
        ARGFRAME XSTACK, 0, STACK
        LOCFRAME ISTACK, 3, STACK
        LOCFRAME XSTACK, 3, STACK
        PUBLIC MT_AfDataRequest
        FUNCTION MT_AfDataRequest,0a1203H
        ARGFRAME XSTACK, 12, STACK
        ARGFRAME IOVERLAY, 0, STATIC
        ARGFRAME DOVERLAY, 0, STATIC
        LOCFRAME ISTACK, 1, STACK
        LOCFRAME XSTACK, 45, STACK
        PUBLIC MT_AfDataRequestSrcRtg
        FUNCTION MT_AfDataRequestSrcRtg,0a1203H
        ARGFRAME XSTACK, 12, STACK
        ARGFRAME IOVERLAY, 0, STATIC
        ARGFRAME DOVERLAY, 0, STATIC
        LOCFRAME ISTACK, 1, STACK
        LOCFRAME XSTACK, 46, STACK
        FUNCTION MT_AfDataRetrieve,0a1203H
        ARGFRAME XSTACK, 12, STACK
        ARGFRAME IOVERLAY, 0, STATIC
        ARGFRAME DOVERLAY, 0, STATIC
        LOCFRAME ISTACK, 1, STACK
        LOCFRAME XSTACK, 24, STACK
        FUNCTION MT_AfDataStore,0a1203H
        ARGFRAME XSTACK, 12, STACK
        ARGFRAME IOVERLAY, 0, STATIC
        ARGFRAME DOVERLAY, 0, STATIC
        LOCFRAME ISTACK, 1, STACK
        LOCFRAME XSTACK, 21, STACK
        PUBLIC MT_AfExec
        FUNCTION MT_AfExec,021203H
        ARGFRAME XSTACK, 0, STACK
        LOCFRAME XSTACK, 9, STACK
        PUBLIC MT_AfIncomingMsg
        FUNCTION MT_AfIncomingMsg,0a1203H
        ARGFRAME XSTACK, 0, STACK
        LOCFRAME ISTACK, 1, STACK
        LOCFRAME XSTACK, 26, STACK
        PUBLIC MT_AfRegister
        FUNCTION MT_AfRegister,0a1203H
        ARGFRAME XSTACK, 12, STACK
        ARGFRAME IOVERLAY, 0, STATIC
        ARGFRAME DOVERLAY, 0, STATIC
        LOCFRAME ISTACK, 1, STACK
        LOCFRAME XSTACK, 15, STACK
        PUBLIC pMtAfDataReq
        PUBLIC pMtAfInMsgList
        
          CFI Names cfiNames0
          CFI StackFrame CFA_SP SP IDATA
          CFI StackFrame CFA_PSP16 PSP16 XDATA
          CFI StackFrame CFA_XSP16 XSP16 XDATA
          CFI StaticOverlayFrame CFA_IOVERLAY IOVERLAY
          CFI StaticOverlayFrame CFA_DOVERLAY DOVERLAY
          CFI Resource `PSW.CY`:1, `B.BR0`:1, `B.BR1`:1, `B.BR2`:1, `B.BR3`:1
          CFI Resource `B.BR4`:1, `B.BR5`:1, `B.BR6`:1, `B.BR7`:1, `VB.BR8`:1
          CFI Resource `VB.BR9`:1, `VB.BR10`:1, `VB.BR11`:1, `VB.BR12`:1
          CFI Resource `VB.BR13`:1, `VB.BR14`:1, `VB.BR15`:1, VB:8, B:8, A:8
          CFI Resource PSW:8, DPL0:8, DPH0:8, R0:8, R1:8, R2:8, R3:8, R4:8, R5:8
          CFI Resource R6:8, R7:8, V0:8, V1:8, V2:8, V3:8, V4:8, V5:8, V6:8, V7:8
          CFI Resource V8:8, V9:8, V10:8, V11:8, V12:8, V13:8, V14:8, V15:8, SP:8
          CFI Resource PSPH:8, PSPL:8, PSP16:16, XSPH:8, XSPL:8, XSP16:16
          CFI VirtualResource ?RET:24
          CFI Resource ?BRET_EXT:8
          CFI VirtualResource ?RET_HIGH:8, ?RET_LOW:8
          CFI ResourceParts PSP16 PSPH, PSPL
          CFI ResourceParts XSP16 XSPH, XSPL
          CFI ResourceParts ?RET ?BRET_EXT, ?RET_HIGH, ?RET_LOW
          CFI EndNames cfiNames0
        
          CFI Common cfiCommon0 Using cfiNames0
          CFI CodeAlign 1
          CFI DataAlign -1
          CFI ReturnAddress ?RET CODE
          CFI CFA_DOVERLAY Used
          CFI CFA_IOVERLAY Used
          CFI CFA_SP SP+-3
          CFI CFA_PSP16 PSP16+0
          CFI CFA_XSP16 XSP16+0
          CFI `PSW.CY` SameValue
          CFI `B.BR0` SameValue
          CFI `B.BR1` SameValue
          CFI `B.BR2` SameValue
          CFI `B.BR3` SameValue
          CFI `B.BR4` SameValue
          CFI `B.BR5` SameValue
          CFI `B.BR6` SameValue
          CFI `B.BR7` SameValue
          CFI `VB.BR8` SameValue
          CFI `VB.BR9` SameValue
          CFI `VB.BR10` SameValue
          CFI `VB.BR11` SameValue
          CFI `VB.BR12` SameValue
          CFI `VB.BR13` SameValue
          CFI `VB.BR14` SameValue
          CFI `VB.BR15` SameValue
          CFI VB SameValue
          CFI B Undefined
          CFI A Undefined
          CFI PSW SameValue
          CFI DPL0 SameValue
          CFI DPH0 SameValue
          CFI R0 Undefined
          CFI R1 Undefined
          CFI R2 Undefined
          CFI R3 Undefined
          CFI R4 Undefined
          CFI R5 Undefined
          CFI R6 SameValue
          CFI R7 SameValue
          CFI V0 SameValue
          CFI V1 SameValue
          CFI V2 SameValue
          CFI V3 SameValue
          CFI V4 SameValue
          CFI V5 SameValue
          CFI V6 SameValue
          CFI V7 SameValue
          CFI V8 SameValue
          CFI V9 SameValue
          CFI V10 SameValue
          CFI V11 SameValue
          CFI V12 SameValue
          CFI V13 SameValue
          CFI V14 SameValue
          CFI V15 SameValue
          CFI PSPH Undefined
          CFI PSPL Undefined
          CFI XSPH Undefined
          CFI XSPL Undefined
          CFI ?RET Concat
          CFI ?BRET_EXT Frame(CFA_SP, 3)
          CFI ?RET_HIGH Frame(CFA_SP, 2)
          CFI ?RET_LOW Frame(CFA_SP, 1)
          CFI EndCommon cfiCommon0
        
        
          CFI Common cfiCommon1 Using cfiNames0
          CFI CodeAlign 1
          CFI DataAlign -1
          CFI ReturnAddress ?RET CODE
          CFI CFA_DOVERLAY Used
          CFI CFA_IOVERLAY Used
          CFI CFA_SP SP+-2
          CFI CFA_PSP16 PSP16+0
          CFI CFA_XSP16 XSP16+0
          CFI `PSW.CY` SameValue
          CFI `B.BR0` SameValue
          CFI `B.BR1` SameValue
          CFI `B.BR2` SameValue
          CFI `B.BR3` SameValue
          CFI `B.BR4` SameValue
          CFI `B.BR5` SameValue
          CFI `B.BR6` SameValue
          CFI `B.BR7` SameValue
          CFI `VB.BR8` SameValue
          CFI `VB.BR9` SameValue
          CFI `VB.BR10` SameValue
          CFI `VB.BR11` SameValue
          CFI `VB.BR12` SameValue
          CFI `VB.BR13` SameValue
          CFI `VB.BR14` SameValue
          CFI `VB.BR15` SameValue
          CFI VB SameValue
          CFI B SameValue
          CFI A SameValue
          CFI PSW SameValue
          CFI DPL0 SameValue
          CFI DPH0 SameValue
          CFI R0 SameValue
          CFI R1 SameValue
          CFI R2 SameValue
          CFI R3 SameValue
          CFI R4 SameValue
          CFI R5 SameValue
          CFI R6 SameValue
          CFI R7 SameValue
          CFI V0 SameValue
          CFI V1 SameValue
          CFI V2 SameValue
          CFI V3 SameValue
          CFI V4 SameValue
          CFI V5 SameValue
          CFI V6 SameValue
          CFI V7 SameValue
          CFI V8 SameValue
          CFI V9 SameValue
          CFI V10 SameValue
          CFI V11 SameValue
          CFI V12 SameValue
          CFI V13 SameValue
          CFI V14 SameValue
          CFI V15 SameValue
          CFI PSPH Undefined
          CFI PSPL Undefined
          CFI XSPH Undefined
          CFI XSPL Undefined
          CFI ?RET Concat
          CFI ?BRET_EXT SameValue
          CFI ?RET_HIGH Frame(CFA_SP, 2)
          CFI ?RET_LOW Frame(CFA_SP, 1)
          CFI EndCommon cfiCommon1
        
AF_DataRequest      SYMBOL "AF_DataRequest"
??AF_DataRequest?relay SYMBOL "?relay", AF_DataRequest
AF_DataRequestSrcRtg SYMBOL "AF_DataRequestSrcRtg"
??AF_DataRequestSrcRtg?relay SYMBOL "?relay", AF_DataRequestSrcRtg
MT_BuildAndSendZToolResponse SYMBOL "MT_BuildAndSendZToolResponse"
??MT_BuildAndSendZToolResponse?relay SYMBOL "?relay", MT_BuildAndSendZToolResponse
MT_BuildEndpointDesc SYMBOL "MT_BuildEndpointDesc"
??MT_BuildEndpointDesc?relay SYMBOL "?relay", MT_BuildEndpointDesc
afAPSF_ConfigSet    SYMBOL "afAPSF_ConfigSet"
??afAPSF_ConfigSet?relay SYMBOL "?relay", afAPSF_ConfigSet
afFindEndPointDesc  SYMBOL "afFindEndPointDesc"
??afFindEndPointDesc?relay SYMBOL "?relay", afFindEndPointDesc
afRegister          SYMBOL "afRegister"
??afRegister?relay  SYMBOL "?relay", afRegister
osal_mem_alloc      SYMBOL "osal_mem_alloc"
??osal_mem_alloc?relay SYMBOL "?relay", osal_mem_alloc
osal_mem_free       SYMBOL "osal_mem_free"
??osal_mem_free?relay SYMBOL "?relay", osal_mem_free
osal_memcpy         SYMBOL "osal_memcpy"
??osal_memcpy?relay SYMBOL "?relay", osal_memcpy
osal_memset         SYMBOL "osal_memset"
??osal_memset?relay SYMBOL "?relay", osal_memset
osal_set_event      SYMBOL "osal_set_event"
??osal_set_event?relay SYMBOL "?relay", osal_set_event
osal_start_timerEx  SYMBOL "osal_start_timerEx"
??osal_start_timerEx?relay SYMBOL "?relay", osal_start_timerEx
MT_AfCommandProcessing SYMBOL "MT_AfCommandProcessing"
??MT_AfCommandProcessing?relay SYMBOL "?relay", MT_AfCommandProcessing
MT_AfDataConfirm    SYMBOL "MT_AfDataConfirm"
??MT_AfDataConfirm?relay SYMBOL "?relay", MT_AfDataConfirm
MT_AfDataRequest    SYMBOL "MT_AfDataRequest"
??MT_AfDataRequest?relay SYMBOL "?relay", MT_AfDataRequest
MT_AfDataRequestSrcRtg SYMBOL "MT_AfDataRequestSrcRtg"
??MT_AfDataRequestSrcRtg?relay SYMBOL "?relay", MT_AfDataRequestSrcRtg
MT_AfExec           SYMBOL "MT_AfExec"
??MT_AfExec?relay   SYMBOL "?relay", MT_AfExec
MT_AfIncomingMsg    SYMBOL "MT_AfIncomingMsg"
??MT_AfIncomingMsg?relay SYMBOL "?relay", MT_AfIncomingMsg
MT_AfRegister       SYMBOL "MT_AfRegister"
??MT_AfRegister?relay SYMBOL "?relay", MT_AfRegister

        EXTERN ??AF_DataRequest?relay
        FUNCTION ??AF_DataRequest?relay,00H
        EXTERN ??AF_DataRequestSrcRtg?relay
        FUNCTION ??AF_DataRequestSrcRtg?relay,00H
        EXTERN ??MT_BuildAndSendZToolResponse?relay
        FUNCTION ??MT_BuildAndSendZToolResponse?relay,00H
        EXTERN ??MT_BuildEndpointDesc?relay
        FUNCTION ??MT_BuildEndpointDesc?relay,00H
        EXTERN ??afAPSF_ConfigSet?relay
        FUNCTION ??afAPSF_ConfigSet?relay,00H
        EXTERN ??afFindEndPointDesc?relay
        FUNCTION ??afFindEndPointDesc?relay,00H
        EXTERN ??afRegister?relay
        FUNCTION ??afRegister?relay,00H
        EXTERN ??osal_mem_alloc?relay
        FUNCTION ??osal_mem_alloc?relay,00H
        EXTERN ??osal_mem_free?relay
        FUNCTION ??osal_mem_free?relay,00H
        EXTERN ??osal_memcpy?relay
        FUNCTION ??osal_memcpy?relay,00H
        EXTERN ??osal_memset?relay
        FUNCTION ??osal_memset?relay,00H
        EXTERN ??osal_set_event?relay
        FUNCTION ??osal_set_event?relay,00H
        EXTERN ??osal_start_timerEx?relay
        FUNCTION ??osal_start_timerEx?relay,00H
        EXTERN AF_DataRequest
        FUNCTION AF_DataRequest,0202H
        ARGFRAME ISTACK, 0, STACK
        ARGFRAME PSTACK, 0, STACK
        ARGFRAME XSTACK, 45, STACK
        ARGFRAME IOVERLAY, 0, STATIC
        ARGFRAME DOVERLAY, 0, STATIC
        EXTERN AF_DataRequestSrcRtg
        FUNCTION AF_DataRequestSrcRtg,0202H
        ARGFRAME ISTACK, 0, STACK
        ARGFRAME PSTACK, 0, STACK
        ARGFRAME XSTACK, 46, STACK
        ARGFRAME IOVERLAY, 0, STATIC
        ARGFRAME DOVERLAY, 0, STATIC
        EXTERN MT_BuildAndSendZToolResponse
        FUNCTION MT_BuildAndSendZToolResponse,0202H
        ARGFRAME ISTACK, 2, STACK
        ARGFRAME PSTACK, 0, STACK
        ARGFRAME XSTACK, 36, STACK
        ARGFRAME IOVERLAY, 0, STATIC
        ARGFRAME DOVERLAY, 0, STATIC
        EXTERN MT_BuildEndpointDesc
        FUNCTION MT_BuildEndpointDesc,0202H
        ARGFRAME ISTACK, 0, STACK
        ARGFRAME PSTACK, 0, STACK
        ARGFRAME XSTACK, 15, STACK
        ARGFRAME IOVERLAY, 0, STATIC
        ARGFRAME DOVERLAY, 0, STATIC
        EXTERN MT_TaskID
        EXTERN afAPSF_ConfigSet
        FUNCTION afAPSF_ConfigSet,0202H
        ARGFRAME ISTACK, 0, STACK
        ARGFRAME PSTACK, 0, STACK
        ARGFRAME XSTACK, 12, STACK
        ARGFRAME IOVERLAY, 0, STATIC
        ARGFRAME DOVERLAY, 0, STATIC
        EXTERN afFindEndPointDesc
        FUNCTION afFindEndPointDesc,0202H
        ARGFRAME ISTACK, 0, STACK
        ARGFRAME PSTACK, 0, STACK
        ARGFRAME XSTACK, 36, STACK
        ARGFRAME IOVERLAY, 0, STATIC
        ARGFRAME DOVERLAY, 0, STATIC
        EXTERN afRegister
        FUNCTION afRegister,0202H
        ARGFRAME ISTACK, 0, STACK
        ARGFRAME PSTACK, 0, STACK
        ARGFRAME XSTACK, 15, STACK
        ARGFRAME IOVERLAY, 0, STATIC
        ARGFRAME DOVERLAY, 0, STATIC
        EXTERN osal_mem_alloc
        FUNCTION osal_mem_alloc,0202H
        ARGFRAME ISTACK, 0, STACK
        ARGFRAME PSTACK, 0, STACK
        ARGFRAME XSTACK, 36, STACK
        ARGFRAME IOVERLAY, 0, STATIC
        ARGFRAME DOVERLAY, 0, STATIC
        EXTERN osal_mem_free
        FUNCTION osal_mem_free,0202H
        ARGFRAME ISTACK, 0, STACK
        ARGFRAME PSTACK, 0, STACK
        ARGFRAME XSTACK, 34, STACK
        ARGFRAME IOVERLAY, 0, STATIC
        ARGFRAME DOVERLAY, 0, STATIC
        EXTERN osal_memcpy
        FUNCTION osal_memcpy,0202H
        ARGFRAME ISTACK, 0, STACK
        ARGFRAME PSTACK, 0, STACK
        ARGFRAME XSTACK, 39, STACK
        ARGFRAME IOVERLAY, 0, STATIC
        ARGFRAME DOVERLAY, 0, STATIC
        EXTERN osal_memset
        FUNCTION osal_memset,0202H
        ARGFRAME ISTACK, 0, STACK
        ARGFRAME PSTACK, 0, STACK
        ARGFRAME XSTACK, 34, STACK
        ARGFRAME IOVERLAY, 0, STATIC
        ARGFRAME DOVERLAY, 0, STATIC
        EXTERN osal_set_event
        FUNCTION osal_set_event,0202H
        ARGFRAME ISTACK, 0, STACK
        ARGFRAME PSTACK, 0, STACK
        ARGFRAME XSTACK, 36, STACK
        ARGFRAME IOVERLAY, 0, STATIC
        ARGFRAME DOVERLAY, 0, STATIC
        EXTERN osal_start_timerEx
        FUNCTION osal_start_timerEx,0202H
        ARGFRAME ISTACK, 0, STACK
        ARGFRAME PSTACK, 0, STACK
        ARGFRAME XSTACK, 36, STACK
        ARGFRAME IOVERLAY, 0, STATIC
        ARGFRAME DOVERLAY, 0, STATIC

// D:\¼ò±¦É½\ÊÙÏØ17-09-01 25\³ÌÐò\ÎÞÏß½Úµã³ÌÐò\code\Components\mt\MT_AF.c
//    1 /**************************************************************************************************
//    2   Filename:       MT_AF.c
//    3   Revised:        $Date: 2011-05-27 16:00:27 -0700 (Fri, 27 May 2011) $
//    4   Revision:       $Revision: 26145 $
//    5 
//    6 
//    7   Description:    MonitorTest functions for the AF layer.
//    8 
//    9 
//   10   Copyright 2007-2011 Texas Instruments Incorporated. All rights reserved.
//   11 
//   12   IMPORTANT: Your use of this Software is limited to those specific rights
//   13   granted under the terms of a software license agreement between the user
//   14   who downloaded the software, his/her employer (which must be your employer)
//   15   and Texas Instruments Incorporated (the "License").  You may not use this
//   16   Software unless you agree to abide by the terms of the License. The License
//   17   limits your use, and you acknowledge, that the Software may not be modified,
//   18   copied or distributed unless embedded on a Texas Instruments microcontroller
//   19   or used solely and exclusively in conjunction with a Texas Instruments radio
//   20   frequency transceiver, which is integrated into your product.  Other than for
//   21   the foregoing purpose, you may not use, reproduce, copy, prepare derivative
//   22   works of, modify, distribute, perform, display or sell this Software and/or
//   23   its documentation for any purpose.
//   24 
//   25   YOU FURTHER ACKNOWLEDGE AND AGREE THAT THE SOFTWARE AND DOCUMENTATION ARE
//   26   PROVIDED “AS IS” WITHOUT WARRANTY OF ANY KIND, EITHER EXPRESS OR IMPLIED,
//   27   INCLUDING WITHOUT LIMITATION, ANY WARRANTY OF MERCHANTABILITY, TITLE,
//   28   NON-INFRINGEMENT AND FITNESS FOR A PARTICULAR PURPOSE. IN NO EVENT SHALL
//   29   TEXAS INSTRUMENTS OR ITS LICENSORS BE LIABLE OR OBLIGATED UNDER CONTRACT,
//   30   NEGLIGENCE, STRICT LIABILITY, CONTRIBUTION, BREACH OF WARRANTY, OR OTHER
//   31   LEGAL EQUITABLE THEORY ANY DIRECT OR INDIRECT DAMAGES OR EXPENSES
//   32   INCLUDING BUT NOT LIMITED TO ANY INCIDENTAL, SPECIAL, INDIRECT, PUNITIVE
//   33   OR CONSEQUENTIAL DAMAGES, LOST PROFITS OR LOST DATA, COST OF PROCUREMENT
//   34   OF SUBSTITUTE GOODS, TECHNOLOGY, SERVICES, OR ANY CLAIMS BY THIRD PARTIES
//   35   (INCLUDING BUT NOT LIMITED TO ANY DEFENSE THEREOF), OR OTHER SIMILAR COSTS.
//   36 
//   37   Should you have any questions regarding your right to use this Software,
//   38   contact Texas Instruments Incorporated at www.TI.com.
//   39 
//   40 **************************************************************************************************/
//   41 
//   42 /* ------------------------------------------------------------------------------------------------
//   43  *                                          Includes
//   44  * ------------------------------------------------------------------------------------------------
//   45  */
//   46 #include "ZComDef.h"
//   47 #include "OSAL.h"
//   48 #include "MT.h"
//   49 #include "MT_AF.h"
//   50 #include "MT_ZDO.h"
//   51 #include "nwk.h"
//   52 #include "OnBoard.h"
//   53 #include "MT_UART.h"
//   54 
//   55 #if defined INTER_PAN
//   56 #include "stub_aps.h"
//   57 #endif
//   58 
//   59 /* ------------------------------------------------------------------------------------------------
//   60  *                                          Constants
//   61  * ------------------------------------------------------------------------------------------------
//   62  */
//   63 
//   64 #if !defined MT_AF_EXEC_CNT
//   65 #define MT_AF_EXEC_CNT  15
//   66 #endif
//   67 
//   68 #if !defined MT_AF_EXEC_DLY
//   69 #define MT_AF_EXEC_DLY  1000
//   70 #endif
//   71 
//   72 /* ------------------------------------------------------------------------------------------------
//   73  *                                           Typedefs
//   74  * ------------------------------------------------------------------------------------------------
//   75  */
//   76 
//   77 typedef struct
//   78 {
//   79   uint8 *data;
//   80   afAddrType_t dstAddr;
//   81   endPointDesc_t *epDesc;
//   82   uint16 cId;
//   83   uint16 dataLen;
//   84   uint8 transId;
//   85   uint8 txOpts;
//   86   uint8 radius;
//   87   uint8 tick;
//   88 } mtAfDataReq_t;
//   89 
//   90 typedef struct _mtAfInMsgList_t
//   91 {
//   92   struct _mtAfInMsgList_t *next;
//   93   uint8 *data;
//   94   uint32 timestamp;         // Receipt timestamp from MAC.
//   95   uint8 tick;
//   96 } mtAfInMsgList_t;
//   97 
//   98 /* ------------------------------------------------------------------------------------------------
//   99  *                                        Local Variables
//  100  * ------------------------------------------------------------------------------------------------
//  101  */
//  102 

        RSEG XDATA_Z:XDATA:NOROOT(0)
        DATA16
//  103 mtAfInMsgList_t *pMtAfInMsgList = NULL;
pMtAfInMsgList:
        DS 2
        REQUIRE __INIT_XDATA_Z

        RSEG XDATA_Z:XDATA:NOROOT(0)
        DATA16
//  104 mtAfDataReq_t *pMtAfDataReq = NULL;
pMtAfDataReq:
        DS 2
        REQUIRE __INIT_XDATA_Z
//  105 
//  106 /* ------------------------------------------------------------------------------------------------
//  107  *                                        Global Variables
//  108  * ------------------------------------------------------------------------------------------------
//  109  */
//  110 
//  111 #if defined ( MT_AF_CB_FUNC )
//  112 uint16 _afCallbackSub;
//  113 #endif
//  114 
//  115 /* ------------------------------------------------------------------------------------------------
//  116  *                                        Local Functions
//  117  * ------------------------------------------------------------------------------------------------
//  118  */
//  119 
//  120 void MT_AfRegister(uint8 *pBuf);
//  121 void MT_AfDataRequest(uint8 *pBuf);
//  122 
//  123 #if defined ( ZIGBEE_SOURCE_ROUTING )
//  124 void MT_AfDataRequestSrcRtg(uint8 *pBuf);
//  125 #endif
//  126 
//  127 #if defined INTER_PAN
//  128 static void MT_AfInterPanCtl(uint8 *pBuf);
//  129 #endif
//  130 
//  131 static void MT_AfDataRetrieve(uint8 *pBuf);
//  132 static void MT_AfDataStore(uint8 *pBuf);
//  133 static void MT_AfAPSF_ConfigSet(uint8 *pBuf);
//  134 
//  135 /**************************************************************************************************
//  136  * @fn          MT_AfExec
//  137  *
//  138  * @brief       This function is invoked by an MT timer event.
//  139  *
//  140  * input parameters
//  141  *
//  142  * None.
//  143  *
//  144  * output parameters
//  145  *
//  146  * None.
//  147  *
//  148  * @return      None.
//  149  **************************************************************************************************
//  150  */

        RSEG BANKED_CODE:CODE:NOROOT(0)
//  151 void MT_AfExec(void)
MT_AfExec:
          CFI Block cfiBlock0 Using cfiCommon0
          CFI Function MT_AfExec
        CODE
//  152 {
        FUNCALL MT_AfExec, osal_mem_free
        LOCFRAME ISTACK, 0, STACK
        LOCFRAME PSTACK, 0, STACK
        LOCFRAME XSTACK, 9, STACK
        LOCFRAME IOVERLAY, 0, STATIC
        LOCFRAME DOVERLAY, 0, STATIC
        ARGFRAME ISTACK, 0, STACK
        ARGFRAME PSTACK, 0, STACK
        ARGFRAME XSTACK, 9, STACK
        ARGFRAME IOVERLAY, 0, STATIC
        ARGFRAME DOVERLAY, 0, STATIC
        FUNCALL MT_AfExec, osal_mem_free
        LOCFRAME ISTACK, 0, STACK
        LOCFRAME PSTACK, 0, STACK
        LOCFRAME XSTACK, 9, STACK
        LOCFRAME IOVERLAY, 0, STATIC
        LOCFRAME DOVERLAY, 0, STATIC
        ARGFRAME ISTACK, 0, STACK
        ARGFRAME PSTACK, 0, STACK
        ARGFRAME XSTACK, 9, STACK
        ARGFRAME IOVERLAY, 0, STATIC
        ARGFRAME DOVERLAY, 0, STATIC
        FUNCALL MT_AfExec, osal_mem_free
        LOCFRAME ISTACK, 0, STACK
        LOCFRAME PSTACK, 0, STACK
        LOCFRAME XSTACK, 9, STACK
        LOCFRAME IOVERLAY, 0, STATIC
        LOCFRAME DOVERLAY, 0, STATIC
        ARGFRAME ISTACK, 0, STACK
        ARGFRAME PSTACK, 0, STACK
        ARGFRAME XSTACK, 9, STACK
        ARGFRAME IOVERLAY, 0, STATIC
        ARGFRAME DOVERLAY, 0, STATIC
        FUNCALL MT_AfExec, osal_start_timerEx
        LOCFRAME ISTACK, 0, STACK
        LOCFRAME PSTACK, 0, STACK
        LOCFRAME XSTACK, 9, STACK
        LOCFRAME IOVERLAY, 0, STATIC
        LOCFRAME DOVERLAY, 0, STATIC
        ARGFRAME ISTACK, 0, STACK
        ARGFRAME PSTACK, 0, STACK
        ARGFRAME XSTACK, 9, STACK
        ARGFRAME IOVERLAY, 0, STATIC
        ARGFRAME DOVERLAY, 0, STATIC
        FUNCALL MT_AfExec, osal_set_event
        LOCFRAME ISTACK, 0, STACK
        LOCFRAME PSTACK, 0, STACK
        LOCFRAME XSTACK, 9, STACK
        LOCFRAME IOVERLAY, 0, STATIC
        LOCFRAME DOVERLAY, 0, STATIC
        ARGFRAME ISTACK, 0, STACK
        ARGFRAME PSTACK, 0, STACK
        ARGFRAME XSTACK, 9, STACK
        ARGFRAME IOVERLAY, 0, STATIC
        ARGFRAME DOVERLAY, 0, STATIC
        MOV     A,#-0x9
        LCALL   ?BANKED_ENTER_XDATA
          CFI R6 load(1, XDATA, add(CFA_XSP16, literal(-9)))
          CFI VB load(1, XDATA, add(CFA_XSP16, literal(-8)))
          CFI V0 load(1, XDATA, add(CFA_XSP16, literal(-7)))
          CFI R7 load(1, XDATA, add(CFA_XSP16, literal(-6)))
          CFI ?RET_LOW load(1, XDATA, add(CFA_XSP16, literal(-5)))
          CFI ?RET_HIGH load(1, XDATA, add(CFA_XSP16, literal(-4)))
          CFI ?BRET_EXT load(1, XDATA, add(CFA_XSP16, literal(-3)))
          CFI DPL0 load(1, XDATA, add(CFA_XSP16, literal(-2)))
          CFI DPH0 load(1, XDATA, add(CFA_XSP16, literal(-1)))
          CFI CFA_SP SP+0
          CFI CFA_XSP16 add(XSP16, 9)
        ; Saved register size: 9
        ; Auto size: 0
//  153   mtAfInMsgList_t *pPrev, *pItem = pMtAfInMsgList;
??MT_AfExec_0:
        MOV     DPTR,#pMtAfInMsgList
        SJMP    ??MT_AfExec_1
//  154 
//  155   while (pItem != NULL)
//  156   {
//  157     if (--(pItem->tick) == 0)
//  158     {
//  159       if (pMtAfInMsgList == pItem)
//  160       {
//  161         pMtAfInMsgList = pItem->next;
//  162         (void)osal_mem_free(pItem);
//  163         pItem = pMtAfInMsgList;
//  164       }
//  165       else
//  166       {
//  167         pPrev->next = pItem->next;
//  168         (void)osal_mem_free(pItem);
//  169         pItem = pPrev->next;
//  170       }
//  171     }
//  172     else
//  173     {
//  174       pPrev = pItem;
??MT_AfExec_2:
        MOV     A,R2
        MOV     R6,A
        MOV     A,R3
        MOV     R7,A
//  175       pItem = pItem->next;
        MOV     DPL,R2
        MOV     DPH,R3
//  176     }
??MT_AfExec_1:
        LCALL   ??Subroutine42_0 & 0xFFFF
??CrossCallReturnLabel_92:
        MOV     A,R2
        ORL     A,R3
        JZ      ??MT_AfExec_3
        MOV     A,R2
        ADD     A,#0x8
        MOV     DPL,A
        CLR     A
        ADDC    A,R3
        MOV     DPH,A
        MOVX    A,@DPTR
        DEC     A
        MOVX    @DPTR,A
        JNZ     ??MT_AfExec_2
        LCALL   ?Subroutine21 & 0xFFFF
??CrossCallReturnLabel_109:
        MOV     A,R2
        XRL     A,R0
        JNZ     ??MT_AfExec_4
        MOV     A,R3
        XRL     A,R1
??MT_AfExec_4:
        MOV     DPL,R2
        MOV     DPH,R3
        JNZ     ??MT_AfExec_5
        LCALL   ?Subroutine20 & 0xFFFF
??CrossCallReturnLabel_33:
        LCALL   ?Subroutine27 & 0xFFFF
??CrossCallReturnLabel_46:
        ; Setup parameters for call to function osal_mem_free
        LCALL   ??osal_mem_free?relay; Banked call to: osal_mem_free
        SJMP    ??MT_AfExec_0
??MT_AfExec_5:
        LCALL   ??Subroutine44_0 & 0xFFFF
??CrossCallReturnLabel_107:
        MOV     DPL,R6
        MOV     DPH,R7
        LCALL   ?Subroutine27 & 0xFFFF
??CrossCallReturnLabel_47:
        ; Setup parameters for call to function osal_mem_free
        LCALL   ??osal_mem_free?relay; Banked call to: osal_mem_free
        MOV     DPL,R6
        MOV     DPH,R7
        SJMP    ??MT_AfExec_1
//  177   }
//  178 
//  179   if (pMtAfDataReq != NULL)
??MT_AfExec_3:
        LCALL   ?Subroutine2 & 0xFFFF
??CrossCallReturnLabel_82:
        JZ      ??MT_AfExec_6
//  180   {
//  181     if (--(pMtAfDataReq->tick) == 0)
        MOVX    A,@DPTR
        XCH     A,R0
        LCALL   ?Subroutine36 & 0xFFFF
??CrossCallReturnLabel_72:
        MOVX    A,@DPTR
        DEC     A
        LCALL   ?Subroutine7 & 0xFFFF
??CrossCallReturnLabel_10:
        MOVX    A,@DPTR
        JNZ     ??MT_AfExec_6
//  182     {
//  183       (void)osal_mem_free(pMtAfDataReq);
        ; Setup parameters for call to function osal_mem_free
        LCALL   ?Subroutine15 & 0xFFFF
??CrossCallReturnLabel_94:
        LCALL   ??osal_mem_free?relay; Banked call to: osal_mem_free
//  184       pMtAfDataReq = NULL;
        MOV     DPTR,#pMtAfDataReq
        CLR     A
        MOVX    @DPTR,A
        INC     DPTR
        MOVX    @DPTR,A
//  185     }
//  186   }
//  187 
//  188   if ((pMtAfInMsgList != NULL) || (pMtAfDataReq != NULL))
??MT_AfExec_6:
        MOV     DPTR,#pMtAfInMsgList
        LCALL   ??Subroutine40_0 & 0xFFFF
??CrossCallReturnLabel_81:
        JNZ     ??MT_AfExec_7
        LCALL   ?Subroutine2 & 0xFFFF
??CrossCallReturnLabel_83:
        JZ      ??MT_AfExec_8
//  189   {
//  190     if (ZSuccess != osal_start_timerEx(MT_TaskID, MT_AF_EXEC_EVT, MT_AF_EXEC_DLY))
??MT_AfExec_7:
        ; Setup parameters for call to function osal_start_timerEx
        MOV     R4,#-0x18
        MOV     R5,#0x3
        MOV     R2,#0x8
        MOV     R3,#0x0
        MOV     DPTR,#MT_TaskID
        MOVX    A,@DPTR
        MOV     R1,A
        LCALL   ??osal_start_timerEx?relay; Banked call to: osal_start_timerEx
        MOV     A,R1
        JZ      ??MT_AfExec_8
//  191     {
//  192       osal_set_event(MT_TaskID, MT_AF_EXEC_EVT);
        ; Setup parameters for call to function osal_set_event
        MOV     R2,#0x8
        MOV     R3,#0x0
        MOV     DPTR,#MT_TaskID
        MOVX    A,@DPTR
        MOV     R1,A
        LCALL   ??osal_set_event?relay; Banked call to: osal_set_event
          CFI EndBlock cfiBlock0
//  193     }
//  194   }
//  195 }
??MT_AfExec_8:
        REQUIRE ?Subroutine0
        ; // Fall through to label ?Subroutine0

        RSEG BANKED_CODE:CODE:NOROOT(0)
?Subroutine0:
          CFI Block cfiBlock1 Using cfiCommon0
          CFI NoFunction
          CFI CFA_SP SP+0
          CFI CFA_XSP16 add(XSP16, 9)
          CFI VB load(1, XDATA, add(CFA_XSP16, literal(-8)))
          CFI DPL0 load(1, XDATA, add(CFA_XSP16, literal(-2)))
          CFI DPH0 load(1, XDATA, add(CFA_XSP16, literal(-1)))
          CFI R6 load(1, XDATA, add(CFA_XSP16, literal(-9)))
          CFI R7 load(1, XDATA, add(CFA_XSP16, literal(-6)))
          CFI V0 load(1, XDATA, add(CFA_XSP16, literal(-7)))
          CFI ?BRET_EXT load(1, XDATA, add(CFA_XSP16, literal(-3)))
          CFI ?RET_HIGH load(1, XDATA, add(CFA_XSP16, literal(-4)))
          CFI ?RET_LOW load(1, XDATA, add(CFA_XSP16, literal(-5)))
        MOV     R7,#0x1
        LJMP    ?BANKED_LEAVE_XDATA
          CFI EndBlock cfiBlock1
//  196 
//  197 /***************************************************************************************************
//  198  * @fn      MT_AfCommandProcessing
//  199  *
//  200  * @brief   Process all the AF commands that are issued by test tool
//  201  *
//  202  * @param   pBuf - pointer to the received buffer
//  203  *
//  204  * @return  status
//  205  ***************************************************************************************************/

        RSEG BANKED_CODE:CODE:NOROOT(0)
//  206 uint8 MT_AfCommandProcessing(uint8 *pBuf)
MT_AfCommandProcessing:
          CFI Block cfiBlock2 Using cfiCommon0
          CFI Function MT_AfCommandProcessing
        CODE
//  207 {
        FUNCALL MT_AfCommandProcessing, MT_AfRegister
        LOCFRAME ISTACK, 0, STACK
        LOCFRAME PSTACK, 0, STACK
        LOCFRAME XSTACK, 12, STACK
        LOCFRAME IOVERLAY, 0, STATIC
        LOCFRAME DOVERLAY, 0, STATIC
        ARGFRAME ISTACK, 0, STACK
        ARGFRAME PSTACK, 0, STACK
        ARGFRAME XSTACK, 12, STACK
        ARGFRAME IOVERLAY, 0, STATIC
        ARGFRAME DOVERLAY, 0, STATIC
        FUNCALL MT_AfCommandProcessing, MT_AfDataRequest
        LOCFRAME ISTACK, 0, STACK
        LOCFRAME PSTACK, 0, STACK
        LOCFRAME XSTACK, 12, STACK
        LOCFRAME IOVERLAY, 0, STATIC
        LOCFRAME DOVERLAY, 0, STATIC
        ARGFRAME ISTACK, 0, STACK
        ARGFRAME PSTACK, 0, STACK
        ARGFRAME XSTACK, 12, STACK
        ARGFRAME IOVERLAY, 0, STATIC
        ARGFRAME DOVERLAY, 0, STATIC
        FUNCALL MT_AfCommandProcessing, MT_AfDataRequestSrcRtg
        LOCFRAME ISTACK, 0, STACK
        LOCFRAME PSTACK, 0, STACK
        LOCFRAME XSTACK, 12, STACK
        LOCFRAME IOVERLAY, 0, STATIC
        LOCFRAME DOVERLAY, 0, STATIC
        ARGFRAME ISTACK, 0, STACK
        ARGFRAME PSTACK, 0, STACK
        ARGFRAME XSTACK, 12, STACK
        ARGFRAME IOVERLAY, 0, STATIC
        ARGFRAME DOVERLAY, 0, STATIC
        FUNCALL MT_AfCommandProcessing, MT_AfDataRetrieve
        LOCFRAME ISTACK, 0, STACK
        LOCFRAME PSTACK, 0, STACK
        LOCFRAME XSTACK, 12, STACK
        LOCFRAME IOVERLAY, 0, STATIC
        LOCFRAME DOVERLAY, 0, STATIC
        ARGFRAME ISTACK, 0, STACK
        ARGFRAME PSTACK, 0, STACK
        ARGFRAME XSTACK, 12, STACK
        ARGFRAME IOVERLAY, 0, STATIC
        ARGFRAME DOVERLAY, 0, STATIC
        FUNCALL MT_AfCommandProcessing, MT_AfDataStore
        LOCFRAME ISTACK, 0, STACK
        LOCFRAME PSTACK, 0, STACK
        LOCFRAME XSTACK, 12, STACK
        LOCFRAME IOVERLAY, 0, STATIC
        LOCFRAME DOVERLAY, 0, STATIC
        ARGFRAME ISTACK, 0, STACK
        ARGFRAME PSTACK, 0, STACK
        ARGFRAME XSTACK, 12, STACK
        ARGFRAME IOVERLAY, 0, STATIC
        ARGFRAME DOVERLAY, 0, STATIC
        FUNCALL MT_AfCommandProcessing, afAPSF_ConfigSet
        LOCFRAME ISTACK, 0, STACK
        LOCFRAME PSTACK, 0, STACK
        LOCFRAME XSTACK, 12, STACK
        LOCFRAME IOVERLAY, 0, STATIC
        LOCFRAME DOVERLAY, 0, STATIC
        ARGFRAME ISTACK, 0, STACK
        ARGFRAME PSTACK, 0, STACK
        ARGFRAME XSTACK, 12, STACK
        ARGFRAME IOVERLAY, 0, STATIC
        ARGFRAME DOVERLAY, 0, STATIC
        FUNCALL MT_AfCommandProcessing, MT_BuildAndSendZToolResponse
        LOCFRAME ISTACK, 0, STACK
        LOCFRAME PSTACK, 0, STACK
        LOCFRAME XSTACK, 12, STACK
        LOCFRAME IOVERLAY, 0, STATIC
        LOCFRAME DOVERLAY, 0, STATIC
        ARGFRAME ISTACK, 0, STACK
        ARGFRAME PSTACK, 0, STACK
        ARGFRAME XSTACK, 12, STACK
        ARGFRAME IOVERLAY, 0, STATIC
        ARGFRAME DOVERLAY, 0, STATIC
        MOV     A,#-0x9
        LCALL   ?BANKED_ENTER_XDATA
          CFI DPH0 load(1, XDATA, add(CFA_XSP16, literal(-1)))
          CFI DPL0 load(1, XDATA, add(CFA_XSP16, literal(-2)))
          CFI ?BRET_EXT load(1, XDATA, add(CFA_XSP16, literal(-3)))
          CFI ?RET_HIGH load(1, XDATA, add(CFA_XSP16, literal(-4)))
          CFI ?RET_LOW load(1, XDATA, add(CFA_XSP16, literal(-5)))
          CFI R7 load(1, XDATA, add(CFA_XSP16, literal(-6)))
          CFI V0 load(1, XDATA, add(CFA_XSP16, literal(-7)))
          CFI VB load(1, XDATA, add(CFA_XSP16, literal(-8)))
          CFI R6 load(1, XDATA, add(CFA_XSP16, literal(-9)))
          CFI CFA_SP SP+0
          CFI CFA_XSP16 add(XSP16, 9)
        ; Saved register size: 9
        ; Auto size: 3
        MOV     A,#-0x3
        LCALL   ?ALLOC_XSTACK8
          CFI CFA_XSP16 add(XSP16, 12)
        MOV     A,R2
        MOV     R0,A
        MOV     A,R3
        MOV     R1,A
//  208   uint8 status = MT_RPC_SUCCESS;
        MOV     R6,#0x0
//  209 
//  210   switch (pBuf[MT_RPC_POS_CMD1])
        MOV     DPL,R0
        MOV     DPH,R1
        INC     DPTR
        INC     DPTR
        MOVX    A,@DPTR
        JZ      ??MT_AfCommandProcessing_0
        DEC     A
        JZ      ??MT_AfCommandProcessing_1
        DEC     A
        JZ      ??MT_AfCommandProcessing_1
        DEC     A
        JZ      ??MT_AfCommandProcessing_2
        ADD     A,#-0xe
        JZ      ??MT_AfCommandProcessing_3
        DEC     A
        JZ      ??MT_AfCommandProcessing_4
        DEC     A
        JZ      ??MT_AfCommandProcessing_5
        SJMP    ??MT_AfCommandProcessing_6
//  211   {
//  212     case MT_AF_REGISTER:
//  213       MT_AfRegister(pBuf);
??MT_AfCommandProcessing_0:
        ; Setup parameters for call to function MT_AfRegister
        LCALL   ??MT_AfRegister?relay; Banked call to: MT_AfRegister
//  214       break;
        SJMP    ??MT_AfCommandProcessing_7
//  215 
//  216     case MT_AF_DATA_REQUEST:
//  217     case MT_AF_DATA_REQUEST_EXT:
//  218       MT_AfDataRequest(pBuf);
??MT_AfCommandProcessing_1:
        ; Setup parameters for call to function MT_AfDataRequest
        LCALL   ??MT_AfDataRequest?relay; Banked call to: MT_AfDataRequest
//  219       break;
        SJMP    ??MT_AfCommandProcessing_7
//  220 
//  221 #if defined ( ZIGBEE_SOURCE_ROUTING )
//  222     case MT_AF_DATA_REQUEST_SRCRTG:
//  223       MT_AfDataRequestSrcRtg(pBuf);
??MT_AfCommandProcessing_2:
        ; Setup parameters for call to function MT_AfDataRequestSrcRtg
        LCALL   ??MT_AfDataRequestSrcRtg?relay; Banked call to: MT_AfDataRequestSrcRtg
//  224       break;
        SJMP    ??MT_AfCommandProcessing_7
//  225 #endif
//  226 
//  227 #if defined INTER_PAN
//  228     case MT_AF_INTER_PAN_CTL:
//  229       MT_AfInterPanCtl(pBuf);
//  230       break;
//  231 #endif
//  232 
//  233     case MT_AF_DATA_RETRIEVE:
//  234       MT_AfDataRetrieve(pBuf);
??MT_AfCommandProcessing_4:
        ; Setup parameters for call to function MT_AfDataRetrieve
        LCALL   ??MT_AfDataRetrieve?relay; Banked call to: MT_AfDataRetrieve
//  235       break;
        SJMP    ??MT_AfCommandProcessing_7
//  236 
//  237     case MT_AF_DATA_STORE:
//  238       MT_AfDataStore(pBuf);
??MT_AfCommandProcessing_3:
        ; Setup parameters for call to function MT_AfDataStore
        LCALL   ??MT_AfDataStore?relay; Banked call to: MT_AfDataStore
//  239       break;
        SJMP    ??MT_AfCommandProcessing_7
//  240 
//  241     case MT_AF_APSF_CONFIG_SET:
//  242       MT_AfAPSF_ConfigSet(pBuf);
??MT_AfCommandProcessing_5:
        MOV     DPL,R0
        MOV     DPH,R1
        INC     DPTR
        INC     DPTR
        INC     DPTR
        INC     DPTR
        MOVX    A,@DPTR
        PUSH    A
          CFI CFA_SP SP+-1
        MOV     A,#0x1
        LCALL   ?XSTACK_DISP0_8
        POP     A
          CFI CFA_SP SP+0
        MOVX    @DPTR,A
        MOV     DPL,R0
        MOV     DPH,R1
        INC     DPTR
        INC     DPTR
        INC     DPTR
        INC     DPTR
        INC     DPTR
        MOVX    A,@DPTR
        PUSH    A
          CFI CFA_SP SP+-1
        MOV     A,#0x2
        LCALL   ?XSTACK_DISP0_8
        POP     A
          CFI CFA_SP SP+0
        MOVX    @DPTR,A
        ; Setup parameters for call to function afAPSF_ConfigSet
        MOV     A,#0x1
        LCALL   ?XSTACK_DISP101_8
        MOV     DPL,R0
        MOV     DPH,R1
        INC     DPTR
        INC     DPTR
        INC     DPTR
        MOVX    A,@DPTR
        MOV     R1,A
        LCALL   ??afAPSF_ConfigSet?relay; Banked call to: afAPSF_ConfigSet
        MOV     A,R1
        MOV     DPL,?XSP + 0
        MOV     DPH,?XSP + 1
        MOVX    @DPTR,A
        ; Setup parameters for call to function MT_BuildAndSendZToolResponse
        MOV     R4,?XSP + 0
        MOV     R5,?XSP + 1
        MOV     R3,#0x1
        MOV     R2,#0x13
        MOV     R1,#0x64
        LCALL   ??MT_BuildAndSendZToolResponse?relay; Banked call to: MT_BuildAndSendZToolResponse
//  243       break;
        SJMP    ??MT_AfCommandProcessing_7
//  244 
//  245     default:
//  246       status = MT_RPC_ERR_COMMAND_ID;
??MT_AfCommandProcessing_6:
        INC     R6
        INC     R6
//  247       break;
//  248   }
//  249 
//  250   return status;
??MT_AfCommandProcessing_7:
        MOV     A,R6
        MOV     R1,A
        MOV     A,#0x3
        LCALL   ?DEALLOC_XSTACK8
          CFI CFA_XSP16 add(XSP16, 9)
        LJMP    ?Subroutine0 & 0xFFFF
          CFI EndBlock cfiBlock2
//  251 }
//  252 
//  253 /***************************************************************************************************
//  254  * @fn      MT_AfRegister
//  255  *
//  256  * @brief   Process AF Register command
//  257  *
//  258  * @param   pBuf - pointer to the received buffer
//  259  *
//  260  * @return  none
//  261  ***************************************************************************************************/

        RSEG BANKED_CODE:CODE:NOROOT(0)
//  262 void MT_AfRegister(uint8 *pBuf)
MT_AfRegister:
          CFI Block cfiBlock3 Using cfiCommon0
          CFI Function MT_AfRegister
        CODE
//  263 {
        FUNCALL MT_AfRegister, osal_mem_alloc
        LOCFRAME ISTACK, 0, STACK
        LOCFRAME PSTACK, 0, STACK
        LOCFRAME XSTACK, 15, STACK
        LOCFRAME IOVERLAY, 0, STATIC
        LOCFRAME DOVERLAY, 0, STATIC
        ARGFRAME ISTACK, 0, STACK
        ARGFRAME PSTACK, 0, STACK
        ARGFRAME XSTACK, 15, STACK
        ARGFRAME IOVERLAY, 0, STATIC
        ARGFRAME DOVERLAY, 0, STATIC
        FUNCALL MT_AfRegister, MT_BuildEndpointDesc
        LOCFRAME ISTACK, 0, STACK
        LOCFRAME PSTACK, 0, STACK
        LOCFRAME XSTACK, 15, STACK
        LOCFRAME IOVERLAY, 0, STATIC
        LOCFRAME DOVERLAY, 0, STATIC
        ARGFRAME ISTACK, 0, STACK
        ARGFRAME PSTACK, 0, STACK
        ARGFRAME XSTACK, 15, STACK
        ARGFRAME IOVERLAY, 0, STATIC
        ARGFRAME DOVERLAY, 0, STATIC
        FUNCALL MT_AfRegister, afRegister
        LOCFRAME ISTACK, 0, STACK
        LOCFRAME PSTACK, 0, STACK
        LOCFRAME XSTACK, 15, STACK
        LOCFRAME IOVERLAY, 0, STATIC
        LOCFRAME DOVERLAY, 0, STATIC
        ARGFRAME ISTACK, 0, STACK
        ARGFRAME PSTACK, 0, STACK
        ARGFRAME XSTACK, 15, STACK
        ARGFRAME IOVERLAY, 0, STATIC
        ARGFRAME DOVERLAY, 0, STATIC
        FUNCALL MT_AfRegister, osal_mem_free
        LOCFRAME ISTACK, 0, STACK
        LOCFRAME PSTACK, 0, STACK
        LOCFRAME XSTACK, 15, STACK
        LOCFRAME IOVERLAY, 0, STATIC
        LOCFRAME DOVERLAY, 0, STATIC
        ARGFRAME ISTACK, 0, STACK
        ARGFRAME PSTACK, 0, STACK
        ARGFRAME XSTACK, 15, STACK
        ARGFRAME IOVERLAY, 0, STATIC
        ARGFRAME DOVERLAY, 0, STATIC
        FUNCALL MT_AfRegister, MT_BuildAndSendZToolResponse
        LOCFRAME ISTACK, 0, STACK
        LOCFRAME PSTACK, 0, STACK
        LOCFRAME XSTACK, 15, STACK
        LOCFRAME IOVERLAY, 0, STATIC
        LOCFRAME DOVERLAY, 0, STATIC
        ARGFRAME ISTACK, 0, STACK
        ARGFRAME PSTACK, 0, STACK
        ARGFRAME XSTACK, 15, STACK
        ARGFRAME IOVERLAY, 0, STATIC
        ARGFRAME DOVERLAY, 0, STATIC
        REQUIRE ?V0
        REQUIRE ?V1
        REQUIRE ?V2
        REQUIRE ?V4
        REQUIRE ?V5
        MOV     A,#-0xe
        LCALL   ?BANKED_ENTER_XDATA
          CFI DPH0 load(1, XDATA, add(CFA_XSP16, literal(-1)))
          CFI DPL0 load(1, XDATA, add(CFA_XSP16, literal(-2)))
          CFI ?BRET_EXT load(1, XDATA, add(CFA_XSP16, literal(-3)))
          CFI ?RET_HIGH load(1, XDATA, add(CFA_XSP16, literal(-4)))
          CFI ?RET_LOW load(1, XDATA, add(CFA_XSP16, literal(-5)))
          CFI R7 load(1, XDATA, add(CFA_XSP16, literal(-6)))
          CFI V5 load(1, XDATA, add(CFA_XSP16, literal(-7)))
          CFI V4 load(1, XDATA, add(CFA_XSP16, literal(-8)))
          CFI V3 load(1, XDATA, add(CFA_XSP16, literal(-9)))
          CFI V2 load(1, XDATA, add(CFA_XSP16, literal(-10)))
          CFI V1 load(1, XDATA, add(CFA_XSP16, literal(-11)))
          CFI V0 load(1, XDATA, add(CFA_XSP16, literal(-12)))
          CFI VB load(1, XDATA, add(CFA_XSP16, literal(-13)))
          CFI R6 load(1, XDATA, add(CFA_XSP16, literal(-14)))
          CFI CFA_SP SP+0
          CFI CFA_XSP16 add(XSP16, 14)
        ; Saved register size: 14
        ; Auto size: 1
        MOV     A,#-0x1
        LCALL   ?ALLOC_XSTACK8
          CFI CFA_XSP16 add(XSP16, 15)
        MOV     ?V0,R2
        MOV     ?V1,R3
//  264   uint8 cmdId;
//  265   uint8 retValue = ZMemError;
        MOV     DPL,?XSP + 0
        MOV     DPH,?XSP + 1
        MOV     A,#0x10
        LCALL   ?Subroutine29 & 0xFFFF
//  266   endPointDesc_t *epDesc;
//  267 
//  268   /* parse header */
//  269   cmdId = pBuf[MT_RPC_POS_CMD1];
??CrossCallReturnLabel_56:
        MOV     ?V2,A
//  270   pBuf += MT_RPC_FRAME_HDR_SZ;
//  271 
//  272   epDesc = (endPointDesc_t *)osal_mem_alloc(sizeof(endPointDesc_t));
        ; Setup parameters for call to function osal_mem_alloc
        MOV     R2,#0x6
        MOV     R3,#0x0
        LCALL   ??osal_mem_alloc?relay; Banked call to: osal_mem_alloc
        MOV     ?V4,R2
        MOV     ?V5,R3
        MOV     R6,?V4
        MOV     R7,?V5
//  273   if ( epDesc )
        MOV     A,R6
        ORL     A,R7
        JZ      ??MT_AfRegister_0
//  274   {
//  275     epDesc->task_id = &MT_TaskID;
        MOV     DPL,R6
        MOV     DPH,R7
        INC     DPTR
        MOV     A,#MT_TaskID & 0xff
        MOVX    @DPTR,A
        INC     DPTR
        MOV     A,#(MT_TaskID >> 8) & 0xff
        MOVX    @DPTR,A
//  276     retValue = MT_BuildEndpointDesc( pBuf, epDesc );
        ; Setup parameters for call to function MT_BuildEndpointDesc
        MOV     A,R6
        MOV     R4,A
        MOV     A,R7
        MOV     R5,A
        MOV     A,?V0
        ADD     A,#0x3
        MOV     R2,A
        CLR     A
        ADDC    A,?V1
        MOV     R3,A
        LCALL   ??MT_BuildEndpointDesc?relay; Banked call to: MT_BuildEndpointDesc
        MOV     A,R1
        MOV     DPL,?XSP + 0
        MOV     DPH,?XSP + 1
        MOVX    @DPTR,A
//  277     if ( retValue == ZSuccess )
        JNZ     ??MT_AfRegister_1
//  278     {
//  279       retValue = afRegister( epDesc );
        ; Setup parameters for call to function afRegister
        MOV     A,R6
        MOV     R2,A
        MOV     A,R7
        MOV     R3,A
        LCALL   ??afRegister?relay   ; Banked call to: afRegister
        MOV     A,R1
        MOV     DPL,?XSP + 0
        MOV     DPH,?XSP + 1
        MOVX    @DPTR,A
//  280     }
//  281 
//  282     if ( retValue != ZSuccess )
??MT_AfRegister_1:
        MOVX    A,@DPTR
        JZ      ??MT_AfRegister_0
//  283     {
//  284       osal_mem_free( epDesc );
        ; Setup parameters for call to function osal_mem_free
        MOV     A,R6
        MOV     R2,A
        MOV     A,R7
        MOV     R3,A
        LCALL   ??osal_mem_free?relay; Banked call to: osal_mem_free
//  285     }
//  286   }
//  287 
//  288   /* Build and send back the response */
//  289   MT_BuildAndSendZToolResponse(((uint8)MT_RPC_CMD_SRSP | (uint8)MT_RPC_SYS_AF), cmdId, 1, &retValue);
??MT_AfRegister_0:
        ; Setup parameters for call to function MT_BuildAndSendZToolResponse
        MOV     R4,?XSP + 0
        MOV     R5,?XSP + 1
        MOV     R3,#0x1
        MOV     R2,?V2
        MOV     R1,#0x64
        LCALL   ??MT_BuildAndSendZToolResponse?relay; Banked call to: MT_BuildAndSendZToolResponse
//  290 }
        MOV     A,#0x1
        LCALL   ?DEALLOC_XSTACK8
          CFI CFA_XSP16 add(XSP16, 14)
        MOV     R7,#0x6
        LJMP    ?BANKED_LEAVE_XDATA
          CFI EndBlock cfiBlock3
//  291 
//  292 /***************************************************************************************************
//  293  * @fn      MT_AfDataRequest
//  294  *
//  295  * @brief   Process AF Register command
//  296  *
//  297  * @param   pBuf - pointer to the received buffer
//  298  *
//  299  * @return  none
//  300  ***************************************************************************************************/

        RSEG BANKED_CODE:CODE:NOROOT(0)
//  301 void MT_AfDataRequest(uint8 *pBuf)
MT_AfDataRequest:
          CFI Block cfiBlock4 Using cfiCommon0
          CFI Function MT_AfDataRequest
        CODE
//  302 {
        FUNCALL MT_AfDataRequest, osal_memcpy
        LOCFRAME ISTACK, 0, STACK
        LOCFRAME PSTACK, 0, STACK
        LOCFRAME XSTACK, 39, STACK
        LOCFRAME IOVERLAY, 0, STATIC
        LOCFRAME DOVERLAY, 0, STATIC
        ARGFRAME ISTACK, 0, STACK
        ARGFRAME PSTACK, 0, STACK
        ARGFRAME XSTACK, 39, STACK
        ARGFRAME IOVERLAY, 0, STATIC
        ARGFRAME DOVERLAY, 0, STATIC
        FUNCALL MT_AfDataRequest, afFindEndPointDesc
        LOCFRAME ISTACK, 0, STACK
        LOCFRAME PSTACK, 0, STACK
        LOCFRAME XSTACK, 36, STACK
        LOCFRAME IOVERLAY, 0, STATIC
        LOCFRAME DOVERLAY, 0, STATIC
        ARGFRAME ISTACK, 0, STACK
        ARGFRAME PSTACK, 0, STACK
        ARGFRAME XSTACK, 36, STACK
        ARGFRAME IOVERLAY, 0, STATIC
        ARGFRAME DOVERLAY, 0, STATIC
        FUNCALL MT_AfDataRequest, osal_mem_alloc
        LOCFRAME ISTACK, 0, STACK
        LOCFRAME PSTACK, 0, STACK
        LOCFRAME XSTACK, 36, STACK
        LOCFRAME IOVERLAY, 0, STATIC
        LOCFRAME DOVERLAY, 0, STATIC
        ARGFRAME ISTACK, 0, STACK
        ARGFRAME PSTACK, 0, STACK
        ARGFRAME XSTACK, 36, STACK
        ARGFRAME IOVERLAY, 0, STATIC
        ARGFRAME DOVERLAY, 0, STATIC
        FUNCALL MT_AfDataRequest, osal_memcpy
        LOCFRAME ISTACK, 0, STACK
        LOCFRAME PSTACK, 0, STACK
        LOCFRAME XSTACK, 39, STACK
        LOCFRAME IOVERLAY, 0, STATIC
        LOCFRAME DOVERLAY, 0, STATIC
        ARGFRAME ISTACK, 0, STACK
        ARGFRAME PSTACK, 0, STACK
        ARGFRAME XSTACK, 39, STACK
        ARGFRAME IOVERLAY, 0, STATIC
        ARGFRAME DOVERLAY, 0, STATIC
        FUNCALL MT_AfDataRequest, osal_start_timerEx
        LOCFRAME ISTACK, 0, STACK
        LOCFRAME PSTACK, 0, STACK
        LOCFRAME XSTACK, 36, STACK
        LOCFRAME IOVERLAY, 0, STATIC
        LOCFRAME DOVERLAY, 0, STATIC
        ARGFRAME ISTACK, 0, STACK
        ARGFRAME PSTACK, 0, STACK
        ARGFRAME XSTACK, 36, STACK
        ARGFRAME IOVERLAY, 0, STATIC
        ARGFRAME DOVERLAY, 0, STATIC
        FUNCALL MT_AfDataRequest, osal_set_event
        LOCFRAME ISTACK, 0, STACK
        LOCFRAME PSTACK, 0, STACK
        LOCFRAME XSTACK, 36, STACK
        LOCFRAME IOVERLAY, 0, STATIC
        LOCFRAME DOVERLAY, 0, STATIC
        ARGFRAME ISTACK, 0, STACK
        ARGFRAME PSTACK, 0, STACK
        ARGFRAME XSTACK, 36, STACK
        ARGFRAME IOVERLAY, 0, STATIC
        ARGFRAME DOVERLAY, 0, STATIC
        FUNCALL MT_AfDataRequest, AF_DataRequest
        LOCFRAME ISTACK, 0, STACK
        LOCFRAME PSTACK, 0, STACK
        LOCFRAME XSTACK, 45, STACK
        LOCFRAME IOVERLAY, 0, STATIC
        LOCFRAME DOVERLAY, 0, STATIC
        ARGFRAME ISTACK, 0, STACK
        ARGFRAME PSTACK, 0, STACK
        ARGFRAME XSTACK, 45, STACK
        ARGFRAME IOVERLAY, 0, STATIC
        ARGFRAME DOVERLAY, 0, STATIC
        FUNCALL MT_AfDataRequest, MT_BuildAndSendZToolResponse
        LOCFRAME ISTACK, 0, STACK
        LOCFRAME PSTACK, 0, STACK
        LOCFRAME XSTACK, 36, STACK
        LOCFRAME IOVERLAY, 0, STATIC
        LOCFRAME DOVERLAY, 0, STATIC
        ARGFRAME ISTACK, 0, STACK
        ARGFRAME PSTACK, 0, STACK
        ARGFRAME XSTACK, 36, STACK
        ARGFRAME IOVERLAY, 0, STATIC
        ARGFRAME DOVERLAY, 0, STATIC
        REQUIRE ?V0
        REQUIRE ?V1
        REQUIRE ?V2
        REQUIRE ?V3
        REQUIRE ?V4
        REQUIRE ?V5
        REQUIRE ?V6
        REQUIRE ?V7
        REQUIRE ?V8
        REQUIRE ?V9
        REQUIRE ?V10
        REQUIRE ?V12
        REQUIRE ?V13
        MOV     A,#-0x16
        LCALL   ?BANKED_ENTER_XDATA
          CFI DPH0 load(1, XDATA, add(CFA_XSP16, literal(-1)))
          CFI DPL0 load(1, XDATA, add(CFA_XSP16, literal(-2)))
          CFI ?BRET_EXT load(1, XDATA, add(CFA_XSP16, literal(-3)))
          CFI ?RET_HIGH load(1, XDATA, add(CFA_XSP16, literal(-4)))
          CFI ?RET_LOW load(1, XDATA, add(CFA_XSP16, literal(-5)))
          CFI R7 load(1, XDATA, add(CFA_XSP16, literal(-6)))
          CFI V13 load(1, XDATA, add(CFA_XSP16, literal(-7)))
          CFI V12 load(1, XDATA, add(CFA_XSP16, literal(-8)))
          CFI V11 load(1, XDATA, add(CFA_XSP16, literal(-9)))
          CFI V10 load(1, XDATA, add(CFA_XSP16, literal(-10)))
          CFI V9 load(1, XDATA, add(CFA_XSP16, literal(-11)))
          CFI V8 load(1, XDATA, add(CFA_XSP16, literal(-12)))
          CFI V7 load(1, XDATA, add(CFA_XSP16, literal(-13)))
          CFI V6 load(1, XDATA, add(CFA_XSP16, literal(-14)))
          CFI V5 load(1, XDATA, add(CFA_XSP16, literal(-15)))
          CFI V4 load(1, XDATA, add(CFA_XSP16, literal(-16)))
          CFI V3 load(1, XDATA, add(CFA_XSP16, literal(-17)))
          CFI V2 load(1, XDATA, add(CFA_XSP16, literal(-18)))
          CFI V1 load(1, XDATA, add(CFA_XSP16, literal(-19)))
          CFI V0 load(1, XDATA, add(CFA_XSP16, literal(-20)))
          CFI VB load(1, XDATA, add(CFA_XSP16, literal(-21)))
          CFI R6 load(1, XDATA, add(CFA_XSP16, literal(-22)))
          CFI CFA_SP SP+0
          CFI CFA_XSP16 add(XSP16, 22)
        ; Saved register size: 22
        ; Auto size: 14
        MOV     A,#-0xe
        LCALL   ?ALLOC_XSTACK8
          CFI CFA_XSP16 add(XSP16, 36)
        MOV     ?V5,R3
//  303   #define MT_AF_REQ_MSG_LEN  10
//  304   #define MT_AF_REQ_MSG_EXT  10
//  305 
//  306   endPointDesc_t *epDesc;
//  307   afAddrType_t dstAddr;
//  308   cId_t cId;
//  309   uint8 transId, txOpts, radius;
//  310   uint8 cmd0, cmd1;
//  311   uint8 retValue = ZFailure;
        MOV     DPL,?XSP + 0
        MOV     DPH,?XSP + 1
        MOV     A,#0x1
        LCALL   ?Subroutine33 & 0xFFFF
//  312   uint16 dataLen, tempLen;
//  313 
//  314   /* Parse header */
//  315   cmd0 = pBuf[MT_RPC_POS_CMD0];
??CrossCallReturnLabel_67:
        MOVX    A,@DPTR
        MOV     ?V10,A
//  316   cmd1 = pBuf[MT_RPC_POS_CMD1];
        MOV     DPL,R2
        MOV     DPH,R3
        INC     DPTR
        INC     DPTR
        MOVX    A,@DPTR
        MOV     ?V7,A
//  317   pBuf += MT_RPC_FRAME_HDR_SZ;
        MOV     A,R2
        ADD     A,#0x3
        MOV     ?V4,A
        JNC     ??MT_AfDataRequest_0
        INC     ?V5
//  318 
//  319   if (cmd1 == MT_AF_DATA_REQUEST_EXT)
??MT_AfDataRequest_0:
        MOV     A,#0x2
        XRL     A,?V7
        JNZ     ??MT_AfDataRequest_1
//  320   {
//  321     dstAddr.addrMode = (afAddrMode_t)*pBuf++;
        MOV     DPL,?V4
        MOV     DPH,?V5
        MOVX    A,@DPTR
        MOV     R0,A
        MOV     A,#0xa
        LCALL   ?XSTACK_DISP0_8
        MOV     A,R0
        LCALL   ?Subroutine23 & 0xFFFF
//  322 
//  323     if (dstAddr.addrMode == afAddr64Bit)
??CrossCallReturnLabel_35:
        MOV     A,#0x3
        XRL     A,R0
        JNZ     ??MT_AfDataRequest_2
//  324     {
//  325       (void)osal_memcpy(dstAddr.addr.extAddr, pBuf, Z_EXTADDR_LEN);
        ; Setup parameters for call to function osal_memcpy
        MOV     ?V0,?V4
        MOV     ?V1,?V5
        MOV     ?V2,#0x0
        MOV     R0,#?V0
        LCALL   ?PUSH_XSTACK_I_THREE
          CFI CFA_XSP16 add(XSP16, 39)
        MOV     R4,#0x8
        MOV     R5,#0x0
        MOV     A,#0x5
        LCALL   ?XSTACK_DISP101_8
        LCALL   ??osal_memcpy?relay  ; Banked call to: osal_memcpy
        MOV     A,#0x3
        LCALL   ?DEALLOC_XSTACK8
          CFI CFA_XSP16 add(XSP16, 36)
        SJMP    ??CrossCallReturnLabel_48
//  326     }
//  327     else
//  328     {
//  329       dstAddr.addr.shortAddr = BUILD_UINT16(pBuf[0], pBuf[1]);
??MT_AfDataRequest_2:
        LCALL   ?Subroutine5 & 0xFFFF
//  330     }
??CrossCallReturnLabel_4:
        LCALL   ?XSTACK_DISP0_8
        LCALL   ?Subroutine27 & 0xFFFF
//  331     pBuf += Z_EXTADDR_LEN;
??CrossCallReturnLabel_48:
        MOV     A,?V4
        ADD     A,#0x8
        MOV     ?V4,A
        JNC     ??MT_AfDataRequest_3
        INC     ?V5
//  332 
//  333     dstAddr.endPoint = *pBuf++;
??MT_AfDataRequest_3:
        MOV     DPL,A
        MOV     DPH,?V5
        MOVX    A,@DPTR
        PUSH    A
          CFI CFA_SP SP+-1
        MOV     A,#0xb
        LCALL   ?XSTACK_DISP0_8
        POP     A
          CFI CFA_SP SP+0
        LCALL   ?Subroutine23 & 0xFFFF
//  334     dstAddr.panId = BUILD_UINT16(pBuf[0], pBuf[1]);
??CrossCallReturnLabel_36:
        MOVX    A,@DPTR
        MOV     R2,A
        INC     DPTR
        MOVX    A,@DPTR
        MOV     R1,A
        MOV     A,R2
        MOV     R0,A
        MOV     A,#0xc
        LCALL   ?XSTACK_DISP0_8
        LCALL   ?Subroutine26 & 0xFFFF
//  335     pBuf += 2;
//  336   }
??CrossCallReturnLabel_44:
        JNC     ??MT_AfDataRequest_4
        INC     ?V5
        SJMP    ??MT_AfDataRequest_4
//  337   else
//  338   {
//  339     /* Destination address */
//  340     dstAddr.addrMode = afAddr16Bit;
??MT_AfDataRequest_1:
        MOV     A,#0xa
        LCALL   ?XSTACK_DISP0_8
        MOV     A,#0x2
        MOVX    @DPTR,A
//  341     dstAddr.addr.shortAddr = BUILD_UINT16(pBuf[0], pBuf[1]);
        MOV     DPL,?V4
        MOV     DPH,?V5
        LCALL   ?Subroutine5 & 0xFFFF
??CrossCallReturnLabel_5:
        LCALL   ?XSTACK_DISP0_8
        LCALL   ?Subroutine26 & 0xFFFF
//  342     pBuf += 2;
??CrossCallReturnLabel_45:
        JNC     ??MT_AfDataRequest_5
        INC     ?V5
//  343 
//  344     /* Destination endpoint */
//  345     dstAddr.endPoint = *pBuf++;
??MT_AfDataRequest_5:
        MOV     DPL,A
        MOV     DPH,?V5
        MOVX    A,@DPTR
        PUSH    A
          CFI CFA_SP SP+-1
        MOV     A,#0xb
        LCALL   ?XSTACK_DISP0_8
        POP     A
          CFI CFA_SP SP+0
        LCALL   ?Subroutine23 & 0xFFFF
//  346     dstAddr.panId = 0;
??CrossCallReturnLabel_37:
        MOV     A,#0xc
        LCALL   ?XSTACK_DISP0_8
        CLR     A
        MOVX    @DPTR,A
        INC     DPTR
        MOVX    @DPTR,A
//  347   }
//  348 
//  349   /* Source endpoint */
//  350   epDesc = afFindEndPointDesc(*pBuf++);
??MT_AfDataRequest_4:
        ; Setup parameters for call to function afFindEndPointDesc
        MOV     DPL,?V4
        MOV     DPH,?V5
        MOVX    A,@DPTR
        MOV     R1,A
        LCALL   ??afFindEndPointDesc?relay; Banked call to: afFindEndPointDesc
        MOV     ?V8,R2
        MOV     ?V9,R3
        MOV     DPL,?V4
        MOV     DPH,?V5
        INC     DPTR
        MOV     ?V4,DPL
        MOV     ?V5,DPH
//  351 
//  352   /* ClusterId */
//  353   cId = BUILD_UINT16(pBuf[0], pBuf[1]);
        LCALL   ?Subroutine13 & 0xFFFF
??CrossCallReturnLabel_79:
        MOV     ?V0,A
        CLR     A
        ADDC    A,R1
        MOV     ?V1,A
//  354   pBuf +=2;
        MOV     A,?V4
        ADD     A,#0x2
        MOV     ?V4,A
        JNC     ??MT_AfDataRequest_6
        INC     ?V5
//  355 
//  356   /* TransId */
//  357   transId = *pBuf++;
??MT_AfDataRequest_6:
        MOV     DPL,A
        MOV     DPH,?V5
        MOVX    A,@DPTR
        PUSH    A
          CFI CFA_SP SP+-1
        MOV     A,#0x1
        LCALL   ?XSTACK_DISP0_8
        POP     A
          CFI CFA_SP SP+0
        LCALL   ?Subroutine35 & 0xFFFF
//  358 
//  359   /* TxOption */
//  360   txOpts = *pBuf++;
??CrossCallReturnLabel_70:
        MOVX    A,@DPTR
        MOV     ?V3,A
        INC     DPTR
//  361 
//  362   /* Radius */
//  363   radius = *pBuf++;
        MOVX    A,@DPTR
        MOV     ?V2,A
        INC     DPTR
        MOV     ?V4,DPL
        MOV     ?V5,DPH
//  364 
//  365   /* Length */
//  366   if (cmd1 == MT_AF_DATA_REQUEST_EXT)
        MOV     A,#0x2
        XRL     A,?V7
        JNZ     ??MT_AfDataRequest_7
//  367   {
//  368     dataLen = BUILD_UINT16(pBuf[0], pBuf[1]);
        LCALL   ?Subroutine13 & 0xFFFF
??CrossCallReturnLabel_80:
        MOV     R6,A
        CLR     A
        ADDC    A,R1
        MOV     R7,A
//  369     tempLen = dataLen + MT_AF_REQ_MSG_LEN + MT_AF_REQ_MSG_EXT;
        MOV     A,R6
        ADD     A,#0x14
        MOV     R0,A
        CLR     A
        ADDC    A,R7
        MOV     R1,A
//  370     pBuf += 2;
        MOV     A,?V4
        ADD     A,#0x2
        MOV     ?V4,A
        JNC     ??MT_AfDataRequest_8
        INC     ?V5
        SJMP    ??MT_AfDataRequest_8
//  371   }
//  372   else
//  373   {
//  374     dataLen = *pBuf++;
??MT_AfDataRequest_7:
        MOVX    A,@DPTR
        MOV     R6,A
        MOV     R7,#0x0
        INC     DPTR
        MOV     ?V4,DPL
        MOV     ?V5,DPH
//  375     tempLen = dataLen + MT_AF_REQ_MSG_LEN;
        ADD     A,#0xa
        MOV     R0,A
        CLR     A
        ADDC    A,#0x0
        MOV     R1,A
//  376   }
//  377 
//  378   if ( epDesc == NULL )
??MT_AfDataRequest_8:
        MOV     A,?V8
        ORL     A,?V9
        JZ      ??MT_AfDataRequest_9
//  379   {
//  380     retValue = afStatus_INVALID_PARAMETER;
//  381   }
//  382   else if (tempLen > (uint16)MT_RPC_DATA_MAX)
        CLR     C
        MOV     A,R0
        SUBB    A,#-0x5
        MOV     A,R1
        SUBB    A,#0x0
        JNC     $+5
        LJMP    ??MT_AfDataRequest_10 & 0xFFFF
//  383   {
//  384     if (pMtAfDataReq != NULL)
        LCALL   ?Subroutine2 & 0xFFFF
??CrossCallReturnLabel_84:
        JZ      ??MT_AfDataRequest_11
//  385     {
//  386       retValue = afStatus_INVALID_PARAMETER;
??MT_AfDataRequest_9:
        MOV     DPL,?XSP + 0
        MOV     DPH,?XSP + 1
        MOV     A,#0x2
        LJMP    ??MT_AfDataRequest_12 & 0xFFFF
//  387     }
//  388     else if ((pMtAfDataReq = osal_mem_alloc(sizeof(mtAfDataReq_t) + dataLen)) == NULL)
??MT_AfDataRequest_11:
        ; Setup parameters for call to function osal_mem_alloc
        MOV     A,R6
        ADD     A,#0x18
        MOV     R2,A
        CLR     A
        ADDC    A,R7
        MOV     R3,A
        LCALL   ??osal_mem_alloc?relay; Banked call to: osal_mem_alloc
        MOV     DPTR,#pMtAfDataReq
        MOV     A,R2
        MOVX    @DPTR,A
        INC     DPTR
        MOV     A,R3
        MOVX    @DPTR,A
        LCALL   ?Subroutine2 & 0xFFFF
??CrossCallReturnLabel_85:
        MOV     DPL,?XSP + 0
        MOV     DPH,?XSP + 1
        JNZ     ??MT_AfDataRequest_13
//  389     {
//  390       retValue = afStatus_MEM_FAIL;
        MOV     A,#0x10
        LJMP    ??MT_AfDataRequest_12 & 0xFFFF
//  391     }
//  392     else
//  393     {
//  394       retValue = afStatus_SUCCESS;
??MT_AfDataRequest_13:
        CLR     A
        MOVX    @DPTR,A
//  395 
//  396       pMtAfDataReq->data = (uint8 *)(pMtAfDataReq+1);
        MOV     DPTR,#pMtAfDataReq
        MOVX    A,@DPTR
        ADD     A,#0x18
        MOV     R2,A
        INC     DPTR
        MOVX    A,@DPTR
        ADDC    A,#0x0
        MOV     R3,A
        LCALL   ?Subroutine8 & 0xFFFF
??CrossCallReturnLabel_11:
        MOV     A,R2
        MOVX    @DPTR,A
        INC     DPTR
        MOV     A,R3
        MOVX    @DPTR,A
//  397       (void)osal_memcpy(&(pMtAfDataReq->dstAddr), &dstAddr, sizeof(afAddrType_t));
        ; Setup parameters for call to function osal_memcpy
        MOV     A,#0x2
        LCALL   ?XSTACK_DISP100_8
        MOV     ?V4,R0
        MOV     ?V5,R1
        MOV     ?V6,#0x0
        MOV     R0,#?V4
        LCALL   ?PUSH_XSTACK_I_THREE
          CFI CFA_XSP16 add(XSP16, 39)
        MOV     R4,#0xc
        MOV     R5,#0x0
        LCALL   ?Subroutine16 & 0xFFFF
??CrossCallReturnLabel_24:
        LCALL   ??osal_memcpy?relay  ; Banked call to: osal_memcpy
        MOV     A,#0x3
        LCALL   ?DEALLOC_XSTACK8
          CFI CFA_XSP16 add(XSP16, 36)
//  398       pMtAfDataReq->epDesc = epDesc;
        LCALL   ?Subroutine9 & 0xFFFF
??CrossCallReturnLabel_14:
        MOV     A,?V8
        MOVX    @DPTR,A
        INC     DPTR
        MOV     A,?V9
        MOVX    @DPTR,A
//  399       pMtAfDataReq->cId = cId;
        LCALL   ?Subroutine10 & 0xFFFF
??CrossCallReturnLabel_16:
        MOV     A,?V0
        MOVX    @DPTR,A
        INC     DPTR
        MOV     A,?V1
        MOVX    @DPTR,A
//  400       pMtAfDataReq->dataLen = dataLen;
        LCALL   ?Subroutine11 & 0xFFFF
??CrossCallReturnLabel_18:
        MOV     A,R6
        MOVX    @DPTR,A
        INC     DPTR
        MOV     A,R7
        MOVX    @DPTR,A
//  401       pMtAfDataReq->transId = transId;
        MOV     A,#0x1
        LCALL   ?XSTACK_DISP0_8
        MOVX    A,@DPTR
        PUSH    A
          CFI CFA_SP SP+-1
        LCALL   ?Subroutine32 & 0xFFFF
??CrossCallReturnLabel_61:
        ADD     A,#0x14
        MOV     DPL,A
        CLR     A
        ADDC    A,R0
        MOV     DPH,A
        POP     A
          CFI CFA_SP SP+0
        MOVX    @DPTR,A
//  402       pMtAfDataReq->txOpts = txOpts;
        LCALL   ?Subroutine12 & 0xFFFF
??CrossCallReturnLabel_20:
        MOV     A,?V3
        MOVX    @DPTR,A
//  403       pMtAfDataReq->radius = radius;
        MOV     DPTR,#pMtAfDataReq
        MOVX    A,@DPTR
        MOV     R0,A
        INC     DPTR
        LCALL   ?Subroutine14 & 0xFFFF
??CrossCallReturnLabel_22:
        MOV     A,?V2
        LCALL   ?Subroutine7 & 0xFFFF
//  404 
//  405       // Setup to time-out the huge outgoing item if host does not MT_AF_DATA_STORE it.
//  406       pMtAfDataReq->tick = MT_AF_EXEC_CNT;
??CrossCallReturnLabel_9:
        LCALL   ?Subroutine25 & 0xFFFF
//  407       if (ZSuccess != osal_start_timerEx(MT_TaskID, MT_AF_EXEC_EVT, MT_AF_EXEC_DLY))
??CrossCallReturnLabel_42:
        LCALL   ??osal_start_timerEx?relay; Banked call to: osal_start_timerEx
        MOV     A,R1
        JZ      ??MT_AfDataRequest_14
//  408       {
//  409         (void)osal_set_event(MT_TaskID, MT_AF_EXEC_EVT);
        ; Setup parameters for call to function osal_set_event
        MOV     R2,#0x8
        MOV     R3,#0x0
        MOV     DPTR,#MT_TaskID
        MOVX    A,@DPTR
        MOV     R1,A
        LCALL   ??osal_set_event?relay; Banked call to: osal_set_event
        SJMP    ??MT_AfDataRequest_14
//  410       }
//  411     }
//  412   }
//  413   else
//  414   {
//  415     retValue = AF_DataRequest(&dstAddr, epDesc, cId, dataLen, pBuf, &transId, txOpts, radius);
??MT_AfDataRequest_10:
        ; Setup parameters for call to function AF_DataRequest
        MOV     R0,#?V2
        LCALL   ?PUSH_XSTACK_I_ONE
          CFI CFA_XSP16 add(XSP16, 37)
        MOV     A,#0x2
        LCALL   ?XSTACK_DISP100_8
        MOV     ?V12,R0
        MOV     ?V13,R1
        MOV     R0,#?V12
        LCALL   ?PUSH_XSTACK_I_TWO
          CFI CFA_XSP16 add(XSP16, 39)
        MOV     R0,#?V4
        LCALL   ?PUSH_XSTACK_I_TWO
          CFI CFA_XSP16 add(XSP16, 41)
        MOV     ?V4,R6
        MOV     ?V5,R7
        MOV     R0,#?V4
        LCALL   ?PUSH_XSTACK_I_TWO
          CFI CFA_XSP16 add(XSP16, 43)
        MOV     R0,#?V0
        LCALL   ?PUSH_XSTACK_I_TWO
          CFI CFA_XSP16 add(XSP16, 45)
        MOV     R1,?V3
        MOV     R4,?V8
        MOV     R5,?V9
        MOV     A,#0xb
        LCALL   ?XSTACK_DISP101_8
        LCALL   ??AF_DataRequest?relay; Banked call to: AF_DataRequest
        MOV     A,#0x9
        LCALL   ?DEALLOC_XSTACK8
          CFI CFA_XSP16 add(XSP16, 36)
        MOV     A,R1
        MOV     DPL,?XSP + 0
        MOV     DPH,?XSP + 1
??MT_AfDataRequest_12:
        MOVX    @DPTR,A
//  416   }
//  417 
//  418   if (MT_RPC_CMD_SREQ == (cmd0 & MT_RPC_CMD_TYPE_MASK))
??MT_AfDataRequest_14:
        MOV     A,#-0x20
        ANL     A,?V10
        XRL     A,#0x20
        JNZ     ??MT_AfDataRequest_15
//  419   {
//  420     MT_BuildAndSendZToolResponse(((uint8)MT_RPC_CMD_SRSP|(uint8)MT_RPC_SYS_AF), cmd1, 1, &retValue);
        ; Setup parameters for call to function MT_BuildAndSendZToolResponse
        MOV     R4,?XSP + 0
        MOV     R5,?XSP + 1
        MOV     R3,#0x1
        MOV     R2,?V7
        MOV     R1,#0x64
        LCALL   ??MT_BuildAndSendZToolResponse?relay; Banked call to: MT_BuildAndSendZToolResponse
//  421   }
//  422 }
??MT_AfDataRequest_15:
        MOV     A,#0xe
        LCALL   ?DEALLOC_XSTACK8
          CFI CFA_XSP16 add(XSP16, 22)
        MOV     R7,#0xe
        LJMP    ?BANKED_LEAVE_XDATA
          CFI EndBlock cfiBlock4

        RSEG BANKED_CODE:CODE:NOROOT(0)
?Subroutine26:
          CFI Block cfiCond5 Using cfiCommon0
          CFI Function MT_AfDataRequest
          CFI Conditional ??CrossCallReturnLabel_44
          CFI R6 load(1, XDATA, add(CFA_XSP16, literal(-22)))
          CFI VB load(1, XDATA, add(CFA_XSP16, literal(-21)))
          CFI V0 load(1, XDATA, add(CFA_XSP16, literal(-20)))
          CFI V1 load(1, XDATA, add(CFA_XSP16, literal(-19)))
          CFI V2 load(1, XDATA, add(CFA_XSP16, literal(-18)))
          CFI V3 load(1, XDATA, add(CFA_XSP16, literal(-17)))
          CFI V4 load(1, XDATA, add(CFA_XSP16, literal(-16)))
          CFI V5 load(1, XDATA, add(CFA_XSP16, literal(-15)))
          CFI V6 load(1, XDATA, add(CFA_XSP16, literal(-14)))
          CFI V7 load(1, XDATA, add(CFA_XSP16, literal(-13)))
          CFI V8 load(1, XDATA, add(CFA_XSP16, literal(-12)))
          CFI V9 load(1, XDATA, add(CFA_XSP16, literal(-11)))
          CFI V10 load(1, XDATA, add(CFA_XSP16, literal(-10)))
          CFI V11 load(1, XDATA, add(CFA_XSP16, literal(-9)))
          CFI V12 load(1, XDATA, add(CFA_XSP16, literal(-8)))
          CFI V13 load(1, XDATA, add(CFA_XSP16, literal(-7)))
          CFI R7 load(1, XDATA, add(CFA_XSP16, literal(-6)))
          CFI ?RET_LOW load(1, XDATA, add(CFA_XSP16, literal(-5)))
          CFI ?RET_HIGH load(1, XDATA, add(CFA_XSP16, literal(-4)))
          CFI ?BRET_EXT load(1, XDATA, add(CFA_XSP16, literal(-3)))
          CFI DPL0 load(1, XDATA, add(CFA_XSP16, literal(-2)))
          CFI DPH0 load(1, XDATA, add(CFA_XSP16, literal(-1)))
          CFI CFA_SP SP+-2
          CFI CFA_XSP16 add(XSP16, 36)
          CFI Block cfiCond6 Using cfiCommon0
          CFI (cfiCond6) Function MT_AfDataRequest
          CFI (cfiCond6) Conditional ??CrossCallReturnLabel_45
          CFI (cfiCond6) R6 load(1, XDATA, add(CFA_XSP16, literal(-22)))
          CFI (cfiCond6) VB load(1, XDATA, add(CFA_XSP16, literal(-21)))
          CFI (cfiCond6) V0 load(1, XDATA, add(CFA_XSP16, literal(-20)))
          CFI (cfiCond6) V1 load(1, XDATA, add(CFA_XSP16, literal(-19)))
          CFI (cfiCond6) V2 load(1, XDATA, add(CFA_XSP16, literal(-18)))
          CFI (cfiCond6) V3 load(1, XDATA, add(CFA_XSP16, literal(-17)))
          CFI (cfiCond6) V4 load(1, XDATA, add(CFA_XSP16, literal(-16)))
          CFI (cfiCond6) V5 load(1, XDATA, add(CFA_XSP16, literal(-15)))
          CFI (cfiCond6) V6 load(1, XDATA, add(CFA_XSP16, literal(-14)))
          CFI (cfiCond6) V7 load(1, XDATA, add(CFA_XSP16, literal(-13)))
          CFI (cfiCond6) V8 load(1, XDATA, add(CFA_XSP16, literal(-12)))
          CFI (cfiCond6) V9 load(1, XDATA, add(CFA_XSP16, literal(-11)))
          CFI (cfiCond6) V10 load(1, XDATA, add(CFA_XSP16, literal(-10)))
          CFI (cfiCond6) V11 load(1, XDATA, add(CFA_XSP16, literal(-9)))
          CFI (cfiCond6) V12 load(1, XDATA, add(CFA_XSP16, literal(-8)))
          CFI (cfiCond6) V13 load(1, XDATA, add(CFA_XSP16, literal(-7)))
          CFI (cfiCond6) R7 load(1, XDATA, add(CFA_XSP16, literal(-6)))
          CFI (cfiCond6) ?RET_LOW load(1, XDATA, add(CFA_XSP16, literal(-5)))
          CFI (cfiCond6) ?RET_HIGH load(1, XDATA, add(CFA_XSP16, literal(-4)))
          CFI (cfiCond6) ?BRET_EXT load(1, XDATA, add(CFA_XSP16, literal(-3)))
          CFI (cfiCond6) DPL0 load(1, XDATA, add(CFA_XSP16, literal(-2)))
          CFI (cfiCond6) DPH0 load(1, XDATA, add(CFA_XSP16, literal(-1)))
          CFI (cfiCond6) CFA_SP SP+-2
          CFI (cfiCond6) CFA_XSP16 add(XSP16, 36)
          CFI Block cfiPicker7 Using cfiCommon1
          CFI (cfiPicker7) NoFunction
          CFI (cfiPicker7) Picker
        MOV     A,R0
        MOVX    @DPTR,A
        INC     DPTR
        MOV     A,R1
        MOVX    @DPTR,A
        MOV     A,?V4
        ADD     A,#0x2
        MOV     ?V4,A
        RET
          CFI EndBlock cfiCond5
          CFI EndBlock cfiCond6
          CFI EndBlock cfiPicker7

        RSEG BANKED_CODE:CODE:NOROOT(0)
?Subroutine23:
          CFI Block cfiCond8 Using cfiCommon0
          CFI Function MT_AfDataRequest
          CFI Conditional ??CrossCallReturnLabel_35
          CFI R6 load(1, XDATA, add(CFA_XSP16, literal(-22)))
          CFI VB load(1, XDATA, add(CFA_XSP16, literal(-21)))
          CFI V0 load(1, XDATA, add(CFA_XSP16, literal(-20)))
          CFI V1 load(1, XDATA, add(CFA_XSP16, literal(-19)))
          CFI V2 load(1, XDATA, add(CFA_XSP16, literal(-18)))
          CFI V3 load(1, XDATA, add(CFA_XSP16, literal(-17)))
          CFI V4 load(1, XDATA, add(CFA_XSP16, literal(-16)))
          CFI V5 load(1, XDATA, add(CFA_XSP16, literal(-15)))
          CFI V6 load(1, XDATA, add(CFA_XSP16, literal(-14)))
          CFI V7 load(1, XDATA, add(CFA_XSP16, literal(-13)))
          CFI V8 load(1, XDATA, add(CFA_XSP16, literal(-12)))
          CFI V9 load(1, XDATA, add(CFA_XSP16, literal(-11)))
          CFI V10 load(1, XDATA, add(CFA_XSP16, literal(-10)))
          CFI V11 load(1, XDATA, add(CFA_XSP16, literal(-9)))
          CFI V12 load(1, XDATA, add(CFA_XSP16, literal(-8)))
          CFI V13 load(1, XDATA, add(CFA_XSP16, literal(-7)))
          CFI R7 load(1, XDATA, add(CFA_XSP16, literal(-6)))
          CFI ?RET_LOW load(1, XDATA, add(CFA_XSP16, literal(-5)))
          CFI ?RET_HIGH load(1, XDATA, add(CFA_XSP16, literal(-4)))
          CFI ?BRET_EXT load(1, XDATA, add(CFA_XSP16, literal(-3)))
          CFI DPL0 load(1, XDATA, add(CFA_XSP16, literal(-2)))
          CFI DPH0 load(1, XDATA, add(CFA_XSP16, literal(-1)))
          CFI CFA_SP SP+-2
          CFI CFA_XSP16 add(XSP16, 36)
          CFI Block cfiCond9 Using cfiCommon0
          CFI (cfiCond9) Function MT_AfDataRequest
          CFI (cfiCond9) Conditional ??CrossCallReturnLabel_36
          CFI (cfiCond9) R6 load(1, XDATA, add(CFA_XSP16, literal(-22)))
          CFI (cfiCond9) VB load(1, XDATA, add(CFA_XSP16, literal(-21)))
          CFI (cfiCond9) V0 load(1, XDATA, add(CFA_XSP16, literal(-20)))
          CFI (cfiCond9) V1 load(1, XDATA, add(CFA_XSP16, literal(-19)))
          CFI (cfiCond9) V2 load(1, XDATA, add(CFA_XSP16, literal(-18)))
          CFI (cfiCond9) V3 load(1, XDATA, add(CFA_XSP16, literal(-17)))
          CFI (cfiCond9) V4 load(1, XDATA, add(CFA_XSP16, literal(-16)))
          CFI (cfiCond9) V5 load(1, XDATA, add(CFA_XSP16, literal(-15)))
          CFI (cfiCond9) V6 load(1, XDATA, add(CFA_XSP16, literal(-14)))
          CFI (cfiCond9) V7 load(1, XDATA, add(CFA_XSP16, literal(-13)))
          CFI (cfiCond9) V8 load(1, XDATA, add(CFA_XSP16, literal(-12)))
          CFI (cfiCond9) V9 load(1, XDATA, add(CFA_XSP16, literal(-11)))
          CFI (cfiCond9) V10 load(1, XDATA, add(CFA_XSP16, literal(-10)))
          CFI (cfiCond9) V11 load(1, XDATA, add(CFA_XSP16, literal(-9)))
          CFI (cfiCond9) V12 load(1, XDATA, add(CFA_XSP16, literal(-8)))
          CFI (cfiCond9) V13 load(1, XDATA, add(CFA_XSP16, literal(-7)))
          CFI (cfiCond9) R7 load(1, XDATA, add(CFA_XSP16, literal(-6)))
          CFI (cfiCond9) ?RET_LOW load(1, XDATA, add(CFA_XSP16, literal(-5)))
          CFI (cfiCond9) ?RET_HIGH load(1, XDATA, add(CFA_XSP16, literal(-4)))
          CFI (cfiCond9) ?BRET_EXT load(1, XDATA, add(CFA_XSP16, literal(-3)))
          CFI (cfiCond9) DPL0 load(1, XDATA, add(CFA_XSP16, literal(-2)))
          CFI (cfiCond9) DPH0 load(1, XDATA, add(CFA_XSP16, literal(-1)))
          CFI (cfiCond9) CFA_SP SP+-2
          CFI (cfiCond9) CFA_XSP16 add(XSP16, 36)
          CFI Block cfiCond10 Using cfiCommon0
          CFI (cfiCond10) Function MT_AfDataRequest
          CFI (cfiCond10) Conditional ??CrossCallReturnLabel_37
          CFI (cfiCond10) R6 load(1, XDATA, add(CFA_XSP16, literal(-22)))
          CFI (cfiCond10) VB load(1, XDATA, add(CFA_XSP16, literal(-21)))
          CFI (cfiCond10) V0 load(1, XDATA, add(CFA_XSP16, literal(-20)))
          CFI (cfiCond10) V1 load(1, XDATA, add(CFA_XSP16, literal(-19)))
          CFI (cfiCond10) V2 load(1, XDATA, add(CFA_XSP16, literal(-18)))
          CFI (cfiCond10) V3 load(1, XDATA, add(CFA_XSP16, literal(-17)))
          CFI (cfiCond10) V4 load(1, XDATA, add(CFA_XSP16, literal(-16)))
          CFI (cfiCond10) V5 load(1, XDATA, add(CFA_XSP16, literal(-15)))
          CFI (cfiCond10) V6 load(1, XDATA, add(CFA_XSP16, literal(-14)))
          CFI (cfiCond10) V7 load(1, XDATA, add(CFA_XSP16, literal(-13)))
          CFI (cfiCond10) V8 load(1, XDATA, add(CFA_XSP16, literal(-12)))
          CFI (cfiCond10) V9 load(1, XDATA, add(CFA_XSP16, literal(-11)))
          CFI (cfiCond10) V10 load(1, XDATA, add(CFA_XSP16, literal(-10)))
          CFI (cfiCond10) V11 load(1, XDATA, add(CFA_XSP16, literal(-9)))
          CFI (cfiCond10) V12 load(1, XDATA, add(CFA_XSP16, literal(-8)))
          CFI (cfiCond10) V13 load(1, XDATA, add(CFA_XSP16, literal(-7)))
          CFI (cfiCond10) R7 load(1, XDATA, add(CFA_XSP16, literal(-6)))
          CFI (cfiCond10) ?RET_LOW load(1, XDATA, add(CFA_XSP16, literal(-5)))
          CFI (cfiCond10) ?RET_HIGH load(1, XDATA, add(CFA_XSP16, literal(-4)))
          CFI (cfiCond10) ?BRET_EXT load(1, XDATA, add(CFA_XSP16, literal(-3)))
          CFI (cfiCond10) DPL0 load(1, XDATA, add(CFA_XSP16, literal(-2)))
          CFI (cfiCond10) DPH0 load(1, XDATA, add(CFA_XSP16, literal(-1)))
          CFI (cfiCond10) CFA_SP SP+-2
          CFI (cfiCond10) CFA_XSP16 add(XSP16, 36)
          CFI Block cfiPicker11 Using cfiCommon1
          CFI (cfiPicker11) NoFunction
          CFI (cfiPicker11) Picker
        LCALL   ?Subroutine35 & 0xFFFF
??CrossCallReturnLabel_71:
        MOV     ?V4,DPL
        MOV     ?V5,DPH
        RET
          CFI EndBlock cfiCond8
          CFI EndBlock cfiCond9
          CFI EndBlock cfiCond10
          CFI EndBlock cfiPicker11

        RSEG BANKED_CODE:CODE:NOROOT(0)
?Subroutine35:
          CFI Block cfiCond12 Using cfiCommon0
          CFI Function MT_AfDataRequest
          CFI Conditional ??CrossCallReturnLabel_70
          CFI R6 load(1, XDATA, add(CFA_XSP16, literal(-22)))
          CFI VB load(1, XDATA, add(CFA_XSP16, literal(-21)))
          CFI V0 load(1, XDATA, add(CFA_XSP16, literal(-20)))
          CFI V1 load(1, XDATA, add(CFA_XSP16, literal(-19)))
          CFI V2 load(1, XDATA, add(CFA_XSP16, literal(-18)))
          CFI V3 load(1, XDATA, add(CFA_XSP16, literal(-17)))
          CFI V4 load(1, XDATA, add(CFA_XSP16, literal(-16)))
          CFI V5 load(1, XDATA, add(CFA_XSP16, literal(-15)))
          CFI V6 load(1, XDATA, add(CFA_XSP16, literal(-14)))
          CFI V7 load(1, XDATA, add(CFA_XSP16, literal(-13)))
          CFI V8 load(1, XDATA, add(CFA_XSP16, literal(-12)))
          CFI V9 load(1, XDATA, add(CFA_XSP16, literal(-11)))
          CFI V10 load(1, XDATA, add(CFA_XSP16, literal(-10)))
          CFI V11 load(1, XDATA, add(CFA_XSP16, literal(-9)))
          CFI V12 load(1, XDATA, add(CFA_XSP16, literal(-8)))
          CFI V13 load(1, XDATA, add(CFA_XSP16, literal(-7)))
          CFI R7 load(1, XDATA, add(CFA_XSP16, literal(-6)))
          CFI ?RET_LOW load(1, XDATA, add(CFA_XSP16, literal(-5)))
          CFI ?RET_HIGH load(1, XDATA, add(CFA_XSP16, literal(-4)))
          CFI ?BRET_EXT load(1, XDATA, add(CFA_XSP16, literal(-3)))
          CFI DPL0 load(1, XDATA, add(CFA_XSP16, literal(-2)))
          CFI DPH0 load(1, XDATA, add(CFA_XSP16, literal(-1)))
          CFI CFA_SP SP+-2
          CFI CFA_XSP16 add(XSP16, 36)
          CFI Block cfiCond13 Using cfiCommon0
          CFI (cfiCond13) Function MT_AfDataRequest
          CFI (cfiCond13) Conditional ??CrossCallReturnLabel_71, ??CrossCallReturnLabel_35
          CFI (cfiCond13) R6 load(1, XDATA, add(CFA_XSP16, literal(-22)))
          CFI (cfiCond13) VB load(1, XDATA, add(CFA_XSP16, literal(-21)))
          CFI (cfiCond13) V0 load(1, XDATA, add(CFA_XSP16, literal(-20)))
          CFI (cfiCond13) V1 load(1, XDATA, add(CFA_XSP16, literal(-19)))
          CFI (cfiCond13) V2 load(1, XDATA, add(CFA_XSP16, literal(-18)))
          CFI (cfiCond13) V3 load(1, XDATA, add(CFA_XSP16, literal(-17)))
          CFI (cfiCond13) V4 load(1, XDATA, add(CFA_XSP16, literal(-16)))
          CFI (cfiCond13) V5 load(1, XDATA, add(CFA_XSP16, literal(-15)))
          CFI (cfiCond13) V6 load(1, XDATA, add(CFA_XSP16, literal(-14)))
          CFI (cfiCond13) V7 load(1, XDATA, add(CFA_XSP16, literal(-13)))
          CFI (cfiCond13) V8 load(1, XDATA, add(CFA_XSP16, literal(-12)))
          CFI (cfiCond13) V9 load(1, XDATA, add(CFA_XSP16, literal(-11)))
          CFI (cfiCond13) V10 load(1, XDATA, add(CFA_XSP16, literal(-10)))
          CFI (cfiCond13) V11 load(1, XDATA, add(CFA_XSP16, literal(-9)))
          CFI (cfiCond13) V12 load(1, XDATA, add(CFA_XSP16, literal(-8)))
          CFI (cfiCond13) V13 load(1, XDATA, add(CFA_XSP16, literal(-7)))
          CFI (cfiCond13) R7 load(1, XDATA, add(CFA_XSP16, literal(-6)))
          CFI (cfiCond13) ?RET_LOW load(1, XDATA, add(CFA_XSP16, literal(-5)))
          CFI (cfiCond13) ?RET_HIGH load(1, XDATA, add(CFA_XSP16, literal(-4)))
          CFI (cfiCond13) ?BRET_EXT load(1, XDATA, add(CFA_XSP16, literal(-3)))
          CFI (cfiCond13) DPL0 load(1, XDATA, add(CFA_XSP16, literal(-2)))
          CFI (cfiCond13) DPH0 load(1, XDATA, add(CFA_XSP16, literal(-1)))
          CFI (cfiCond13) CFA_SP SP+-4
          CFI (cfiCond13) CFA_XSP16 add(XSP16, 36)
          CFI Block cfiCond14 Using cfiCommon0
          CFI (cfiCond14) Function MT_AfDataRequest
          CFI (cfiCond14) Conditional ??CrossCallReturnLabel_71, ??CrossCallReturnLabel_36
          CFI (cfiCond14) R6 load(1, XDATA, add(CFA_XSP16, literal(-22)))
          CFI (cfiCond14) VB load(1, XDATA, add(CFA_XSP16, literal(-21)))
          CFI (cfiCond14) V0 load(1, XDATA, add(CFA_XSP16, literal(-20)))
          CFI (cfiCond14) V1 load(1, XDATA, add(CFA_XSP16, literal(-19)))
          CFI (cfiCond14) V2 load(1, XDATA, add(CFA_XSP16, literal(-18)))
          CFI (cfiCond14) V3 load(1, XDATA, add(CFA_XSP16, literal(-17)))
          CFI (cfiCond14) V4 load(1, XDATA, add(CFA_XSP16, literal(-16)))
          CFI (cfiCond14) V5 load(1, XDATA, add(CFA_XSP16, literal(-15)))
          CFI (cfiCond14) V6 load(1, XDATA, add(CFA_XSP16, literal(-14)))
          CFI (cfiCond14) V7 load(1, XDATA, add(CFA_XSP16, literal(-13)))
          CFI (cfiCond14) V8 load(1, XDATA, add(CFA_XSP16, literal(-12)))
          CFI (cfiCond14) V9 load(1, XDATA, add(CFA_XSP16, literal(-11)))
          CFI (cfiCond14) V10 load(1, XDATA, add(CFA_XSP16, literal(-10)))
          CFI (cfiCond14) V11 load(1, XDATA, add(CFA_XSP16, literal(-9)))
          CFI (cfiCond14) V12 load(1, XDATA, add(CFA_XSP16, literal(-8)))
          CFI (cfiCond14) V13 load(1, XDATA, add(CFA_XSP16, literal(-7)))
          CFI (cfiCond14) R7 load(1, XDATA, add(CFA_XSP16, literal(-6)))
          CFI (cfiCond14) ?RET_LOW load(1, XDATA, add(CFA_XSP16, literal(-5)))
          CFI (cfiCond14) ?RET_HIGH load(1, XDATA, add(CFA_XSP16, literal(-4)))
          CFI (cfiCond14) ?BRET_EXT load(1, XDATA, add(CFA_XSP16, literal(-3)))
          CFI (cfiCond14) DPL0 load(1, XDATA, add(CFA_XSP16, literal(-2)))
          CFI (cfiCond14) DPH0 load(1, XDATA, add(CFA_XSP16, literal(-1)))
          CFI (cfiCond14) CFA_SP SP+-4
          CFI (cfiCond14) CFA_XSP16 add(XSP16, 36)
          CFI Block cfiCond15 Using cfiCommon0
          CFI (cfiCond15) Function MT_AfDataRequest
          CFI (cfiCond15) Conditional ??CrossCallReturnLabel_71, ??CrossCallReturnLabel_37
          CFI (cfiCond15) R6 load(1, XDATA, add(CFA_XSP16, literal(-22)))
          CFI (cfiCond15) VB load(1, XDATA, add(CFA_XSP16, literal(-21)))
          CFI (cfiCond15) V0 load(1, XDATA, add(CFA_XSP16, literal(-20)))
          CFI (cfiCond15) V1 load(1, XDATA, add(CFA_XSP16, literal(-19)))
          CFI (cfiCond15) V2 load(1, XDATA, add(CFA_XSP16, literal(-18)))
          CFI (cfiCond15) V3 load(1, XDATA, add(CFA_XSP16, literal(-17)))
          CFI (cfiCond15) V4 load(1, XDATA, add(CFA_XSP16, literal(-16)))
          CFI (cfiCond15) V5 load(1, XDATA, add(CFA_XSP16, literal(-15)))
          CFI (cfiCond15) V6 load(1, XDATA, add(CFA_XSP16, literal(-14)))
          CFI (cfiCond15) V7 load(1, XDATA, add(CFA_XSP16, literal(-13)))
          CFI (cfiCond15) V8 load(1, XDATA, add(CFA_XSP16, literal(-12)))
          CFI (cfiCond15) V9 load(1, XDATA, add(CFA_XSP16, literal(-11)))
          CFI (cfiCond15) V10 load(1, XDATA, add(CFA_XSP16, literal(-10)))
          CFI (cfiCond15) V11 load(1, XDATA, add(CFA_XSP16, literal(-9)))
          CFI (cfiCond15) V12 load(1, XDATA, add(CFA_XSP16, literal(-8)))
          CFI (cfiCond15) V13 load(1, XDATA, add(CFA_XSP16, literal(-7)))
          CFI (cfiCond15) R7 load(1, XDATA, add(CFA_XSP16, literal(-6)))
          CFI (cfiCond15) ?RET_LOW load(1, XDATA, add(CFA_XSP16, literal(-5)))
          CFI (cfiCond15) ?RET_HIGH load(1, XDATA, add(CFA_XSP16, literal(-4)))
          CFI (cfiCond15) ?BRET_EXT load(1, XDATA, add(CFA_XSP16, literal(-3)))
          CFI (cfiCond15) DPL0 load(1, XDATA, add(CFA_XSP16, literal(-2)))
          CFI (cfiCond15) DPH0 load(1, XDATA, add(CFA_XSP16, literal(-1)))
          CFI (cfiCond15) CFA_SP SP+-4
          CFI (cfiCond15) CFA_XSP16 add(XSP16, 36)
          CFI Block cfiPicker16 Using cfiCommon1
          CFI (cfiPicker16) NoFunction
          CFI (cfiPicker16) Picker
        MOVX    @DPTR,A
        MOV     DPL,?V4
        MOV     DPH,?V5
        INC     DPTR
        RET
          CFI EndBlock cfiCond12
          CFI EndBlock cfiCond13
          CFI EndBlock cfiCond14
          CFI EndBlock cfiCond15
          CFI EndBlock cfiPicker16

        RSEG BANKED_CODE:CODE:NOROOT(0)
?Subroutine13:
          CFI Block cfiCond17 Using cfiCommon0
          CFI Function MT_AfDataRequest
          CFI Conditional ??CrossCallReturnLabel_79
          CFI R6 load(1, XDATA, add(CFA_XSP16, literal(-22)))
          CFI VB load(1, XDATA, add(CFA_XSP16, literal(-21)))
          CFI V0 load(1, XDATA, add(CFA_XSP16, literal(-20)))
          CFI V1 load(1, XDATA, add(CFA_XSP16, literal(-19)))
          CFI V2 load(1, XDATA, add(CFA_XSP16, literal(-18)))
          CFI V3 load(1, XDATA, add(CFA_XSP16, literal(-17)))
          CFI V4 load(1, XDATA, add(CFA_XSP16, literal(-16)))
          CFI V5 load(1, XDATA, add(CFA_XSP16, literal(-15)))
          CFI V6 load(1, XDATA, add(CFA_XSP16, literal(-14)))
          CFI V7 load(1, XDATA, add(CFA_XSP16, literal(-13)))
          CFI V8 load(1, XDATA, add(CFA_XSP16, literal(-12)))
          CFI V9 load(1, XDATA, add(CFA_XSP16, literal(-11)))
          CFI V10 load(1, XDATA, add(CFA_XSP16, literal(-10)))
          CFI V11 load(1, XDATA, add(CFA_XSP16, literal(-9)))
          CFI V12 load(1, XDATA, add(CFA_XSP16, literal(-8)))
          CFI V13 load(1, XDATA, add(CFA_XSP16, literal(-7)))
          CFI R7 load(1, XDATA, add(CFA_XSP16, literal(-6)))
          CFI ?RET_LOW load(1, XDATA, add(CFA_XSP16, literal(-5)))
          CFI ?RET_HIGH load(1, XDATA, add(CFA_XSP16, literal(-4)))
          CFI ?BRET_EXT load(1, XDATA, add(CFA_XSP16, literal(-3)))
          CFI DPL0 load(1, XDATA, add(CFA_XSP16, literal(-2)))
          CFI DPH0 load(1, XDATA, add(CFA_XSP16, literal(-1)))
          CFI CFA_SP SP+-2
          CFI CFA_XSP16 add(XSP16, 36)
          CFI Block cfiCond18 Using cfiCommon0
          CFI (cfiCond18) Function MT_AfDataRequest
          CFI (cfiCond18) Conditional ??CrossCallReturnLabel_80
          CFI (cfiCond18) R6 load(1, XDATA, add(CFA_XSP16, literal(-22)))
          CFI (cfiCond18) VB load(1, XDATA, add(CFA_XSP16, literal(-21)))
          CFI (cfiCond18) V0 load(1, XDATA, add(CFA_XSP16, literal(-20)))
          CFI (cfiCond18) V1 load(1, XDATA, add(CFA_XSP16, literal(-19)))
          CFI (cfiCond18) V2 load(1, XDATA, add(CFA_XSP16, literal(-18)))
          CFI (cfiCond18) V3 load(1, XDATA, add(CFA_XSP16, literal(-17)))
          CFI (cfiCond18) V4 load(1, XDATA, add(CFA_XSP16, literal(-16)))
          CFI (cfiCond18) V5 load(1, XDATA, add(CFA_XSP16, literal(-15)))
          CFI (cfiCond18) V6 load(1, XDATA, add(CFA_XSP16, literal(-14)))
          CFI (cfiCond18) V7 load(1, XDATA, add(CFA_XSP16, literal(-13)))
          CFI (cfiCond18) V8 load(1, XDATA, add(CFA_XSP16, literal(-12)))
          CFI (cfiCond18) V9 load(1, XDATA, add(CFA_XSP16, literal(-11)))
          CFI (cfiCond18) V10 load(1, XDATA, add(CFA_XSP16, literal(-10)))
          CFI (cfiCond18) V11 load(1, XDATA, add(CFA_XSP16, literal(-9)))
          CFI (cfiCond18) V12 load(1, XDATA, add(CFA_XSP16, literal(-8)))
          CFI (cfiCond18) V13 load(1, XDATA, add(CFA_XSP16, literal(-7)))
          CFI (cfiCond18) R7 load(1, XDATA, add(CFA_XSP16, literal(-6)))
          CFI (cfiCond18) ?RET_LOW load(1, XDATA, add(CFA_XSP16, literal(-5)))
          CFI (cfiCond18) ?RET_HIGH load(1, XDATA, add(CFA_XSP16, literal(-4)))
          CFI (cfiCond18) ?BRET_EXT load(1, XDATA, add(CFA_XSP16, literal(-3)))
          CFI (cfiCond18) DPL0 load(1, XDATA, add(CFA_XSP16, literal(-2)))
          CFI (cfiCond18) DPH0 load(1, XDATA, add(CFA_XSP16, literal(-1)))
          CFI (cfiCond18) CFA_SP SP+-2
          CFI (cfiCond18) CFA_XSP16 add(XSP16, 36)
          CFI Block cfiPicker19 Using cfiCommon1
          CFI (cfiPicker19) NoFunction
          CFI (cfiPicker19) Picker
        MOVX    A,@DPTR
        MOV     R2,A
        INC     DPTR
          CFI EndBlock cfiCond17
          CFI EndBlock cfiCond18
          CFI EndBlock cfiPicker19
        REQUIRE ??Subroutine39_0
        ; // Fall through to label ??Subroutine39_0

        RSEG BANKED_CODE:CODE:NOROOT(0)
??Subroutine39_0:
          CFI Block cfiCond20 Using cfiCommon0
          CFI Function MT_AfDataRequestSrcRtg
          CFI Conditional ??CrossCallReturnLabel_78
          CFI R6 load(1, XDATA, add(CFA_XSP16, literal(-20)))
          CFI VB load(1, XDATA, add(CFA_XSP16, literal(-19)))
          CFI V0 load(1, XDATA, add(CFA_XSP16, literal(-18)))
          CFI V1 load(1, XDATA, add(CFA_XSP16, literal(-17)))
          CFI V2 load(1, XDATA, add(CFA_XSP16, literal(-16)))
          CFI V3 load(1, XDATA, add(CFA_XSP16, literal(-15)))
          CFI V4 load(1, XDATA, add(CFA_XSP16, literal(-14)))
          CFI V5 load(1, XDATA, add(CFA_XSP16, literal(-13)))
          CFI V6 load(1, XDATA, add(CFA_XSP16, literal(-12)))
          CFI V7 load(1, XDATA, add(CFA_XSP16, literal(-11)))
          CFI V8 load(1, XDATA, add(CFA_XSP16, literal(-10)))
          CFI V9 load(1, XDATA, add(CFA_XSP16, literal(-9)))
          CFI V10 load(1, XDATA, add(CFA_XSP16, literal(-8)))
          CFI V11 load(1, XDATA, add(CFA_XSP16, literal(-7)))
          CFI R7 load(1, XDATA, add(CFA_XSP16, literal(-6)))
          CFI ?RET_LOW load(1, XDATA, add(CFA_XSP16, literal(-5)))
          CFI ?RET_HIGH load(1, XDATA, add(CFA_XSP16, literal(-4)))
          CFI ?BRET_EXT load(1, XDATA, add(CFA_XSP16, literal(-3)))
          CFI DPL0 load(1, XDATA, add(CFA_XSP16, literal(-2)))
          CFI DPH0 load(1, XDATA, add(CFA_XSP16, literal(-1)))
          CFI CFA_SP SP+-2
          CFI CFA_XSP16 add(XSP16, 34)
          CFI Block cfiCond21 Using cfiCommon0
          CFI (cfiCond21) Function MT_AfDataRequest
          CFI (cfiCond21) Conditional ??CrossCallReturnLabel_79
          CFI (cfiCond21) R6 load(1, XDATA, add(CFA_XSP16, literal(-22)))
          CFI (cfiCond21) VB load(1, XDATA, add(CFA_XSP16, literal(-21)))
          CFI (cfiCond21) V0 load(1, XDATA, add(CFA_XSP16, literal(-20)))
          CFI (cfiCond21) V1 load(1, XDATA, add(CFA_XSP16, literal(-19)))
          CFI (cfiCond21) V2 load(1, XDATA, add(CFA_XSP16, literal(-18)))
          CFI (cfiCond21) V3 load(1, XDATA, add(CFA_XSP16, literal(-17)))
          CFI (cfiCond21) V4 load(1, XDATA, add(CFA_XSP16, literal(-16)))
          CFI (cfiCond21) V5 load(1, XDATA, add(CFA_XSP16, literal(-15)))
          CFI (cfiCond21) V6 load(1, XDATA, add(CFA_XSP16, literal(-14)))
          CFI (cfiCond21) V7 load(1, XDATA, add(CFA_XSP16, literal(-13)))
          CFI (cfiCond21) V8 load(1, XDATA, add(CFA_XSP16, literal(-12)))
          CFI (cfiCond21) V9 load(1, XDATA, add(CFA_XSP16, literal(-11)))
          CFI (cfiCond21) V10 load(1, XDATA, add(CFA_XSP16, literal(-10)))
          CFI (cfiCond21) V11 load(1, XDATA, add(CFA_XSP16, literal(-9)))
          CFI (cfiCond21) V12 load(1, XDATA, add(CFA_XSP16, literal(-8)))
          CFI (cfiCond21) V13 load(1, XDATA, add(CFA_XSP16, literal(-7)))
          CFI (cfiCond21) R7 load(1, XDATA, add(CFA_XSP16, literal(-6)))
          CFI (cfiCond21) ?RET_LOW load(1, XDATA, add(CFA_XSP16, literal(-5)))
          CFI (cfiCond21) ?RET_HIGH load(1, XDATA, add(CFA_XSP16, literal(-4)))
          CFI (cfiCond21) ?BRET_EXT load(1, XDATA, add(CFA_XSP16, literal(-3)))
          CFI (cfiCond21) DPL0 load(1, XDATA, add(CFA_XSP16, literal(-2)))
          CFI (cfiCond21) DPH0 load(1, XDATA, add(CFA_XSP16, literal(-1)))
          CFI (cfiCond21) CFA_SP SP+-2
          CFI (cfiCond21) CFA_XSP16 add(XSP16, 36)
          CFI Block cfiCond22 Using cfiCommon0
          CFI (cfiCond22) Function MT_AfDataRequest
          CFI (cfiCond22) Conditional ??CrossCallReturnLabel_80
          CFI (cfiCond22) R6 load(1, XDATA, add(CFA_XSP16, literal(-22)))
          CFI (cfiCond22) VB load(1, XDATA, add(CFA_XSP16, literal(-21)))
          CFI (cfiCond22) V0 load(1, XDATA, add(CFA_XSP16, literal(-20)))
          CFI (cfiCond22) V1 load(1, XDATA, add(CFA_XSP16, literal(-19)))
          CFI (cfiCond22) V2 load(1, XDATA, add(CFA_XSP16, literal(-18)))
          CFI (cfiCond22) V3 load(1, XDATA, add(CFA_XSP16, literal(-17)))
          CFI (cfiCond22) V4 load(1, XDATA, add(CFA_XSP16, literal(-16)))
          CFI (cfiCond22) V5 load(1, XDATA, add(CFA_XSP16, literal(-15)))
          CFI (cfiCond22) V6 load(1, XDATA, add(CFA_XSP16, literal(-14)))
          CFI (cfiCond22) V7 load(1, XDATA, add(CFA_XSP16, literal(-13)))
          CFI (cfiCond22) V8 load(1, XDATA, add(CFA_XSP16, literal(-12)))
          CFI (cfiCond22) V9 load(1, XDATA, add(CFA_XSP16, literal(-11)))
          CFI (cfiCond22) V10 load(1, XDATA, add(CFA_XSP16, literal(-10)))
          CFI (cfiCond22) V11 load(1, XDATA, add(CFA_XSP16, literal(-9)))
          CFI (cfiCond22) V12 load(1, XDATA, add(CFA_XSP16, literal(-8)))
          CFI (cfiCond22) V13 load(1, XDATA, add(CFA_XSP16, literal(-7)))
          CFI (cfiCond22) R7 load(1, XDATA, add(CFA_XSP16, literal(-6)))
          CFI (cfiCond22) ?RET_LOW load(1, XDATA, add(CFA_XSP16, literal(-5)))
          CFI (cfiCond22) ?RET_HIGH load(1, XDATA, add(CFA_XSP16, literal(-4)))
          CFI (cfiCond22) ?BRET_EXT load(1, XDATA, add(CFA_XSP16, literal(-3)))
          CFI (cfiCond22) DPL0 load(1, XDATA, add(CFA_XSP16, literal(-2)))
          CFI (cfiCond22) DPH0 load(1, XDATA, add(CFA_XSP16, literal(-1)))
          CFI (cfiCond22) CFA_SP SP+-2
          CFI (cfiCond22) CFA_XSP16 add(XSP16, 36)
          CFI Block cfiPicker23 Using cfiCommon1
          CFI (cfiPicker23) NoFunction
          CFI (cfiPicker23) Picker
        MOVX    A,@DPTR
        MOV     R0,A
        CLR     A
        XCH     A,R0
        MOV     R1,A
        MOV     A,R2
        ADD     A,R0
        RET
          CFI EndBlock cfiCond20
          CFI EndBlock cfiCond21
          CFI EndBlock cfiCond22
          CFI EndBlock cfiPicker23

        RSEG BANKED_CODE:CODE:NOROOT(0)
?Subroutine7:
          CFI Block cfiCond24 Using cfiCommon0
          CFI Function MT_AfExec
          CFI Conditional ??CrossCallReturnLabel_10
          CFI R6 load(1, XDATA, add(CFA_XSP16, literal(-9)))
          CFI VB load(1, XDATA, add(CFA_XSP16, literal(-8)))
          CFI V0 load(1, XDATA, add(CFA_XSP16, literal(-7)))
          CFI R7 load(1, XDATA, add(CFA_XSP16, literal(-6)))
          CFI ?RET_LOW load(1, XDATA, add(CFA_XSP16, literal(-5)))
          CFI ?RET_HIGH load(1, XDATA, add(CFA_XSP16, literal(-4)))
          CFI ?BRET_EXT load(1, XDATA, add(CFA_XSP16, literal(-3)))
          CFI DPL0 load(1, XDATA, add(CFA_XSP16, literal(-2)))
          CFI DPH0 load(1, XDATA, add(CFA_XSP16, literal(-1)))
          CFI CFA_SP SP+-2
          CFI CFA_XSP16 add(XSP16, 9)
          CFI Block cfiCond25 Using cfiCommon0
          CFI (cfiCond25) Function MT_AfDataRequest
          CFI (cfiCond25) Conditional ??CrossCallReturnLabel_9
          CFI (cfiCond25) R6 load(1, XDATA, add(CFA_XSP16, literal(-22)))
          CFI (cfiCond25) VB load(1, XDATA, add(CFA_XSP16, literal(-21)))
          CFI (cfiCond25) V0 load(1, XDATA, add(CFA_XSP16, literal(-20)))
          CFI (cfiCond25) V1 load(1, XDATA, add(CFA_XSP16, literal(-19)))
          CFI (cfiCond25) V2 load(1, XDATA, add(CFA_XSP16, literal(-18)))
          CFI (cfiCond25) V3 load(1, XDATA, add(CFA_XSP16, literal(-17)))
          CFI (cfiCond25) V4 load(1, XDATA, add(CFA_XSP16, literal(-16)))
          CFI (cfiCond25) V5 load(1, XDATA, add(CFA_XSP16, literal(-15)))
          CFI (cfiCond25) V6 load(1, XDATA, add(CFA_XSP16, literal(-14)))
          CFI (cfiCond25) V7 load(1, XDATA, add(CFA_XSP16, literal(-13)))
          CFI (cfiCond25) V8 load(1, XDATA, add(CFA_XSP16, literal(-12)))
          CFI (cfiCond25) V9 load(1, XDATA, add(CFA_XSP16, literal(-11)))
          CFI (cfiCond25) V10 load(1, XDATA, add(CFA_XSP16, literal(-10)))
          CFI (cfiCond25) V11 load(1, XDATA, add(CFA_XSP16, literal(-9)))
          CFI (cfiCond25) V12 load(1, XDATA, add(CFA_XSP16, literal(-8)))
          CFI (cfiCond25) V13 load(1, XDATA, add(CFA_XSP16, literal(-7)))
          CFI (cfiCond25) R7 load(1, XDATA, add(CFA_XSP16, literal(-6)))
          CFI (cfiCond25) ?RET_LOW load(1, XDATA, add(CFA_XSP16, literal(-5)))
          CFI (cfiCond25) ?RET_HIGH load(1, XDATA, add(CFA_XSP16, literal(-4)))
          CFI (cfiCond25) ?BRET_EXT load(1, XDATA, add(CFA_XSP16, literal(-3)))
          CFI (cfiCond25) DPL0 load(1, XDATA, add(CFA_XSP16, literal(-2)))
          CFI (cfiCond25) DPH0 load(1, XDATA, add(CFA_XSP16, literal(-1)))
          CFI (cfiCond25) CFA_SP SP+-2
          CFI (cfiCond25) CFA_XSP16 add(XSP16, 36)
          CFI Block cfiPicker26 Using cfiCommon1
          CFI (cfiPicker26) NoFunction
          CFI (cfiPicker26) Picker
        MOVX    @DPTR,A
        LCALL   ?Subroutine32 & 0xFFFF
??CrossCallReturnLabel_62:
        LCALL   ?Subroutine36 & 0xFFFF
??CrossCallReturnLabel_73:
        RET
          CFI EndBlock cfiCond24
          CFI EndBlock cfiCond25
          CFI EndBlock cfiPicker26

        RSEG BANKED_CODE:CODE:NOROOT(0)
?Subroutine36:
          CFI Block cfiCond27 Using cfiCommon0
          CFI Function MT_AfExec
          CFI Conditional ??CrossCallReturnLabel_72
          CFI R6 load(1, XDATA, add(CFA_XSP16, literal(-9)))
          CFI VB load(1, XDATA, add(CFA_XSP16, literal(-8)))
          CFI V0 load(1, XDATA, add(CFA_XSP16, literal(-7)))
          CFI R7 load(1, XDATA, add(CFA_XSP16, literal(-6)))
          CFI ?RET_LOW load(1, XDATA, add(CFA_XSP16, literal(-5)))
          CFI ?RET_HIGH load(1, XDATA, add(CFA_XSP16, literal(-4)))
          CFI ?BRET_EXT load(1, XDATA, add(CFA_XSP16, literal(-3)))
          CFI DPL0 load(1, XDATA, add(CFA_XSP16, literal(-2)))
          CFI DPH0 load(1, XDATA, add(CFA_XSP16, literal(-1)))
          CFI CFA_SP SP+-2
          CFI CFA_XSP16 add(XSP16, 9)
          CFI Block cfiCond28 Using cfiCommon0
          CFI (cfiCond28) Function MT_AfExec
          CFI (cfiCond28) Conditional ??CrossCallReturnLabel_73, ??CrossCallReturnLabel_10
          CFI (cfiCond28) R6 load(1, XDATA, add(CFA_XSP16, literal(-9)))
          CFI (cfiCond28) VB load(1, XDATA, add(CFA_XSP16, literal(-8)))
          CFI (cfiCond28) V0 load(1, XDATA, add(CFA_XSP16, literal(-7)))
          CFI (cfiCond28) R7 load(1, XDATA, add(CFA_XSP16, literal(-6)))
          CFI (cfiCond28) ?RET_LOW load(1, XDATA, add(CFA_XSP16, literal(-5)))
          CFI (cfiCond28) ?RET_HIGH load(1, XDATA, add(CFA_XSP16, literal(-4)))
          CFI (cfiCond28) ?BRET_EXT load(1, XDATA, add(CFA_XSP16, literal(-3)))
          CFI (cfiCond28) DPL0 load(1, XDATA, add(CFA_XSP16, literal(-2)))
          CFI (cfiCond28) DPH0 load(1, XDATA, add(CFA_XSP16, literal(-1)))
          CFI (cfiCond28) CFA_SP SP+-4
          CFI (cfiCond28) CFA_XSP16 add(XSP16, 9)
          CFI Block cfiCond29 Using cfiCommon0
          CFI (cfiCond29) Function MT_AfDataRequest
          CFI (cfiCond29) Conditional ??CrossCallReturnLabel_73, ??CrossCallReturnLabel_9
          CFI (cfiCond29) R6 load(1, XDATA, add(CFA_XSP16, literal(-22)))
          CFI (cfiCond29) VB load(1, XDATA, add(CFA_XSP16, literal(-21)))
          CFI (cfiCond29) V0 load(1, XDATA, add(CFA_XSP16, literal(-20)))
          CFI (cfiCond29) V1 load(1, XDATA, add(CFA_XSP16, literal(-19)))
          CFI (cfiCond29) V2 load(1, XDATA, add(CFA_XSP16, literal(-18)))
          CFI (cfiCond29) V3 load(1, XDATA, add(CFA_XSP16, literal(-17)))
          CFI (cfiCond29) V4 load(1, XDATA, add(CFA_XSP16, literal(-16)))
          CFI (cfiCond29) V5 load(1, XDATA, add(CFA_XSP16, literal(-15)))
          CFI (cfiCond29) V6 load(1, XDATA, add(CFA_XSP16, literal(-14)))
          CFI (cfiCond29) V7 load(1, XDATA, add(CFA_XSP16, literal(-13)))
          CFI (cfiCond29) V8 load(1, XDATA, add(CFA_XSP16, literal(-12)))
          CFI (cfiCond29) V9 load(1, XDATA, add(CFA_XSP16, literal(-11)))
          CFI (cfiCond29) V10 load(1, XDATA, add(CFA_XSP16, literal(-10)))
          CFI (cfiCond29) V11 load(1, XDATA, add(CFA_XSP16, literal(-9)))
          CFI (cfiCond29) V12 load(1, XDATA, add(CFA_XSP16, literal(-8)))
          CFI (cfiCond29) V13 load(1, XDATA, add(CFA_XSP16, literal(-7)))
          CFI (cfiCond29) R7 load(1, XDATA, add(CFA_XSP16, literal(-6)))
          CFI (cfiCond29) ?RET_LOW load(1, XDATA, add(CFA_XSP16, literal(-5)))
          CFI (cfiCond29) ?RET_HIGH load(1, XDATA, add(CFA_XSP16, literal(-4)))
          CFI (cfiCond29) ?BRET_EXT load(1, XDATA, add(CFA_XSP16, literal(-3)))
          CFI (cfiCond29) DPL0 load(1, XDATA, add(CFA_XSP16, literal(-2)))
          CFI (cfiCond29) DPH0 load(1, XDATA, add(CFA_XSP16, literal(-1)))
          CFI (cfiCond29) CFA_SP SP+-4
          CFI (cfiCond29) CFA_XSP16 add(XSP16, 36)
          CFI Block cfiPicker30 Using cfiCommon1
          CFI (cfiPicker30) NoFunction
          CFI (cfiPicker30) Picker
        ADD     A,#0x17
        MOV     DPL,A
        CLR     A
        ADDC    A,R0
        MOV     DPH,A
        RET
          CFI EndBlock cfiCond27
          CFI EndBlock cfiCond28
          CFI EndBlock cfiCond29
          CFI EndBlock cfiPicker30

        RSEG BANKED_CODE:CODE:NOROOT(0)
?Subroutine2:
          CFI Block cfiCond31 Using cfiCommon0
          CFI Function MT_AfExec
          CFI Conditional ??CrossCallReturnLabel_82
          CFI R6 load(1, XDATA, add(CFA_XSP16, literal(-9)))
          CFI VB load(1, XDATA, add(CFA_XSP16, literal(-8)))
          CFI V0 load(1, XDATA, add(CFA_XSP16, literal(-7)))
          CFI R7 load(1, XDATA, add(CFA_XSP16, literal(-6)))
          CFI ?RET_LOW load(1, XDATA, add(CFA_XSP16, literal(-5)))
          CFI ?RET_HIGH load(1, XDATA, add(CFA_XSP16, literal(-4)))
          CFI ?BRET_EXT load(1, XDATA, add(CFA_XSP16, literal(-3)))
          CFI DPL0 load(1, XDATA, add(CFA_XSP16, literal(-2)))
          CFI DPH0 load(1, XDATA, add(CFA_XSP16, literal(-1)))
          CFI CFA_SP SP+-2
          CFI CFA_XSP16 add(XSP16, 9)
          CFI Block cfiCond32 Using cfiCommon0
          CFI (cfiCond32) Function MT_AfExec
          CFI (cfiCond32) Conditional ??CrossCallReturnLabel_83
          CFI (cfiCond32) R6 load(1, XDATA, add(CFA_XSP16, literal(-9)))
          CFI (cfiCond32) VB load(1, XDATA, add(CFA_XSP16, literal(-8)))
          CFI (cfiCond32) V0 load(1, XDATA, add(CFA_XSP16, literal(-7)))
          CFI (cfiCond32) R7 load(1, XDATA, add(CFA_XSP16, literal(-6)))
          CFI (cfiCond32) ?RET_LOW load(1, XDATA, add(CFA_XSP16, literal(-5)))
          CFI (cfiCond32) ?RET_HIGH load(1, XDATA, add(CFA_XSP16, literal(-4)))
          CFI (cfiCond32) ?BRET_EXT load(1, XDATA, add(CFA_XSP16, literal(-3)))
          CFI (cfiCond32) DPL0 load(1, XDATA, add(CFA_XSP16, literal(-2)))
          CFI (cfiCond32) DPH0 load(1, XDATA, add(CFA_XSP16, literal(-1)))
          CFI (cfiCond32) CFA_SP SP+-2
          CFI (cfiCond32) CFA_XSP16 add(XSP16, 9)
          CFI Block cfiCond33 Using cfiCommon0
          CFI (cfiCond33) Function MT_AfDataRequest
          CFI (cfiCond33) Conditional ??CrossCallReturnLabel_84
          CFI (cfiCond33) R6 load(1, XDATA, add(CFA_XSP16, literal(-22)))
          CFI (cfiCond33) VB load(1, XDATA, add(CFA_XSP16, literal(-21)))
          CFI (cfiCond33) V0 load(1, XDATA, add(CFA_XSP16, literal(-20)))
          CFI (cfiCond33) V1 load(1, XDATA, add(CFA_XSP16, literal(-19)))
          CFI (cfiCond33) V2 load(1, XDATA, add(CFA_XSP16, literal(-18)))
          CFI (cfiCond33) V3 load(1, XDATA, add(CFA_XSP16, literal(-17)))
          CFI (cfiCond33) V4 load(1, XDATA, add(CFA_XSP16, literal(-16)))
          CFI (cfiCond33) V5 load(1, XDATA, add(CFA_XSP16, literal(-15)))
          CFI (cfiCond33) V6 load(1, XDATA, add(CFA_XSP16, literal(-14)))
          CFI (cfiCond33) V7 load(1, XDATA, add(CFA_XSP16, literal(-13)))
          CFI (cfiCond33) V8 load(1, XDATA, add(CFA_XSP16, literal(-12)))
          CFI (cfiCond33) V9 load(1, XDATA, add(CFA_XSP16, literal(-11)))
          CFI (cfiCond33) V10 load(1, XDATA, add(CFA_XSP16, literal(-10)))
          CFI (cfiCond33) V11 load(1, XDATA, add(CFA_XSP16, literal(-9)))
          CFI (cfiCond33) V12 load(1, XDATA, add(CFA_XSP16, literal(-8)))
          CFI (cfiCond33) V13 load(1, XDATA, add(CFA_XSP16, literal(-7)))
          CFI (cfiCond33) R7 load(1, XDATA, add(CFA_XSP16, literal(-6)))
          CFI (cfiCond33) ?RET_LOW load(1, XDATA, add(CFA_XSP16, literal(-5)))
          CFI (cfiCond33) ?RET_HIGH load(1, XDATA, add(CFA_XSP16, literal(-4)))
          CFI (cfiCond33) ?BRET_EXT load(1, XDATA, add(CFA_XSP16, literal(-3)))
          CFI (cfiCond33) DPL0 load(1, XDATA, add(CFA_XSP16, literal(-2)))
          CFI (cfiCond33) DPH0 load(1, XDATA, add(CFA_XSP16, literal(-1)))
          CFI (cfiCond33) CFA_SP SP+-2
          CFI (cfiCond33) CFA_XSP16 add(XSP16, 36)
          CFI Block cfiCond34 Using cfiCommon0
          CFI (cfiCond34) Function MT_AfDataRequest
          CFI (cfiCond34) Conditional ??CrossCallReturnLabel_85
          CFI (cfiCond34) R6 load(1, XDATA, add(CFA_XSP16, literal(-22)))
          CFI (cfiCond34) VB load(1, XDATA, add(CFA_XSP16, literal(-21)))
          CFI (cfiCond34) V0 load(1, XDATA, add(CFA_XSP16, literal(-20)))
          CFI (cfiCond34) V1 load(1, XDATA, add(CFA_XSP16, literal(-19)))
          CFI (cfiCond34) V2 load(1, XDATA, add(CFA_XSP16, literal(-18)))
          CFI (cfiCond34) V3 load(1, XDATA, add(CFA_XSP16, literal(-17)))
          CFI (cfiCond34) V4 load(1, XDATA, add(CFA_XSP16, literal(-16)))
          CFI (cfiCond34) V5 load(1, XDATA, add(CFA_XSP16, literal(-15)))
          CFI (cfiCond34) V6 load(1, XDATA, add(CFA_XSP16, literal(-14)))
          CFI (cfiCond34) V7 load(1, XDATA, add(CFA_XSP16, literal(-13)))
          CFI (cfiCond34) V8 load(1, XDATA, add(CFA_XSP16, literal(-12)))
          CFI (cfiCond34) V9 load(1, XDATA, add(CFA_XSP16, literal(-11)))
          CFI (cfiCond34) V10 load(1, XDATA, add(CFA_XSP16, literal(-10)))
          CFI (cfiCond34) V11 load(1, XDATA, add(CFA_XSP16, literal(-9)))
          CFI (cfiCond34) V12 load(1, XDATA, add(CFA_XSP16, literal(-8)))
          CFI (cfiCond34) V13 load(1, XDATA, add(CFA_XSP16, literal(-7)))
          CFI (cfiCond34) R7 load(1, XDATA, add(CFA_XSP16, literal(-6)))
          CFI (cfiCond34) ?RET_LOW load(1, XDATA, add(CFA_XSP16, literal(-5)))
          CFI (cfiCond34) ?RET_HIGH load(1, XDATA, add(CFA_XSP16, literal(-4)))
          CFI (cfiCond34) ?BRET_EXT load(1, XDATA, add(CFA_XSP16, literal(-3)))
          CFI (cfiCond34) DPL0 load(1, XDATA, add(CFA_XSP16, literal(-2)))
          CFI (cfiCond34) DPH0 load(1, XDATA, add(CFA_XSP16, literal(-1)))
          CFI (cfiCond34) CFA_SP SP+-2
          CFI (cfiCond34) CFA_XSP16 add(XSP16, 36)
          CFI Block cfiCond35 Using cfiCommon0
          CFI (cfiCond35) Function MT_AfDataStore
          CFI (cfiCond35) Conditional ??CrossCallReturnLabel_86
          CFI (cfiCond35) R6 load(1, XDATA, add(CFA_XSP16, literal(-11)))
          CFI (cfiCond35) VB load(1, XDATA, add(CFA_XSP16, literal(-10)))
          CFI (cfiCond35) V0 load(1, XDATA, add(CFA_XSP16, literal(-9)))
          CFI (cfiCond35) V1 load(1, XDATA, add(CFA_XSP16, literal(-8)))
          CFI (cfiCond35) V2 load(1, XDATA, add(CFA_XSP16, literal(-7)))
          CFI (cfiCond35) R7 load(1, XDATA, add(CFA_XSP16, literal(-6)))
          CFI (cfiCond35) ?RET_LOW load(1, XDATA, add(CFA_XSP16, literal(-5)))
          CFI (cfiCond35) ?RET_HIGH load(1, XDATA, add(CFA_XSP16, literal(-4)))
          CFI (cfiCond35) ?BRET_EXT load(1, XDATA, add(CFA_XSP16, literal(-3)))
          CFI (cfiCond35) DPL0 load(1, XDATA, add(CFA_XSP16, literal(-2)))
          CFI (cfiCond35) DPH0 load(1, XDATA, add(CFA_XSP16, literal(-1)))
          CFI (cfiCond35) CFA_SP SP+-2
          CFI (cfiCond35) CFA_XSP16 add(XSP16, 12)
          CFI Block cfiPicker36 Using cfiCommon1
          CFI (cfiPicker36) NoFunction
          CFI (cfiPicker36) Picker
        MOV     DPTR,#pMtAfDataReq
          CFI EndBlock cfiCond31
          CFI EndBlock cfiCond32
          CFI EndBlock cfiCond33
          CFI EndBlock cfiCond34
          CFI EndBlock cfiCond35
          CFI EndBlock cfiPicker36
        REQUIRE ??Subroutine40_0
        ; // Fall through to label ??Subroutine40_0

        RSEG BANKED_CODE:CODE:NOROOT(0)
??Subroutine40_0:
          CFI Block cfiCond37 Using cfiCommon0
          CFI Function MT_AfExec
          CFI Conditional ??CrossCallReturnLabel_81
          CFI R6 load(1, XDATA, add(CFA_XSP16, literal(-9)))
          CFI VB load(1, XDATA, add(CFA_XSP16, literal(-8)))
          CFI V0 load(1, XDATA, add(CFA_XSP16, literal(-7)))
          CFI R7 load(1, XDATA, add(CFA_XSP16, literal(-6)))
          CFI ?RET_LOW load(1, XDATA, add(CFA_XSP16, literal(-5)))
          CFI ?RET_HIGH load(1, XDATA, add(CFA_XSP16, literal(-4)))
          CFI ?BRET_EXT load(1, XDATA, add(CFA_XSP16, literal(-3)))
          CFI DPL0 load(1, XDATA, add(CFA_XSP16, literal(-2)))
          CFI DPH0 load(1, XDATA, add(CFA_XSP16, literal(-1)))
          CFI CFA_SP SP+-2
          CFI CFA_XSP16 add(XSP16, 9)
          CFI Block cfiCond38 Using cfiCommon0
          CFI (cfiCond38) Function MT_AfExec
          CFI (cfiCond38) Conditional ??CrossCallReturnLabel_82
          CFI (cfiCond38) R6 load(1, XDATA, add(CFA_XSP16, literal(-9)))
          CFI (cfiCond38) VB load(1, XDATA, add(CFA_XSP16, literal(-8)))
          CFI (cfiCond38) V0 load(1, XDATA, add(CFA_XSP16, literal(-7)))
          CFI (cfiCond38) R7 load(1, XDATA, add(CFA_XSP16, literal(-6)))
          CFI (cfiCond38) ?RET_LOW load(1, XDATA, add(CFA_XSP16, literal(-5)))
          CFI (cfiCond38) ?RET_HIGH load(1, XDATA, add(CFA_XSP16, literal(-4)))
          CFI (cfiCond38) ?BRET_EXT load(1, XDATA, add(CFA_XSP16, literal(-3)))
          CFI (cfiCond38) DPL0 load(1, XDATA, add(CFA_XSP16, literal(-2)))
          CFI (cfiCond38) DPH0 load(1, XDATA, add(CFA_XSP16, literal(-1)))
          CFI (cfiCond38) CFA_SP SP+-2
          CFI (cfiCond38) CFA_XSP16 add(XSP16, 9)
          CFI Block cfiCond39 Using cfiCommon0
          CFI (cfiCond39) Function MT_AfExec
          CFI (cfiCond39) Conditional ??CrossCallReturnLabel_83
          CFI (cfiCond39) R6 load(1, XDATA, add(CFA_XSP16, literal(-9)))
          CFI (cfiCond39) VB load(1, XDATA, add(CFA_XSP16, literal(-8)))
          CFI (cfiCond39) V0 load(1, XDATA, add(CFA_XSP16, literal(-7)))
          CFI (cfiCond39) R7 load(1, XDATA, add(CFA_XSP16, literal(-6)))
          CFI (cfiCond39) ?RET_LOW load(1, XDATA, add(CFA_XSP16, literal(-5)))
          CFI (cfiCond39) ?RET_HIGH load(1, XDATA, add(CFA_XSP16, literal(-4)))
          CFI (cfiCond39) ?BRET_EXT load(1, XDATA, add(CFA_XSP16, literal(-3)))
          CFI (cfiCond39) DPL0 load(1, XDATA, add(CFA_XSP16, literal(-2)))
          CFI (cfiCond39) DPH0 load(1, XDATA, add(CFA_XSP16, literal(-1)))
          CFI (cfiCond39) CFA_SP SP+-2
          CFI (cfiCond39) CFA_XSP16 add(XSP16, 9)
          CFI Block cfiCond40 Using cfiCommon0
          CFI (cfiCond40) Function MT_AfDataRequest
          CFI (cfiCond40) Conditional ??CrossCallReturnLabel_84
          CFI (cfiCond40) R6 load(1, XDATA, add(CFA_XSP16, literal(-22)))
          CFI (cfiCond40) VB load(1, XDATA, add(CFA_XSP16, literal(-21)))
          CFI (cfiCond40) V0 load(1, XDATA, add(CFA_XSP16, literal(-20)))
          CFI (cfiCond40) V1 load(1, XDATA, add(CFA_XSP16, literal(-19)))
          CFI (cfiCond40) V2 load(1, XDATA, add(CFA_XSP16, literal(-18)))
          CFI (cfiCond40) V3 load(1, XDATA, add(CFA_XSP16, literal(-17)))
          CFI (cfiCond40) V4 load(1, XDATA, add(CFA_XSP16, literal(-16)))
          CFI (cfiCond40) V5 load(1, XDATA, add(CFA_XSP16, literal(-15)))
          CFI (cfiCond40) V6 load(1, XDATA, add(CFA_XSP16, literal(-14)))
          CFI (cfiCond40) V7 load(1, XDATA, add(CFA_XSP16, literal(-13)))
          CFI (cfiCond40) V8 load(1, XDATA, add(CFA_XSP16, literal(-12)))
          CFI (cfiCond40) V9 load(1, XDATA, add(CFA_XSP16, literal(-11)))
          CFI (cfiCond40) V10 load(1, XDATA, add(CFA_XSP16, literal(-10)))
          CFI (cfiCond40) V11 load(1, XDATA, add(CFA_XSP16, literal(-9)))
          CFI (cfiCond40) V12 load(1, XDATA, add(CFA_XSP16, literal(-8)))
          CFI (cfiCond40) V13 load(1, XDATA, add(CFA_XSP16, literal(-7)))
          CFI (cfiCond40) R7 load(1, XDATA, add(CFA_XSP16, literal(-6)))
          CFI (cfiCond40) ?RET_LOW load(1, XDATA, add(CFA_XSP16, literal(-5)))
          CFI (cfiCond40) ?RET_HIGH load(1, XDATA, add(CFA_XSP16, literal(-4)))
          CFI (cfiCond40) ?BRET_EXT load(1, XDATA, add(CFA_XSP16, literal(-3)))
          CFI (cfiCond40) DPL0 load(1, XDATA, add(CFA_XSP16, literal(-2)))
          CFI (cfiCond40) DPH0 load(1, XDATA, add(CFA_XSP16, literal(-1)))
          CFI (cfiCond40) CFA_SP SP+-2
          CFI (cfiCond40) CFA_XSP16 add(XSP16, 36)
          CFI Block cfiCond41 Using cfiCommon0
          CFI (cfiCond41) Function MT_AfDataRequest
          CFI (cfiCond41) Conditional ??CrossCallReturnLabel_85
          CFI (cfiCond41) R6 load(1, XDATA, add(CFA_XSP16, literal(-22)))
          CFI (cfiCond41) VB load(1, XDATA, add(CFA_XSP16, literal(-21)))
          CFI (cfiCond41) V0 load(1, XDATA, add(CFA_XSP16, literal(-20)))
          CFI (cfiCond41) V1 load(1, XDATA, add(CFA_XSP16, literal(-19)))
          CFI (cfiCond41) V2 load(1, XDATA, add(CFA_XSP16, literal(-18)))
          CFI (cfiCond41) V3 load(1, XDATA, add(CFA_XSP16, literal(-17)))
          CFI (cfiCond41) V4 load(1, XDATA, add(CFA_XSP16, literal(-16)))
          CFI (cfiCond41) V5 load(1, XDATA, add(CFA_XSP16, literal(-15)))
          CFI (cfiCond41) V6 load(1, XDATA, add(CFA_XSP16, literal(-14)))
          CFI (cfiCond41) V7 load(1, XDATA, add(CFA_XSP16, literal(-13)))
          CFI (cfiCond41) V8 load(1, XDATA, add(CFA_XSP16, literal(-12)))
          CFI (cfiCond41) V9 load(1, XDATA, add(CFA_XSP16, literal(-11)))
          CFI (cfiCond41) V10 load(1, XDATA, add(CFA_XSP16, literal(-10)))
          CFI (cfiCond41) V11 load(1, XDATA, add(CFA_XSP16, literal(-9)))
          CFI (cfiCond41) V12 load(1, XDATA, add(CFA_XSP16, literal(-8)))
          CFI (cfiCond41) V13 load(1, XDATA, add(CFA_XSP16, literal(-7)))
          CFI (cfiCond41) R7 load(1, XDATA, add(CFA_XSP16, literal(-6)))
          CFI (cfiCond41) ?RET_LOW load(1, XDATA, add(CFA_XSP16, literal(-5)))
          CFI (cfiCond41) ?RET_HIGH load(1, XDATA, add(CFA_XSP16, literal(-4)))
          CFI (cfiCond41) ?BRET_EXT load(1, XDATA, add(CFA_XSP16, literal(-3)))
          CFI (cfiCond41) DPL0 load(1, XDATA, add(CFA_XSP16, literal(-2)))
          CFI (cfiCond41) DPH0 load(1, XDATA, add(CFA_XSP16, literal(-1)))
          CFI (cfiCond41) CFA_SP SP+-2
          CFI (cfiCond41) CFA_XSP16 add(XSP16, 36)
          CFI Block cfiCond42 Using cfiCommon0
          CFI (cfiCond42) Function MT_AfDataStore
          CFI (cfiCond42) Conditional ??CrossCallReturnLabel_86
          CFI (cfiCond42) R6 load(1, XDATA, add(CFA_XSP16, literal(-11)))
          CFI (cfiCond42) VB load(1, XDATA, add(CFA_XSP16, literal(-10)))
          CFI (cfiCond42) V0 load(1, XDATA, add(CFA_XSP16, literal(-9)))
          CFI (cfiCond42) V1 load(1, XDATA, add(CFA_XSP16, literal(-8)))
          CFI (cfiCond42) V2 load(1, XDATA, add(CFA_XSP16, literal(-7)))
          CFI (cfiCond42) R7 load(1, XDATA, add(CFA_XSP16, literal(-6)))
          CFI (cfiCond42) ?RET_LOW load(1, XDATA, add(CFA_XSP16, literal(-5)))
          CFI (cfiCond42) ?RET_HIGH load(1, XDATA, add(CFA_XSP16, literal(-4)))
          CFI (cfiCond42) ?BRET_EXT load(1, XDATA, add(CFA_XSP16, literal(-3)))
          CFI (cfiCond42) DPL0 load(1, XDATA, add(CFA_XSP16, literal(-2)))
          CFI (cfiCond42) DPH0 load(1, XDATA, add(CFA_XSP16, literal(-1)))
          CFI (cfiCond42) CFA_SP SP+-2
          CFI (cfiCond42) CFA_XSP16 add(XSP16, 12)
          CFI Block cfiPicker43 Using cfiCommon1
          CFI (cfiPicker43) NoFunction
          CFI (cfiPicker43) Picker
        MOVX    A,@DPTR
        MOV     R0,A
        INC     DPTR
        MOVX    A,@DPTR
        MOV     R1,A
        MOV     A,R0
        ORL     A,R1
        RET
          CFI EndBlock cfiCond37
          CFI EndBlock cfiCond38
          CFI EndBlock cfiCond39
          CFI EndBlock cfiCond40
          CFI EndBlock cfiCond41
          CFI EndBlock cfiCond42
          CFI EndBlock cfiPicker43
//  423 
//  424 #if defined ( ZIGBEE_SOURCE_ROUTING )
//  425 
//  426 /***************************************************************************************************
//  427  * @fn      MT_AfDataRequestSrcRtg
//  428  *
//  429  * @brief   Process AF Register command
//  430  *
//  431  * @param   pBuf - pointer to the received buffer
//  432  *
//  433  * @return  none
//  434  ***************************************************************************************************/

        RSEG BANKED_CODE:CODE:NOROOT(0)
//  435 void MT_AfDataRequestSrcRtg(uint8 *pBuf)
MT_AfDataRequestSrcRtg:
          CFI Block cfiBlock44 Using cfiCommon0
          CFI Function MT_AfDataRequestSrcRtg
        CODE
//  436 {
        FUNCALL MT_AfDataRequestSrcRtg, osal_memset
        LOCFRAME ISTACK, 0, STACK
        LOCFRAME PSTACK, 0, STACK
        LOCFRAME XSTACK, 34, STACK
        LOCFRAME IOVERLAY, 0, STATIC
        LOCFRAME DOVERLAY, 0, STATIC
        ARGFRAME ISTACK, 0, STACK
        ARGFRAME PSTACK, 0, STACK
        ARGFRAME XSTACK, 34, STACK
        ARGFRAME IOVERLAY, 0, STATIC
        ARGFRAME DOVERLAY, 0, STATIC
        FUNCALL MT_AfDataRequestSrcRtg, afFindEndPointDesc
        LOCFRAME ISTACK, 0, STACK
        LOCFRAME PSTACK, 0, STACK
        LOCFRAME XSTACK, 34, STACK
        LOCFRAME IOVERLAY, 0, STATIC
        LOCFRAME DOVERLAY, 0, STATIC
        ARGFRAME ISTACK, 0, STACK
        ARGFRAME PSTACK, 0, STACK
        ARGFRAME XSTACK, 34, STACK
        ARGFRAME IOVERLAY, 0, STATIC
        ARGFRAME DOVERLAY, 0, STATIC
        FUNCALL MT_AfDataRequestSrcRtg, osal_mem_alloc
        LOCFRAME ISTACK, 0, STACK
        LOCFRAME PSTACK, 0, STACK
        LOCFRAME XSTACK, 34, STACK
        LOCFRAME IOVERLAY, 0, STATIC
        LOCFRAME DOVERLAY, 0, STATIC
        ARGFRAME ISTACK, 0, STACK
        ARGFRAME PSTACK, 0, STACK
        ARGFRAME XSTACK, 34, STACK
        ARGFRAME IOVERLAY, 0, STATIC
        ARGFRAME DOVERLAY, 0, STATIC
        FUNCALL MT_AfDataRequestSrcRtg, AF_DataRequestSrcRtg
        LOCFRAME ISTACK, 0, STACK
        LOCFRAME PSTACK, 0, STACK
        LOCFRAME XSTACK, 46, STACK
        LOCFRAME IOVERLAY, 0, STATIC
        LOCFRAME DOVERLAY, 0, STATIC
        ARGFRAME ISTACK, 0, STACK
        ARGFRAME PSTACK, 0, STACK
        ARGFRAME XSTACK, 46, STACK
        ARGFRAME IOVERLAY, 0, STATIC
        ARGFRAME DOVERLAY, 0, STATIC
        FUNCALL MT_AfDataRequestSrcRtg, osal_mem_free
        LOCFRAME ISTACK, 0, STACK
        LOCFRAME PSTACK, 0, STACK
        LOCFRAME XSTACK, 34, STACK
        LOCFRAME IOVERLAY, 0, STATIC
        LOCFRAME DOVERLAY, 0, STATIC
        ARGFRAME ISTACK, 0, STACK
        ARGFRAME PSTACK, 0, STACK
        ARGFRAME XSTACK, 34, STACK
        ARGFRAME IOVERLAY, 0, STATIC
        ARGFRAME DOVERLAY, 0, STATIC
        FUNCALL MT_AfDataRequestSrcRtg, MT_BuildAndSendZToolResponse
        LOCFRAME ISTACK, 0, STACK
        LOCFRAME PSTACK, 0, STACK
        LOCFRAME XSTACK, 34, STACK
        LOCFRAME IOVERLAY, 0, STATIC
        LOCFRAME DOVERLAY, 0, STATIC
        ARGFRAME ISTACK, 0, STACK
        ARGFRAME PSTACK, 0, STACK
        ARGFRAME XSTACK, 34, STACK
        ARGFRAME IOVERLAY, 0, STATIC
        ARGFRAME DOVERLAY, 0, STATIC
        REQUIRE ?V0
        REQUIRE ?V1
        REQUIRE ?V2
        REQUIRE ?V3
        REQUIRE ?V4
        REQUIRE ?V5
        REQUIRE ?V6
        REQUIRE ?V7
        REQUIRE ?V8
        REQUIRE ?V9
        REQUIRE ?V10
        REQUIRE ?V11
        MOV     A,#-0x14
        LCALL   ?BANKED_ENTER_XDATA
          CFI DPH0 load(1, XDATA, add(CFA_XSP16, literal(-1)))
          CFI DPL0 load(1, XDATA, add(CFA_XSP16, literal(-2)))
          CFI ?BRET_EXT load(1, XDATA, add(CFA_XSP16, literal(-3)))
          CFI ?RET_HIGH load(1, XDATA, add(CFA_XSP16, literal(-4)))
          CFI ?RET_LOW load(1, XDATA, add(CFA_XSP16, literal(-5)))
          CFI R7 load(1, XDATA, add(CFA_XSP16, literal(-6)))
          CFI V11 load(1, XDATA, add(CFA_XSP16, literal(-7)))
          CFI V10 load(1, XDATA, add(CFA_XSP16, literal(-8)))
          CFI V9 load(1, XDATA, add(CFA_XSP16, literal(-9)))
          CFI V8 load(1, XDATA, add(CFA_XSP16, literal(-10)))
          CFI V7 load(1, XDATA, add(CFA_XSP16, literal(-11)))
          CFI V6 load(1, XDATA, add(CFA_XSP16, literal(-12)))
          CFI V5 load(1, XDATA, add(CFA_XSP16, literal(-13)))
          CFI V4 load(1, XDATA, add(CFA_XSP16, literal(-14)))
          CFI V3 load(1, XDATA, add(CFA_XSP16, literal(-15)))
          CFI V2 load(1, XDATA, add(CFA_XSP16, literal(-16)))
          CFI V1 load(1, XDATA, add(CFA_XSP16, literal(-17)))
          CFI V0 load(1, XDATA, add(CFA_XSP16, literal(-18)))
          CFI VB load(1, XDATA, add(CFA_XSP16, literal(-19)))
          CFI R6 load(1, XDATA, add(CFA_XSP16, literal(-20)))
          CFI CFA_SP SP+0
          CFI CFA_XSP16 add(XSP16, 20)
        ; Saved register size: 20
        ; Auto size: 14
        MOV     A,#-0xe
        LCALL   ?ALLOC_XSTACK8
          CFI CFA_XSP16 add(XSP16, 34)
        MOV     A,R2
        MOV     R6,A
        MOV     A,R3
        MOV     R7,A
//  437   uint8 cmdId, dataLen = 0;
//  438   uint8 retValue = ZFailure;
        MOV     DPL,?XSP + 0
        MOV     DPH,?XSP + 1
        MOV     A,#0x1
        LCALL   ?Subroutine28 & 0xFFFF
//  439   endPointDesc_t *epDesc;
//  440   byte transId;
//  441   afAddrType_t dstAddr;
//  442   cId_t cId;
//  443   byte txOpts, radius, srcEP, relayCnt;
//  444   uint16 *pRelayList;
//  445   uint8 i;
//  446 
//  447   /* parse header */
//  448   cmdId = pBuf[MT_RPC_POS_CMD1];
??CrossCallReturnLabel_53:
        INC     DPTR
        MOVX    A,@DPTR
        MOV     ?V6,A
//  449   pBuf += MT_RPC_FRAME_HDR_SZ;
        MOV     A,R6
        ADD     A,#0x3
        MOV     R6,A
        JNC     ??MT_AfDataRequestSrcRtg_0
        INC     R7
//  450 
//  451   /* Destination address */
//  452   /* Initialize the panID field to zero to avoid inter-pan */
//  453   osal_memset( &dstAddr, 0, sizeof(afAddrType_t) );
??MT_AfDataRequestSrcRtg_0:
        ; Setup parameters for call to function osal_memset
        MOV     R4,#0xc
        MOV     R5,#0x0
        MOV     R1,#0x0
        MOV     A,#0x2
        LCALL   ?XSTACK_DISP101_8
        LCALL   ??osal_memset?relay  ; Banked call to: osal_memset
//  454   dstAddr.addrMode = afAddr16Bit;
        MOV     A,#0xa
        LCALL   ?XSTACK_DISP0_8
        MOV     A,#0x2
        MOVX    @DPTR,A
//  455   dstAddr.addr.shortAddr = BUILD_UINT16(pBuf[0], pBuf[1]);
        MOV     DPL,R6
        MOV     DPH,R7
        LCALL   ?Subroutine5 & 0xFFFF
??CrossCallReturnLabel_6:
        LCALL   ?XSTACK_DISP0_8
        LCALL   ?Subroutine27 & 0xFFFF
//  456   pBuf += 2;
??CrossCallReturnLabel_49:
        MOV     A,R6
        ADD     A,#0x2
        MOV     R6,A
        JNC     ??MT_AfDataRequestSrcRtg_1
        INC     R7
//  457 
//  458   /* Destination endpoint */
//  459   dstAddr.endPoint = *pBuf++;
??MT_AfDataRequestSrcRtg_1:
        MOV     DPL,R6
        MOV     DPH,R7
        MOVX    A,@DPTR
        PUSH    A
          CFI CFA_SP SP+-1
        MOV     A,#0xb
        LCALL   ?XSTACK_DISP0_8
        POP     A
          CFI CFA_SP SP+0
        LCALL   ?Subroutine28 & 0xFFFF
//  460 
//  461   /* Source endpoint */
//  462   srcEP = *pBuf++;
??CrossCallReturnLabel_54:
        MOVX    A,@DPTR
        MOV     R1,A
        INC     DPTR
        MOV     R6,DPL
        MOV     R7,DPH
//  463   epDesc = afFindEndPointDesc( srcEP );
        ; Setup parameters for call to function afFindEndPointDesc
        LCALL   ??afFindEndPointDesc?relay; Banked call to: afFindEndPointDesc
        MOV     ?V2,R2
        MOV     ?V3,R3
//  464 
//  465   /* ClusterId */
//  466   cId = BUILD_UINT16(pBuf[0], pBuf[1]);
        MOV     DPL,R6
        MOV     DPH,R7
        LCALL   ?Subroutine4 & 0xFFFF
//  467   pBuf +=2;
??CrossCallReturnLabel_2:
        MOV     A,R6
        ADD     A,#0x2
        MOV     R6,A
        JNC     ??MT_AfDataRequestSrcRtg_2
        INC     R7
//  468 
//  469   /* TransId */
//  470   transId = *pBuf++;
??MT_AfDataRequestSrcRtg_2:
        MOV     DPL,R6
        MOV     DPH,R7
        MOVX    A,@DPTR
        PUSH    A
          CFI CFA_SP SP+-1
        MOV     A,#0x1
        LCALL   ?XSTACK_DISP0_8
        POP     A
          CFI CFA_SP SP+0
        LCALL   ?Subroutine28 & 0xFFFF
//  471 
//  472   /* TxOption */
//  473   txOpts = *pBuf++;
??CrossCallReturnLabel_55:
        MOVX    A,@DPTR
        MOV     ?V7,A
        INC     DPTR
//  474 
//  475   /* Radius */
//  476   radius = *pBuf++;
        MOVX    A,@DPTR
        MOV     ?V10,A
        INC     DPTR
//  477 
//  478   /* Source route relay count */
//  479   relayCnt = *pBuf++;
        MOVX    A,@DPTR
        MOV     ?V11,A
        INC     DPTR
        MOV     R6,DPL
        MOV     R7,DPH
//  480 
//  481   /* Convert the source route relay list */
//  482   if( (pRelayList = osal_mem_alloc( relayCnt * sizeof( uint16 ))) != NULL )
        ; Setup parameters for call to function osal_mem_alloc
        ADD     A,0xE0 /* A   */
        MOV     R2,A
        CLR     A
        RLC     A
        MOV     R3,A
        LCALL   ??osal_mem_alloc?relay; Banked call to: osal_mem_alloc
        MOV     ?V0,R2
        MOV     ?V1,R3
        MOV     A,R2
        ORL     A,?V1
        JNZ     $+5
        LJMP    ??MT_AfDataRequestSrcRtg_3 & 0xFFFF
//  483   {
//  484     for( i = 0; i < relayCnt; i++ )
        MOV     R4,#0x0
        SJMP    ??MT_AfDataRequestSrcRtg_4
//  485     {
//  486       pRelayList[i]  = BUILD_UINT16( pBuf[0], pBuf[1] );
??MT_AfDataRequestSrcRtg_5:
        LCALL   ??Subroutine39_0 & 0xFFFF
??CrossCallReturnLabel_78:
        CLR     A
        ADDC    A,R1
        MOV     R3,A
        MOV     A,R4
        ADD     A,0xE0 /* A   */
        MOV     R0,A
        CLR     A
        RLC     A
        MOV     R1,A
        MOV     A,?V0
        ADD     A,R0
        MOV     DPL,A
        MOV     A,?V1
        ADDC    A,R1
        MOV     DPH,A
        MOV     A,R2
        MOVX    @DPTR,A
        INC     DPTR
        MOV     A,R3
        MOVX    @DPTR,A
//  487       pBuf += 2;
        MOV     A,R6
        ADD     A,#0x2
        MOV     R6,A
        JNC     ??MT_AfDataRequestSrcRtg_6
        INC     R7
//  488     }
??MT_AfDataRequestSrcRtg_6:
        INC     R4
??MT_AfDataRequestSrcRtg_4:
        MOV     A,R4
        CLR     C
        SUBB    A,?V11
        MOV     DPL,R6
        MOV     DPH,R7
        MOVX    A,@DPTR
        MOV     R2,A
        INC     DPTR
        JC      ??MT_AfDataRequestSrcRtg_5
//  489 
//  490     /* Data payload Length */
//  491     dataLen = *pBuf++;
        MOV     R6,DPL
        MOV     R7,DPH
//  492 
//  493     if ( epDesc == NULL )
        MOV     A,?V2
        ORL     A,?V3
        JNZ     ??MT_AfDataRequestSrcRtg_7
//  494     {
//  495       retValue = afStatus_INVALID_PARAMETER;
        MOV     DPL,?XSP + 0
        MOV     DPH,?XSP + 1
        MOV     A,#0x2
        SJMP    ??MT_AfDataRequestSrcRtg_8
//  496     }
//  497     else
//  498     {
//  499       retValue = AF_DataRequestSrcRtg( &dstAddr, epDesc, cId, dataLen, pBuf,
//  500                                      &transId, txOpts, radius, relayCnt, pRelayList );
??MT_AfDataRequestSrcRtg_7:
        ; Setup parameters for call to function AF_DataRequestSrcRtg
        MOV     R0,#?V0
        LCALL   ?PUSH_XSTACK_I_TWO
          CFI CFA_XSP16 add(XSP16, 36)
        MOV     A,?V11
        MOV     ?V8,A
        MOV     R0,#?V8
        LCALL   ?PUSH_XSTACK_I_ONE
          CFI CFA_XSP16 add(XSP16, 37)
        MOV     A,?V10
        MOV     ?V8,A
        MOV     R0,#?V8
        LCALL   ?PUSH_XSTACK_I_ONE
          CFI CFA_XSP16 add(XSP16, 38)
        MOV     A,#0x5
        LCALL   ?XSTACK_DISP100_8
        MOV     ?V8,R0
        MOV     ?V9,R1
        MOV     R0,#?V8
        LCALL   ?PUSH_XSTACK_I_TWO
          CFI CFA_XSP16 add(XSP16, 40)
        MOV     ?V8,R6
        MOV     ?V9,R7
        MOV     R0,#?V8
        LCALL   ?PUSH_XSTACK_I_TWO
          CFI CFA_XSP16 add(XSP16, 42)
        MOV     ?V8,R2
        MOV     ?V9,#0x0
        MOV     R0,#?V8
        LCALL   ?PUSH_XSTACK_I_TWO
          CFI CFA_XSP16 add(XSP16, 44)
        MOV     R0,#?V4
        LCALL   ?PUSH_XSTACK_I_TWO
          CFI CFA_XSP16 add(XSP16, 46)
        MOV     R1,?V7
        MOV     R4,?V2
        MOV     R5,?V3
        MOV     A,#0xe
        LCALL   ?XSTACK_DISP101_8
        LCALL   ??AF_DataRequestSrcRtg?relay; Banked call to: AF_DataRequestSrcRtg
        MOV     A,#0xc
        LCALL   ?DEALLOC_XSTACK8
          CFI CFA_XSP16 add(XSP16, 34)
        MOV     A,R1
        MOV     DPL,?XSP + 0
        MOV     DPH,?XSP + 1
??MT_AfDataRequestSrcRtg_8:
        MOVX    @DPTR,A
//  501     }
//  502 
//  503     /* Free the memory allocated */
//  504     osal_mem_free( pRelayList );
        ; Setup parameters for call to function osal_mem_free
        MOV     R2,?V0
        MOV     R3,?V1
        LCALL   ??osal_mem_free?relay; Banked call to: osal_mem_free
        SJMP    ??MT_AfDataRequestSrcRtg_9
//  505   }
//  506   else
//  507   {
//  508     retValue = afStatus_MEM_FAIL;
??MT_AfDataRequestSrcRtg_3:
        MOV     DPL,?XSP + 0
        MOV     DPH,?XSP + 1
        MOV     A,#0x10
        MOVX    @DPTR,A
//  509   }
//  510 
//  511 
//  512   /* Build and send back the response */
//  513   MT_BuildAndSendZToolResponse(((uint8)MT_RPC_CMD_SRSP | (uint8)MT_RPC_SYS_AF), cmdId, 1, &retValue);
??MT_AfDataRequestSrcRtg_9:
        ; Setup parameters for call to function MT_BuildAndSendZToolResponse
        MOV     R4,?XSP + 0
        MOV     R5,?XSP + 1
        MOV     R3,#0x1
        MOV     R2,?V6
        MOV     R1,#0x64
        LCALL   ??MT_BuildAndSendZToolResponse?relay; Banked call to: MT_BuildAndSendZToolResponse
//  514 }
        MOV     A,#0xe
        LCALL   ?DEALLOC_XSTACK8
          CFI CFA_XSP16 add(XSP16, 20)
        MOV     R7,#0xc
        LJMP    ?BANKED_LEAVE_XDATA
          CFI EndBlock cfiBlock44

        RSEG BANKED_CODE:CODE:NOROOT(0)
?Subroutine28:
          CFI Block cfiCond45 Using cfiCommon0
          CFI Function MT_AfDataRequestSrcRtg
          CFI Conditional ??CrossCallReturnLabel_53
          CFI R6 load(1, XDATA, add(CFA_XSP16, literal(-20)))
          CFI VB load(1, XDATA, add(CFA_XSP16, literal(-19)))
          CFI V0 load(1, XDATA, add(CFA_XSP16, literal(-18)))
          CFI V1 load(1, XDATA, add(CFA_XSP16, literal(-17)))
          CFI V2 load(1, XDATA, add(CFA_XSP16, literal(-16)))
          CFI V3 load(1, XDATA, add(CFA_XSP16, literal(-15)))
          CFI V4 load(1, XDATA, add(CFA_XSP16, literal(-14)))
          CFI V5 load(1, XDATA, add(CFA_XSP16, literal(-13)))
          CFI V6 load(1, XDATA, add(CFA_XSP16, literal(-12)))
          CFI V7 load(1, XDATA, add(CFA_XSP16, literal(-11)))
          CFI V8 load(1, XDATA, add(CFA_XSP16, literal(-10)))
          CFI V9 load(1, XDATA, add(CFA_XSP16, literal(-9)))
          CFI V10 load(1, XDATA, add(CFA_XSP16, literal(-8)))
          CFI V11 load(1, XDATA, add(CFA_XSP16, literal(-7)))
          CFI R7 load(1, XDATA, add(CFA_XSP16, literal(-6)))
          CFI ?RET_LOW load(1, XDATA, add(CFA_XSP16, literal(-5)))
          CFI ?RET_HIGH load(1, XDATA, add(CFA_XSP16, literal(-4)))
          CFI ?BRET_EXT load(1, XDATA, add(CFA_XSP16, literal(-3)))
          CFI DPL0 load(1, XDATA, add(CFA_XSP16, literal(-2)))
          CFI DPH0 load(1, XDATA, add(CFA_XSP16, literal(-1)))
          CFI CFA_SP SP+-2
          CFI CFA_XSP16 add(XSP16, 34)
          CFI Block cfiCond46 Using cfiCommon0
          CFI (cfiCond46) Function MT_AfDataRequestSrcRtg
          CFI (cfiCond46) Conditional ??CrossCallReturnLabel_54
          CFI (cfiCond46) R6 load(1, XDATA, add(CFA_XSP16, literal(-20)))
          CFI (cfiCond46) VB load(1, XDATA, add(CFA_XSP16, literal(-19)))
          CFI (cfiCond46) V0 load(1, XDATA, add(CFA_XSP16, literal(-18)))
          CFI (cfiCond46) V1 load(1, XDATA, add(CFA_XSP16, literal(-17)))
          CFI (cfiCond46) V2 load(1, XDATA, add(CFA_XSP16, literal(-16)))
          CFI (cfiCond46) V3 load(1, XDATA, add(CFA_XSP16, literal(-15)))
          CFI (cfiCond46) V4 load(1, XDATA, add(CFA_XSP16, literal(-14)))
          CFI (cfiCond46) V5 load(1, XDATA, add(CFA_XSP16, literal(-13)))
          CFI (cfiCond46) V6 load(1, XDATA, add(CFA_XSP16, literal(-12)))
          CFI (cfiCond46) V7 load(1, XDATA, add(CFA_XSP16, literal(-11)))
          CFI (cfiCond46) V8 load(1, XDATA, add(CFA_XSP16, literal(-10)))
          CFI (cfiCond46) V9 load(1, XDATA, add(CFA_XSP16, literal(-9)))
          CFI (cfiCond46) V10 load(1, XDATA, add(CFA_XSP16, literal(-8)))
          CFI (cfiCond46) V11 load(1, XDATA, add(CFA_XSP16, literal(-7)))
          CFI (cfiCond46) R7 load(1, XDATA, add(CFA_XSP16, literal(-6)))
          CFI (cfiCond46) ?RET_LOW load(1, XDATA, add(CFA_XSP16, literal(-5)))
          CFI (cfiCond46) ?RET_HIGH load(1, XDATA, add(CFA_XSP16, literal(-4)))
          CFI (cfiCond46) ?BRET_EXT load(1, XDATA, add(CFA_XSP16, literal(-3)))
          CFI (cfiCond46) DPL0 load(1, XDATA, add(CFA_XSP16, literal(-2)))
          CFI (cfiCond46) DPH0 load(1, XDATA, add(CFA_XSP16, literal(-1)))
          CFI (cfiCond46) CFA_SP SP+-2
          CFI (cfiCond46) CFA_XSP16 add(XSP16, 34)
          CFI Block cfiCond47 Using cfiCommon0
          CFI (cfiCond47) Function MT_AfDataRequestSrcRtg
          CFI (cfiCond47) Conditional ??CrossCallReturnLabel_55
          CFI (cfiCond47) R6 load(1, XDATA, add(CFA_XSP16, literal(-20)))
          CFI (cfiCond47) VB load(1, XDATA, add(CFA_XSP16, literal(-19)))
          CFI (cfiCond47) V0 load(1, XDATA, add(CFA_XSP16, literal(-18)))
          CFI (cfiCond47) V1 load(1, XDATA, add(CFA_XSP16, literal(-17)))
          CFI (cfiCond47) V2 load(1, XDATA, add(CFA_XSP16, literal(-16)))
          CFI (cfiCond47) V3 load(1, XDATA, add(CFA_XSP16, literal(-15)))
          CFI (cfiCond47) V4 load(1, XDATA, add(CFA_XSP16, literal(-14)))
          CFI (cfiCond47) V5 load(1, XDATA, add(CFA_XSP16, literal(-13)))
          CFI (cfiCond47) V6 load(1, XDATA, add(CFA_XSP16, literal(-12)))
          CFI (cfiCond47) V7 load(1, XDATA, add(CFA_XSP16, literal(-11)))
          CFI (cfiCond47) V8 load(1, XDATA, add(CFA_XSP16, literal(-10)))
          CFI (cfiCond47) V9 load(1, XDATA, add(CFA_XSP16, literal(-9)))
          CFI (cfiCond47) V10 load(1, XDATA, add(CFA_XSP16, literal(-8)))
          CFI (cfiCond47) V11 load(1, XDATA, add(CFA_XSP16, literal(-7)))
          CFI (cfiCond47) R7 load(1, XDATA, add(CFA_XSP16, literal(-6)))
          CFI (cfiCond47) ?RET_LOW load(1, XDATA, add(CFA_XSP16, literal(-5)))
          CFI (cfiCond47) ?RET_HIGH load(1, XDATA, add(CFA_XSP16, literal(-4)))
          CFI (cfiCond47) ?BRET_EXT load(1, XDATA, add(CFA_XSP16, literal(-3)))
          CFI (cfiCond47) DPL0 load(1, XDATA, add(CFA_XSP16, literal(-2)))
          CFI (cfiCond47) DPH0 load(1, XDATA, add(CFA_XSP16, literal(-1)))
          CFI (cfiCond47) CFA_SP SP+-2
          CFI (cfiCond47) CFA_XSP16 add(XSP16, 34)
          CFI Block cfiPicker48 Using cfiCommon1
          CFI (cfiPicker48) NoFunction
          CFI (cfiPicker48) Picker
        MOVX    @DPTR,A
        MOV     DPL,R6
        MOV     DPH,R7
        INC     DPTR
        RET
          CFI EndBlock cfiCond45
          CFI EndBlock cfiCond46
          CFI EndBlock cfiCond47
          CFI EndBlock cfiPicker48

        RSEG BANKED_CODE:CODE:NOROOT(0)
?Subroutine27:
          CFI Block cfiCond49 Using cfiCommon0
          CFI Function MT_AfExec
          CFI Conditional ??CrossCallReturnLabel_46
          CFI R6 load(1, XDATA, add(CFA_XSP16, literal(-9)))
          CFI VB load(1, XDATA, add(CFA_XSP16, literal(-8)))
          CFI V0 load(1, XDATA, add(CFA_XSP16, literal(-7)))
          CFI R7 load(1, XDATA, add(CFA_XSP16, literal(-6)))
          CFI ?RET_LOW load(1, XDATA, add(CFA_XSP16, literal(-5)))
          CFI ?RET_HIGH load(1, XDATA, add(CFA_XSP16, literal(-4)))
          CFI ?BRET_EXT load(1, XDATA, add(CFA_XSP16, literal(-3)))
          CFI DPL0 load(1, XDATA, add(CFA_XSP16, literal(-2)))
          CFI DPH0 load(1, XDATA, add(CFA_XSP16, literal(-1)))
          CFI CFA_SP SP+-2
          CFI CFA_XSP16 add(XSP16, 9)
          CFI Block cfiCond50 Using cfiCommon0
          CFI (cfiCond50) Function MT_AfExec
          CFI (cfiCond50) Conditional ??CrossCallReturnLabel_47
          CFI (cfiCond50) R6 load(1, XDATA, add(CFA_XSP16, literal(-9)))
          CFI (cfiCond50) VB load(1, XDATA, add(CFA_XSP16, literal(-8)))
          CFI (cfiCond50) V0 load(1, XDATA, add(CFA_XSP16, literal(-7)))
          CFI (cfiCond50) R7 load(1, XDATA, add(CFA_XSP16, literal(-6)))
          CFI (cfiCond50) ?RET_LOW load(1, XDATA, add(CFA_XSP16, literal(-5)))
          CFI (cfiCond50) ?RET_HIGH load(1, XDATA, add(CFA_XSP16, literal(-4)))
          CFI (cfiCond50) ?BRET_EXT load(1, XDATA, add(CFA_XSP16, literal(-3)))
          CFI (cfiCond50) DPL0 load(1, XDATA, add(CFA_XSP16, literal(-2)))
          CFI (cfiCond50) DPH0 load(1, XDATA, add(CFA_XSP16, literal(-1)))
          CFI (cfiCond50) CFA_SP SP+-2
          CFI (cfiCond50) CFA_XSP16 add(XSP16, 9)
          CFI Block cfiCond51 Using cfiCommon0
          CFI (cfiCond51) Function MT_AfDataRequest
          CFI (cfiCond51) Conditional ??CrossCallReturnLabel_48
          CFI (cfiCond51) R6 load(1, XDATA, add(CFA_XSP16, literal(-22)))
          CFI (cfiCond51) VB load(1, XDATA, add(CFA_XSP16, literal(-21)))
          CFI (cfiCond51) V0 load(1, XDATA, add(CFA_XSP16, literal(-20)))
          CFI (cfiCond51) V1 load(1, XDATA, add(CFA_XSP16, literal(-19)))
          CFI (cfiCond51) V2 load(1, XDATA, add(CFA_XSP16, literal(-18)))
          CFI (cfiCond51) V3 load(1, XDATA, add(CFA_XSP16, literal(-17)))
          CFI (cfiCond51) V4 load(1, XDATA, add(CFA_XSP16, literal(-16)))
          CFI (cfiCond51) V5 load(1, XDATA, add(CFA_XSP16, literal(-15)))
          CFI (cfiCond51) V6 load(1, XDATA, add(CFA_XSP16, literal(-14)))
          CFI (cfiCond51) V7 load(1, XDATA, add(CFA_XSP16, literal(-13)))
          CFI (cfiCond51) V8 load(1, XDATA, add(CFA_XSP16, literal(-12)))
          CFI (cfiCond51) V9 load(1, XDATA, add(CFA_XSP16, literal(-11)))
          CFI (cfiCond51) V10 load(1, XDATA, add(CFA_XSP16, literal(-10)))
          CFI (cfiCond51) V11 load(1, XDATA, add(CFA_XSP16, literal(-9)))
          CFI (cfiCond51) V12 load(1, XDATA, add(CFA_XSP16, literal(-8)))
          CFI (cfiCond51) V13 load(1, XDATA, add(CFA_XSP16, literal(-7)))
          CFI (cfiCond51) R7 load(1, XDATA, add(CFA_XSP16, literal(-6)))
          CFI (cfiCond51) ?RET_LOW load(1, XDATA, add(CFA_XSP16, literal(-5)))
          CFI (cfiCond51) ?RET_HIGH load(1, XDATA, add(CFA_XSP16, literal(-4)))
          CFI (cfiCond51) ?BRET_EXT load(1, XDATA, add(CFA_XSP16, literal(-3)))
          CFI (cfiCond51) DPL0 load(1, XDATA, add(CFA_XSP16, literal(-2)))
          CFI (cfiCond51) DPH0 load(1, XDATA, add(CFA_XSP16, literal(-1)))
          CFI (cfiCond51) CFA_SP SP+-2
          CFI (cfiCond51) CFA_XSP16 add(XSP16, 36)
          CFI Block cfiCond52 Using cfiCommon0
          CFI (cfiCond52) Function MT_AfDataRequestSrcRtg
          CFI (cfiCond52) Conditional ??CrossCallReturnLabel_49
          CFI (cfiCond52) R6 load(1, XDATA, add(CFA_XSP16, literal(-20)))
          CFI (cfiCond52) VB load(1, XDATA, add(CFA_XSP16, literal(-19)))
          CFI (cfiCond52) V0 load(1, XDATA, add(CFA_XSP16, literal(-18)))
          CFI (cfiCond52) V1 load(1, XDATA, add(CFA_XSP16, literal(-17)))
          CFI (cfiCond52) V2 load(1, XDATA, add(CFA_XSP16, literal(-16)))
          CFI (cfiCond52) V3 load(1, XDATA, add(CFA_XSP16, literal(-15)))
          CFI (cfiCond52) V4 load(1, XDATA, add(CFA_XSP16, literal(-14)))
          CFI (cfiCond52) V5 load(1, XDATA, add(CFA_XSP16, literal(-13)))
          CFI (cfiCond52) V6 load(1, XDATA, add(CFA_XSP16, literal(-12)))
          CFI (cfiCond52) V7 load(1, XDATA, add(CFA_XSP16, literal(-11)))
          CFI (cfiCond52) V8 load(1, XDATA, add(CFA_XSP16, literal(-10)))
          CFI (cfiCond52) V9 load(1, XDATA, add(CFA_XSP16, literal(-9)))
          CFI (cfiCond52) V10 load(1, XDATA, add(CFA_XSP16, literal(-8)))
          CFI (cfiCond52) V11 load(1, XDATA, add(CFA_XSP16, literal(-7)))
          CFI (cfiCond52) R7 load(1, XDATA, add(CFA_XSP16, literal(-6)))
          CFI (cfiCond52) ?RET_LOW load(1, XDATA, add(CFA_XSP16, literal(-5)))
          CFI (cfiCond52) ?RET_HIGH load(1, XDATA, add(CFA_XSP16, literal(-4)))
          CFI (cfiCond52) ?BRET_EXT load(1, XDATA, add(CFA_XSP16, literal(-3)))
          CFI (cfiCond52) DPL0 load(1, XDATA, add(CFA_XSP16, literal(-2)))
          CFI (cfiCond52) DPH0 load(1, XDATA, add(CFA_XSP16, literal(-1)))
          CFI (cfiCond52) CFA_SP SP+-2
          CFI (cfiCond52) CFA_XSP16 add(XSP16, 34)
          CFI Block cfiCond53 Using cfiCommon0
          CFI (cfiCond53) Function MT_AfIncomingMsg
          CFI (cfiCond53) Conditional ??CrossCallReturnLabel_50
          CFI (cfiCond53) R6 load(1, XDATA, add(CFA_XSP16, literal(-23)))
          CFI (cfiCond53) VB load(1, XDATA, add(CFA_XSP16, literal(-22)))
          CFI (cfiCond53) V0 load(1, XDATA, add(CFA_XSP16, literal(-21)))
          CFI (cfiCond53) V1 load(1, XDATA, add(CFA_XSP16, literal(-20)))
          CFI (cfiCond53) V2 load(1, XDATA, add(CFA_XSP16, literal(-19)))
          CFI (cfiCond53) V3 load(1, XDATA, add(CFA_XSP16, literal(-18)))
          CFI (cfiCond53) V4 load(1, XDATA, add(CFA_XSP16, literal(-17)))
          CFI (cfiCond53) V5 load(1, XDATA, add(CFA_XSP16, literal(-16)))
          CFI (cfiCond53) V6 load(1, XDATA, add(CFA_XSP16, literal(-15)))
          CFI (cfiCond53) V7 load(1, XDATA, add(CFA_XSP16, literal(-14)))
          CFI (cfiCond53) V8 load(1, XDATA, add(CFA_XSP16, literal(-13)))
          CFI (cfiCond53) V9 load(1, XDATA, add(CFA_XSP16, literal(-12)))
          CFI (cfiCond53) V10 load(1, XDATA, add(CFA_XSP16, literal(-11)))
          CFI (cfiCond53) V11 load(1, XDATA, add(CFA_XSP16, literal(-10)))
          CFI (cfiCond53) V12 load(1, XDATA, add(CFA_XSP16, literal(-9)))
          CFI (cfiCond53) V13 load(1, XDATA, add(CFA_XSP16, literal(-8)))
          CFI (cfiCond53) V14 load(1, XDATA, add(CFA_XSP16, literal(-7)))
          CFI (cfiCond53) R7 load(1, XDATA, add(CFA_XSP16, literal(-6)))
          CFI (cfiCond53) ?RET_LOW load(1, XDATA, add(CFA_XSP16, literal(-5)))
          CFI (cfiCond53) ?RET_HIGH load(1, XDATA, add(CFA_XSP16, literal(-4)))
          CFI (cfiCond53) ?BRET_EXT load(1, XDATA, add(CFA_XSP16, literal(-3)))
          CFI (cfiCond53) DPL0 load(1, XDATA, add(CFA_XSP16, literal(-2)))
          CFI (cfiCond53) DPH0 load(1, XDATA, add(CFA_XSP16, literal(-1)))
          CFI (cfiCond53) CFA_SP SP+-2
          CFI (cfiCond53) CFA_XSP16 add(XSP16, 23)
          CFI Block cfiCond54 Using cfiCommon0
          CFI (cfiCond54) Function MT_AfIncomingMsg
          CFI (cfiCond54) Conditional ??CrossCallReturnLabel_51
          CFI (cfiCond54) R6 load(1, XDATA, add(CFA_XSP16, literal(-23)))
          CFI (cfiCond54) VB load(1, XDATA, add(CFA_XSP16, literal(-22)))
          CFI (cfiCond54) V0 load(1, XDATA, add(CFA_XSP16, literal(-21)))
          CFI (cfiCond54) V1 load(1, XDATA, add(CFA_XSP16, literal(-20)))
          CFI (cfiCond54) V2 load(1, XDATA, add(CFA_XSP16, literal(-19)))
          CFI (cfiCond54) V3 load(1, XDATA, add(CFA_XSP16, literal(-18)))
          CFI (cfiCond54) V4 load(1, XDATA, add(CFA_XSP16, literal(-17)))
          CFI (cfiCond54) V5 load(1, XDATA, add(CFA_XSP16, literal(-16)))
          CFI (cfiCond54) V6 load(1, XDATA, add(CFA_XSP16, literal(-15)))
          CFI (cfiCond54) V7 load(1, XDATA, add(CFA_XSP16, literal(-14)))
          CFI (cfiCond54) V8 load(1, XDATA, add(CFA_XSP16, literal(-13)))
          CFI (cfiCond54) V9 load(1, XDATA, add(CFA_XSP16, literal(-12)))
          CFI (cfiCond54) V10 load(1, XDATA, add(CFA_XSP16, literal(-11)))
          CFI (cfiCond54) V11 load(1, XDATA, add(CFA_XSP16, literal(-10)))
          CFI (cfiCond54) V12 load(1, XDATA, add(CFA_XSP16, literal(-9)))
          CFI (cfiCond54) V13 load(1, XDATA, add(CFA_XSP16, literal(-8)))
          CFI (cfiCond54) V14 load(1, XDATA, add(CFA_XSP16, literal(-7)))
          CFI (cfiCond54) R7 load(1, XDATA, add(CFA_XSP16, literal(-6)))
          CFI (cfiCond54) ?RET_LOW load(1, XDATA, add(CFA_XSP16, literal(-5)))
          CFI (cfiCond54) ?RET_HIGH load(1, XDATA, add(CFA_XSP16, literal(-4)))
          CFI (cfiCond54) ?BRET_EXT load(1, XDATA, add(CFA_XSP16, literal(-3)))
          CFI (cfiCond54) DPL0 load(1, XDATA, add(CFA_XSP16, literal(-2)))
          CFI (cfiCond54) DPH0 load(1, XDATA, add(CFA_XSP16, literal(-1)))
          CFI (cfiCond54) CFA_SP SP+-2
          CFI (cfiCond54) CFA_XSP16 add(XSP16, 23)
          CFI Block cfiCond55 Using cfiCommon0
          CFI (cfiCond55) Function MT_AfDataRetrieve
          CFI (cfiCond55) Conditional ??CrossCallReturnLabel_52
          CFI (cfiCond55) R6 load(1, XDATA, add(CFA_XSP16, literal(-21)))
          CFI (cfiCond55) VB load(1, XDATA, add(CFA_XSP16, literal(-20)))
          CFI (cfiCond55) V0 load(1, XDATA, add(CFA_XSP16, literal(-19)))
          CFI (cfiCond55) V1 load(1, XDATA, add(CFA_XSP16, literal(-18)))
          CFI (cfiCond55) V2 load(1, XDATA, add(CFA_XSP16, literal(-17)))
          CFI (cfiCond55) V3 load(1, XDATA, add(CFA_XSP16, literal(-16)))
          CFI (cfiCond55) V4 load(1, XDATA, add(CFA_XSP16, literal(-15)))
          CFI (cfiCond55) V5 load(1, XDATA, add(CFA_XSP16, literal(-14)))
          CFI (cfiCond55) V6 load(1, XDATA, add(CFA_XSP16, literal(-13)))
          CFI (cfiCond55) V7 load(1, XDATA, add(CFA_XSP16, literal(-12)))
          CFI (cfiCond55) V8 load(1, XDATA, add(CFA_XSP16, literal(-11)))
          CFI (cfiCond55) V9 load(1, XDATA, add(CFA_XSP16, literal(-10)))
          CFI (cfiCond55) V10 load(1, XDATA, add(CFA_XSP16, literal(-9)))
          CFI (cfiCond55) V11 load(1, XDATA, add(CFA_XSP16, literal(-8)))
          CFI (cfiCond55) V12 load(1, XDATA, add(CFA_XSP16, literal(-7)))
          CFI (cfiCond55) R7 load(1, XDATA, add(CFA_XSP16, literal(-6)))
          CFI (cfiCond55) ?RET_LOW load(1, XDATA, add(CFA_XSP16, literal(-5)))
          CFI (cfiCond55) ?RET_HIGH load(1, XDATA, add(CFA_XSP16, literal(-4)))
          CFI (cfiCond55) ?BRET_EXT load(1, XDATA, add(CFA_XSP16, literal(-3)))
          CFI (cfiCond55) DPL0 load(1, XDATA, add(CFA_XSP16, literal(-2)))
          CFI (cfiCond55) DPH0 load(1, XDATA, add(CFA_XSP16, literal(-1)))
          CFI (cfiCond55) CFA_SP SP+-2
          CFI (cfiCond55) CFA_XSP16 add(XSP16, 21)
          CFI Block cfiPicker56 Using cfiCommon1
          CFI (cfiPicker56) NoFunction
          CFI (cfiPicker56) Picker
        MOV     A,R0
        MOVX    @DPTR,A
        INC     DPTR
        MOV     A,R1
        MOVX    @DPTR,A
        RET
          CFI EndBlock cfiCond49
          CFI EndBlock cfiCond50
          CFI EndBlock cfiCond51
          CFI EndBlock cfiCond52
          CFI EndBlock cfiCond53
          CFI EndBlock cfiCond54
          CFI EndBlock cfiCond55
          CFI EndBlock cfiPicker56

        RSEG BANKED_CODE:CODE:NOROOT(0)
?Subroutine5:
          CFI Block cfiCond57 Using cfiCommon0
          CFI Function MT_AfDataRequest
          CFI Conditional ??CrossCallReturnLabel_4
          CFI R6 load(1, XDATA, add(CFA_XSP16, literal(-22)))
          CFI VB load(1, XDATA, add(CFA_XSP16, literal(-21)))
          CFI V0 load(1, XDATA, add(CFA_XSP16, literal(-20)))
          CFI V1 load(1, XDATA, add(CFA_XSP16, literal(-19)))
          CFI V2 load(1, XDATA, add(CFA_XSP16, literal(-18)))
          CFI V3 load(1, XDATA, add(CFA_XSP16, literal(-17)))
          CFI V4 load(1, XDATA, add(CFA_XSP16, literal(-16)))
          CFI V5 load(1, XDATA, add(CFA_XSP16, literal(-15)))
          CFI V6 load(1, XDATA, add(CFA_XSP16, literal(-14)))
          CFI V7 load(1, XDATA, add(CFA_XSP16, literal(-13)))
          CFI V8 load(1, XDATA, add(CFA_XSP16, literal(-12)))
          CFI V9 load(1, XDATA, add(CFA_XSP16, literal(-11)))
          CFI V10 load(1, XDATA, add(CFA_XSP16, literal(-10)))
          CFI V11 load(1, XDATA, add(CFA_XSP16, literal(-9)))
          CFI V12 load(1, XDATA, add(CFA_XSP16, literal(-8)))
          CFI V13 load(1, XDATA, add(CFA_XSP16, literal(-7)))
          CFI R7 load(1, XDATA, add(CFA_XSP16, literal(-6)))
          CFI ?RET_LOW load(1, XDATA, add(CFA_XSP16, literal(-5)))
          CFI ?RET_HIGH load(1, XDATA, add(CFA_XSP16, literal(-4)))
          CFI ?BRET_EXT load(1, XDATA, add(CFA_XSP16, literal(-3)))
          CFI DPL0 load(1, XDATA, add(CFA_XSP16, literal(-2)))
          CFI DPH0 load(1, XDATA, add(CFA_XSP16, literal(-1)))
          CFI CFA_SP SP+-2
          CFI CFA_XSP16 add(XSP16, 36)
          CFI Block cfiCond58 Using cfiCommon0
          CFI (cfiCond58) Function MT_AfDataRequest
          CFI (cfiCond58) Conditional ??CrossCallReturnLabel_5
          CFI (cfiCond58) R6 load(1, XDATA, add(CFA_XSP16, literal(-22)))
          CFI (cfiCond58) VB load(1, XDATA, add(CFA_XSP16, literal(-21)))
          CFI (cfiCond58) V0 load(1, XDATA, add(CFA_XSP16, literal(-20)))
          CFI (cfiCond58) V1 load(1, XDATA, add(CFA_XSP16, literal(-19)))
          CFI (cfiCond58) V2 load(1, XDATA, add(CFA_XSP16, literal(-18)))
          CFI (cfiCond58) V3 load(1, XDATA, add(CFA_XSP16, literal(-17)))
          CFI (cfiCond58) V4 load(1, XDATA, add(CFA_XSP16, literal(-16)))
          CFI (cfiCond58) V5 load(1, XDATA, add(CFA_XSP16, literal(-15)))
          CFI (cfiCond58) V6 load(1, XDATA, add(CFA_XSP16, literal(-14)))
          CFI (cfiCond58) V7 load(1, XDATA, add(CFA_XSP16, literal(-13)))
          CFI (cfiCond58) V8 load(1, XDATA, add(CFA_XSP16, literal(-12)))
          CFI (cfiCond58) V9 load(1, XDATA, add(CFA_XSP16, literal(-11)))
          CFI (cfiCond58) V10 load(1, XDATA, add(CFA_XSP16, literal(-10)))
          CFI (cfiCond58) V11 load(1, XDATA, add(CFA_XSP16, literal(-9)))
          CFI (cfiCond58) V12 load(1, XDATA, add(CFA_XSP16, literal(-8)))
          CFI (cfiCond58) V13 load(1, XDATA, add(CFA_XSP16, literal(-7)))
          CFI (cfiCond58) R7 load(1, XDATA, add(CFA_XSP16, literal(-6)))
          CFI (cfiCond58) ?RET_LOW load(1, XDATA, add(CFA_XSP16, literal(-5)))
          CFI (cfiCond58) ?RET_HIGH load(1, XDATA, add(CFA_XSP16, literal(-4)))
          CFI (cfiCond58) ?BRET_EXT load(1, XDATA, add(CFA_XSP16, literal(-3)))
          CFI (cfiCond58) DPL0 load(1, XDATA, add(CFA_XSP16, literal(-2)))
          CFI (cfiCond58) DPH0 load(1, XDATA, add(CFA_XSP16, literal(-1)))
          CFI (cfiCond58) CFA_SP SP+-2
          CFI (cfiCond58) CFA_XSP16 add(XSP16, 36)
          CFI Block cfiCond59 Using cfiCommon0
          CFI (cfiCond59) Function MT_AfDataRequestSrcRtg
          CFI (cfiCond59) Conditional ??CrossCallReturnLabel_6
          CFI (cfiCond59) R6 load(1, XDATA, add(CFA_XSP16, literal(-20)))
          CFI (cfiCond59) VB load(1, XDATA, add(CFA_XSP16, literal(-19)))
          CFI (cfiCond59) V0 load(1, XDATA, add(CFA_XSP16, literal(-18)))
          CFI (cfiCond59) V1 load(1, XDATA, add(CFA_XSP16, literal(-17)))
          CFI (cfiCond59) V2 load(1, XDATA, add(CFA_XSP16, literal(-16)))
          CFI (cfiCond59) V3 load(1, XDATA, add(CFA_XSP16, literal(-15)))
          CFI (cfiCond59) V4 load(1, XDATA, add(CFA_XSP16, literal(-14)))
          CFI (cfiCond59) V5 load(1, XDATA, add(CFA_XSP16, literal(-13)))
          CFI (cfiCond59) V6 load(1, XDATA, add(CFA_XSP16, literal(-12)))
          CFI (cfiCond59) V7 load(1, XDATA, add(CFA_XSP16, literal(-11)))
          CFI (cfiCond59) V8 load(1, XDATA, add(CFA_XSP16, literal(-10)))
          CFI (cfiCond59) V9 load(1, XDATA, add(CFA_XSP16, literal(-9)))
          CFI (cfiCond59) V10 load(1, XDATA, add(CFA_XSP16, literal(-8)))
          CFI (cfiCond59) V11 load(1, XDATA, add(CFA_XSP16, literal(-7)))
          CFI (cfiCond59) R7 load(1, XDATA, add(CFA_XSP16, literal(-6)))
          CFI (cfiCond59) ?RET_LOW load(1, XDATA, add(CFA_XSP16, literal(-5)))
          CFI (cfiCond59) ?RET_HIGH load(1, XDATA, add(CFA_XSP16, literal(-4)))
          CFI (cfiCond59) ?BRET_EXT load(1, XDATA, add(CFA_XSP16, literal(-3)))
          CFI (cfiCond59) DPL0 load(1, XDATA, add(CFA_XSP16, literal(-2)))
          CFI (cfiCond59) DPH0 load(1, XDATA, add(CFA_XSP16, literal(-1)))
          CFI (cfiCond59) CFA_SP SP+-2
          CFI (cfiCond59) CFA_XSP16 add(XSP16, 34)
          CFI Block cfiPicker60 Using cfiCommon1
          CFI (cfiPicker60) NoFunction
          CFI (cfiPicker60) Picker
        MOVX    A,@DPTR
        MOV     R2,A
        INC     DPTR
        MOVX    A,@DPTR
        MOV     R1,A
        MOV     A,R2
        MOV     R0,A
        MOV     A,#0x2
        RET
          CFI EndBlock cfiCond57
          CFI EndBlock cfiCond58
          CFI EndBlock cfiCond59
          CFI EndBlock cfiPicker60
//  515 #endif
//  516 
//  517 #if defined INTER_PAN
//  518 /***************************************************************************************************
//  519  * @fn      MT_AfInterPanCtl
//  520  *
//  521  * @brief   Process the AF Inter Pan control command.
//  522  *
//  523  * @param   pBuf - pointer to the received buffer
//  524  *
//  525  * @return  none
//  526  ***************************************************************************************************/
//  527 static void MT_AfInterPanCtl(uint8 *pBuf)
//  528 {
//  529   uint8 cmd, rtrn;
//  530   uint16 panId;
//  531   endPointDesc_t *pEP;
//  532 
//  533   cmd = pBuf[MT_RPC_POS_CMD1];
//  534   pBuf += MT_RPC_FRAME_HDR_SZ;
//  535 
//  536   switch (*pBuf++)  // Inter-pan request parameter.
//  537   {
//  538   case InterPanClr:
//  539     rtrn = StubAPS_SetIntraPanChannel();           // Switch channel back to the NIB channel.
//  540     break;
//  541 
//  542   case InterPanSet:
//  543     rtrn = StubAPS_SetInterPanChannel(*pBuf);      // Set channel for inter-pan communication.
//  544     break;
//  545 
//  546   case InterPanReg:
//  547     if ((pEP = afFindEndPointDesc(*pBuf)))
//  548     {
//  549       StubAPS_RegisterApp(pEP);
//  550       rtrn = SUCCESS;
//  551     }
//  552     else
//  553     {
//  554       rtrn = FAILURE;
//  555     }
//  556     break;
//  557 
//  558   case InterPanChk:
//  559     panId = BUILD_UINT16(pBuf[0], pBuf[1]);
//  560     rtrn = (StubAPS_InterPan(panId, pBuf[2])) ? ZSuccess : ZFailure;
//  561     break;
//  562 
//  563   default:
//  564     rtrn = afStatus_INVALID_PARAMETER;
//  565     break;
//  566   }
//  567 
//  568   MT_BuildAndSendZToolResponse(((uint8)MT_RPC_CMD_SRSP | (uint8)MT_RPC_SYS_AF), cmd, 1, &rtrn);
//  569 }
//  570 #endif
//  571 
//  572 /***************************************************************************************************
//  573  * @fn      MT_AfDataConfirm
//  574  *
//  575  * @brief   Process
//  576  *
//  577  * @param   pBuf - pointer to the received buffer
//  578  *
//  579  * @return  none
//  580  ***************************************************************************************************/

        RSEG BANKED_CODE:CODE:NOROOT(0)
//  581 void MT_AfDataConfirm(afDataConfirm_t *pMsg)
MT_AfDataConfirm:
          CFI Block cfiBlock61 Using cfiCommon0
          CFI Function MT_AfDataConfirm
        CODE
//  582 {
        FUNCALL MT_AfDataConfirm, MT_BuildAndSendZToolResponse
        LOCFRAME ISTACK, 2, STACK
        LOCFRAME PSTACK, 0, STACK
        LOCFRAME XSTACK, 3, STACK
        LOCFRAME IOVERLAY, 0, STATIC
        LOCFRAME DOVERLAY, 0, STATIC
        ARGFRAME ISTACK, 2, STACK
        ARGFRAME PSTACK, 0, STACK
        ARGFRAME XSTACK, 3, STACK
        ARGFRAME IOVERLAY, 0, STATIC
        ARGFRAME DOVERLAY, 0, STATIC
        PUSH    DPL
          CFI DPL0 Frame(CFA_SP, 4)
          CFI CFA_SP SP+-4
        PUSH    DPH
          CFI DPH0 Frame(CFA_SP, 5)
          CFI CFA_SP SP+-5
        ; Saved register size: 2
        ; Auto size: 3
        MOV     A,#-0x3
        LCALL   ?ALLOC_XSTACK8
          CFI CFA_XSP16 add(XSP16, 3)
//  583   uint8 retArray[3];
//  584 
//  585   retArray[0] = pMsg->hdr.status;
        MOV     DPL,R2
        MOV     DPH,R3
        INC     DPTR
        MOVX    A,@DPTR
        MOV     DPL,?XSP + 0
        MOV     DPH,?XSP + 1
        LCALL   ?Subroutine29 & 0xFFFF
//  586   retArray[1] = pMsg->endpoint;
??CrossCallReturnLabel_57:
        PUSH    A
          CFI CFA_SP SP+-6
        MOV     A,#0x1
        LCALL   ?XSTACK_DISP0_8
        POP     A
          CFI CFA_SP SP+-5
        LCALL   ?Subroutine33 & 0xFFFF
//  587   retArray[2] = pMsg->transID;
??CrossCallReturnLabel_68:
        INC     DPTR
        INC     DPTR
        MOVX    A,@DPTR
        PUSH    A
          CFI CFA_SP SP+-6
        MOV     A,#0x2
        LCALL   ?XSTACK_DISP0_8
        POP     A
          CFI CFA_SP SP+-5
        MOVX    @DPTR,A
//  588 
//  589   /* Build and send back the response */
//  590   MT_BuildAndSendZToolResponse(((uint8)MT_RPC_CMD_AREQ | (uint8)MT_RPC_SYS_AF), MT_AF_DATA_CONFIRM, 3, retArray);
        ; Setup parameters for call to function MT_BuildAndSendZToolResponse
        MOV     R4,?XSP + 0
        MOV     R5,?XSP + 1
        MOV     R3,#0x3
        MOV     R2,#-0x80
        MOV     R1,#0x44
        LCALL   ??MT_BuildAndSendZToolResponse?relay; Banked call to: MT_BuildAndSendZToolResponse
//  591 }
        MOV     A,#0x3
        LCALL   ?DEALLOC_XSTACK8
          CFI CFA_XSP16 XSP16+0
        POP     DPH
          CFI DPH0 SameValue
          CFI CFA_SP SP+-4
        POP     DPL
          CFI DPL0 SameValue
          CFI CFA_SP SP+-3
        LJMP    ?BRET
          CFI EndBlock cfiBlock61

        RSEG BANKED_CODE:CODE:NOROOT(0)
?Subroutine33:
          CFI Block cfiCond62 Using cfiCommon0
          CFI Function MT_AfDataRequest
          CFI Conditional ??CrossCallReturnLabel_67
          CFI R6 load(1, XDATA, add(CFA_XSP16, literal(-22)))
          CFI VB load(1, XDATA, add(CFA_XSP16, literal(-21)))
          CFI V0 load(1, XDATA, add(CFA_XSP16, literal(-20)))
          CFI V1 load(1, XDATA, add(CFA_XSP16, literal(-19)))
          CFI V2 load(1, XDATA, add(CFA_XSP16, literal(-18)))
          CFI V3 load(1, XDATA, add(CFA_XSP16, literal(-17)))
          CFI V4 load(1, XDATA, add(CFA_XSP16, literal(-16)))
          CFI V5 load(1, XDATA, add(CFA_XSP16, literal(-15)))
          CFI V6 load(1, XDATA, add(CFA_XSP16, literal(-14)))
          CFI V7 load(1, XDATA, add(CFA_XSP16, literal(-13)))
          CFI V8 load(1, XDATA, add(CFA_XSP16, literal(-12)))
          CFI V9 load(1, XDATA, add(CFA_XSP16, literal(-11)))
          CFI V10 load(1, XDATA, add(CFA_XSP16, literal(-10)))
          CFI V11 load(1, XDATA, add(CFA_XSP16, literal(-9)))
          CFI V12 load(1, XDATA, add(CFA_XSP16, literal(-8)))
          CFI V13 load(1, XDATA, add(CFA_XSP16, literal(-7)))
          CFI R7 load(1, XDATA, add(CFA_XSP16, literal(-6)))
          CFI ?RET_LOW load(1, XDATA, add(CFA_XSP16, literal(-5)))
          CFI ?RET_HIGH load(1, XDATA, add(CFA_XSP16, literal(-4)))
          CFI ?BRET_EXT load(1, XDATA, add(CFA_XSP16, literal(-3)))
          CFI DPL0 load(1, XDATA, add(CFA_XSP16, literal(-2)))
          CFI DPH0 load(1, XDATA, add(CFA_XSP16, literal(-1)))
          CFI CFA_SP SP+-2
          CFI CFA_XSP16 add(XSP16, 36)
          CFI Block cfiCond63 Using cfiCommon0
          CFI (cfiCond63) Function MT_AfDataConfirm
          CFI (cfiCond63) Conditional ??CrossCallReturnLabel_68
          CFI (cfiCond63) DPL0 Frame(CFA_SP, 4)
          CFI (cfiCond63) DPH0 Frame(CFA_SP, 5)
          CFI (cfiCond63) CFA_SP SP+-7
          CFI (cfiCond63) CFA_XSP16 add(XSP16, 3)
          CFI Block cfiCond64 Using cfiCommon0
          CFI (cfiCond64) Function MT_AfRegister
          CFI (cfiCond64) Conditional ??CrossCallReturnLabel_69, ??CrossCallReturnLabel_56
          CFI (cfiCond64) R6 load(1, XDATA, add(CFA_XSP16, literal(-14)))
          CFI (cfiCond64) VB load(1, XDATA, add(CFA_XSP16, literal(-13)))
          CFI (cfiCond64) V0 load(1, XDATA, add(CFA_XSP16, literal(-12)))
          CFI (cfiCond64) V1 load(1, XDATA, add(CFA_XSP16, literal(-11)))
          CFI (cfiCond64) V2 load(1, XDATA, add(CFA_XSP16, literal(-10)))
          CFI (cfiCond64) V3 load(1, XDATA, add(CFA_XSP16, literal(-9)))
          CFI (cfiCond64) V4 load(1, XDATA, add(CFA_XSP16, literal(-8)))
          CFI (cfiCond64) V5 load(1, XDATA, add(CFA_XSP16, literal(-7)))
          CFI (cfiCond64) R7 load(1, XDATA, add(CFA_XSP16, literal(-6)))
          CFI (cfiCond64) ?RET_LOW load(1, XDATA, add(CFA_XSP16, literal(-5)))
          CFI (cfiCond64) ?RET_HIGH load(1, XDATA, add(CFA_XSP16, literal(-4)))
          CFI (cfiCond64) ?BRET_EXT load(1, XDATA, add(CFA_XSP16, literal(-3)))
          CFI (cfiCond64) DPL0 load(1, XDATA, add(CFA_XSP16, literal(-2)))
          CFI (cfiCond64) DPH0 load(1, XDATA, add(CFA_XSP16, literal(-1)))
          CFI (cfiCond64) CFA_SP SP+-4
          CFI (cfiCond64) CFA_XSP16 add(XSP16, 15)
          CFI Block cfiCond65 Using cfiCommon0
          CFI (cfiCond65) Function MT_AfDataConfirm
          CFI (cfiCond65) Conditional ??CrossCallReturnLabel_69, ??CrossCallReturnLabel_57
          CFI (cfiCond65) DPL0 Frame(CFA_SP, 4)
          CFI (cfiCond65) DPH0 Frame(CFA_SP, 5)
          CFI (cfiCond65) CFA_SP SP+-9
          CFI (cfiCond65) CFA_XSP16 add(XSP16, 3)
          CFI Block cfiPicker66 Using cfiCommon1
          CFI (cfiPicker66) NoFunction
          CFI (cfiPicker66) Picker
        MOVX    @DPTR,A
        MOV     DPL,R2
        MOV     DPH,R3
        INC     DPTR
        RET
          CFI EndBlock cfiCond62
          CFI EndBlock cfiCond63
          CFI EndBlock cfiCond64
          CFI EndBlock cfiCond65
          CFI EndBlock cfiPicker66

        RSEG BANKED_CODE:CODE:NOROOT(0)
?Subroutine29:
          CFI Block cfiCond67 Using cfiCommon0
          CFI Function MT_AfRegister
          CFI Conditional ??CrossCallReturnLabel_56
          CFI R6 load(1, XDATA, add(CFA_XSP16, literal(-14)))
          CFI VB load(1, XDATA, add(CFA_XSP16, literal(-13)))
          CFI V0 load(1, XDATA, add(CFA_XSP16, literal(-12)))
          CFI V1 load(1, XDATA, add(CFA_XSP16, literal(-11)))
          CFI V2 load(1, XDATA, add(CFA_XSP16, literal(-10)))
          CFI V3 load(1, XDATA, add(CFA_XSP16, literal(-9)))
          CFI V4 load(1, XDATA, add(CFA_XSP16, literal(-8)))
          CFI V5 load(1, XDATA, add(CFA_XSP16, literal(-7)))
          CFI R7 load(1, XDATA, add(CFA_XSP16, literal(-6)))
          CFI ?RET_LOW load(1, XDATA, add(CFA_XSP16, literal(-5)))
          CFI ?RET_HIGH load(1, XDATA, add(CFA_XSP16, literal(-4)))
          CFI ?BRET_EXT load(1, XDATA, add(CFA_XSP16, literal(-3)))
          CFI DPL0 load(1, XDATA, add(CFA_XSP16, literal(-2)))
          CFI DPH0 load(1, XDATA, add(CFA_XSP16, literal(-1)))
          CFI CFA_SP SP+-2
          CFI CFA_XSP16 add(XSP16, 15)
          CFI Block cfiCond68 Using cfiCommon0
          CFI (cfiCond68) Function MT_AfDataConfirm
          CFI (cfiCond68) Conditional ??CrossCallReturnLabel_57
          CFI (cfiCond68) DPL0 Frame(CFA_SP, 4)
          CFI (cfiCond68) DPH0 Frame(CFA_SP, 5)
          CFI (cfiCond68) CFA_SP SP+-7
          CFI (cfiCond68) CFA_XSP16 add(XSP16, 3)
          CFI Block cfiPicker69 Using cfiCommon1
          CFI (cfiPicker69) NoFunction
          CFI (cfiPicker69) Picker
        LCALL   ?Subroutine33 & 0xFFFF
??CrossCallReturnLabel_69:
        INC     DPTR
        MOVX    A,@DPTR
        RET
          CFI EndBlock cfiCond67
          CFI EndBlock cfiCond68
          CFI EndBlock cfiPicker69
//  592 
//  593 /***************************************************************************************************
//  594  * @fn          MT_AfIncomingMsg
//  595  *
//  596  * @brief       Process the callback subscription for AF Incoming data.
//  597  *
//  598  * @param       pkt - Incoming AF data.
//  599  *
//  600  * @return      none
//  601  ***************************************************************************************************/

        RSEG BANKED_CODE:CODE:NOROOT(0)
//  602 void MT_AfIncomingMsg(afIncomingMSGPacket_t *pMsg)
MT_AfIncomingMsg:
          CFI Block cfiBlock70 Using cfiCommon0
          CFI Function MT_AfIncomingMsg
        CODE
//  603 {
        FUNCALL MT_AfIncomingMsg, osal_mem_alloc
        LOCFRAME ISTACK, 0, STACK
        LOCFRAME PSTACK, 0, STACK
        LOCFRAME XSTACK, 23, STACK
        LOCFRAME IOVERLAY, 0, STATIC
        LOCFRAME DOVERLAY, 0, STATIC
        ARGFRAME ISTACK, 0, STACK
        ARGFRAME PSTACK, 0, STACK
        ARGFRAME XSTACK, 23, STACK
        ARGFRAME IOVERLAY, 0, STATIC
        ARGFRAME DOVERLAY, 0, STATIC
        FUNCALL MT_AfIncomingMsg, osal_mem_alloc
        LOCFRAME ISTACK, 0, STACK
        LOCFRAME PSTACK, 0, STACK
        LOCFRAME XSTACK, 23, STACK
        LOCFRAME IOVERLAY, 0, STATIC
        LOCFRAME DOVERLAY, 0, STATIC
        ARGFRAME ISTACK, 0, STACK
        ARGFRAME PSTACK, 0, STACK
        ARGFRAME XSTACK, 23, STACK
        ARGFRAME IOVERLAY, 0, STATIC
        ARGFRAME DOVERLAY, 0, STATIC
        FUNCALL MT_AfIncomingMsg, osal_mem_free
        LOCFRAME ISTACK, 0, STACK
        LOCFRAME PSTACK, 0, STACK
        LOCFRAME XSTACK, 23, STACK
        LOCFRAME IOVERLAY, 0, STATIC
        LOCFRAME DOVERLAY, 0, STATIC
        ARGFRAME ISTACK, 0, STACK
        ARGFRAME PSTACK, 0, STACK
        ARGFRAME XSTACK, 23, STACK
        ARGFRAME IOVERLAY, 0, STATIC
        ARGFRAME DOVERLAY, 0, STATIC
        FUNCALL MT_AfIncomingMsg, osal_memcpy
        LOCFRAME ISTACK, 0, STACK
        LOCFRAME PSTACK, 0, STACK
        LOCFRAME XSTACK, 26, STACK
        LOCFRAME IOVERLAY, 0, STATIC
        LOCFRAME DOVERLAY, 0, STATIC
        ARGFRAME ISTACK, 0, STACK
        ARGFRAME PSTACK, 0, STACK
        ARGFRAME XSTACK, 26, STACK
        ARGFRAME IOVERLAY, 0, STATIC
        ARGFRAME DOVERLAY, 0, STATIC
        FUNCALL MT_AfIncomingMsg, osal_start_timerEx
        LOCFRAME ISTACK, 0, STACK
        LOCFRAME PSTACK, 0, STACK
        LOCFRAME XSTACK, 23, STACK
        LOCFRAME IOVERLAY, 0, STATIC
        LOCFRAME DOVERLAY, 0, STATIC
        ARGFRAME ISTACK, 0, STACK
        ARGFRAME PSTACK, 0, STACK
        ARGFRAME XSTACK, 23, STACK
        ARGFRAME IOVERLAY, 0, STATIC
        ARGFRAME DOVERLAY, 0, STATIC
        FUNCALL MT_AfIncomingMsg, osal_set_event
        LOCFRAME ISTACK, 0, STACK
        LOCFRAME PSTACK, 0, STACK
        LOCFRAME XSTACK, 23, STACK
        LOCFRAME IOVERLAY, 0, STATIC
        LOCFRAME DOVERLAY, 0, STATIC
        ARGFRAME ISTACK, 0, STACK
        ARGFRAME PSTACK, 0, STACK
        ARGFRAME XSTACK, 23, STACK
        ARGFRAME IOVERLAY, 0, STATIC
        ARGFRAME DOVERLAY, 0, STATIC
        FUNCALL MT_AfIncomingMsg, osal_memcpy
        LOCFRAME ISTACK, 0, STACK
        LOCFRAME PSTACK, 0, STACK
        LOCFRAME XSTACK, 26, STACK
        LOCFRAME IOVERLAY, 0, STATIC
        LOCFRAME DOVERLAY, 0, STATIC
        ARGFRAME ISTACK, 0, STACK
        ARGFRAME PSTACK, 0, STACK
        ARGFRAME XSTACK, 26, STACK
        ARGFRAME IOVERLAY, 0, STATIC
        ARGFRAME DOVERLAY, 0, STATIC
        FUNCALL MT_AfIncomingMsg, osal_memcpy
        LOCFRAME ISTACK, 0, STACK
        LOCFRAME PSTACK, 0, STACK
        LOCFRAME XSTACK, 26, STACK
        LOCFRAME IOVERLAY, 0, STATIC
        LOCFRAME DOVERLAY, 0, STATIC
        ARGFRAME ISTACK, 0, STACK
        ARGFRAME PSTACK, 0, STACK
        ARGFRAME XSTACK, 26, STACK
        ARGFRAME IOVERLAY, 0, STATIC
        ARGFRAME DOVERLAY, 0, STATIC
        FUNCALL MT_AfIncomingMsg, MT_BuildAndSendZToolResponse
        LOCFRAME ISTACK, 0, STACK
        LOCFRAME PSTACK, 0, STACK
        LOCFRAME XSTACK, 23, STACK
        LOCFRAME IOVERLAY, 0, STATIC
        LOCFRAME DOVERLAY, 0, STATIC
        ARGFRAME ISTACK, 0, STACK
        ARGFRAME PSTACK, 0, STACK
        ARGFRAME XSTACK, 23, STACK
        ARGFRAME IOVERLAY, 0, STATIC
        ARGFRAME DOVERLAY, 0, STATIC
        FUNCALL MT_AfIncomingMsg, osal_mem_free
        LOCFRAME ISTACK, 0, STACK
        LOCFRAME PSTACK, 0, STACK
        LOCFRAME XSTACK, 23, STACK
        LOCFRAME IOVERLAY, 0, STATIC
        LOCFRAME DOVERLAY, 0, STATIC
        ARGFRAME ISTACK, 0, STACK
        ARGFRAME PSTACK, 0, STACK
        ARGFRAME XSTACK, 23, STACK
        ARGFRAME IOVERLAY, 0, STATIC
        ARGFRAME DOVERLAY, 0, STATIC
        REQUIRE ?V0
        REQUIRE ?V1
        REQUIRE ?V2
        REQUIRE ?V3
        REQUIRE ?V4
        REQUIRE ?V5
        REQUIRE ?V6
        REQUIRE ?V7
        REQUIRE ?V8
        REQUIRE ?V9
        REQUIRE ?V10
        REQUIRE ?V11
        REQUIRE ?V12
        REQUIRE ?V13
        REQUIRE ?V14
        MOV     A,#-0x17
        LCALL   ?BANKED_ENTER_XDATA
          CFI DPH0 load(1, XDATA, add(CFA_XSP16, literal(-1)))
          CFI DPL0 load(1, XDATA, add(CFA_XSP16, literal(-2)))
          CFI ?BRET_EXT load(1, XDATA, add(CFA_XSP16, literal(-3)))
          CFI ?RET_HIGH load(1, XDATA, add(CFA_XSP16, literal(-4)))
          CFI ?RET_LOW load(1, XDATA, add(CFA_XSP16, literal(-5)))
          CFI R7 load(1, XDATA, add(CFA_XSP16, literal(-6)))
          CFI V14 load(1, XDATA, add(CFA_XSP16, literal(-7)))
          CFI V13 load(1, XDATA, add(CFA_XSP16, literal(-8)))
          CFI V12 load(1, XDATA, add(CFA_XSP16, literal(-9)))
          CFI V11 load(1, XDATA, add(CFA_XSP16, literal(-10)))
          CFI V10 load(1, XDATA, add(CFA_XSP16, literal(-11)))
          CFI V9 load(1, XDATA, add(CFA_XSP16, literal(-12)))
          CFI V8 load(1, XDATA, add(CFA_XSP16, literal(-13)))
          CFI V7 load(1, XDATA, add(CFA_XSP16, literal(-14)))
          CFI V6 load(1, XDATA, add(CFA_XSP16, literal(-15)))
          CFI V5 load(1, XDATA, add(CFA_XSP16, literal(-16)))
          CFI V4 load(1, XDATA, add(CFA_XSP16, literal(-17)))
          CFI V3 load(1, XDATA, add(CFA_XSP16, literal(-18)))
          CFI V2 load(1, XDATA, add(CFA_XSP16, literal(-19)))
          CFI V1 load(1, XDATA, add(CFA_XSP16, literal(-20)))
          CFI V0 load(1, XDATA, add(CFA_XSP16, literal(-21)))
          CFI VB load(1, XDATA, add(CFA_XSP16, literal(-22)))
          CFI R6 load(1, XDATA, add(CFA_XSP16, literal(-23)))
          CFI CFA_SP SP+0
          CFI CFA_XSP16 add(XSP16, 23)
        ; Saved register size: 23
        ; Auto size: 0
        MOV     ?V8,R2
        MOV     ?V9,R3
//  604   #define MT_AF_INC_MSG_LEN  17
//  605   #define MT_AF_INC_MSG_EXT  10
//  606 
//  607   uint16 dataLen = pMsg->cmd.DataLength;  // Length of the data section in the response packet.
        MOV     A,R2
        ADD     A,#0x20
        LCALL   ?Subroutine37 & 0xFFFF
??CrossCallReturnLabel_74:
        MOV     ?V0,A
        INC     DPTR
        MOVX    A,@DPTR
        MOV     ?V1,A
//  608   uint16 respLen = MT_AF_INC_MSG_LEN + dataLen;
        MOV     A,?V0
        ADD     A,#0x11
        MOV     R6,A
        CLR     A
        ADDC    A,?V1
        MOV     R7,A
//  609   uint8 cmd = MT_AF_INCOMING_MSG;
        MOV     ?V14,#-0x7f
//  610   uint8 *pRsp, *pTmp;
//  611   mtAfInMsgList_t *pItem = NULL;
        MOV     ?V10,#0x0
        MOV     ?V11,#0x0
//  612 
//  613 #if defined INTER_PAN
//  614   if (StubAPS_InterPan(pMsg->srcAddr.panId, pMsg->srcAddr.endPoint))
//  615   {
//  616     cmd = MT_AF_INCOMING_MSG_EXT;
//  617   }
//  618   else
//  619 #endif
//  620   if ((pMsg->srcAddr.addrMode == afAddr64Bit) ||
//  621       (respLen > (uint16)(MT_RPC_DATA_MAX - MT_AF_INC_MSG_EXT)))
        MOV     A,R2
        ADD     A,#0xe
        LCALL   ?Subroutine37 & 0xFFFF
??CrossCallReturnLabel_75:
        XRL     A,#0x3
        JZ      ??MT_AfIncomingMsg_0
        CLR     C
        MOV     A,R6
        SUBB    A,#-0xf
        MOV     A,R7
        SUBB    A,#0x0
        JC      ??MT_AfIncomingMsg_1
//  622   {
//  623     cmd = MT_AF_INCOMING_MSG_EXT;
??MT_AfIncomingMsg_0:
        MOV     ?V14,#-0x7e
//  624   }
//  625 
//  626   if (cmd == MT_AF_INCOMING_MSG_EXT)
//  627   {
//  628     respLen += MT_AF_INC_MSG_EXT;
        MOV     A,R6
        ADD     A,#0xa
        MOV     R6,A
        CLR     A
        ADDC    A,R7
        MOV     R7,A
//  629   }
//  630 
//  631   if (respLen > (uint16)MT_RPC_DATA_MAX)
??MT_AfIncomingMsg_1:
        CLR     C
        MOV     A,R6
        SUBB    A,#-0x5
        MOV     A,R7
        SUBB    A,#0x0
        JC      ??MT_AfIncomingMsg_2
//  632   {
//  633     if ((pItem = (mtAfInMsgList_t *)osal_mem_alloc(sizeof(mtAfInMsgList_t) + dataLen)) == NULL)
        ; Setup parameters for call to function osal_mem_alloc
        MOV     A,?V0
        ADD     A,#0x9
        MOV     R2,A
        CLR     A
        ADDC    A,?V1
        MOV     R3,A
        LCALL   ??osal_mem_alloc?relay; Banked call to: osal_mem_alloc
        MOV     ?V10,R2
        MOV     ?V11,R3
        MOV     A,R2
        ORL     A,?V11
        JNZ     $+5
        LJMP    ??MT_AfIncomingMsg_3 & 0xFFFF
//  634     {
//  635       return;  // If cannot hold a huge message, cannot give indication at all.
//  636     }
//  637 
//  638     pItem->data = (uint8 *)(pItem+1);
        MOV     A,R2
        ADD     A,#0x9
        MOV     R0,A
        CLR     A
        ADDC    A,?V11
        MOV     R1,A
        MOV     DPL,R2
        MOV     DPH,R3
        INC     DPTR
        INC     DPTR
        LCALL   ?Subroutine27 & 0xFFFF
//  639     respLen -= dataLen;  // Zero data bytes are sent with an over-sized incoming indication.
??CrossCallReturnLabel_50:
        CLR     C
        MOV     A,R6
        SUBB    A,?V0
        MOV     R6,A
        MOV     A,R7
        SUBB    A,?V1
        MOV     R7,A
//  640   }
//  641 
//  642   // Attempt to allocate memory for the response packet.
//  643   if ((pRsp = osal_mem_alloc(respLen)) == NULL)
??MT_AfIncomingMsg_2:
        ; Setup parameters for call to function osal_mem_alloc
        MOV     A,R6
        MOV     R2,A
        MOV     A,R7
        MOV     R3,A
        LCALL   ??osal_mem_alloc?relay; Banked call to: osal_mem_alloc
        MOV     ?V12,R2
        MOV     ?V13,R3
        MOV     A,R2
        ORL     A,?V13
        JNZ     ??MT_AfIncomingMsg_4
//  644   {
//  645     if (pItem != NULL)
        MOV     A,?V10
        ORL     A,?V11
        JZ      ??MT_AfIncomingMsg_5
//  646     {
//  647       (void)osal_mem_free(pItem);
        ; Setup parameters for call to function osal_mem_free
        MOV     R2,?V10
        MOV     R3,?V11
        LCALL   ??osal_mem_free?relay; Banked call to: osal_mem_free
//  648     }
//  649     return;
??MT_AfIncomingMsg_5:
        LJMP    ??MT_AfIncomingMsg_3 & 0xFFFF
//  650   }
//  651   pTmp = pRsp;
//  652 
//  653   /* Group ID */
//  654   *pTmp++ = LO_UINT16(pMsg->groupId);
??MT_AfIncomingMsg_4:
        MOV     A,?V8
        ADD     A,#0x2
        LCALL   ?Subroutine30 & 0xFFFF
??CrossCallReturnLabel_58:
        MOVX    A,@DPTR
        MOV     DPL,R2
        MOV     DPH,R3
        LCALL   ?Subroutine24 & 0xFFFF
//  655   *pTmp++ = HI_UINT16(pMsg->groupId);
??CrossCallReturnLabel_38:
        MOV     DPL,R0
        MOV     DPH,R1
        INC     DPTR
        LCALL   ??Subroutine43_0 & 0xFFFF
//  656 
//  657   /* Cluster ID */
//  658   *pTmp++ = LO_UINT16(pMsg->clusterId);
??CrossCallReturnLabel_100:
        ADD     A,#0x4
        LCALL   ?Subroutine3 & 0xFFFF
//  659   *pTmp++ = HI_UINT16(pMsg->clusterId);
??CrossCallReturnLabel_0:
        LCALL   ?Subroutine6 & 0xFFFF
//  660 
//  661   if (cmd == MT_AF_INCOMING_MSG_EXT)
??CrossCallReturnLabel_7:
        MOV     A,#-0x7e
        XRL     A,?V14
        JNZ     ??MT_AfIncomingMsg_6
//  662   {
//  663     *pTmp++ = pMsg->srcAddr.addrMode;
        MOV     A,?V8
        ADD     A,#0xe
        LCALL   ?Subroutine30 & 0xFFFF
??CrossCallReturnLabel_59:
        LCALL   ?Subroutine6 & 0xFFFF
//  664 
//  665     if (pMsg->srcAddr.addrMode == afAddr64Bit)
??CrossCallReturnLabel_8:
        MOV     DPL,R0
        MOV     DPH,R1
        MOVX    A,@DPTR
        XRL     A,#0x3
        JNZ     ??MT_AfIncomingMsg_7
//  666     {
//  667       (void)osal_memcpy(pTmp, pMsg->srcAddr.addr.extAddr, Z_EXTADDR_LEN);
        ; Setup parameters for call to function osal_memcpy
        MOV     A,?V8
        ADD     A,#0x6
        MOV     ?V4,A
        CLR     A
        ADDC    A,?V9
        MOV     ?V5,A
        MOV     ?V6,#0x0
        MOV     R0,#?V4
        LCALL   ?PUSH_XSTACK_I_THREE
          CFI CFA_XSP16 add(XSP16, 26)
        MOV     R4,#0x8
        MOV     R5,#0x0
        MOV     R2,?V2
        MOV     R3,?V3
        LCALL   ??osal_memcpy?relay  ; Banked call to: osal_memcpy
        MOV     A,#0x3
        LCALL   ?DEALLOC_XSTACK8
          CFI CFA_XSP16 add(XSP16, 23)
        SJMP    ??MT_AfIncomingMsg_8
//  668     }
//  669     else
//  670     {
//  671       pTmp[0] = LO_UINT16(pMsg->srcAddr.addr.shortAddr);
??MT_AfIncomingMsg_7:
        MOV     A,?V8
        ADD     A,#0x6
        LCALL   ?Subroutine30 & 0xFFFF
??CrossCallReturnLabel_60:
        LCALL   ?Subroutine18 & 0xFFFF
??CrossCallReturnLabel_28:
        MOVX    @DPTR,A
//  672       pTmp[1] = HI_UINT16(pMsg->srcAddr.addr.shortAddr);
        MOV     DPL,R0
        MOV     DPH,R1
        INC     DPTR
        LCALL   ?Subroutine18 & 0xFFFF
//  673     }
??CrossCallReturnLabel_29:
        INC     DPTR
        MOVX    @DPTR,A
//  674     pTmp += Z_EXTADDR_LEN;
??MT_AfIncomingMsg_8:
        MOV     A,?V2
        ADD     A,#0x8
        MOV     ?V2,A
        JNC     ??MT_AfIncomingMsg_9
        INC     ?V3
//  675 
//  676     *pTmp++ = pMsg->srcAddr.endPoint;
??MT_AfIncomingMsg_9:
        MOV     A,?V8
        ADD     A,#0xf
        LCALL   ?Subroutine17 & 0xFFFF
//  677 #if defined INTER_PAN
//  678     *pTmp++ = LO_UINT16(pMsg->srcAddr.panId);
//  679     *pTmp++ = HI_UINT16(pMsg->srcAddr.panId);
//  680 #else
//  681     *pTmp++ = 0;
??CrossCallReturnLabel_26:
        CLR     A
        MOVX    @DPTR,A
        INC     DPTR
//  682     *pTmp++ = 0;
        SJMP    ??CrossCallReturnLabel_30
//  683 #endif
//  684   }
//  685   else
//  686   {
//  687     /* Source Address */
//  688     *pTmp++ = LO_UINT16(pMsg->srcAddr.addr.shortAddr);
??MT_AfIncomingMsg_6:
        MOV     A,?V8
        ADD     A,#0x6
        LCALL   ?Subroutine3 & 0xFFFF
//  689     *pTmp++ = HI_UINT16(pMsg->srcAddr.addr.shortAddr);
//  690 
//  691     /* Source EP */
//  692     *pTmp++ = pMsg->srcAddr.endPoint;
//  693   }
??CrossCallReturnLabel_1:
        LCALL   ??Subroutine43_0 & 0xFFFF
??CrossCallReturnLabel_101:
        ADD     A,#0xf
        MOV     DPL,A
        CLR     A
        ADDC    A,?V9
        MOV     DPH,A
        LCALL   ?Subroutine18 & 0xFFFF
??CrossCallReturnLabel_30:
        LCALL   ?Subroutine24 & 0xFFFF
//  694 
//  695   /* Destination EP */
//  696   *pTmp++ = pMsg->endPoint;
??CrossCallReturnLabel_39:
        MOV     A,?V8
        ADD     A,#0x14
        LCALL   ?Subroutine1 & 0xFFFF
//  697 
//  698   /* WasBroadCast */
//  699   *pTmp++ = pMsg->wasBroadcast;
??CrossCallReturnLabel_96:
        ADD     A,#0x15
        LCALL   ?Subroutine1 & 0xFFFF
//  700 
//  701   /* LinkQuality */
//  702   *pTmp++ = pMsg->LinkQuality;
??CrossCallReturnLabel_97:
        ADD     A,#0x16
        LCALL   ?Subroutine1 & 0xFFFF
//  703 
//  704   /* SecurityUse */
//  705   *pTmp++ = pMsg->SecurityUse;
??CrossCallReturnLabel_98:
        ADD     A,#0x19
        LCALL   ?Subroutine1 & 0xFFFF
//  706 
//  707   /* Timestamp */
//  708   *pTmp++ = BREAK_UINT32(pMsg->timestamp, 0);
??CrossCallReturnLabel_99:
        ADD     A,#0x1a
        MOV     R2,A
        CLR     A
        ADDC    A,?V9
        MOV     R3,A
        MOV     DPL,R2
        MOV     DPH,R3
        MOV     R0,#?V4
        LCALL   ?L_MOV_X
        LCALL   ?Subroutine22 & 0xFFFF
//  709   *pTmp++ = BREAK_UINT32(pMsg->timestamp, 1);
??CrossCallReturnLabel_87:
        LCALL   ?L_MOV_X
        MOV     A,?V5
        MOV     DPL,?V2
        MOV     DPH,?V3
        LCALL   ??Subroutine41_0 & 0xFFFF
//  710   *pTmp++ = BREAK_UINT32(pMsg->timestamp, 2);
??CrossCallReturnLabel_89:
        LCALL   ?L_MOV_X
        MOV     A,#0x10
        MOV     R0,#?V4
        LCALL   ?UL_SHR
        LCALL   ?Subroutine22 & 0xFFFF
//  711   *pTmp++ = BREAK_UINT32(pMsg->timestamp, 3);
??CrossCallReturnLabel_88:
        LCALL   ?L_MOV_X
        MOV     A,#0x18
        MOV     R0,#?V4
        LCALL   ?UL_SHR
        MOV     DPL,?V2
        MOV     DPH,?V3
        MOV     A,?V4
        LCALL   ?Subroutine24 & 0xFFFF
//  712 
//  713 
//  714   /* Data Length */
//  715   if (cmd == MT_AF_INCOMING_MSG_EXT)
??CrossCallReturnLabel_40:
        MOV     A,#-0x7e
        XRL     A,?V14
        JNZ     ??MT_AfIncomingMsg_10
//  716   {
//  717     /* Z-Tool apparently takes the last Byte before the data buffer as the dynamic length and
//  718      * ignores the bigger UInt16 length of an EXT incoming message. But no data bytes will be sent
//  719      * with a huge message, so it's necessary to work-around and fake-out Z-Tool with a zero here.
//  720      */
//  721     *pTmp++ = 0;  // TODO - workaround Z-Tool shortcoming; should be: = pMsg->cmd.TransSeqNumber;
        CLR     A
        MOVX    @DPTR,A
        INC     DPTR
//  722     *pTmp++ = LO_UINT16(dataLen);
        MOV     A,?V0
        MOVX    @DPTR,A
        INC     DPTR
//  723     *pTmp++ = HI_UINT16(dataLen);
        MOV     A,?V1
        SJMP    ??MT_AfIncomingMsg_11
//  724   }
//  725   else
//  726   {
//  727     *pTmp++ = pMsg->cmd.TransSeqNumber;
??MT_AfIncomingMsg_10:
        MOV     A,?V8
        ADD     A,#0x1f
        LCALL   ?Subroutine17 & 0xFFFF
//  728     *pTmp++ = dataLen;
??CrossCallReturnLabel_27:
        MOV     A,?V0
//  729   }
??MT_AfIncomingMsg_11:
        LCALL   ?Subroutine24 & 0xFFFF
//  730 
//  731   /* Data */
//  732   if (pItem != NULL)
??CrossCallReturnLabel_41:
        MOV     A,?V10
        ORL     A,?V11
        JZ      ??MT_AfIncomingMsg_12
//  733   {
//  734     // Enqueue the new huge incoming item.
//  735     pItem->next = pMtAfInMsgList;
        LCALL   ?Subroutine21 & 0xFFFF
??CrossCallReturnLabel_110:
        MOV     DPL,?V10
        MOV     DPH,?V11
        LCALL   ?Subroutine27 & 0xFFFF
//  736     pMtAfInMsgList = pItem;
??CrossCallReturnLabel_51:
        MOV     DPTR,#pMtAfInMsgList
        MOV     A,?V10
        MOVX    @DPTR,A
        INC     DPTR
        MOV     A,?V11
        MOVX    @DPTR,A
//  737 
//  738     // Setup to time-out the huge incoming item if host does not MT_AF_DATA_RETRIEVE it.
//  739     pItem->tick = MT_AF_EXEC_CNT;
        MOV     DPL,?V10
        MOV     DPH,A
        INC     DPTR
        INC     DPTR
        INC     DPTR
        INC     DPTR
        INC     DPTR
        INC     DPTR
        INC     DPTR
        INC     DPTR
        LCALL   ?Subroutine25 & 0xFFFF
//  740     if (ZSuccess != osal_start_timerEx(MT_TaskID, MT_AF_EXEC_EVT, MT_AF_EXEC_DLY))
??CrossCallReturnLabel_43:
        LCALL   ??osal_start_timerEx?relay; Banked call to: osal_start_timerEx
        MOV     A,R1
        JZ      ??MT_AfIncomingMsg_13
//  741     {
//  742       (void)osal_set_event(MT_TaskID, MT_AF_EXEC_EVT);
        ; Setup parameters for call to function osal_set_event
        MOV     R2,#0x8
        MOV     R3,#0x0
        MOV     DPTR,#MT_TaskID
        MOVX    A,@DPTR
        MOV     R1,A
        LCALL   ??osal_set_event?relay; Banked call to: osal_set_event
//  743     }
//  744 
//  745     pItem->timestamp = pMsg->timestamp;
??MT_AfIncomingMsg_13:
        MOV     A,?V8
        ADD     A,#0x1a
        MOV     DPL,A
        CLR     A
        ADDC    A,?V9
        MOV     DPH,A
        LCALL   ?XLOAD_R0123
        MOV     DPL,?V10
        MOV     DPH,?V11
        INC     DPTR
        INC     DPTR
        INC     DPTR
        INC     DPTR
        LCALL   ?XSTORE_R0123
//  746     (void)osal_memcpy(pItem->data, pMsg->cmd.Data, dataLen);
        ; Setup parameters for call to function osal_memcpy
        LCALL   ?Subroutine19 & 0xFFFF
//  747   }
??CrossCallReturnLabel_31:
        LCALL   ?PUSH_XSTACK_I_THREE
          CFI CFA_XSP16 add(XSP16, 26)
        MOV     R4,?V0
        MOV     R5,?V1
        MOV     DPL,?V10
        MOV     DPH,?V11
        INC     DPTR
        INC     DPTR
        LCALL   ??Subroutine42_0 & 0xFFFF
??CrossCallReturnLabel_93:
        SJMP    ??MT_AfIncomingMsg_14
          CFI CFA_XSP16 add(XSP16, 23)
//  748   else
//  749   {
//  750     (void)osal_memcpy(pTmp, pMsg->cmd.Data, dataLen);
??MT_AfIncomingMsg_12:
        ; Setup parameters for call to function osal_memcpy
        LCALL   ?Subroutine19 & 0xFFFF
//  751   }
??CrossCallReturnLabel_32:
        LCALL   ?PUSH_XSTACK_I_THREE
          CFI CFA_XSP16 add(XSP16, 26)
        MOV     R4,?V0
        MOV     R5,?V1
        MOV     R2,?V2
        MOV     R3,?V3
??MT_AfIncomingMsg_14:
        LCALL   ??osal_memcpy?relay  ; Banked call to: osal_memcpy
        MOV     A,#0x3
        LCALL   ?DEALLOC_XSTACK8
          CFI CFA_XSP16 add(XSP16, 23)
//  752 
//  753   /* Build and send back the response */
//  754   MT_BuildAndSendZToolResponse(((uint8)MT_RPC_CMD_AREQ|(uint8)MT_RPC_SYS_AF), cmd, respLen, pRsp);
        ; Setup parameters for call to function MT_BuildAndSendZToolResponse
        MOV     R4,?V12
        MOV     R5,?V13
        MOV     A,R6
        MOV     R3,A
        MOV     R2,?V14
        MOV     R1,#0x44
        LCALL   ??MT_BuildAndSendZToolResponse?relay; Banked call to: MT_BuildAndSendZToolResponse
//  755 
//  756   (void)osal_mem_free(pRsp);
        ; Setup parameters for call to function osal_mem_free
        MOV     R2,?V12
        MOV     R3,?V13
        LCALL   ??osal_mem_free?relay; Banked call to: osal_mem_free
//  757 }
??MT_AfIncomingMsg_3:
        MOV     R7,#0xf
        LJMP    ?BANKED_LEAVE_XDATA
          CFI EndBlock cfiBlock70

        RSEG BANKED_CODE:CODE:NOROOT(0)
?Subroutine30:
          CFI Block cfiCond71 Using cfiCommon0
          CFI Function MT_AfIncomingMsg
          CFI Conditional ??CrossCallReturnLabel_58
          CFI R6 load(1, XDATA, add(CFA_XSP16, literal(-23)))
          CFI VB load(1, XDATA, add(CFA_XSP16, literal(-22)))
          CFI V0 load(1, XDATA, add(CFA_XSP16, literal(-21)))
          CFI V1 load(1, XDATA, add(CFA_XSP16, literal(-20)))
          CFI V2 load(1, XDATA, add(CFA_XSP16, literal(-19)))
          CFI V3 load(1, XDATA, add(CFA_XSP16, literal(-18)))
          CFI V4 load(1, XDATA, add(CFA_XSP16, literal(-17)))
          CFI V5 load(1, XDATA, add(CFA_XSP16, literal(-16)))
          CFI V6 load(1, XDATA, add(CFA_XSP16, literal(-15)))
          CFI V7 load(1, XDATA, add(CFA_XSP16, literal(-14)))
          CFI V8 load(1, XDATA, add(CFA_XSP16, literal(-13)))
          CFI V9 load(1, XDATA, add(CFA_XSP16, literal(-12)))
          CFI V10 load(1, XDATA, add(CFA_XSP16, literal(-11)))
          CFI V11 load(1, XDATA, add(CFA_XSP16, literal(-10)))
          CFI V12 load(1, XDATA, add(CFA_XSP16, literal(-9)))
          CFI V13 load(1, XDATA, add(CFA_XSP16, literal(-8)))
          CFI V14 load(1, XDATA, add(CFA_XSP16, literal(-7)))
          CFI R7 load(1, XDATA, add(CFA_XSP16, literal(-6)))
          CFI ?RET_LOW load(1, XDATA, add(CFA_XSP16, literal(-5)))
          CFI ?RET_HIGH load(1, XDATA, add(CFA_XSP16, literal(-4)))
          CFI ?BRET_EXT load(1, XDATA, add(CFA_XSP16, literal(-3)))
          CFI DPL0 load(1, XDATA, add(CFA_XSP16, literal(-2)))
          CFI DPH0 load(1, XDATA, add(CFA_XSP16, literal(-1)))
          CFI CFA_SP SP+-2
          CFI CFA_XSP16 add(XSP16, 23)
          CFI Block cfiCond72 Using cfiCommon0
          CFI (cfiCond72) Function MT_AfIncomingMsg
          CFI (cfiCond72) Conditional ??CrossCallReturnLabel_59
          CFI (cfiCond72) R6 load(1, XDATA, add(CFA_XSP16, literal(-23)))
          CFI (cfiCond72) VB load(1, XDATA, add(CFA_XSP16, literal(-22)))
          CFI (cfiCond72) V0 load(1, XDATA, add(CFA_XSP16, literal(-21)))
          CFI (cfiCond72) V1 load(1, XDATA, add(CFA_XSP16, literal(-20)))
          CFI (cfiCond72) V2 load(1, XDATA, add(CFA_XSP16, literal(-19)))
          CFI (cfiCond72) V3 load(1, XDATA, add(CFA_XSP16, literal(-18)))
          CFI (cfiCond72) V4 load(1, XDATA, add(CFA_XSP16, literal(-17)))
          CFI (cfiCond72) V5 load(1, XDATA, add(CFA_XSP16, literal(-16)))
          CFI (cfiCond72) V6 load(1, XDATA, add(CFA_XSP16, literal(-15)))
          CFI (cfiCond72) V7 load(1, XDATA, add(CFA_XSP16, literal(-14)))
          CFI (cfiCond72) V8 load(1, XDATA, add(CFA_XSP16, literal(-13)))
          CFI (cfiCond72) V9 load(1, XDATA, add(CFA_XSP16, literal(-12)))
          CFI (cfiCond72) V10 load(1, XDATA, add(CFA_XSP16, literal(-11)))
          CFI (cfiCond72) V11 load(1, XDATA, add(CFA_XSP16, literal(-10)))
          CFI (cfiCond72) V12 load(1, XDATA, add(CFA_XSP16, literal(-9)))
          CFI (cfiCond72) V13 load(1, XDATA, add(CFA_XSP16, literal(-8)))
          CFI (cfiCond72) V14 load(1, XDATA, add(CFA_XSP16, literal(-7)))
          CFI (cfiCond72) R7 load(1, XDATA, add(CFA_XSP16, literal(-6)))
          CFI (cfiCond72) ?RET_LOW load(1, XDATA, add(CFA_XSP16, literal(-5)))
          CFI (cfiCond72) ?RET_HIGH load(1, XDATA, add(CFA_XSP16, literal(-4)))
          CFI (cfiCond72) ?BRET_EXT load(1, XDATA, add(CFA_XSP16, literal(-3)))
          CFI (cfiCond72) DPL0 load(1, XDATA, add(CFA_XSP16, literal(-2)))
          CFI (cfiCond72) DPH0 load(1, XDATA, add(CFA_XSP16, literal(-1)))
          CFI (cfiCond72) CFA_SP SP+-2
          CFI (cfiCond72) CFA_XSP16 add(XSP16, 23)
          CFI Block cfiCond73 Using cfiCommon0
          CFI (cfiCond73) Function MT_AfIncomingMsg
          CFI (cfiCond73) Conditional ??CrossCallReturnLabel_60
          CFI (cfiCond73) R6 load(1, XDATA, add(CFA_XSP16, literal(-23)))
          CFI (cfiCond73) VB load(1, XDATA, add(CFA_XSP16, literal(-22)))
          CFI (cfiCond73) V0 load(1, XDATA, add(CFA_XSP16, literal(-21)))
          CFI (cfiCond73) V1 load(1, XDATA, add(CFA_XSP16, literal(-20)))
          CFI (cfiCond73) V2 load(1, XDATA, add(CFA_XSP16, literal(-19)))
          CFI (cfiCond73) V3 load(1, XDATA, add(CFA_XSP16, literal(-18)))
          CFI (cfiCond73) V4 load(1, XDATA, add(CFA_XSP16, literal(-17)))
          CFI (cfiCond73) V5 load(1, XDATA, add(CFA_XSP16, literal(-16)))
          CFI (cfiCond73) V6 load(1, XDATA, add(CFA_XSP16, literal(-15)))
          CFI (cfiCond73) V7 load(1, XDATA, add(CFA_XSP16, literal(-14)))
          CFI (cfiCond73) V8 load(1, XDATA, add(CFA_XSP16, literal(-13)))
          CFI (cfiCond73) V9 load(1, XDATA, add(CFA_XSP16, literal(-12)))
          CFI (cfiCond73) V10 load(1, XDATA, add(CFA_XSP16, literal(-11)))
          CFI (cfiCond73) V11 load(1, XDATA, add(CFA_XSP16, literal(-10)))
          CFI (cfiCond73) V12 load(1, XDATA, add(CFA_XSP16, literal(-9)))
          CFI (cfiCond73) V13 load(1, XDATA, add(CFA_XSP16, literal(-8)))
          CFI (cfiCond73) V14 load(1, XDATA, add(CFA_XSP16, literal(-7)))
          CFI (cfiCond73) R7 load(1, XDATA, add(CFA_XSP16, literal(-6)))
          CFI (cfiCond73) ?RET_LOW load(1, XDATA, add(CFA_XSP16, literal(-5)))
          CFI (cfiCond73) ?RET_HIGH load(1, XDATA, add(CFA_XSP16, literal(-4)))
          CFI (cfiCond73) ?BRET_EXT load(1, XDATA, add(CFA_XSP16, literal(-3)))
          CFI (cfiCond73) DPL0 load(1, XDATA, add(CFA_XSP16, literal(-2)))
          CFI (cfiCond73) DPH0 load(1, XDATA, add(CFA_XSP16, literal(-1)))
          CFI (cfiCond73) CFA_SP SP+-2
          CFI (cfiCond73) CFA_XSP16 add(XSP16, 23)
          CFI Block cfiPicker74 Using cfiCommon1
          CFI (cfiPicker74) NoFunction
          CFI (cfiPicker74) Picker
        MOV     R0,A
        CLR     A
        ADDC    A,?V9
        MOV     R1,A
        MOV     DPL,R0
        MOV     DPH,R1
        RET
          CFI EndBlock cfiCond71
          CFI EndBlock cfiCond72
          CFI EndBlock cfiCond73
          CFI EndBlock cfiPicker74

        RSEG BANKED_CODE:CODE:NOROOT(0)
?Subroutine25:
          CFI Block cfiCond75 Using cfiCommon0
          CFI Function MT_AfDataRequest
          CFI Conditional ??CrossCallReturnLabel_42
          CFI R6 load(1, XDATA, add(CFA_XSP16, literal(-22)))
          CFI VB load(1, XDATA, add(CFA_XSP16, literal(-21)))
          CFI V0 load(1, XDATA, add(CFA_XSP16, literal(-20)))
          CFI V1 load(1, XDATA, add(CFA_XSP16, literal(-19)))
          CFI V2 load(1, XDATA, add(CFA_XSP16, literal(-18)))
          CFI V3 load(1, XDATA, add(CFA_XSP16, literal(-17)))
          CFI V4 load(1, XDATA, add(CFA_XSP16, literal(-16)))
          CFI V5 load(1, XDATA, add(CFA_XSP16, literal(-15)))
          CFI V6 load(1, XDATA, add(CFA_XSP16, literal(-14)))
          CFI V7 load(1, XDATA, add(CFA_XSP16, literal(-13)))
          CFI V8 load(1, XDATA, add(CFA_XSP16, literal(-12)))
          CFI V9 load(1, XDATA, add(CFA_XSP16, literal(-11)))
          CFI V10 load(1, XDATA, add(CFA_XSP16, literal(-10)))
          CFI V11 load(1, XDATA, add(CFA_XSP16, literal(-9)))
          CFI V12 load(1, XDATA, add(CFA_XSP16, literal(-8)))
          CFI V13 load(1, XDATA, add(CFA_XSP16, literal(-7)))
          CFI R7 load(1, XDATA, add(CFA_XSP16, literal(-6)))
          CFI ?RET_LOW load(1, XDATA, add(CFA_XSP16, literal(-5)))
          CFI ?RET_HIGH load(1, XDATA, add(CFA_XSP16, literal(-4)))
          CFI ?BRET_EXT load(1, XDATA, add(CFA_XSP16, literal(-3)))
          CFI DPL0 load(1, XDATA, add(CFA_XSP16, literal(-2)))
          CFI DPH0 load(1, XDATA, add(CFA_XSP16, literal(-1)))
          CFI CFA_SP SP+-2
          CFI CFA_XSP16 add(XSP16, 36)
          CFI Block cfiCond76 Using cfiCommon0
          CFI (cfiCond76) Function MT_AfIncomingMsg
          CFI (cfiCond76) Conditional ??CrossCallReturnLabel_43
          CFI (cfiCond76) R6 load(1, XDATA, add(CFA_XSP16, literal(-23)))
          CFI (cfiCond76) VB load(1, XDATA, add(CFA_XSP16, literal(-22)))
          CFI (cfiCond76) V0 load(1, XDATA, add(CFA_XSP16, literal(-21)))
          CFI (cfiCond76) V1 load(1, XDATA, add(CFA_XSP16, literal(-20)))
          CFI (cfiCond76) V2 load(1, XDATA, add(CFA_XSP16, literal(-19)))
          CFI (cfiCond76) V3 load(1, XDATA, add(CFA_XSP16, literal(-18)))
          CFI (cfiCond76) V4 load(1, XDATA, add(CFA_XSP16, literal(-17)))
          CFI (cfiCond76) V5 load(1, XDATA, add(CFA_XSP16, literal(-16)))
          CFI (cfiCond76) V6 load(1, XDATA, add(CFA_XSP16, literal(-15)))
          CFI (cfiCond76) V7 load(1, XDATA, add(CFA_XSP16, literal(-14)))
          CFI (cfiCond76) V8 load(1, XDATA, add(CFA_XSP16, literal(-13)))
          CFI (cfiCond76) V9 load(1, XDATA, add(CFA_XSP16, literal(-12)))
          CFI (cfiCond76) V10 load(1, XDATA, add(CFA_XSP16, literal(-11)))
          CFI (cfiCond76) V11 load(1, XDATA, add(CFA_XSP16, literal(-10)))
          CFI (cfiCond76) V12 load(1, XDATA, add(CFA_XSP16, literal(-9)))
          CFI (cfiCond76) V13 load(1, XDATA, add(CFA_XSP16, literal(-8)))
          CFI (cfiCond76) V14 load(1, XDATA, add(CFA_XSP16, literal(-7)))
          CFI (cfiCond76) R7 load(1, XDATA, add(CFA_XSP16, literal(-6)))
          CFI (cfiCond76) ?RET_LOW load(1, XDATA, add(CFA_XSP16, literal(-5)))
          CFI (cfiCond76) ?RET_HIGH load(1, XDATA, add(CFA_XSP16, literal(-4)))
          CFI (cfiCond76) ?BRET_EXT load(1, XDATA, add(CFA_XSP16, literal(-3)))
          CFI (cfiCond76) DPL0 load(1, XDATA, add(CFA_XSP16, literal(-2)))
          CFI (cfiCond76) DPH0 load(1, XDATA, add(CFA_XSP16, literal(-1)))
          CFI (cfiCond76) CFA_SP SP+-2
          CFI (cfiCond76) CFA_XSP16 add(XSP16, 23)
          CFI Block cfiPicker77 Using cfiCommon1
          CFI (cfiPicker77) NoFunction
          CFI (cfiPicker77) Picker
        MOV     A,#0xf
        MOVX    @DPTR,A
        ; Setup parameters for call to function osal_start_timerEx
        ; Setup parameters for call to function osal_start_timerEx
        MOV     R4,#-0x18
        MOV     R5,#0x3
        MOV     R2,#0x8
        MOV     R3,#0x0
        MOV     DPTR,#MT_TaskID
        MOVX    A,@DPTR
        MOV     R1,A
        RET
          CFI EndBlock cfiCond75
          CFI EndBlock cfiCond76
          CFI EndBlock cfiPicker77

        RSEG BANKED_CODE:CODE:NOROOT(0)
?Subroutine24:
          CFI Block cfiCond78 Using cfiCommon0
          CFI Function MT_AfIncomingMsg
          CFI Conditional ??CrossCallReturnLabel_38
          CFI R6 load(1, XDATA, add(CFA_XSP16, literal(-23)))
          CFI VB load(1, XDATA, add(CFA_XSP16, literal(-22)))
          CFI V0 load(1, XDATA, add(CFA_XSP16, literal(-21)))
          CFI V1 load(1, XDATA, add(CFA_XSP16, literal(-20)))
          CFI V2 load(1, XDATA, add(CFA_XSP16, literal(-19)))
          CFI V3 load(1, XDATA, add(CFA_XSP16, literal(-18)))
          CFI V4 load(1, XDATA, add(CFA_XSP16, literal(-17)))
          CFI V5 load(1, XDATA, add(CFA_XSP16, literal(-16)))
          CFI V6 load(1, XDATA, add(CFA_XSP16, literal(-15)))
          CFI V7 load(1, XDATA, add(CFA_XSP16, literal(-14)))
          CFI V8 load(1, XDATA, add(CFA_XSP16, literal(-13)))
          CFI V9 load(1, XDATA, add(CFA_XSP16, literal(-12)))
          CFI V10 load(1, XDATA, add(CFA_XSP16, literal(-11)))
          CFI V11 load(1, XDATA, add(CFA_XSP16, literal(-10)))
          CFI V12 load(1, XDATA, add(CFA_XSP16, literal(-9)))
          CFI V13 load(1, XDATA, add(CFA_XSP16, literal(-8)))
          CFI V14 load(1, XDATA, add(CFA_XSP16, literal(-7)))
          CFI R7 load(1, XDATA, add(CFA_XSP16, literal(-6)))
          CFI ?RET_LOW load(1, XDATA, add(CFA_XSP16, literal(-5)))
          CFI ?RET_HIGH load(1, XDATA, add(CFA_XSP16, literal(-4)))
          CFI ?BRET_EXT load(1, XDATA, add(CFA_XSP16, literal(-3)))
          CFI DPL0 load(1, XDATA, add(CFA_XSP16, literal(-2)))
          CFI DPH0 load(1, XDATA, add(CFA_XSP16, literal(-1)))
          CFI CFA_SP SP+-2
          CFI CFA_XSP16 add(XSP16, 23)
          CFI Block cfiCond79 Using cfiCommon0
          CFI (cfiCond79) Function MT_AfIncomingMsg
          CFI (cfiCond79) Conditional ??CrossCallReturnLabel_39
          CFI (cfiCond79) R6 load(1, XDATA, add(CFA_XSP16, literal(-23)))
          CFI (cfiCond79) VB load(1, XDATA, add(CFA_XSP16, literal(-22)))
          CFI (cfiCond79) V0 load(1, XDATA, add(CFA_XSP16, literal(-21)))
          CFI (cfiCond79) V1 load(1, XDATA, add(CFA_XSP16, literal(-20)))
          CFI (cfiCond79) V2 load(1, XDATA, add(CFA_XSP16, literal(-19)))
          CFI (cfiCond79) V3 load(1, XDATA, add(CFA_XSP16, literal(-18)))
          CFI (cfiCond79) V4 load(1, XDATA, add(CFA_XSP16, literal(-17)))
          CFI (cfiCond79) V5 load(1, XDATA, add(CFA_XSP16, literal(-16)))
          CFI (cfiCond79) V6 load(1, XDATA, add(CFA_XSP16, literal(-15)))
          CFI (cfiCond79) V7 load(1, XDATA, add(CFA_XSP16, literal(-14)))
          CFI (cfiCond79) V8 load(1, XDATA, add(CFA_XSP16, literal(-13)))
          CFI (cfiCond79) V9 load(1, XDATA, add(CFA_XSP16, literal(-12)))
          CFI (cfiCond79) V10 load(1, XDATA, add(CFA_XSP16, literal(-11)))
          CFI (cfiCond79) V11 load(1, XDATA, add(CFA_XSP16, literal(-10)))
          CFI (cfiCond79) V12 load(1, XDATA, add(CFA_XSP16, literal(-9)))
          CFI (cfiCond79) V13 load(1, XDATA, add(CFA_XSP16, literal(-8)))
          CFI (cfiCond79) V14 load(1, XDATA, add(CFA_XSP16, literal(-7)))
          CFI (cfiCond79) R7 load(1, XDATA, add(CFA_XSP16, literal(-6)))
          CFI (cfiCond79) ?RET_LOW load(1, XDATA, add(CFA_XSP16, literal(-5)))
          CFI (cfiCond79) ?RET_HIGH load(1, XDATA, add(CFA_XSP16, literal(-4)))
          CFI (cfiCond79) ?BRET_EXT load(1, XDATA, add(CFA_XSP16, literal(-3)))
          CFI (cfiCond79) DPL0 load(1, XDATA, add(CFA_XSP16, literal(-2)))
          CFI (cfiCond79) DPH0 load(1, XDATA, add(CFA_XSP16, literal(-1)))
          CFI (cfiCond79) CFA_SP SP+-2
          CFI (cfiCond79) CFA_XSP16 add(XSP16, 23)
          CFI Block cfiCond80 Using cfiCommon0
          CFI (cfiCond80) Function MT_AfIncomingMsg
          CFI (cfiCond80) Conditional ??CrossCallReturnLabel_40
          CFI (cfiCond80) R6 load(1, XDATA, add(CFA_XSP16, literal(-23)))
          CFI (cfiCond80) VB load(1, XDATA, add(CFA_XSP16, literal(-22)))
          CFI (cfiCond80) V0 load(1, XDATA, add(CFA_XSP16, literal(-21)))
          CFI (cfiCond80) V1 load(1, XDATA, add(CFA_XSP16, literal(-20)))
          CFI (cfiCond80) V2 load(1, XDATA, add(CFA_XSP16, literal(-19)))
          CFI (cfiCond80) V3 load(1, XDATA, add(CFA_XSP16, literal(-18)))
          CFI (cfiCond80) V4 load(1, XDATA, add(CFA_XSP16, literal(-17)))
          CFI (cfiCond80) V5 load(1, XDATA, add(CFA_XSP16, literal(-16)))
          CFI (cfiCond80) V6 load(1, XDATA, add(CFA_XSP16, literal(-15)))
          CFI (cfiCond80) V7 load(1, XDATA, add(CFA_XSP16, literal(-14)))
          CFI (cfiCond80) V8 load(1, XDATA, add(CFA_XSP16, literal(-13)))
          CFI (cfiCond80) V9 load(1, XDATA, add(CFA_XSP16, literal(-12)))
          CFI (cfiCond80) V10 load(1, XDATA, add(CFA_XSP16, literal(-11)))
          CFI (cfiCond80) V11 load(1, XDATA, add(CFA_XSP16, literal(-10)))
          CFI (cfiCond80) V12 load(1, XDATA, add(CFA_XSP16, literal(-9)))
          CFI (cfiCond80) V13 load(1, XDATA, add(CFA_XSP16, literal(-8)))
          CFI (cfiCond80) V14 load(1, XDATA, add(CFA_XSP16, literal(-7)))
          CFI (cfiCond80) R7 load(1, XDATA, add(CFA_XSP16, literal(-6)))
          CFI (cfiCond80) ?RET_LOW load(1, XDATA, add(CFA_XSP16, literal(-5)))
          CFI (cfiCond80) ?RET_HIGH load(1, XDATA, add(CFA_XSP16, literal(-4)))
          CFI (cfiCond80) ?BRET_EXT load(1, XDATA, add(CFA_XSP16, literal(-3)))
          CFI (cfiCond80) DPL0 load(1, XDATA, add(CFA_XSP16, literal(-2)))
          CFI (cfiCond80) DPH0 load(1, XDATA, add(CFA_XSP16, literal(-1)))
          CFI (cfiCond80) CFA_SP SP+-2
          CFI (cfiCond80) CFA_XSP16 add(XSP16, 23)
          CFI Block cfiCond81 Using cfiCommon0
          CFI (cfiCond81) Function MT_AfIncomingMsg
          CFI (cfiCond81) Conditional ??CrossCallReturnLabel_41
          CFI (cfiCond81) R6 load(1, XDATA, add(CFA_XSP16, literal(-23)))
          CFI (cfiCond81) VB load(1, XDATA, add(CFA_XSP16, literal(-22)))
          CFI (cfiCond81) V0 load(1, XDATA, add(CFA_XSP16, literal(-21)))
          CFI (cfiCond81) V1 load(1, XDATA, add(CFA_XSP16, literal(-20)))
          CFI (cfiCond81) V2 load(1, XDATA, add(CFA_XSP16, literal(-19)))
          CFI (cfiCond81) V3 load(1, XDATA, add(CFA_XSP16, literal(-18)))
          CFI (cfiCond81) V4 load(1, XDATA, add(CFA_XSP16, literal(-17)))
          CFI (cfiCond81) V5 load(1, XDATA, add(CFA_XSP16, literal(-16)))
          CFI (cfiCond81) V6 load(1, XDATA, add(CFA_XSP16, literal(-15)))
          CFI (cfiCond81) V7 load(1, XDATA, add(CFA_XSP16, literal(-14)))
          CFI (cfiCond81) V8 load(1, XDATA, add(CFA_XSP16, literal(-13)))
          CFI (cfiCond81) V9 load(1, XDATA, add(CFA_XSP16, literal(-12)))
          CFI (cfiCond81) V10 load(1, XDATA, add(CFA_XSP16, literal(-11)))
          CFI (cfiCond81) V11 load(1, XDATA, add(CFA_XSP16, literal(-10)))
          CFI (cfiCond81) V12 load(1, XDATA, add(CFA_XSP16, literal(-9)))
          CFI (cfiCond81) V13 load(1, XDATA, add(CFA_XSP16, literal(-8)))
          CFI (cfiCond81) V14 load(1, XDATA, add(CFA_XSP16, literal(-7)))
          CFI (cfiCond81) R7 load(1, XDATA, add(CFA_XSP16, literal(-6)))
          CFI (cfiCond81) ?RET_LOW load(1, XDATA, add(CFA_XSP16, literal(-5)))
          CFI (cfiCond81) ?RET_HIGH load(1, XDATA, add(CFA_XSP16, literal(-4)))
          CFI (cfiCond81) ?BRET_EXT load(1, XDATA, add(CFA_XSP16, literal(-3)))
          CFI (cfiCond81) DPL0 load(1, XDATA, add(CFA_XSP16, literal(-2)))
          CFI (cfiCond81) DPH0 load(1, XDATA, add(CFA_XSP16, literal(-1)))
          CFI (cfiCond81) CFA_SP SP+-2
          CFI (cfiCond81) CFA_XSP16 add(XSP16, 23)
          CFI Block cfiPicker82 Using cfiCommon1
          CFI (cfiPicker82) NoFunction
          CFI (cfiPicker82) Picker
        LCALL   ?Subroutine34 & 0xFFFF
??CrossCallReturnLabel_90:
        RET
          CFI EndBlock cfiCond78
          CFI EndBlock cfiCond79
          CFI EndBlock cfiCond80
          CFI EndBlock cfiCond81
          CFI EndBlock cfiPicker82

        RSEG BANKED_CODE:CODE:NOROOT(0)
?Subroutine34:
          CFI Block cfiCond83 Using cfiCommon0
          CFI Function MT_AfIncomingMsg
          CFI Conditional ??CrossCallReturnLabel_90, ??CrossCallReturnLabel_38
          CFI R6 load(1, XDATA, add(CFA_XSP16, literal(-23)))
          CFI VB load(1, XDATA, add(CFA_XSP16, literal(-22)))
          CFI V0 load(1, XDATA, add(CFA_XSP16, literal(-21)))
          CFI V1 load(1, XDATA, add(CFA_XSP16, literal(-20)))
          CFI V2 load(1, XDATA, add(CFA_XSP16, literal(-19)))
          CFI V3 load(1, XDATA, add(CFA_XSP16, literal(-18)))
          CFI V4 load(1, XDATA, add(CFA_XSP16, literal(-17)))
          CFI V5 load(1, XDATA, add(CFA_XSP16, literal(-16)))
          CFI V6 load(1, XDATA, add(CFA_XSP16, literal(-15)))
          CFI V7 load(1, XDATA, add(CFA_XSP16, literal(-14)))
          CFI V8 load(1, XDATA, add(CFA_XSP16, literal(-13)))
          CFI V9 load(1, XDATA, add(CFA_XSP16, literal(-12)))
          CFI V10 load(1, XDATA, add(CFA_XSP16, literal(-11)))
          CFI V11 load(1, XDATA, add(CFA_XSP16, literal(-10)))
          CFI V12 load(1, XDATA, add(CFA_XSP16, literal(-9)))
          CFI V13 load(1, XDATA, add(CFA_XSP16, literal(-8)))
          CFI V14 load(1, XDATA, add(CFA_XSP16, literal(-7)))
          CFI R7 load(1, XDATA, add(CFA_XSP16, literal(-6)))
          CFI ?RET_LOW load(1, XDATA, add(CFA_XSP16, literal(-5)))
          CFI ?RET_HIGH load(1, XDATA, add(CFA_XSP16, literal(-4)))
          CFI ?BRET_EXT load(1, XDATA, add(CFA_XSP16, literal(-3)))
          CFI DPL0 load(1, XDATA, add(CFA_XSP16, literal(-2)))
          CFI DPH0 load(1, XDATA, add(CFA_XSP16, literal(-1)))
          CFI CFA_SP SP+-4
          CFI CFA_XSP16 add(XSP16, 23)
          CFI Block cfiCond84 Using cfiCommon0
          CFI (cfiCond84) Function MT_AfIncomingMsg
          CFI (cfiCond84) Conditional ??CrossCallReturnLabel_90, ??CrossCallReturnLabel_39
          CFI (cfiCond84) R6 load(1, XDATA, add(CFA_XSP16, literal(-23)))
          CFI (cfiCond84) VB load(1, XDATA, add(CFA_XSP16, literal(-22)))
          CFI (cfiCond84) V0 load(1, XDATA, add(CFA_XSP16, literal(-21)))
          CFI (cfiCond84) V1 load(1, XDATA, add(CFA_XSP16, literal(-20)))
          CFI (cfiCond84) V2 load(1, XDATA, add(CFA_XSP16, literal(-19)))
          CFI (cfiCond84) V3 load(1, XDATA, add(CFA_XSP16, literal(-18)))
          CFI (cfiCond84) V4 load(1, XDATA, add(CFA_XSP16, literal(-17)))
          CFI (cfiCond84) V5 load(1, XDATA, add(CFA_XSP16, literal(-16)))
          CFI (cfiCond84) V6 load(1, XDATA, add(CFA_XSP16, literal(-15)))
          CFI (cfiCond84) V7 load(1, XDATA, add(CFA_XSP16, literal(-14)))
          CFI (cfiCond84) V8 load(1, XDATA, add(CFA_XSP16, literal(-13)))
          CFI (cfiCond84) V9 load(1, XDATA, add(CFA_XSP16, literal(-12)))
          CFI (cfiCond84) V10 load(1, XDATA, add(CFA_XSP16, literal(-11)))
          CFI (cfiCond84) V11 load(1, XDATA, add(CFA_XSP16, literal(-10)))
          CFI (cfiCond84) V12 load(1, XDATA, add(CFA_XSP16, literal(-9)))
          CFI (cfiCond84) V13 load(1, XDATA, add(CFA_XSP16, literal(-8)))
          CFI (cfiCond84) V14 load(1, XDATA, add(CFA_XSP16, literal(-7)))
          CFI (cfiCond84) R7 load(1, XDATA, add(CFA_XSP16, literal(-6)))
          CFI (cfiCond84) ?RET_LOW load(1, XDATA, add(CFA_XSP16, literal(-5)))
          CFI (cfiCond84) ?RET_HIGH load(1, XDATA, add(CFA_XSP16, literal(-4)))
          CFI (cfiCond84) ?BRET_EXT load(1, XDATA, add(CFA_XSP16, literal(-3)))
          CFI (cfiCond84) DPL0 load(1, XDATA, add(CFA_XSP16, literal(-2)))
          CFI (cfiCond84) DPH0 load(1, XDATA, add(CFA_XSP16, literal(-1)))
          CFI (cfiCond84) CFA_SP SP+-4
          CFI (cfiCond84) CFA_XSP16 add(XSP16, 23)
          CFI Block cfiCond85 Using cfiCommon0
          CFI (cfiCond85) Function MT_AfIncomingMsg
          CFI (cfiCond85) Conditional ??CrossCallReturnLabel_90, ??CrossCallReturnLabel_40
          CFI (cfiCond85) R6 load(1, XDATA, add(CFA_XSP16, literal(-23)))
          CFI (cfiCond85) VB load(1, XDATA, add(CFA_XSP16, literal(-22)))
          CFI (cfiCond85) V0 load(1, XDATA, add(CFA_XSP16, literal(-21)))
          CFI (cfiCond85) V1 load(1, XDATA, add(CFA_XSP16, literal(-20)))
          CFI (cfiCond85) V2 load(1, XDATA, add(CFA_XSP16, literal(-19)))
          CFI (cfiCond85) V3 load(1, XDATA, add(CFA_XSP16, literal(-18)))
          CFI (cfiCond85) V4 load(1, XDATA, add(CFA_XSP16, literal(-17)))
          CFI (cfiCond85) V5 load(1, XDATA, add(CFA_XSP16, literal(-16)))
          CFI (cfiCond85) V6 load(1, XDATA, add(CFA_XSP16, literal(-15)))
          CFI (cfiCond85) V7 load(1, XDATA, add(CFA_XSP16, literal(-14)))
          CFI (cfiCond85) V8 load(1, XDATA, add(CFA_XSP16, literal(-13)))
          CFI (cfiCond85) V9 load(1, XDATA, add(CFA_XSP16, literal(-12)))
          CFI (cfiCond85) V10 load(1, XDATA, add(CFA_XSP16, literal(-11)))
          CFI (cfiCond85) V11 load(1, XDATA, add(CFA_XSP16, literal(-10)))
          CFI (cfiCond85) V12 load(1, XDATA, add(CFA_XSP16, literal(-9)))
          CFI (cfiCond85) V13 load(1, XDATA, add(CFA_XSP16, literal(-8)))
          CFI (cfiCond85) V14 load(1, XDATA, add(CFA_XSP16, literal(-7)))
          CFI (cfiCond85) R7 load(1, XDATA, add(CFA_XSP16, literal(-6)))
          CFI (cfiCond85) ?RET_LOW load(1, XDATA, add(CFA_XSP16, literal(-5)))
          CFI (cfiCond85) ?RET_HIGH load(1, XDATA, add(CFA_XSP16, literal(-4)))
          CFI (cfiCond85) ?BRET_EXT load(1, XDATA, add(CFA_XSP16, literal(-3)))
          CFI (cfiCond85) DPL0 load(1, XDATA, add(CFA_XSP16, literal(-2)))
          CFI (cfiCond85) DPH0 load(1, XDATA, add(CFA_XSP16, literal(-1)))
          CFI (cfiCond85) CFA_SP SP+-4
          CFI (cfiCond85) CFA_XSP16 add(XSP16, 23)
          CFI Block cfiCond86 Using cfiCommon0
          CFI (cfiCond86) Function MT_AfIncomingMsg
          CFI (cfiCond86) Conditional ??CrossCallReturnLabel_90, ??CrossCallReturnLabel_41
          CFI (cfiCond86) R6 load(1, XDATA, add(CFA_XSP16, literal(-23)))
          CFI (cfiCond86) VB load(1, XDATA, add(CFA_XSP16, literal(-22)))
          CFI (cfiCond86) V0 load(1, XDATA, add(CFA_XSP16, literal(-21)))
          CFI (cfiCond86) V1 load(1, XDATA, add(CFA_XSP16, literal(-20)))
          CFI (cfiCond86) V2 load(1, XDATA, add(CFA_XSP16, literal(-19)))
          CFI (cfiCond86) V3 load(1, XDATA, add(CFA_XSP16, literal(-18)))
          CFI (cfiCond86) V4 load(1, XDATA, add(CFA_XSP16, literal(-17)))
          CFI (cfiCond86) V5 load(1, XDATA, add(CFA_XSP16, literal(-16)))
          CFI (cfiCond86) V6 load(1, XDATA, add(CFA_XSP16, literal(-15)))
          CFI (cfiCond86) V7 load(1, XDATA, add(CFA_XSP16, literal(-14)))
          CFI (cfiCond86) V8 load(1, XDATA, add(CFA_XSP16, literal(-13)))
          CFI (cfiCond86) V9 load(1, XDATA, add(CFA_XSP16, literal(-12)))
          CFI (cfiCond86) V10 load(1, XDATA, add(CFA_XSP16, literal(-11)))
          CFI (cfiCond86) V11 load(1, XDATA, add(CFA_XSP16, literal(-10)))
          CFI (cfiCond86) V12 load(1, XDATA, add(CFA_XSP16, literal(-9)))
          CFI (cfiCond86) V13 load(1, XDATA, add(CFA_XSP16, literal(-8)))
          CFI (cfiCond86) V14 load(1, XDATA, add(CFA_XSP16, literal(-7)))
          CFI (cfiCond86) R7 load(1, XDATA, add(CFA_XSP16, literal(-6)))
          CFI (cfiCond86) ?RET_LOW load(1, XDATA, add(CFA_XSP16, literal(-5)))
          CFI (cfiCond86) ?RET_HIGH load(1, XDATA, add(CFA_XSP16, literal(-4)))
          CFI (cfiCond86) ?BRET_EXT load(1, XDATA, add(CFA_XSP16, literal(-3)))
          CFI (cfiCond86) DPL0 load(1, XDATA, add(CFA_XSP16, literal(-2)))
          CFI (cfiCond86) DPH0 load(1, XDATA, add(CFA_XSP16, literal(-1)))
          CFI (cfiCond86) CFA_SP SP+-4
          CFI (cfiCond86) CFA_XSP16 add(XSP16, 23)
          CFI Block cfiCond87 Using cfiCommon0
          CFI (cfiCond87) Function MT_AfIncomingMsg
          CFI (cfiCond87) Conditional ??CrossCallReturnLabel_91, ??CrossCallReturnLabel_87
          CFI (cfiCond87) R6 load(1, XDATA, add(CFA_XSP16, literal(-23)))
          CFI (cfiCond87) VB load(1, XDATA, add(CFA_XSP16, literal(-22)))
          CFI (cfiCond87) V0 load(1, XDATA, add(CFA_XSP16, literal(-21)))
          CFI (cfiCond87) V1 load(1, XDATA, add(CFA_XSP16, literal(-20)))
          CFI (cfiCond87) V2 load(1, XDATA, add(CFA_XSP16, literal(-19)))
          CFI (cfiCond87) V3 load(1, XDATA, add(CFA_XSP16, literal(-18)))
          CFI (cfiCond87) V4 load(1, XDATA, add(CFA_XSP16, literal(-17)))
          CFI (cfiCond87) V5 load(1, XDATA, add(CFA_XSP16, literal(-16)))
          CFI (cfiCond87) V6 load(1, XDATA, add(CFA_XSP16, literal(-15)))
          CFI (cfiCond87) V7 load(1, XDATA, add(CFA_XSP16, literal(-14)))
          CFI (cfiCond87) V8 load(1, XDATA, add(CFA_XSP16, literal(-13)))
          CFI (cfiCond87) V9 load(1, XDATA, add(CFA_XSP16, literal(-12)))
          CFI (cfiCond87) V10 load(1, XDATA, add(CFA_XSP16, literal(-11)))
          CFI (cfiCond87) V11 load(1, XDATA, add(CFA_XSP16, literal(-10)))
          CFI (cfiCond87) V12 load(1, XDATA, add(CFA_XSP16, literal(-9)))
          CFI (cfiCond87) V13 load(1, XDATA, add(CFA_XSP16, literal(-8)))
          CFI (cfiCond87) V14 load(1, XDATA, add(CFA_XSP16, literal(-7)))
          CFI (cfiCond87) R7 load(1, XDATA, add(CFA_XSP16, literal(-6)))
          CFI (cfiCond87) ?RET_LOW load(1, XDATA, add(CFA_XSP16, literal(-5)))
          CFI (cfiCond87) ?RET_HIGH load(1, XDATA, add(CFA_XSP16, literal(-4)))
          CFI (cfiCond87) ?BRET_EXT load(1, XDATA, add(CFA_XSP16, literal(-3)))
          CFI (cfiCond87) DPL0 load(1, XDATA, add(CFA_XSP16, literal(-2)))
          CFI (cfiCond87) DPH0 load(1, XDATA, add(CFA_XSP16, literal(-1)))
          CFI (cfiCond87) CFA_SP SP+-4
          CFI (cfiCond87) CFA_XSP16 add(XSP16, 23)
          CFI Block cfiCond88 Using cfiCommon0
          CFI (cfiCond88) Function MT_AfIncomingMsg
          CFI (cfiCond88) Conditional ??CrossCallReturnLabel_91, ??CrossCallReturnLabel_88
          CFI (cfiCond88) R6 load(1, XDATA, add(CFA_XSP16, literal(-23)))
          CFI (cfiCond88) VB load(1, XDATA, add(CFA_XSP16, literal(-22)))
          CFI (cfiCond88) V0 load(1, XDATA, add(CFA_XSP16, literal(-21)))
          CFI (cfiCond88) V1 load(1, XDATA, add(CFA_XSP16, literal(-20)))
          CFI (cfiCond88) V2 load(1, XDATA, add(CFA_XSP16, literal(-19)))
          CFI (cfiCond88) V3 load(1, XDATA, add(CFA_XSP16, literal(-18)))
          CFI (cfiCond88) V4 load(1, XDATA, add(CFA_XSP16, literal(-17)))
          CFI (cfiCond88) V5 load(1, XDATA, add(CFA_XSP16, literal(-16)))
          CFI (cfiCond88) V6 load(1, XDATA, add(CFA_XSP16, literal(-15)))
          CFI (cfiCond88) V7 load(1, XDATA, add(CFA_XSP16, literal(-14)))
          CFI (cfiCond88) V8 load(1, XDATA, add(CFA_XSP16, literal(-13)))
          CFI (cfiCond88) V9 load(1, XDATA, add(CFA_XSP16, literal(-12)))
          CFI (cfiCond88) V10 load(1, XDATA, add(CFA_XSP16, literal(-11)))
          CFI (cfiCond88) V11 load(1, XDATA, add(CFA_XSP16, literal(-10)))
          CFI (cfiCond88) V12 load(1, XDATA, add(CFA_XSP16, literal(-9)))
          CFI (cfiCond88) V13 load(1, XDATA, add(CFA_XSP16, literal(-8)))
          CFI (cfiCond88) V14 load(1, XDATA, add(CFA_XSP16, literal(-7)))
          CFI (cfiCond88) R7 load(1, XDATA, add(CFA_XSP16, literal(-6)))
          CFI (cfiCond88) ?RET_LOW load(1, XDATA, add(CFA_XSP16, literal(-5)))
          CFI (cfiCond88) ?RET_HIGH load(1, XDATA, add(CFA_XSP16, literal(-4)))
          CFI (cfiCond88) ?BRET_EXT load(1, XDATA, add(CFA_XSP16, literal(-3)))
          CFI (cfiCond88) DPL0 load(1, XDATA, add(CFA_XSP16, literal(-2)))
          CFI (cfiCond88) DPH0 load(1, XDATA, add(CFA_XSP16, literal(-1)))
          CFI (cfiCond88) CFA_SP SP+-4
          CFI (cfiCond88) CFA_XSP16 add(XSP16, 23)
          CFI Block cfiCond89 Using cfiCommon0
          CFI (cfiCond89) Function MT_AfIncomingMsg
          CFI (cfiCond89) Conditional ??CrossCallReturnLabel_91, ??CrossCallReturnLabel_89
          CFI (cfiCond89) R6 load(1, XDATA, add(CFA_XSP16, literal(-23)))
          CFI (cfiCond89) VB load(1, XDATA, add(CFA_XSP16, literal(-22)))
          CFI (cfiCond89) V0 load(1, XDATA, add(CFA_XSP16, literal(-21)))
          CFI (cfiCond89) V1 load(1, XDATA, add(CFA_XSP16, literal(-20)))
          CFI (cfiCond89) V2 load(1, XDATA, add(CFA_XSP16, literal(-19)))
          CFI (cfiCond89) V3 load(1, XDATA, add(CFA_XSP16, literal(-18)))
          CFI (cfiCond89) V4 load(1, XDATA, add(CFA_XSP16, literal(-17)))
          CFI (cfiCond89) V5 load(1, XDATA, add(CFA_XSP16, literal(-16)))
          CFI (cfiCond89) V6 load(1, XDATA, add(CFA_XSP16, literal(-15)))
          CFI (cfiCond89) V7 load(1, XDATA, add(CFA_XSP16, literal(-14)))
          CFI (cfiCond89) V8 load(1, XDATA, add(CFA_XSP16, literal(-13)))
          CFI (cfiCond89) V9 load(1, XDATA, add(CFA_XSP16, literal(-12)))
          CFI (cfiCond89) V10 load(1, XDATA, add(CFA_XSP16, literal(-11)))
          CFI (cfiCond89) V11 load(1, XDATA, add(CFA_XSP16, literal(-10)))
          CFI (cfiCond89) V12 load(1, XDATA, add(CFA_XSP16, literal(-9)))
          CFI (cfiCond89) V13 load(1, XDATA, add(CFA_XSP16, literal(-8)))
          CFI (cfiCond89) V14 load(1, XDATA, add(CFA_XSP16, literal(-7)))
          CFI (cfiCond89) R7 load(1, XDATA, add(CFA_XSP16, literal(-6)))
          CFI (cfiCond89) ?RET_LOW load(1, XDATA, add(CFA_XSP16, literal(-5)))
          CFI (cfiCond89) ?RET_HIGH load(1, XDATA, add(CFA_XSP16, literal(-4)))
          CFI (cfiCond89) ?BRET_EXT load(1, XDATA, add(CFA_XSP16, literal(-3)))
          CFI (cfiCond89) DPL0 load(1, XDATA, add(CFA_XSP16, literal(-2)))
          CFI (cfiCond89) DPH0 load(1, XDATA, add(CFA_XSP16, literal(-1)))
          CFI (cfiCond89) CFA_SP SP+-4
          CFI (cfiCond89) CFA_XSP16 add(XSP16, 23)
          CFI Block cfiPicker90 Using cfiCommon1
          CFI (cfiPicker90) NoFunction
          CFI (cfiPicker90) Picker
        LCALL   ?Subroutine38 & 0xFFFF
??CrossCallReturnLabel_105:
        RET
          CFI EndBlock cfiCond83
          CFI EndBlock cfiCond84
          CFI EndBlock cfiCond85
          CFI EndBlock cfiCond86
          CFI EndBlock cfiCond87
          CFI EndBlock cfiCond88
          CFI EndBlock cfiCond89
          CFI EndBlock cfiPicker90

        RSEG BANKED_CODE:CODE:NOROOT(0)
?Subroutine22:
          CFI Block cfiCond91 Using cfiCommon0
          CFI Function MT_AfIncomingMsg
          CFI Conditional ??CrossCallReturnLabel_87
          CFI R6 load(1, XDATA, add(CFA_XSP16, literal(-23)))
          CFI VB load(1, XDATA, add(CFA_XSP16, literal(-22)))
          CFI V0 load(1, XDATA, add(CFA_XSP16, literal(-21)))
          CFI V1 load(1, XDATA, add(CFA_XSP16, literal(-20)))
          CFI V2 load(1, XDATA, add(CFA_XSP16, literal(-19)))
          CFI V3 load(1, XDATA, add(CFA_XSP16, literal(-18)))
          CFI V4 load(1, XDATA, add(CFA_XSP16, literal(-17)))
          CFI V5 load(1, XDATA, add(CFA_XSP16, literal(-16)))
          CFI V6 load(1, XDATA, add(CFA_XSP16, literal(-15)))
          CFI V7 load(1, XDATA, add(CFA_XSP16, literal(-14)))
          CFI V8 load(1, XDATA, add(CFA_XSP16, literal(-13)))
          CFI V9 load(1, XDATA, add(CFA_XSP16, literal(-12)))
          CFI V10 load(1, XDATA, add(CFA_XSP16, literal(-11)))
          CFI V11 load(1, XDATA, add(CFA_XSP16, literal(-10)))
          CFI V12 load(1, XDATA, add(CFA_XSP16, literal(-9)))
          CFI V13 load(1, XDATA, add(CFA_XSP16, literal(-8)))
          CFI V14 load(1, XDATA, add(CFA_XSP16, literal(-7)))
          CFI R7 load(1, XDATA, add(CFA_XSP16, literal(-6)))
          CFI ?RET_LOW load(1, XDATA, add(CFA_XSP16, literal(-5)))
          CFI ?RET_HIGH load(1, XDATA, add(CFA_XSP16, literal(-4)))
          CFI ?BRET_EXT load(1, XDATA, add(CFA_XSP16, literal(-3)))
          CFI DPL0 load(1, XDATA, add(CFA_XSP16, literal(-2)))
          CFI DPH0 load(1, XDATA, add(CFA_XSP16, literal(-1)))
          CFI CFA_SP SP+-2
          CFI CFA_XSP16 add(XSP16, 23)
          CFI Block cfiCond92 Using cfiCommon0
          CFI (cfiCond92) Function MT_AfIncomingMsg
          CFI (cfiCond92) Conditional ??CrossCallReturnLabel_88
          CFI (cfiCond92) R6 load(1, XDATA, add(CFA_XSP16, literal(-23)))
          CFI (cfiCond92) VB load(1, XDATA, add(CFA_XSP16, literal(-22)))
          CFI (cfiCond92) V0 load(1, XDATA, add(CFA_XSP16, literal(-21)))
          CFI (cfiCond92) V1 load(1, XDATA, add(CFA_XSP16, literal(-20)))
          CFI (cfiCond92) V2 load(1, XDATA, add(CFA_XSP16, literal(-19)))
          CFI (cfiCond92) V3 load(1, XDATA, add(CFA_XSP16, literal(-18)))
          CFI (cfiCond92) V4 load(1, XDATA, add(CFA_XSP16, literal(-17)))
          CFI (cfiCond92) V5 load(1, XDATA, add(CFA_XSP16, literal(-16)))
          CFI (cfiCond92) V6 load(1, XDATA, add(CFA_XSP16, literal(-15)))
          CFI (cfiCond92) V7 load(1, XDATA, add(CFA_XSP16, literal(-14)))
          CFI (cfiCond92) V8 load(1, XDATA, add(CFA_XSP16, literal(-13)))
          CFI (cfiCond92) V9 load(1, XDATA, add(CFA_XSP16, literal(-12)))
          CFI (cfiCond92) V10 load(1, XDATA, add(CFA_XSP16, literal(-11)))
          CFI (cfiCond92) V11 load(1, XDATA, add(CFA_XSP16, literal(-10)))
          CFI (cfiCond92) V12 load(1, XDATA, add(CFA_XSP16, literal(-9)))
          CFI (cfiCond92) V13 load(1, XDATA, add(CFA_XSP16, literal(-8)))
          CFI (cfiCond92) V14 load(1, XDATA, add(CFA_XSP16, literal(-7)))
          CFI (cfiCond92) R7 load(1, XDATA, add(CFA_XSP16, literal(-6)))
          CFI (cfiCond92) ?RET_LOW load(1, XDATA, add(CFA_XSP16, literal(-5)))
          CFI (cfiCond92) ?RET_HIGH load(1, XDATA, add(CFA_XSP16, literal(-4)))
          CFI (cfiCond92) ?BRET_EXT load(1, XDATA, add(CFA_XSP16, literal(-3)))
          CFI (cfiCond92) DPL0 load(1, XDATA, add(CFA_XSP16, literal(-2)))
          CFI (cfiCond92) DPH0 load(1, XDATA, add(CFA_XSP16, literal(-1)))
          CFI (cfiCond92) CFA_SP SP+-2
          CFI (cfiCond92) CFA_XSP16 add(XSP16, 23)
          CFI Block cfiPicker93 Using cfiCommon1
          CFI (cfiPicker93) NoFunction
          CFI (cfiPicker93) Picker
        MOV     DPL,?V2
        MOV     DPH,?V3
        MOV     A,?V4
          CFI EndBlock cfiCond91
          CFI EndBlock cfiCond92
          CFI EndBlock cfiPicker93
        REQUIRE ??Subroutine41_0
        ; // Fall through to label ??Subroutine41_0

        RSEG BANKED_CODE:CODE:NOROOT(0)
??Subroutine41_0:
          CFI Block cfiCond94 Using cfiCommon0
          CFI Function MT_AfIncomingMsg
          CFI Conditional ??CrossCallReturnLabel_89
          CFI R6 load(1, XDATA, add(CFA_XSP16, literal(-23)))
          CFI VB load(1, XDATA, add(CFA_XSP16, literal(-22)))
          CFI V0 load(1, XDATA, add(CFA_XSP16, literal(-21)))
          CFI V1 load(1, XDATA, add(CFA_XSP16, literal(-20)))
          CFI V2 load(1, XDATA, add(CFA_XSP16, literal(-19)))
          CFI V3 load(1, XDATA, add(CFA_XSP16, literal(-18)))
          CFI V4 load(1, XDATA, add(CFA_XSP16, literal(-17)))
          CFI V5 load(1, XDATA, add(CFA_XSP16, literal(-16)))
          CFI V6 load(1, XDATA, add(CFA_XSP16, literal(-15)))
          CFI V7 load(1, XDATA, add(CFA_XSP16, literal(-14)))
          CFI V8 load(1, XDATA, add(CFA_XSP16, literal(-13)))
          CFI V9 load(1, XDATA, add(CFA_XSP16, literal(-12)))
          CFI V10 load(1, XDATA, add(CFA_XSP16, literal(-11)))
          CFI V11 load(1, XDATA, add(CFA_XSP16, literal(-10)))
          CFI V12 load(1, XDATA, add(CFA_XSP16, literal(-9)))
          CFI V13 load(1, XDATA, add(CFA_XSP16, literal(-8)))
          CFI V14 load(1, XDATA, add(CFA_XSP16, literal(-7)))
          CFI R7 load(1, XDATA, add(CFA_XSP16, literal(-6)))
          CFI ?RET_LOW load(1, XDATA, add(CFA_XSP16, literal(-5)))
          CFI ?RET_HIGH load(1, XDATA, add(CFA_XSP16, literal(-4)))
          CFI ?BRET_EXT load(1, XDATA, add(CFA_XSP16, literal(-3)))
          CFI DPL0 load(1, XDATA, add(CFA_XSP16, literal(-2)))
          CFI DPH0 load(1, XDATA, add(CFA_XSP16, literal(-1)))
          CFI CFA_SP SP+-2
          CFI CFA_XSP16 add(XSP16, 23)
          CFI Block cfiCond95 Using cfiCommon0
          CFI (cfiCond95) Function MT_AfIncomingMsg
          CFI (cfiCond95) Conditional ??CrossCallReturnLabel_87
          CFI (cfiCond95) R6 load(1, XDATA, add(CFA_XSP16, literal(-23)))
          CFI (cfiCond95) VB load(1, XDATA, add(CFA_XSP16, literal(-22)))
          CFI (cfiCond95) V0 load(1, XDATA, add(CFA_XSP16, literal(-21)))
          CFI (cfiCond95) V1 load(1, XDATA, add(CFA_XSP16, literal(-20)))
          CFI (cfiCond95) V2 load(1, XDATA, add(CFA_XSP16, literal(-19)))
          CFI (cfiCond95) V3 load(1, XDATA, add(CFA_XSP16, literal(-18)))
          CFI (cfiCond95) V4 load(1, XDATA, add(CFA_XSP16, literal(-17)))
          CFI (cfiCond95) V5 load(1, XDATA, add(CFA_XSP16, literal(-16)))
          CFI (cfiCond95) V6 load(1, XDATA, add(CFA_XSP16, literal(-15)))
          CFI (cfiCond95) V7 load(1, XDATA, add(CFA_XSP16, literal(-14)))
          CFI (cfiCond95) V8 load(1, XDATA, add(CFA_XSP16, literal(-13)))
          CFI (cfiCond95) V9 load(1, XDATA, add(CFA_XSP16, literal(-12)))
          CFI (cfiCond95) V10 load(1, XDATA, add(CFA_XSP16, literal(-11)))
          CFI (cfiCond95) V11 load(1, XDATA, add(CFA_XSP16, literal(-10)))
          CFI (cfiCond95) V12 load(1, XDATA, add(CFA_XSP16, literal(-9)))
          CFI (cfiCond95) V13 load(1, XDATA, add(CFA_XSP16, literal(-8)))
          CFI (cfiCond95) V14 load(1, XDATA, add(CFA_XSP16, literal(-7)))
          CFI (cfiCond95) R7 load(1, XDATA, add(CFA_XSP16, literal(-6)))
          CFI (cfiCond95) ?RET_LOW load(1, XDATA, add(CFA_XSP16, literal(-5)))
          CFI (cfiCond95) ?RET_HIGH load(1, XDATA, add(CFA_XSP16, literal(-4)))
          CFI (cfiCond95) ?BRET_EXT load(1, XDATA, add(CFA_XSP16, literal(-3)))
          CFI (cfiCond95) DPL0 load(1, XDATA, add(CFA_XSP16, literal(-2)))
          CFI (cfiCond95) DPH0 load(1, XDATA, add(CFA_XSP16, literal(-1)))
          CFI (cfiCond95) CFA_SP SP+-2
          CFI (cfiCond95) CFA_XSP16 add(XSP16, 23)
          CFI Block cfiCond96 Using cfiCommon0
          CFI (cfiCond96) Function MT_AfIncomingMsg
          CFI (cfiCond96) Conditional ??CrossCallReturnLabel_88
          CFI (cfiCond96) R6 load(1, XDATA, add(CFA_XSP16, literal(-23)))
          CFI (cfiCond96) VB load(1, XDATA, add(CFA_XSP16, literal(-22)))
          CFI (cfiCond96) V0 load(1, XDATA, add(CFA_XSP16, literal(-21)))
          CFI (cfiCond96) V1 load(1, XDATA, add(CFA_XSP16, literal(-20)))
          CFI (cfiCond96) V2 load(1, XDATA, add(CFA_XSP16, literal(-19)))
          CFI (cfiCond96) V3 load(1, XDATA, add(CFA_XSP16, literal(-18)))
          CFI (cfiCond96) V4 load(1, XDATA, add(CFA_XSP16, literal(-17)))
          CFI (cfiCond96) V5 load(1, XDATA, add(CFA_XSP16, literal(-16)))
          CFI (cfiCond96) V6 load(1, XDATA, add(CFA_XSP16, literal(-15)))
          CFI (cfiCond96) V7 load(1, XDATA, add(CFA_XSP16, literal(-14)))
          CFI (cfiCond96) V8 load(1, XDATA, add(CFA_XSP16, literal(-13)))
          CFI (cfiCond96) V9 load(1, XDATA, add(CFA_XSP16, literal(-12)))
          CFI (cfiCond96) V10 load(1, XDATA, add(CFA_XSP16, literal(-11)))
          CFI (cfiCond96) V11 load(1, XDATA, add(CFA_XSP16, literal(-10)))
          CFI (cfiCond96) V12 load(1, XDATA, add(CFA_XSP16, literal(-9)))
          CFI (cfiCond96) V13 load(1, XDATA, add(CFA_XSP16, literal(-8)))
          CFI (cfiCond96) V14 load(1, XDATA, add(CFA_XSP16, literal(-7)))
          CFI (cfiCond96) R7 load(1, XDATA, add(CFA_XSP16, literal(-6)))
          CFI (cfiCond96) ?RET_LOW load(1, XDATA, add(CFA_XSP16, literal(-5)))
          CFI (cfiCond96) ?RET_HIGH load(1, XDATA, add(CFA_XSP16, literal(-4)))
          CFI (cfiCond96) ?BRET_EXT load(1, XDATA, add(CFA_XSP16, literal(-3)))
          CFI (cfiCond96) DPL0 load(1, XDATA, add(CFA_XSP16, literal(-2)))
          CFI (cfiCond96) DPH0 load(1, XDATA, add(CFA_XSP16, literal(-1)))
          CFI (cfiCond96) CFA_SP SP+-2
          CFI (cfiCond96) CFA_XSP16 add(XSP16, 23)
          CFI Block cfiPicker97 Using cfiCommon1
          CFI (cfiPicker97) NoFunction
          CFI (cfiPicker97) Picker
        LCALL   ?Subroutine34 & 0xFFFF
??CrossCallReturnLabel_91:
        MOV     DPL,R2
        MOV     DPH,R3
        MOV     R0,#?V4
        RET
          CFI EndBlock cfiCond94
          CFI EndBlock cfiCond95
          CFI EndBlock cfiCond96
          CFI EndBlock cfiPicker97

        RSEG BANKED_CODE:CODE:NOROOT(0)
?Subroutine19:
          CFI Block cfiCond98 Using cfiCommon0
          CFI Function MT_AfIncomingMsg
          CFI Conditional ??CrossCallReturnLabel_31
          CFI R6 load(1, XDATA, add(CFA_XSP16, literal(-23)))
          CFI VB load(1, XDATA, add(CFA_XSP16, literal(-22)))
          CFI V0 load(1, XDATA, add(CFA_XSP16, literal(-21)))
          CFI V1 load(1, XDATA, add(CFA_XSP16, literal(-20)))
          CFI V2 load(1, XDATA, add(CFA_XSP16, literal(-19)))
          CFI V3 load(1, XDATA, add(CFA_XSP16, literal(-18)))
          CFI V4 load(1, XDATA, add(CFA_XSP16, literal(-17)))
          CFI V5 load(1, XDATA, add(CFA_XSP16, literal(-16)))
          CFI V6 load(1, XDATA, add(CFA_XSP16, literal(-15)))
          CFI V7 load(1, XDATA, add(CFA_XSP16, literal(-14)))
          CFI V8 load(1, XDATA, add(CFA_XSP16, literal(-13)))
          CFI V9 load(1, XDATA, add(CFA_XSP16, literal(-12)))
          CFI V10 load(1, XDATA, add(CFA_XSP16, literal(-11)))
          CFI V11 load(1, XDATA, add(CFA_XSP16, literal(-10)))
          CFI V12 load(1, XDATA, add(CFA_XSP16, literal(-9)))
          CFI V13 load(1, XDATA, add(CFA_XSP16, literal(-8)))
          CFI V14 load(1, XDATA, add(CFA_XSP16, literal(-7)))
          CFI R7 load(1, XDATA, add(CFA_XSP16, literal(-6)))
          CFI ?RET_LOW load(1, XDATA, add(CFA_XSP16, literal(-5)))
          CFI ?RET_HIGH load(1, XDATA, add(CFA_XSP16, literal(-4)))
          CFI ?BRET_EXT load(1, XDATA, add(CFA_XSP16, literal(-3)))
          CFI DPL0 load(1, XDATA, add(CFA_XSP16, literal(-2)))
          CFI DPH0 load(1, XDATA, add(CFA_XSP16, literal(-1)))
          CFI CFA_SP SP+-2
          CFI CFA_XSP16 add(XSP16, 23)
          CFI Block cfiCond99 Using cfiCommon0
          CFI (cfiCond99) Function MT_AfIncomingMsg
          CFI (cfiCond99) Conditional ??CrossCallReturnLabel_32
          CFI (cfiCond99) R6 load(1, XDATA, add(CFA_XSP16, literal(-23)))
          CFI (cfiCond99) VB load(1, XDATA, add(CFA_XSP16, literal(-22)))
          CFI (cfiCond99) V0 load(1, XDATA, add(CFA_XSP16, literal(-21)))
          CFI (cfiCond99) V1 load(1, XDATA, add(CFA_XSP16, literal(-20)))
          CFI (cfiCond99) V2 load(1, XDATA, add(CFA_XSP16, literal(-19)))
          CFI (cfiCond99) V3 load(1, XDATA, add(CFA_XSP16, literal(-18)))
          CFI (cfiCond99) V4 load(1, XDATA, add(CFA_XSP16, literal(-17)))
          CFI (cfiCond99) V5 load(1, XDATA, add(CFA_XSP16, literal(-16)))
          CFI (cfiCond99) V6 load(1, XDATA, add(CFA_XSP16, literal(-15)))
          CFI (cfiCond99) V7 load(1, XDATA, add(CFA_XSP16, literal(-14)))
          CFI (cfiCond99) V8 load(1, XDATA, add(CFA_XSP16, literal(-13)))
          CFI (cfiCond99) V9 load(1, XDATA, add(CFA_XSP16, literal(-12)))
          CFI (cfiCond99) V10 load(1, XDATA, add(CFA_XSP16, literal(-11)))
          CFI (cfiCond99) V11 load(1, XDATA, add(CFA_XSP16, literal(-10)))
          CFI (cfiCond99) V12 load(1, XDATA, add(CFA_XSP16, literal(-9)))
          CFI (cfiCond99) V13 load(1, XDATA, add(CFA_XSP16, literal(-8)))
          CFI (cfiCond99) V14 load(1, XDATA, add(CFA_XSP16, literal(-7)))
          CFI (cfiCond99) R7 load(1, XDATA, add(CFA_XSP16, literal(-6)))
          CFI (cfiCond99) ?RET_LOW load(1, XDATA, add(CFA_XSP16, literal(-5)))
          CFI (cfiCond99) ?RET_HIGH load(1, XDATA, add(CFA_XSP16, literal(-4)))
          CFI (cfiCond99) ?BRET_EXT load(1, XDATA, add(CFA_XSP16, literal(-3)))
          CFI (cfiCond99) DPL0 load(1, XDATA, add(CFA_XSP16, literal(-2)))
          CFI (cfiCond99) DPH0 load(1, XDATA, add(CFA_XSP16, literal(-1)))
          CFI (cfiCond99) CFA_SP SP+-2
          CFI (cfiCond99) CFA_XSP16 add(XSP16, 23)
          CFI Block cfiPicker100 Using cfiCommon1
          CFI (cfiPicker100) NoFunction
          CFI (cfiPicker100) Picker
        MOV     A,?V8
        ADD     A,#0x22
        LCALL   ?Subroutine37 & 0xFFFF
??CrossCallReturnLabel_77:
        MOV     ?V4,A
        INC     DPTR
        MOVX    A,@DPTR
        MOV     ?V5,A
        MOV     R0,#?V4
        RET
          CFI EndBlock cfiCond98
          CFI EndBlock cfiCond99
          CFI EndBlock cfiPicker100

        RSEG BANKED_CODE:CODE:NOROOT(0)
?Subroutine37:
          CFI Block cfiCond101 Using cfiCommon0
          CFI Function MT_AfIncomingMsg
          CFI Conditional ??CrossCallReturnLabel_74
          CFI R6 load(1, XDATA, add(CFA_XSP16, literal(-23)))
          CFI VB load(1, XDATA, add(CFA_XSP16, literal(-22)))
          CFI V0 load(1, XDATA, add(CFA_XSP16, literal(-21)))
          CFI V1 load(1, XDATA, add(CFA_XSP16, literal(-20)))
          CFI V2 load(1, XDATA, add(CFA_XSP16, literal(-19)))
          CFI V3 load(1, XDATA, add(CFA_XSP16, literal(-18)))
          CFI V4 load(1, XDATA, add(CFA_XSP16, literal(-17)))
          CFI V5 load(1, XDATA, add(CFA_XSP16, literal(-16)))
          CFI V6 load(1, XDATA, add(CFA_XSP16, literal(-15)))
          CFI V7 load(1, XDATA, add(CFA_XSP16, literal(-14)))
          CFI V8 load(1, XDATA, add(CFA_XSP16, literal(-13)))
          CFI V9 load(1, XDATA, add(CFA_XSP16, literal(-12)))
          CFI V10 load(1, XDATA, add(CFA_XSP16, literal(-11)))
          CFI V11 load(1, XDATA, add(CFA_XSP16, literal(-10)))
          CFI V12 load(1, XDATA, add(CFA_XSP16, literal(-9)))
          CFI V13 load(1, XDATA, add(CFA_XSP16, literal(-8)))
          CFI V14 load(1, XDATA, add(CFA_XSP16, literal(-7)))
          CFI R7 load(1, XDATA, add(CFA_XSP16, literal(-6)))
          CFI ?RET_LOW load(1, XDATA, add(CFA_XSP16, literal(-5)))
          CFI ?RET_HIGH load(1, XDATA, add(CFA_XSP16, literal(-4)))
          CFI ?BRET_EXT load(1, XDATA, add(CFA_XSP16, literal(-3)))
          CFI DPL0 load(1, XDATA, add(CFA_XSP16, literal(-2)))
          CFI DPH0 load(1, XDATA, add(CFA_XSP16, literal(-1)))
          CFI CFA_SP SP+-2
          CFI CFA_XSP16 add(XSP16, 23)
          CFI Block cfiCond102 Using cfiCommon0
          CFI (cfiCond102) Function MT_AfIncomingMsg
          CFI (cfiCond102) Conditional ??CrossCallReturnLabel_75
          CFI (cfiCond102) R6 load(1, XDATA, add(CFA_XSP16, literal(-23)))
          CFI (cfiCond102) VB load(1, XDATA, add(CFA_XSP16, literal(-22)))
          CFI (cfiCond102) V0 load(1, XDATA, add(CFA_XSP16, literal(-21)))
          CFI (cfiCond102) V1 load(1, XDATA, add(CFA_XSP16, literal(-20)))
          CFI (cfiCond102) V2 load(1, XDATA, add(CFA_XSP16, literal(-19)))
          CFI (cfiCond102) V3 load(1, XDATA, add(CFA_XSP16, literal(-18)))
          CFI (cfiCond102) V4 load(1, XDATA, add(CFA_XSP16, literal(-17)))
          CFI (cfiCond102) V5 load(1, XDATA, add(CFA_XSP16, literal(-16)))
          CFI (cfiCond102) V6 load(1, XDATA, add(CFA_XSP16, literal(-15)))
          CFI (cfiCond102) V7 load(1, XDATA, add(CFA_XSP16, literal(-14)))
          CFI (cfiCond102) V8 load(1, XDATA, add(CFA_XSP16, literal(-13)))
          CFI (cfiCond102) V9 load(1, XDATA, add(CFA_XSP16, literal(-12)))
          CFI (cfiCond102) V10 load(1, XDATA, add(CFA_XSP16, literal(-11)))
          CFI (cfiCond102) V11 load(1, XDATA, add(CFA_XSP16, literal(-10)))
          CFI (cfiCond102) V12 load(1, XDATA, add(CFA_XSP16, literal(-9)))
          CFI (cfiCond102) V13 load(1, XDATA, add(CFA_XSP16, literal(-8)))
          CFI (cfiCond102) V14 load(1, XDATA, add(CFA_XSP16, literal(-7)))
          CFI (cfiCond102) R7 load(1, XDATA, add(CFA_XSP16, literal(-6)))
          CFI (cfiCond102) ?RET_LOW load(1, XDATA, add(CFA_XSP16, literal(-5)))
          CFI (cfiCond102) ?RET_HIGH load(1, XDATA, add(CFA_XSP16, literal(-4)))
          CFI (cfiCond102) ?BRET_EXT load(1, XDATA, add(CFA_XSP16, literal(-3)))
          CFI (cfiCond102) DPL0 load(1, XDATA, add(CFA_XSP16, literal(-2)))
          CFI (cfiCond102) DPH0 load(1, XDATA, add(CFA_XSP16, literal(-1)))
          CFI (cfiCond102) CFA_SP SP+-2
          CFI (cfiCond102) CFA_XSP16 add(XSP16, 23)
          CFI Block cfiCond103 Using cfiCommon0
          CFI (cfiCond103) Function MT_AfIncomingMsg
          CFI (cfiCond103) Conditional ??CrossCallReturnLabel_77, ??CrossCallReturnLabel_31
          CFI (cfiCond103) R6 load(1, XDATA, add(CFA_XSP16, literal(-23)))
          CFI (cfiCond103) VB load(1, XDATA, add(CFA_XSP16, literal(-22)))
          CFI (cfiCond103) V0 load(1, XDATA, add(CFA_XSP16, literal(-21)))
          CFI (cfiCond103) V1 load(1, XDATA, add(CFA_XSP16, literal(-20)))
          CFI (cfiCond103) V2 load(1, XDATA, add(CFA_XSP16, literal(-19)))
          CFI (cfiCond103) V3 load(1, XDATA, add(CFA_XSP16, literal(-18)))
          CFI (cfiCond103) V4 load(1, XDATA, add(CFA_XSP16, literal(-17)))
          CFI (cfiCond103) V5 load(1, XDATA, add(CFA_XSP16, literal(-16)))
          CFI (cfiCond103) V6 load(1, XDATA, add(CFA_XSP16, literal(-15)))
          CFI (cfiCond103) V7 load(1, XDATA, add(CFA_XSP16, literal(-14)))
          CFI (cfiCond103) V8 load(1, XDATA, add(CFA_XSP16, literal(-13)))
          CFI (cfiCond103) V9 load(1, XDATA, add(CFA_XSP16, literal(-12)))
          CFI (cfiCond103) V10 load(1, XDATA, add(CFA_XSP16, literal(-11)))
          CFI (cfiCond103) V11 load(1, XDATA, add(CFA_XSP16, literal(-10)))
          CFI (cfiCond103) V12 load(1, XDATA, add(CFA_XSP16, literal(-9)))
          CFI (cfiCond103) V13 load(1, XDATA, add(CFA_XSP16, literal(-8)))
          CFI (cfiCond103) V14 load(1, XDATA, add(CFA_XSP16, literal(-7)))
          CFI (cfiCond103) R7 load(1, XDATA, add(CFA_XSP16, literal(-6)))
          CFI (cfiCond103) ?RET_LOW load(1, XDATA, add(CFA_XSP16, literal(-5)))
          CFI (cfiCond103) ?RET_HIGH load(1, XDATA, add(CFA_XSP16, literal(-4)))
          CFI (cfiCond103) ?BRET_EXT load(1, XDATA, add(CFA_XSP16, literal(-3)))
          CFI (cfiCond103) DPL0 load(1, XDATA, add(CFA_XSP16, literal(-2)))
          CFI (cfiCond103) DPH0 load(1, XDATA, add(CFA_XSP16, literal(-1)))
          CFI (cfiCond103) CFA_SP SP+-4
          CFI (cfiCond103) CFA_XSP16 add(XSP16, 23)
          CFI Block cfiCond104 Using cfiCommon0
          CFI (cfiCond104) Function MT_AfIncomingMsg
          CFI (cfiCond104) Conditional ??CrossCallReturnLabel_77, ??CrossCallReturnLabel_32
          CFI (cfiCond104) R6 load(1, XDATA, add(CFA_XSP16, literal(-23)))
          CFI (cfiCond104) VB load(1, XDATA, add(CFA_XSP16, literal(-22)))
          CFI (cfiCond104) V0 load(1, XDATA, add(CFA_XSP16, literal(-21)))
          CFI (cfiCond104) V1 load(1, XDATA, add(CFA_XSP16, literal(-20)))
          CFI (cfiCond104) V2 load(1, XDATA, add(CFA_XSP16, literal(-19)))
          CFI (cfiCond104) V3 load(1, XDATA, add(CFA_XSP16, literal(-18)))
          CFI (cfiCond104) V4 load(1, XDATA, add(CFA_XSP16, literal(-17)))
          CFI (cfiCond104) V5 load(1, XDATA, add(CFA_XSP16, literal(-16)))
          CFI (cfiCond104) V6 load(1, XDATA, add(CFA_XSP16, literal(-15)))
          CFI (cfiCond104) V7 load(1, XDATA, add(CFA_XSP16, literal(-14)))
          CFI (cfiCond104) V8 load(1, XDATA, add(CFA_XSP16, literal(-13)))
          CFI (cfiCond104) V9 load(1, XDATA, add(CFA_XSP16, literal(-12)))
          CFI (cfiCond104) V10 load(1, XDATA, add(CFA_XSP16, literal(-11)))
          CFI (cfiCond104) V11 load(1, XDATA, add(CFA_XSP16, literal(-10)))
          CFI (cfiCond104) V12 load(1, XDATA, add(CFA_XSP16, literal(-9)))
          CFI (cfiCond104) V13 load(1, XDATA, add(CFA_XSP16, literal(-8)))
          CFI (cfiCond104) V14 load(1, XDATA, add(CFA_XSP16, literal(-7)))
          CFI (cfiCond104) R7 load(1, XDATA, add(CFA_XSP16, literal(-6)))
          CFI (cfiCond104) ?RET_LOW load(1, XDATA, add(CFA_XSP16, literal(-5)))
          CFI (cfiCond104) ?RET_HIGH load(1, XDATA, add(CFA_XSP16, literal(-4)))
          CFI (cfiCond104) ?BRET_EXT load(1, XDATA, add(CFA_XSP16, literal(-3)))
          CFI (cfiCond104) DPL0 load(1, XDATA, add(CFA_XSP16, literal(-2)))
          CFI (cfiCond104) DPH0 load(1, XDATA, add(CFA_XSP16, literal(-1)))
          CFI (cfiCond104) CFA_SP SP+-4
          CFI (cfiCond104) CFA_XSP16 add(XSP16, 23)
          CFI Block cfiCond105 Using cfiCommon0
          CFI (cfiCond105) Function MT_AfIncomingMsg
          CFI (cfiCond105) Conditional ??CrossCallReturnLabel_76, ??CrossCallReturnLabel_26
          CFI (cfiCond105) R6 load(1, XDATA, add(CFA_XSP16, literal(-23)))
          CFI (cfiCond105) VB load(1, XDATA, add(CFA_XSP16, literal(-22)))
          CFI (cfiCond105) V0 load(1, XDATA, add(CFA_XSP16, literal(-21)))
          CFI (cfiCond105) V1 load(1, XDATA, add(CFA_XSP16, literal(-20)))
          CFI (cfiCond105) V2 load(1, XDATA, add(CFA_XSP16, literal(-19)))
          CFI (cfiCond105) V3 load(1, XDATA, add(CFA_XSP16, literal(-18)))
          CFI (cfiCond105) V4 load(1, XDATA, add(CFA_XSP16, literal(-17)))
          CFI (cfiCond105) V5 load(1, XDATA, add(CFA_XSP16, literal(-16)))
          CFI (cfiCond105) V6 load(1, XDATA, add(CFA_XSP16, literal(-15)))
          CFI (cfiCond105) V7 load(1, XDATA, add(CFA_XSP16, literal(-14)))
          CFI (cfiCond105) V8 load(1, XDATA, add(CFA_XSP16, literal(-13)))
          CFI (cfiCond105) V9 load(1, XDATA, add(CFA_XSP16, literal(-12)))
          CFI (cfiCond105) V10 load(1, XDATA, add(CFA_XSP16, literal(-11)))
          CFI (cfiCond105) V11 load(1, XDATA, add(CFA_XSP16, literal(-10)))
          CFI (cfiCond105) V12 load(1, XDATA, add(CFA_XSP16, literal(-9)))
          CFI (cfiCond105) V13 load(1, XDATA, add(CFA_XSP16, literal(-8)))
          CFI (cfiCond105) V14 load(1, XDATA, add(CFA_XSP16, literal(-7)))
          CFI (cfiCond105) R7 load(1, XDATA, add(CFA_XSP16, literal(-6)))
          CFI (cfiCond105) ?RET_LOW load(1, XDATA, add(CFA_XSP16, literal(-5)))
          CFI (cfiCond105) ?RET_HIGH load(1, XDATA, add(CFA_XSP16, literal(-4)))
          CFI (cfiCond105) ?BRET_EXT load(1, XDATA, add(CFA_XSP16, literal(-3)))
          CFI (cfiCond105) DPL0 load(1, XDATA, add(CFA_XSP16, literal(-2)))
          CFI (cfiCond105) DPH0 load(1, XDATA, add(CFA_XSP16, literal(-1)))
          CFI (cfiCond105) CFA_SP SP+-4
          CFI (cfiCond105) CFA_XSP16 add(XSP16, 23)
          CFI Block cfiCond106 Using cfiCommon0
          CFI (cfiCond106) Function MT_AfIncomingMsg
          CFI (cfiCond106) Conditional ??CrossCallReturnLabel_76, ??CrossCallReturnLabel_27
          CFI (cfiCond106) R6 load(1, XDATA, add(CFA_XSP16, literal(-23)))
          CFI (cfiCond106) VB load(1, XDATA, add(CFA_XSP16, literal(-22)))
          CFI (cfiCond106) V0 load(1, XDATA, add(CFA_XSP16, literal(-21)))
          CFI (cfiCond106) V1 load(1, XDATA, add(CFA_XSP16, literal(-20)))
          CFI (cfiCond106) V2 load(1, XDATA, add(CFA_XSP16, literal(-19)))
          CFI (cfiCond106) V3 load(1, XDATA, add(CFA_XSP16, literal(-18)))
          CFI (cfiCond106) V4 load(1, XDATA, add(CFA_XSP16, literal(-17)))
          CFI (cfiCond106) V5 load(1, XDATA, add(CFA_XSP16, literal(-16)))
          CFI (cfiCond106) V6 load(1, XDATA, add(CFA_XSP16, literal(-15)))
          CFI (cfiCond106) V7 load(1, XDATA, add(CFA_XSP16, literal(-14)))
          CFI (cfiCond106) V8 load(1, XDATA, add(CFA_XSP16, literal(-13)))
          CFI (cfiCond106) V9 load(1, XDATA, add(CFA_XSP16, literal(-12)))
          CFI (cfiCond106) V10 load(1, XDATA, add(CFA_XSP16, literal(-11)))
          CFI (cfiCond106) V11 load(1, XDATA, add(CFA_XSP16, literal(-10)))
          CFI (cfiCond106) V12 load(1, XDATA, add(CFA_XSP16, literal(-9)))
          CFI (cfiCond106) V13 load(1, XDATA, add(CFA_XSP16, literal(-8)))
          CFI (cfiCond106) V14 load(1, XDATA, add(CFA_XSP16, literal(-7)))
          CFI (cfiCond106) R7 load(1, XDATA, add(CFA_XSP16, literal(-6)))
          CFI (cfiCond106) ?RET_LOW load(1, XDATA, add(CFA_XSP16, literal(-5)))
          CFI (cfiCond106) ?RET_HIGH load(1, XDATA, add(CFA_XSP16, literal(-4)))
          CFI (cfiCond106) ?BRET_EXT load(1, XDATA, add(CFA_XSP16, literal(-3)))
          CFI (cfiCond106) DPL0 load(1, XDATA, add(CFA_XSP16, literal(-2)))
          CFI (cfiCond106) DPH0 load(1, XDATA, add(CFA_XSP16, literal(-1)))
          CFI (cfiCond106) CFA_SP SP+-4
          CFI (cfiCond106) CFA_XSP16 add(XSP16, 23)
          CFI Block cfiPicker107 Using cfiCommon1
          CFI (cfiPicker107) NoFunction
          CFI (cfiPicker107) Picker
        MOV     DPL,A
        CLR     A
        ADDC    A,?V9
        MOV     DPH,A
        MOVX    A,@DPTR
        RET
          CFI EndBlock cfiCond101
          CFI EndBlock cfiCond102
          CFI EndBlock cfiCond103
          CFI EndBlock cfiCond104
          CFI EndBlock cfiCond105
          CFI EndBlock cfiCond106
          CFI EndBlock cfiPicker107

        RSEG BANKED_CODE:CODE:NOROOT(0)
?Subroutine18:
          CFI Block cfiCond108 Using cfiCommon0
          CFI Function MT_AfIncomingMsg
          CFI Conditional ??CrossCallReturnLabel_28
          CFI R6 load(1, XDATA, add(CFA_XSP16, literal(-23)))
          CFI VB load(1, XDATA, add(CFA_XSP16, literal(-22)))
          CFI V0 load(1, XDATA, add(CFA_XSP16, literal(-21)))
          CFI V1 load(1, XDATA, add(CFA_XSP16, literal(-20)))
          CFI V2 load(1, XDATA, add(CFA_XSP16, literal(-19)))
          CFI V3 load(1, XDATA, add(CFA_XSP16, literal(-18)))
          CFI V4 load(1, XDATA, add(CFA_XSP16, literal(-17)))
          CFI V5 load(1, XDATA, add(CFA_XSP16, literal(-16)))
          CFI V6 load(1, XDATA, add(CFA_XSP16, literal(-15)))
          CFI V7 load(1, XDATA, add(CFA_XSP16, literal(-14)))
          CFI V8 load(1, XDATA, add(CFA_XSP16, literal(-13)))
          CFI V9 load(1, XDATA, add(CFA_XSP16, literal(-12)))
          CFI V10 load(1, XDATA, add(CFA_XSP16, literal(-11)))
          CFI V11 load(1, XDATA, add(CFA_XSP16, literal(-10)))
          CFI V12 load(1, XDATA, add(CFA_XSP16, literal(-9)))
          CFI V13 load(1, XDATA, add(CFA_XSP16, literal(-8)))
          CFI V14 load(1, XDATA, add(CFA_XSP16, literal(-7)))
          CFI R7 load(1, XDATA, add(CFA_XSP16, literal(-6)))
          CFI ?RET_LOW load(1, XDATA, add(CFA_XSP16, literal(-5)))
          CFI ?RET_HIGH load(1, XDATA, add(CFA_XSP16, literal(-4)))
          CFI ?BRET_EXT load(1, XDATA, add(CFA_XSP16, literal(-3)))
          CFI DPL0 load(1, XDATA, add(CFA_XSP16, literal(-2)))
          CFI DPH0 load(1, XDATA, add(CFA_XSP16, literal(-1)))
          CFI CFA_SP SP+-2
          CFI CFA_XSP16 add(XSP16, 23)
          CFI Block cfiCond109 Using cfiCommon0
          CFI (cfiCond109) Function MT_AfIncomingMsg
          CFI (cfiCond109) Conditional ??CrossCallReturnLabel_29
          CFI (cfiCond109) R6 load(1, XDATA, add(CFA_XSP16, literal(-23)))
          CFI (cfiCond109) VB load(1, XDATA, add(CFA_XSP16, literal(-22)))
          CFI (cfiCond109) V0 load(1, XDATA, add(CFA_XSP16, literal(-21)))
          CFI (cfiCond109) V1 load(1, XDATA, add(CFA_XSP16, literal(-20)))
          CFI (cfiCond109) V2 load(1, XDATA, add(CFA_XSP16, literal(-19)))
          CFI (cfiCond109) V3 load(1, XDATA, add(CFA_XSP16, literal(-18)))
          CFI (cfiCond109) V4 load(1, XDATA, add(CFA_XSP16, literal(-17)))
          CFI (cfiCond109) V5 load(1, XDATA, add(CFA_XSP16, literal(-16)))
          CFI (cfiCond109) V6 load(1, XDATA, add(CFA_XSP16, literal(-15)))
          CFI (cfiCond109) V7 load(1, XDATA, add(CFA_XSP16, literal(-14)))
          CFI (cfiCond109) V8 load(1, XDATA, add(CFA_XSP16, literal(-13)))
          CFI (cfiCond109) V9 load(1, XDATA, add(CFA_XSP16, literal(-12)))
          CFI (cfiCond109) V10 load(1, XDATA, add(CFA_XSP16, literal(-11)))
          CFI (cfiCond109) V11 load(1, XDATA, add(CFA_XSP16, literal(-10)))
          CFI (cfiCond109) V12 load(1, XDATA, add(CFA_XSP16, literal(-9)))
          CFI (cfiCond109) V13 load(1, XDATA, add(CFA_XSP16, literal(-8)))
          CFI (cfiCond109) V14 load(1, XDATA, add(CFA_XSP16, literal(-7)))
          CFI (cfiCond109) R7 load(1, XDATA, add(CFA_XSP16, literal(-6)))
          CFI (cfiCond109) ?RET_LOW load(1, XDATA, add(CFA_XSP16, literal(-5)))
          CFI (cfiCond109) ?RET_HIGH load(1, XDATA, add(CFA_XSP16, literal(-4)))
          CFI (cfiCond109) ?BRET_EXT load(1, XDATA, add(CFA_XSP16, literal(-3)))
          CFI (cfiCond109) DPL0 load(1, XDATA, add(CFA_XSP16, literal(-2)))
          CFI (cfiCond109) DPH0 load(1, XDATA, add(CFA_XSP16, literal(-1)))
          CFI (cfiCond109) CFA_SP SP+-2
          CFI (cfiCond109) CFA_XSP16 add(XSP16, 23)
          CFI Block cfiCond110 Using cfiCommon0
          CFI (cfiCond110) Function MT_AfIncomingMsg
          CFI (cfiCond110) Conditional ??CrossCallReturnLabel_30
          CFI (cfiCond110) R6 load(1, XDATA, add(CFA_XSP16, literal(-23)))
          CFI (cfiCond110) VB load(1, XDATA, add(CFA_XSP16, literal(-22)))
          CFI (cfiCond110) V0 load(1, XDATA, add(CFA_XSP16, literal(-21)))
          CFI (cfiCond110) V1 load(1, XDATA, add(CFA_XSP16, literal(-20)))
          CFI (cfiCond110) V2 load(1, XDATA, add(CFA_XSP16, literal(-19)))
          CFI (cfiCond110) V3 load(1, XDATA, add(CFA_XSP16, literal(-18)))
          CFI (cfiCond110) V4 load(1, XDATA, add(CFA_XSP16, literal(-17)))
          CFI (cfiCond110) V5 load(1, XDATA, add(CFA_XSP16, literal(-16)))
          CFI (cfiCond110) V6 load(1, XDATA, add(CFA_XSP16, literal(-15)))
          CFI (cfiCond110) V7 load(1, XDATA, add(CFA_XSP16, literal(-14)))
          CFI (cfiCond110) V8 load(1, XDATA, add(CFA_XSP16, literal(-13)))
          CFI (cfiCond110) V9 load(1, XDATA, add(CFA_XSP16, literal(-12)))
          CFI (cfiCond110) V10 load(1, XDATA, add(CFA_XSP16, literal(-11)))
          CFI (cfiCond110) V11 load(1, XDATA, add(CFA_XSP16, literal(-10)))
          CFI (cfiCond110) V12 load(1, XDATA, add(CFA_XSP16, literal(-9)))
          CFI (cfiCond110) V13 load(1, XDATA, add(CFA_XSP16, literal(-8)))
          CFI (cfiCond110) V14 load(1, XDATA, add(CFA_XSP16, literal(-7)))
          CFI (cfiCond110) R7 load(1, XDATA, add(CFA_XSP16, literal(-6)))
          CFI (cfiCond110) ?RET_LOW load(1, XDATA, add(CFA_XSP16, literal(-5)))
          CFI (cfiCond110) ?RET_HIGH load(1, XDATA, add(CFA_XSP16, literal(-4)))
          CFI (cfiCond110) ?BRET_EXT load(1, XDATA, add(CFA_XSP16, literal(-3)))
          CFI (cfiCond110) DPL0 load(1, XDATA, add(CFA_XSP16, literal(-2)))
          CFI (cfiCond110) DPH0 load(1, XDATA, add(CFA_XSP16, literal(-1)))
          CFI (cfiCond110) CFA_SP SP+-2
          CFI (cfiCond110) CFA_XSP16 add(XSP16, 23)
          CFI Block cfiPicker111 Using cfiCommon1
          CFI (cfiPicker111) NoFunction
          CFI (cfiPicker111) Picker
        MOVX    A,@DPTR
        MOV     DPL,?V2
        MOV     DPH,?V3
        RET
          CFI EndBlock cfiCond108
          CFI EndBlock cfiCond109
          CFI EndBlock cfiCond110
          CFI EndBlock cfiPicker111

        RSEG BANKED_CODE:CODE:NOROOT(0)
?Subroutine17:
          CFI Block cfiCond112 Using cfiCommon0
          CFI Function MT_AfIncomingMsg
          CFI Conditional ??CrossCallReturnLabel_26
          CFI R6 load(1, XDATA, add(CFA_XSP16, literal(-23)))
          CFI VB load(1, XDATA, add(CFA_XSP16, literal(-22)))
          CFI V0 load(1, XDATA, add(CFA_XSP16, literal(-21)))
          CFI V1 load(1, XDATA, add(CFA_XSP16, literal(-20)))
          CFI V2 load(1, XDATA, add(CFA_XSP16, literal(-19)))
          CFI V3 load(1, XDATA, add(CFA_XSP16, literal(-18)))
          CFI V4 load(1, XDATA, add(CFA_XSP16, literal(-17)))
          CFI V5 load(1, XDATA, add(CFA_XSP16, literal(-16)))
          CFI V6 load(1, XDATA, add(CFA_XSP16, literal(-15)))
          CFI V7 load(1, XDATA, add(CFA_XSP16, literal(-14)))
          CFI V8 load(1, XDATA, add(CFA_XSP16, literal(-13)))
          CFI V9 load(1, XDATA, add(CFA_XSP16, literal(-12)))
          CFI V10 load(1, XDATA, add(CFA_XSP16, literal(-11)))
          CFI V11 load(1, XDATA, add(CFA_XSP16, literal(-10)))
          CFI V12 load(1, XDATA, add(CFA_XSP16, literal(-9)))
          CFI V13 load(1, XDATA, add(CFA_XSP16, literal(-8)))
          CFI V14 load(1, XDATA, add(CFA_XSP16, literal(-7)))
          CFI R7 load(1, XDATA, add(CFA_XSP16, literal(-6)))
          CFI ?RET_LOW load(1, XDATA, add(CFA_XSP16, literal(-5)))
          CFI ?RET_HIGH load(1, XDATA, add(CFA_XSP16, literal(-4)))
          CFI ?BRET_EXT load(1, XDATA, add(CFA_XSP16, literal(-3)))
          CFI DPL0 load(1, XDATA, add(CFA_XSP16, literal(-2)))
          CFI DPH0 load(1, XDATA, add(CFA_XSP16, literal(-1)))
          CFI CFA_SP SP+-2
          CFI CFA_XSP16 add(XSP16, 23)
          CFI Block cfiCond113 Using cfiCommon0
          CFI (cfiCond113) Function MT_AfIncomingMsg
          CFI (cfiCond113) Conditional ??CrossCallReturnLabel_27
          CFI (cfiCond113) R6 load(1, XDATA, add(CFA_XSP16, literal(-23)))
          CFI (cfiCond113) VB load(1, XDATA, add(CFA_XSP16, literal(-22)))
          CFI (cfiCond113) V0 load(1, XDATA, add(CFA_XSP16, literal(-21)))
          CFI (cfiCond113) V1 load(1, XDATA, add(CFA_XSP16, literal(-20)))
          CFI (cfiCond113) V2 load(1, XDATA, add(CFA_XSP16, literal(-19)))
          CFI (cfiCond113) V3 load(1, XDATA, add(CFA_XSP16, literal(-18)))
          CFI (cfiCond113) V4 load(1, XDATA, add(CFA_XSP16, literal(-17)))
          CFI (cfiCond113) V5 load(1, XDATA, add(CFA_XSP16, literal(-16)))
          CFI (cfiCond113) V6 load(1, XDATA, add(CFA_XSP16, literal(-15)))
          CFI (cfiCond113) V7 load(1, XDATA, add(CFA_XSP16, literal(-14)))
          CFI (cfiCond113) V8 load(1, XDATA, add(CFA_XSP16, literal(-13)))
          CFI (cfiCond113) V9 load(1, XDATA, add(CFA_XSP16, literal(-12)))
          CFI (cfiCond113) V10 load(1, XDATA, add(CFA_XSP16, literal(-11)))
          CFI (cfiCond113) V11 load(1, XDATA, add(CFA_XSP16, literal(-10)))
          CFI (cfiCond113) V12 load(1, XDATA, add(CFA_XSP16, literal(-9)))
          CFI (cfiCond113) V13 load(1, XDATA, add(CFA_XSP16, literal(-8)))
          CFI (cfiCond113) V14 load(1, XDATA, add(CFA_XSP16, literal(-7)))
          CFI (cfiCond113) R7 load(1, XDATA, add(CFA_XSP16, literal(-6)))
          CFI (cfiCond113) ?RET_LOW load(1, XDATA, add(CFA_XSP16, literal(-5)))
          CFI (cfiCond113) ?RET_HIGH load(1, XDATA, add(CFA_XSP16, literal(-4)))
          CFI (cfiCond113) ?BRET_EXT load(1, XDATA, add(CFA_XSP16, literal(-3)))
          CFI (cfiCond113) DPL0 load(1, XDATA, add(CFA_XSP16, literal(-2)))
          CFI (cfiCond113) DPH0 load(1, XDATA, add(CFA_XSP16, literal(-1)))
          CFI (cfiCond113) CFA_SP SP+-2
          CFI (cfiCond113) CFA_XSP16 add(XSP16, 23)
          CFI Block cfiPicker114 Using cfiCommon1
          CFI (cfiPicker114) NoFunction
          CFI (cfiPicker114) Picker
        LCALL   ?Subroutine37 & 0xFFFF
??CrossCallReturnLabel_76:
        MOV     DPL,?V2
        MOV     DPH,?V3
        MOVX    @DPTR,A
        INC     DPTR
        RET
          CFI EndBlock cfiCond112
          CFI EndBlock cfiCond113
          CFI EndBlock cfiPicker114

        RSEG BANKED_CODE:CODE:NOROOT(0)
?Subroutine15:
          CFI Block cfiCond115 Using cfiCommon0
          CFI Function MT_AfExec
          CFI Conditional ??CrossCallReturnLabel_94
          CFI R6 load(1, XDATA, add(CFA_XSP16, literal(-9)))
          CFI VB load(1, XDATA, add(CFA_XSP16, literal(-8)))
          CFI V0 load(1, XDATA, add(CFA_XSP16, literal(-7)))
          CFI R7 load(1, XDATA, add(CFA_XSP16, literal(-6)))
          CFI ?RET_LOW load(1, XDATA, add(CFA_XSP16, literal(-5)))
          CFI ?RET_HIGH load(1, XDATA, add(CFA_XSP16, literal(-4)))
          CFI ?BRET_EXT load(1, XDATA, add(CFA_XSP16, literal(-3)))
          CFI DPL0 load(1, XDATA, add(CFA_XSP16, literal(-2)))
          CFI DPH0 load(1, XDATA, add(CFA_XSP16, literal(-1)))
          CFI CFA_SP SP+-2
          CFI CFA_XSP16 add(XSP16, 9)
          CFI Block cfiCond116 Using cfiCommon0
          CFI (cfiCond116) Function MT_AfDataStore
          CFI (cfiCond116) Conditional ??CrossCallReturnLabel_95
          CFI (cfiCond116) R6 load(1, XDATA, add(CFA_XSP16, literal(-11)))
          CFI (cfiCond116) VB load(1, XDATA, add(CFA_XSP16, literal(-10)))
          CFI (cfiCond116) V0 load(1, XDATA, add(CFA_XSP16, literal(-9)))
          CFI (cfiCond116) V1 load(1, XDATA, add(CFA_XSP16, literal(-8)))
          CFI (cfiCond116) V2 load(1, XDATA, add(CFA_XSP16, literal(-7)))
          CFI (cfiCond116) R7 load(1, XDATA, add(CFA_XSP16, literal(-6)))
          CFI (cfiCond116) ?RET_LOW load(1, XDATA, add(CFA_XSP16, literal(-5)))
          CFI (cfiCond116) ?RET_HIGH load(1, XDATA, add(CFA_XSP16, literal(-4)))
          CFI (cfiCond116) ?BRET_EXT load(1, XDATA, add(CFA_XSP16, literal(-3)))
          CFI (cfiCond116) DPL0 load(1, XDATA, add(CFA_XSP16, literal(-2)))
          CFI (cfiCond116) DPH0 load(1, XDATA, add(CFA_XSP16, literal(-1)))
          CFI (cfiCond116) CFA_SP SP+-2
          CFI (cfiCond116) CFA_XSP16 add(XSP16, 12)
          CFI Block cfiPicker117 Using cfiCommon1
          CFI (cfiPicker117) NoFunction
          CFI (cfiPicker117) Picker
        MOV     DPTR,#pMtAfDataReq
          CFI EndBlock cfiCond115
          CFI EndBlock cfiCond116
          CFI EndBlock cfiPicker117
        REQUIRE ??Subroutine42_0
        ; // Fall through to label ??Subroutine42_0

        RSEG BANKED_CODE:CODE:NOROOT(0)
??Subroutine42_0:
          CFI Block cfiCond118 Using cfiCommon0
          CFI Function MT_AfExec
          CFI Conditional ??CrossCallReturnLabel_92
          CFI R6 load(1, XDATA, add(CFA_XSP16, literal(-9)))
          CFI VB load(1, XDATA, add(CFA_XSP16, literal(-8)))
          CFI V0 load(1, XDATA, add(CFA_XSP16, literal(-7)))
          CFI R7 load(1, XDATA, add(CFA_XSP16, literal(-6)))
          CFI ?RET_LOW load(1, XDATA, add(CFA_XSP16, literal(-5)))
          CFI ?RET_HIGH load(1, XDATA, add(CFA_XSP16, literal(-4)))
          CFI ?BRET_EXT load(1, XDATA, add(CFA_XSP16, literal(-3)))
          CFI DPL0 load(1, XDATA, add(CFA_XSP16, literal(-2)))
          CFI DPH0 load(1, XDATA, add(CFA_XSP16, literal(-1)))
          CFI CFA_SP SP+-2
          CFI CFA_XSP16 add(XSP16, 9)
          CFI Block cfiCond119 Using cfiCommon0
          CFI (cfiCond119) Function MT_AfIncomingMsg
          CFI (cfiCond119) Conditional ??CrossCallReturnLabel_93
          CFI (cfiCond119) R6 load(1, XDATA, add(CFA_XSP16, literal(-23)))
          CFI (cfiCond119) VB load(1, XDATA, add(CFA_XSP16, literal(-22)))
          CFI (cfiCond119) V0 load(1, XDATA, add(CFA_XSP16, literal(-21)))
          CFI (cfiCond119) V1 load(1, XDATA, add(CFA_XSP16, literal(-20)))
          CFI (cfiCond119) V2 load(1, XDATA, add(CFA_XSP16, literal(-19)))
          CFI (cfiCond119) V3 load(1, XDATA, add(CFA_XSP16, literal(-18)))
          CFI (cfiCond119) V4 load(1, XDATA, add(CFA_XSP16, literal(-17)))
          CFI (cfiCond119) V5 load(1, XDATA, add(CFA_XSP16, literal(-16)))
          CFI (cfiCond119) V6 load(1, XDATA, add(CFA_XSP16, literal(-15)))
          CFI (cfiCond119) V7 load(1, XDATA, add(CFA_XSP16, literal(-14)))
          CFI (cfiCond119) V8 load(1, XDATA, add(CFA_XSP16, literal(-13)))
          CFI (cfiCond119) V9 load(1, XDATA, add(CFA_XSP16, literal(-12)))
          CFI (cfiCond119) V10 load(1, XDATA, add(CFA_XSP16, literal(-11)))
          CFI (cfiCond119) V11 load(1, XDATA, add(CFA_XSP16, literal(-10)))
          CFI (cfiCond119) V12 load(1, XDATA, add(CFA_XSP16, literal(-9)))
          CFI (cfiCond119) V13 load(1, XDATA, add(CFA_XSP16, literal(-8)))
          CFI (cfiCond119) V14 load(1, XDATA, add(CFA_XSP16, literal(-7)))
          CFI (cfiCond119) R7 load(1, XDATA, add(CFA_XSP16, literal(-6)))
          CFI (cfiCond119) ?RET_LOW load(1, XDATA, add(CFA_XSP16, literal(-5)))
          CFI (cfiCond119) ?RET_HIGH load(1, XDATA, add(CFA_XSP16, literal(-4)))
          CFI (cfiCond119) ?BRET_EXT load(1, XDATA, add(CFA_XSP16, literal(-3)))
          CFI (cfiCond119) DPL0 load(1, XDATA, add(CFA_XSP16, literal(-2)))
          CFI (cfiCond119) DPH0 load(1, XDATA, add(CFA_XSP16, literal(-1)))
          CFI (cfiCond119) CFA_SP SP+-2
          CFI (cfiCond119) CFA_XSP16 add(XSP16, 26)
          CFI Block cfiCond120 Using cfiCommon0
          CFI (cfiCond120) Function MT_AfExec
          CFI (cfiCond120) Conditional ??CrossCallReturnLabel_94
          CFI (cfiCond120) R6 load(1, XDATA, add(CFA_XSP16, literal(-9)))
          CFI (cfiCond120) VB load(1, XDATA, add(CFA_XSP16, literal(-8)))
          CFI (cfiCond120) V0 load(1, XDATA, add(CFA_XSP16, literal(-7)))
          CFI (cfiCond120) R7 load(1, XDATA, add(CFA_XSP16, literal(-6)))
          CFI (cfiCond120) ?RET_LOW load(1, XDATA, add(CFA_XSP16, literal(-5)))
          CFI (cfiCond120) ?RET_HIGH load(1, XDATA, add(CFA_XSP16, literal(-4)))
          CFI (cfiCond120) ?BRET_EXT load(1, XDATA, add(CFA_XSP16, literal(-3)))
          CFI (cfiCond120) DPL0 load(1, XDATA, add(CFA_XSP16, literal(-2)))
          CFI (cfiCond120) DPH0 load(1, XDATA, add(CFA_XSP16, literal(-1)))
          CFI (cfiCond120) CFA_SP SP+-2
          CFI (cfiCond120) CFA_XSP16 add(XSP16, 9)
          CFI Block cfiCond121 Using cfiCommon0
          CFI (cfiCond121) Function MT_AfDataStore
          CFI (cfiCond121) Conditional ??CrossCallReturnLabel_95
          CFI (cfiCond121) R6 load(1, XDATA, add(CFA_XSP16, literal(-11)))
          CFI (cfiCond121) VB load(1, XDATA, add(CFA_XSP16, literal(-10)))
          CFI (cfiCond121) V0 load(1, XDATA, add(CFA_XSP16, literal(-9)))
          CFI (cfiCond121) V1 load(1, XDATA, add(CFA_XSP16, literal(-8)))
          CFI (cfiCond121) V2 load(1, XDATA, add(CFA_XSP16, literal(-7)))
          CFI (cfiCond121) R7 load(1, XDATA, add(CFA_XSP16, literal(-6)))
          CFI (cfiCond121) ?RET_LOW load(1, XDATA, add(CFA_XSP16, literal(-5)))
          CFI (cfiCond121) ?RET_HIGH load(1, XDATA, add(CFA_XSP16, literal(-4)))
          CFI (cfiCond121) ?BRET_EXT load(1, XDATA, add(CFA_XSP16, literal(-3)))
          CFI (cfiCond121) DPL0 load(1, XDATA, add(CFA_XSP16, literal(-2)))
          CFI (cfiCond121) DPH0 load(1, XDATA, add(CFA_XSP16, literal(-1)))
          CFI (cfiCond121) CFA_SP SP+-2
          CFI (cfiCond121) CFA_XSP16 add(XSP16, 12)
          CFI Block cfiPicker122 Using cfiCommon1
          CFI (cfiPicker122) NoFunction
          CFI (cfiPicker122) Picker
        MOVX    A,@DPTR
        MOV     R2,A
        INC     DPTR
        MOVX    A,@DPTR
        MOV     R3,A
        RET
          CFI EndBlock cfiCond118
          CFI EndBlock cfiCond119
          CFI EndBlock cfiCond120
          CFI EndBlock cfiCond121
          CFI EndBlock cfiPicker122

        RSEG BANKED_CODE:CODE:NOROOT(0)
?Subroutine6:
          CFI Block cfiCond123 Using cfiCommon0
          CFI Function MT_AfIncomingMsg
          CFI Conditional ??CrossCallReturnLabel_7
          CFI R6 load(1, XDATA, add(CFA_XSP16, literal(-23)))
          CFI VB load(1, XDATA, add(CFA_XSP16, literal(-22)))
          CFI V0 load(1, XDATA, add(CFA_XSP16, literal(-21)))
          CFI V1 load(1, XDATA, add(CFA_XSP16, literal(-20)))
          CFI V2 load(1, XDATA, add(CFA_XSP16, literal(-19)))
          CFI V3 load(1, XDATA, add(CFA_XSP16, literal(-18)))
          CFI V4 load(1, XDATA, add(CFA_XSP16, literal(-17)))
          CFI V5 load(1, XDATA, add(CFA_XSP16, literal(-16)))
          CFI V6 load(1, XDATA, add(CFA_XSP16, literal(-15)))
          CFI V7 load(1, XDATA, add(CFA_XSP16, literal(-14)))
          CFI V8 load(1, XDATA, add(CFA_XSP16, literal(-13)))
          CFI V9 load(1, XDATA, add(CFA_XSP16, literal(-12)))
          CFI V10 load(1, XDATA, add(CFA_XSP16, literal(-11)))
          CFI V11 load(1, XDATA, add(CFA_XSP16, literal(-10)))
          CFI V12 load(1, XDATA, add(CFA_XSP16, literal(-9)))
          CFI V13 load(1, XDATA, add(CFA_XSP16, literal(-8)))
          CFI V14 load(1, XDATA, add(CFA_XSP16, literal(-7)))
          CFI R7 load(1, XDATA, add(CFA_XSP16, literal(-6)))
          CFI ?RET_LOW load(1, XDATA, add(CFA_XSP16, literal(-5)))
          CFI ?RET_HIGH load(1, XDATA, add(CFA_XSP16, literal(-4)))
          CFI ?BRET_EXT load(1, XDATA, add(CFA_XSP16, literal(-3)))
          CFI DPL0 load(1, XDATA, add(CFA_XSP16, literal(-2)))
          CFI DPH0 load(1, XDATA, add(CFA_XSP16, literal(-1)))
          CFI CFA_SP SP+-2
          CFI CFA_XSP16 add(XSP16, 23)
          CFI Block cfiCond124 Using cfiCommon0
          CFI (cfiCond124) Function MT_AfIncomingMsg
          CFI (cfiCond124) Conditional ??CrossCallReturnLabel_8
          CFI (cfiCond124) R6 load(1, XDATA, add(CFA_XSP16, literal(-23)))
          CFI (cfiCond124) VB load(1, XDATA, add(CFA_XSP16, literal(-22)))
          CFI (cfiCond124) V0 load(1, XDATA, add(CFA_XSP16, literal(-21)))
          CFI (cfiCond124) V1 load(1, XDATA, add(CFA_XSP16, literal(-20)))
          CFI (cfiCond124) V2 load(1, XDATA, add(CFA_XSP16, literal(-19)))
          CFI (cfiCond124) V3 load(1, XDATA, add(CFA_XSP16, literal(-18)))
          CFI (cfiCond124) V4 load(1, XDATA, add(CFA_XSP16, literal(-17)))
          CFI (cfiCond124) V5 load(1, XDATA, add(CFA_XSP16, literal(-16)))
          CFI (cfiCond124) V6 load(1, XDATA, add(CFA_XSP16, literal(-15)))
          CFI (cfiCond124) V7 load(1, XDATA, add(CFA_XSP16, literal(-14)))
          CFI (cfiCond124) V8 load(1, XDATA, add(CFA_XSP16, literal(-13)))
          CFI (cfiCond124) V9 load(1, XDATA, add(CFA_XSP16, literal(-12)))
          CFI (cfiCond124) V10 load(1, XDATA, add(CFA_XSP16, literal(-11)))
          CFI (cfiCond124) V11 load(1, XDATA, add(CFA_XSP16, literal(-10)))
          CFI (cfiCond124) V12 load(1, XDATA, add(CFA_XSP16, literal(-9)))
          CFI (cfiCond124) V13 load(1, XDATA, add(CFA_XSP16, literal(-8)))
          CFI (cfiCond124) V14 load(1, XDATA, add(CFA_XSP16, literal(-7)))
          CFI (cfiCond124) R7 load(1, XDATA, add(CFA_XSP16, literal(-6)))
          CFI (cfiCond124) ?RET_LOW load(1, XDATA, add(CFA_XSP16, literal(-5)))
          CFI (cfiCond124) ?RET_HIGH load(1, XDATA, add(CFA_XSP16, literal(-4)))
          CFI (cfiCond124) ?BRET_EXT load(1, XDATA, add(CFA_XSP16, literal(-3)))
          CFI (cfiCond124) DPL0 load(1, XDATA, add(CFA_XSP16, literal(-2)))
          CFI (cfiCond124) DPH0 load(1, XDATA, add(CFA_XSP16, literal(-1)))
          CFI (cfiCond124) CFA_SP SP+-2
          CFI (cfiCond124) CFA_XSP16 add(XSP16, 23)
          CFI Block cfiPicker125 Using cfiCommon1
          CFI (cfiPicker125) NoFunction
          CFI (cfiPicker125) Picker
        LCALL   ?Subroutine31 & 0xFFFF
??CrossCallReturnLabel_103:
        RET
          CFI EndBlock cfiCond123
          CFI EndBlock cfiCond124
          CFI EndBlock cfiPicker125

        RSEG BANKED_CODE:CODE:NOROOT(0)
?Subroutine31:
          CFI Block cfiCond126 Using cfiCommon0
          CFI Function MT_AfIncomingMsg
          CFI Conditional ??CrossCallReturnLabel_103, ??CrossCallReturnLabel_7
          CFI R6 load(1, XDATA, add(CFA_XSP16, literal(-23)))
          CFI VB load(1, XDATA, add(CFA_XSP16, literal(-22)))
          CFI V0 load(1, XDATA, add(CFA_XSP16, literal(-21)))
          CFI V1 load(1, XDATA, add(CFA_XSP16, literal(-20)))
          CFI V2 load(1, XDATA, add(CFA_XSP16, literal(-19)))
          CFI V3 load(1, XDATA, add(CFA_XSP16, literal(-18)))
          CFI V4 load(1, XDATA, add(CFA_XSP16, literal(-17)))
          CFI V5 load(1, XDATA, add(CFA_XSP16, literal(-16)))
          CFI V6 load(1, XDATA, add(CFA_XSP16, literal(-15)))
          CFI V7 load(1, XDATA, add(CFA_XSP16, literal(-14)))
          CFI V8 load(1, XDATA, add(CFA_XSP16, literal(-13)))
          CFI V9 load(1, XDATA, add(CFA_XSP16, literal(-12)))
          CFI V10 load(1, XDATA, add(CFA_XSP16, literal(-11)))
          CFI V11 load(1, XDATA, add(CFA_XSP16, literal(-10)))
          CFI V12 load(1, XDATA, add(CFA_XSP16, literal(-9)))
          CFI V13 load(1, XDATA, add(CFA_XSP16, literal(-8)))
          CFI V14 load(1, XDATA, add(CFA_XSP16, literal(-7)))
          CFI R7 load(1, XDATA, add(CFA_XSP16, literal(-6)))
          CFI ?RET_LOW load(1, XDATA, add(CFA_XSP16, literal(-5)))
          CFI ?RET_HIGH load(1, XDATA, add(CFA_XSP16, literal(-4)))
          CFI ?BRET_EXT load(1, XDATA, add(CFA_XSP16, literal(-3)))
          CFI DPL0 load(1, XDATA, add(CFA_XSP16, literal(-2)))
          CFI DPH0 load(1, XDATA, add(CFA_XSP16, literal(-1)))
          CFI CFA_SP SP+-4
          CFI CFA_XSP16 add(XSP16, 23)
          CFI Block cfiCond127 Using cfiCommon0
          CFI (cfiCond127) Function MT_AfIncomingMsg
          CFI (cfiCond127) Conditional ??CrossCallReturnLabel_103, ??CrossCallReturnLabel_8
          CFI (cfiCond127) R6 load(1, XDATA, add(CFA_XSP16, literal(-23)))
          CFI (cfiCond127) VB load(1, XDATA, add(CFA_XSP16, literal(-22)))
          CFI (cfiCond127) V0 load(1, XDATA, add(CFA_XSP16, literal(-21)))
          CFI (cfiCond127) V1 load(1, XDATA, add(CFA_XSP16, literal(-20)))
          CFI (cfiCond127) V2 load(1, XDATA, add(CFA_XSP16, literal(-19)))
          CFI (cfiCond127) V3 load(1, XDATA, add(CFA_XSP16, literal(-18)))
          CFI (cfiCond127) V4 load(1, XDATA, add(CFA_XSP16, literal(-17)))
          CFI (cfiCond127) V5 load(1, XDATA, add(CFA_XSP16, literal(-16)))
          CFI (cfiCond127) V6 load(1, XDATA, add(CFA_XSP16, literal(-15)))
          CFI (cfiCond127) V7 load(1, XDATA, add(CFA_XSP16, literal(-14)))
          CFI (cfiCond127) V8 load(1, XDATA, add(CFA_XSP16, literal(-13)))
          CFI (cfiCond127) V9 load(1, XDATA, add(CFA_XSP16, literal(-12)))
          CFI (cfiCond127) V10 load(1, XDATA, add(CFA_XSP16, literal(-11)))
          CFI (cfiCond127) V11 load(1, XDATA, add(CFA_XSP16, literal(-10)))
          CFI (cfiCond127) V12 load(1, XDATA, add(CFA_XSP16, literal(-9)))
          CFI (cfiCond127) V13 load(1, XDATA, add(CFA_XSP16, literal(-8)))
          CFI (cfiCond127) V14 load(1, XDATA, add(CFA_XSP16, literal(-7)))
          CFI (cfiCond127) R7 load(1, XDATA, add(CFA_XSP16, literal(-6)))
          CFI (cfiCond127) ?RET_LOW load(1, XDATA, add(CFA_XSP16, literal(-5)))
          CFI (cfiCond127) ?RET_HIGH load(1, XDATA, add(CFA_XSP16, literal(-4)))
          CFI (cfiCond127) ?BRET_EXT load(1, XDATA, add(CFA_XSP16, literal(-3)))
          CFI (cfiCond127) DPL0 load(1, XDATA, add(CFA_XSP16, literal(-2)))
          CFI (cfiCond127) DPH0 load(1, XDATA, add(CFA_XSP16, literal(-1)))
          CFI (cfiCond127) CFA_SP SP+-4
          CFI (cfiCond127) CFA_XSP16 add(XSP16, 23)
          CFI Block cfiCond128 Using cfiCommon0
          CFI (cfiCond128) Function MT_AfIncomingMsg
          CFI (cfiCond128) Conditional ??CrossCallReturnLabel_102, ??CrossCallReturnLabel_0
          CFI (cfiCond128) R6 load(1, XDATA, add(CFA_XSP16, literal(-23)))
          CFI (cfiCond128) VB load(1, XDATA, add(CFA_XSP16, literal(-22)))
          CFI (cfiCond128) V0 load(1, XDATA, add(CFA_XSP16, literal(-21)))
          CFI (cfiCond128) V1 load(1, XDATA, add(CFA_XSP16, literal(-20)))
          CFI (cfiCond128) V2 load(1, XDATA, add(CFA_XSP16, literal(-19)))
          CFI (cfiCond128) V3 load(1, XDATA, add(CFA_XSP16, literal(-18)))
          CFI (cfiCond128) V4 load(1, XDATA, add(CFA_XSP16, literal(-17)))
          CFI (cfiCond128) V5 load(1, XDATA, add(CFA_XSP16, literal(-16)))
          CFI (cfiCond128) V6 load(1, XDATA, add(CFA_XSP16, literal(-15)))
          CFI (cfiCond128) V7 load(1, XDATA, add(CFA_XSP16, literal(-14)))
          CFI (cfiCond128) V8 load(1, XDATA, add(CFA_XSP16, literal(-13)))
          CFI (cfiCond128) V9 load(1, XDATA, add(CFA_XSP16, literal(-12)))
          CFI (cfiCond128) V10 load(1, XDATA, add(CFA_XSP16, literal(-11)))
          CFI (cfiCond128) V11 load(1, XDATA, add(CFA_XSP16, literal(-10)))
          CFI (cfiCond128) V12 load(1, XDATA, add(CFA_XSP16, literal(-9)))
          CFI (cfiCond128) V13 load(1, XDATA, add(CFA_XSP16, literal(-8)))
          CFI (cfiCond128) V14 load(1, XDATA, add(CFA_XSP16, literal(-7)))
          CFI (cfiCond128) R7 load(1, XDATA, add(CFA_XSP16, literal(-6)))
          CFI (cfiCond128) ?RET_LOW load(1, XDATA, add(CFA_XSP16, literal(-5)))
          CFI (cfiCond128) ?RET_HIGH load(1, XDATA, add(CFA_XSP16, literal(-4)))
          CFI (cfiCond128) ?BRET_EXT load(1, XDATA, add(CFA_XSP16, literal(-3)))
          CFI (cfiCond128) DPL0 load(1, XDATA, add(CFA_XSP16, literal(-2)))
          CFI (cfiCond128) DPH0 load(1, XDATA, add(CFA_XSP16, literal(-1)))
          CFI (cfiCond128) CFA_SP SP+-4
          CFI (cfiCond128) CFA_XSP16 add(XSP16, 23)
          CFI Block cfiCond129 Using cfiCommon0
          CFI (cfiCond129) Function MT_AfIncomingMsg
          CFI (cfiCond129) Conditional ??CrossCallReturnLabel_102, ??CrossCallReturnLabel_1
          CFI (cfiCond129) R6 load(1, XDATA, add(CFA_XSP16, literal(-23)))
          CFI (cfiCond129) VB load(1, XDATA, add(CFA_XSP16, literal(-22)))
          CFI (cfiCond129) V0 load(1, XDATA, add(CFA_XSP16, literal(-21)))
          CFI (cfiCond129) V1 load(1, XDATA, add(CFA_XSP16, literal(-20)))
          CFI (cfiCond129) V2 load(1, XDATA, add(CFA_XSP16, literal(-19)))
          CFI (cfiCond129) V3 load(1, XDATA, add(CFA_XSP16, literal(-18)))
          CFI (cfiCond129) V4 load(1, XDATA, add(CFA_XSP16, literal(-17)))
          CFI (cfiCond129) V5 load(1, XDATA, add(CFA_XSP16, literal(-16)))
          CFI (cfiCond129) V6 load(1, XDATA, add(CFA_XSP16, literal(-15)))
          CFI (cfiCond129) V7 load(1, XDATA, add(CFA_XSP16, literal(-14)))
          CFI (cfiCond129) V8 load(1, XDATA, add(CFA_XSP16, literal(-13)))
          CFI (cfiCond129) V9 load(1, XDATA, add(CFA_XSP16, literal(-12)))
          CFI (cfiCond129) V10 load(1, XDATA, add(CFA_XSP16, literal(-11)))
          CFI (cfiCond129) V11 load(1, XDATA, add(CFA_XSP16, literal(-10)))
          CFI (cfiCond129) V12 load(1, XDATA, add(CFA_XSP16, literal(-9)))
          CFI (cfiCond129) V13 load(1, XDATA, add(CFA_XSP16, literal(-8)))
          CFI (cfiCond129) V14 load(1, XDATA, add(CFA_XSP16, literal(-7)))
          CFI (cfiCond129) R7 load(1, XDATA, add(CFA_XSP16, literal(-6)))
          CFI (cfiCond129) ?RET_LOW load(1, XDATA, add(CFA_XSP16, literal(-5)))
          CFI (cfiCond129) ?RET_HIGH load(1, XDATA, add(CFA_XSP16, literal(-4)))
          CFI (cfiCond129) ?BRET_EXT load(1, XDATA, add(CFA_XSP16, literal(-3)))
          CFI (cfiCond129) DPL0 load(1, XDATA, add(CFA_XSP16, literal(-2)))
          CFI (cfiCond129) DPH0 load(1, XDATA, add(CFA_XSP16, literal(-1)))
          CFI (cfiCond129) CFA_SP SP+-4
          CFI (cfiCond129) CFA_XSP16 add(XSP16, 23)
          CFI Block cfiCond130 Using cfiCommon0
          CFI (cfiCond130) Function MT_AfIncomingMsg
          CFI (cfiCond130) Conditional ??CrossCallReturnLabel_104, ??CrossCallReturnLabel_96
          CFI (cfiCond130) R6 load(1, XDATA, add(CFA_XSP16, literal(-23)))
          CFI (cfiCond130) VB load(1, XDATA, add(CFA_XSP16, literal(-22)))
          CFI (cfiCond130) V0 load(1, XDATA, add(CFA_XSP16, literal(-21)))
          CFI (cfiCond130) V1 load(1, XDATA, add(CFA_XSP16, literal(-20)))
          CFI (cfiCond130) V2 load(1, XDATA, add(CFA_XSP16, literal(-19)))
          CFI (cfiCond130) V3 load(1, XDATA, add(CFA_XSP16, literal(-18)))
          CFI (cfiCond130) V4 load(1, XDATA, add(CFA_XSP16, literal(-17)))
          CFI (cfiCond130) V5 load(1, XDATA, add(CFA_XSP16, literal(-16)))
          CFI (cfiCond130) V6 load(1, XDATA, add(CFA_XSP16, literal(-15)))
          CFI (cfiCond130) V7 load(1, XDATA, add(CFA_XSP16, literal(-14)))
          CFI (cfiCond130) V8 load(1, XDATA, add(CFA_XSP16, literal(-13)))
          CFI (cfiCond130) V9 load(1, XDATA, add(CFA_XSP16, literal(-12)))
          CFI (cfiCond130) V10 load(1, XDATA, add(CFA_XSP16, literal(-11)))
          CFI (cfiCond130) V11 load(1, XDATA, add(CFA_XSP16, literal(-10)))
          CFI (cfiCond130) V12 load(1, XDATA, add(CFA_XSP16, literal(-9)))
          CFI (cfiCond130) V13 load(1, XDATA, add(CFA_XSP16, literal(-8)))
          CFI (cfiCond130) V14 load(1, XDATA, add(CFA_XSP16, literal(-7)))
          CFI (cfiCond130) R7 load(1, XDATA, add(CFA_XSP16, literal(-6)))
          CFI (cfiCond130) ?RET_LOW load(1, XDATA, add(CFA_XSP16, literal(-5)))
          CFI (cfiCond130) ?RET_HIGH load(1, XDATA, add(CFA_XSP16, literal(-4)))
          CFI (cfiCond130) ?BRET_EXT load(1, XDATA, add(CFA_XSP16, literal(-3)))
          CFI (cfiCond130) DPL0 load(1, XDATA, add(CFA_XSP16, literal(-2)))
          CFI (cfiCond130) DPH0 load(1, XDATA, add(CFA_XSP16, literal(-1)))
          CFI (cfiCond130) CFA_SP SP+-4
          CFI (cfiCond130) CFA_XSP16 add(XSP16, 23)
          CFI Block cfiCond131 Using cfiCommon0
          CFI (cfiCond131) Function MT_AfIncomingMsg
          CFI (cfiCond131) Conditional ??CrossCallReturnLabel_104, ??CrossCallReturnLabel_97
          CFI (cfiCond131) R6 load(1, XDATA, add(CFA_XSP16, literal(-23)))
          CFI (cfiCond131) VB load(1, XDATA, add(CFA_XSP16, literal(-22)))
          CFI (cfiCond131) V0 load(1, XDATA, add(CFA_XSP16, literal(-21)))
          CFI (cfiCond131) V1 load(1, XDATA, add(CFA_XSP16, literal(-20)))
          CFI (cfiCond131) V2 load(1, XDATA, add(CFA_XSP16, literal(-19)))
          CFI (cfiCond131) V3 load(1, XDATA, add(CFA_XSP16, literal(-18)))
          CFI (cfiCond131) V4 load(1, XDATA, add(CFA_XSP16, literal(-17)))
          CFI (cfiCond131) V5 load(1, XDATA, add(CFA_XSP16, literal(-16)))
          CFI (cfiCond131) V6 load(1, XDATA, add(CFA_XSP16, literal(-15)))
          CFI (cfiCond131) V7 load(1, XDATA, add(CFA_XSP16, literal(-14)))
          CFI (cfiCond131) V8 load(1, XDATA, add(CFA_XSP16, literal(-13)))
          CFI (cfiCond131) V9 load(1, XDATA, add(CFA_XSP16, literal(-12)))
          CFI (cfiCond131) V10 load(1, XDATA, add(CFA_XSP16, literal(-11)))
          CFI (cfiCond131) V11 load(1, XDATA, add(CFA_XSP16, literal(-10)))
          CFI (cfiCond131) V12 load(1, XDATA, add(CFA_XSP16, literal(-9)))
          CFI (cfiCond131) V13 load(1, XDATA, add(CFA_XSP16, literal(-8)))
          CFI (cfiCond131) V14 load(1, XDATA, add(CFA_XSP16, literal(-7)))
          CFI (cfiCond131) R7 load(1, XDATA, add(CFA_XSP16, literal(-6)))
          CFI (cfiCond131) ?RET_LOW load(1, XDATA, add(CFA_XSP16, literal(-5)))
          CFI (cfiCond131) ?RET_HIGH load(1, XDATA, add(CFA_XSP16, literal(-4)))
          CFI (cfiCond131) ?BRET_EXT load(1, XDATA, add(CFA_XSP16, literal(-3)))
          CFI (cfiCond131) DPL0 load(1, XDATA, add(CFA_XSP16, literal(-2)))
          CFI (cfiCond131) DPH0 load(1, XDATA, add(CFA_XSP16, literal(-1)))
          CFI (cfiCond131) CFA_SP SP+-4
          CFI (cfiCond131) CFA_XSP16 add(XSP16, 23)
          CFI Block cfiCond132 Using cfiCommon0
          CFI (cfiCond132) Function MT_AfIncomingMsg
          CFI (cfiCond132) Conditional ??CrossCallReturnLabel_104, ??CrossCallReturnLabel_98
          CFI (cfiCond132) R6 load(1, XDATA, add(CFA_XSP16, literal(-23)))
          CFI (cfiCond132) VB load(1, XDATA, add(CFA_XSP16, literal(-22)))
          CFI (cfiCond132) V0 load(1, XDATA, add(CFA_XSP16, literal(-21)))
          CFI (cfiCond132) V1 load(1, XDATA, add(CFA_XSP16, literal(-20)))
          CFI (cfiCond132) V2 load(1, XDATA, add(CFA_XSP16, literal(-19)))
          CFI (cfiCond132) V3 load(1, XDATA, add(CFA_XSP16, literal(-18)))
          CFI (cfiCond132) V4 load(1, XDATA, add(CFA_XSP16, literal(-17)))
          CFI (cfiCond132) V5 load(1, XDATA, add(CFA_XSP16, literal(-16)))
          CFI (cfiCond132) V6 load(1, XDATA, add(CFA_XSP16, literal(-15)))
          CFI (cfiCond132) V7 load(1, XDATA, add(CFA_XSP16, literal(-14)))
          CFI (cfiCond132) V8 load(1, XDATA, add(CFA_XSP16, literal(-13)))
          CFI (cfiCond132) V9 load(1, XDATA, add(CFA_XSP16, literal(-12)))
          CFI (cfiCond132) V10 load(1, XDATA, add(CFA_XSP16, literal(-11)))
          CFI (cfiCond132) V11 load(1, XDATA, add(CFA_XSP16, literal(-10)))
          CFI (cfiCond132) V12 load(1, XDATA, add(CFA_XSP16, literal(-9)))
          CFI (cfiCond132) V13 load(1, XDATA, add(CFA_XSP16, literal(-8)))
          CFI (cfiCond132) V14 load(1, XDATA, add(CFA_XSP16, literal(-7)))
          CFI (cfiCond132) R7 load(1, XDATA, add(CFA_XSP16, literal(-6)))
          CFI (cfiCond132) ?RET_LOW load(1, XDATA, add(CFA_XSP16, literal(-5)))
          CFI (cfiCond132) ?RET_HIGH load(1, XDATA, add(CFA_XSP16, literal(-4)))
          CFI (cfiCond132) ?BRET_EXT load(1, XDATA, add(CFA_XSP16, literal(-3)))
          CFI (cfiCond132) DPL0 load(1, XDATA, add(CFA_XSP16, literal(-2)))
          CFI (cfiCond132) DPH0 load(1, XDATA, add(CFA_XSP16, literal(-1)))
          CFI (cfiCond132) CFA_SP SP+-4
          CFI (cfiCond132) CFA_XSP16 add(XSP16, 23)
          CFI Block cfiCond133 Using cfiCommon0
          CFI (cfiCond133) Function MT_AfIncomingMsg
          CFI (cfiCond133) Conditional ??CrossCallReturnLabel_104, ??CrossCallReturnLabel_99
          CFI (cfiCond133) R6 load(1, XDATA, add(CFA_XSP16, literal(-23)))
          CFI (cfiCond133) VB load(1, XDATA, add(CFA_XSP16, literal(-22)))
          CFI (cfiCond133) V0 load(1, XDATA, add(CFA_XSP16, literal(-21)))
          CFI (cfiCond133) V1 load(1, XDATA, add(CFA_XSP16, literal(-20)))
          CFI (cfiCond133) V2 load(1, XDATA, add(CFA_XSP16, literal(-19)))
          CFI (cfiCond133) V3 load(1, XDATA, add(CFA_XSP16, literal(-18)))
          CFI (cfiCond133) V4 load(1, XDATA, add(CFA_XSP16, literal(-17)))
          CFI (cfiCond133) V5 load(1, XDATA, add(CFA_XSP16, literal(-16)))
          CFI (cfiCond133) V6 load(1, XDATA, add(CFA_XSP16, literal(-15)))
          CFI (cfiCond133) V7 load(1, XDATA, add(CFA_XSP16, literal(-14)))
          CFI (cfiCond133) V8 load(1, XDATA, add(CFA_XSP16, literal(-13)))
          CFI (cfiCond133) V9 load(1, XDATA, add(CFA_XSP16, literal(-12)))
          CFI (cfiCond133) V10 load(1, XDATA, add(CFA_XSP16, literal(-11)))
          CFI (cfiCond133) V11 load(1, XDATA, add(CFA_XSP16, literal(-10)))
          CFI (cfiCond133) V12 load(1, XDATA, add(CFA_XSP16, literal(-9)))
          CFI (cfiCond133) V13 load(1, XDATA, add(CFA_XSP16, literal(-8)))
          CFI (cfiCond133) V14 load(1, XDATA, add(CFA_XSP16, literal(-7)))
          CFI (cfiCond133) R7 load(1, XDATA, add(CFA_XSP16, literal(-6)))
          CFI (cfiCond133) ?RET_LOW load(1, XDATA, add(CFA_XSP16, literal(-5)))
          CFI (cfiCond133) ?RET_HIGH load(1, XDATA, add(CFA_XSP16, literal(-4)))
          CFI (cfiCond133) ?BRET_EXT load(1, XDATA, add(CFA_XSP16, literal(-3)))
          CFI (cfiCond133) DPL0 load(1, XDATA, add(CFA_XSP16, literal(-2)))
          CFI (cfiCond133) DPH0 load(1, XDATA, add(CFA_XSP16, literal(-1)))
          CFI (cfiCond133) CFA_SP SP+-4
          CFI (cfiCond133) CFA_XSP16 add(XSP16, 23)
          CFI Block cfiCond134 Using cfiCommon0
          CFI (cfiCond134) Function MT_AfIncomingMsg
          CFI (cfiCond134) Conditional ??CrossCallReturnLabel_104, ??CrossCallReturnLabel_100
          CFI (cfiCond134) R6 load(1, XDATA, add(CFA_XSP16, literal(-23)))
          CFI (cfiCond134) VB load(1, XDATA, add(CFA_XSP16, literal(-22)))
          CFI (cfiCond134) V0 load(1, XDATA, add(CFA_XSP16, literal(-21)))
          CFI (cfiCond134) V1 load(1, XDATA, add(CFA_XSP16, literal(-20)))
          CFI (cfiCond134) V2 load(1, XDATA, add(CFA_XSP16, literal(-19)))
          CFI (cfiCond134) V3 load(1, XDATA, add(CFA_XSP16, literal(-18)))
          CFI (cfiCond134) V4 load(1, XDATA, add(CFA_XSP16, literal(-17)))
          CFI (cfiCond134) V5 load(1, XDATA, add(CFA_XSP16, literal(-16)))
          CFI (cfiCond134) V6 load(1, XDATA, add(CFA_XSP16, literal(-15)))
          CFI (cfiCond134) V7 load(1, XDATA, add(CFA_XSP16, literal(-14)))
          CFI (cfiCond134) V8 load(1, XDATA, add(CFA_XSP16, literal(-13)))
          CFI (cfiCond134) V9 load(1, XDATA, add(CFA_XSP16, literal(-12)))
          CFI (cfiCond134) V10 load(1, XDATA, add(CFA_XSP16, literal(-11)))
          CFI (cfiCond134) V11 load(1, XDATA, add(CFA_XSP16, literal(-10)))
          CFI (cfiCond134) V12 load(1, XDATA, add(CFA_XSP16, literal(-9)))
          CFI (cfiCond134) V13 load(1, XDATA, add(CFA_XSP16, literal(-8)))
          CFI (cfiCond134) V14 load(1, XDATA, add(CFA_XSP16, literal(-7)))
          CFI (cfiCond134) R7 load(1, XDATA, add(CFA_XSP16, literal(-6)))
          CFI (cfiCond134) ?RET_LOW load(1, XDATA, add(CFA_XSP16, literal(-5)))
          CFI (cfiCond134) ?RET_HIGH load(1, XDATA, add(CFA_XSP16, literal(-4)))
          CFI (cfiCond134) ?BRET_EXT load(1, XDATA, add(CFA_XSP16, literal(-3)))
          CFI (cfiCond134) DPL0 load(1, XDATA, add(CFA_XSP16, literal(-2)))
          CFI (cfiCond134) DPH0 load(1, XDATA, add(CFA_XSP16, literal(-1)))
          CFI (cfiCond134) CFA_SP SP+-4
          CFI (cfiCond134) CFA_XSP16 add(XSP16, 23)
          CFI Block cfiCond135 Using cfiCommon0
          CFI (cfiCond135) Function MT_AfIncomingMsg
          CFI (cfiCond135) Conditional ??CrossCallReturnLabel_104, ??CrossCallReturnLabel_101
          CFI (cfiCond135) R6 load(1, XDATA, add(CFA_XSP16, literal(-23)))
          CFI (cfiCond135) VB load(1, XDATA, add(CFA_XSP16, literal(-22)))
          CFI (cfiCond135) V0 load(1, XDATA, add(CFA_XSP16, literal(-21)))
          CFI (cfiCond135) V1 load(1, XDATA, add(CFA_XSP16, literal(-20)))
          CFI (cfiCond135) V2 load(1, XDATA, add(CFA_XSP16, literal(-19)))
          CFI (cfiCond135) V3 load(1, XDATA, add(CFA_XSP16, literal(-18)))
          CFI (cfiCond135) V4 load(1, XDATA, add(CFA_XSP16, literal(-17)))
          CFI (cfiCond135) V5 load(1, XDATA, add(CFA_XSP16, literal(-16)))
          CFI (cfiCond135) V6 load(1, XDATA, add(CFA_XSP16, literal(-15)))
          CFI (cfiCond135) V7 load(1, XDATA, add(CFA_XSP16, literal(-14)))
          CFI (cfiCond135) V8 load(1, XDATA, add(CFA_XSP16, literal(-13)))
          CFI (cfiCond135) V9 load(1, XDATA, add(CFA_XSP16, literal(-12)))
          CFI (cfiCond135) V10 load(1, XDATA, add(CFA_XSP16, literal(-11)))
          CFI (cfiCond135) V11 load(1, XDATA, add(CFA_XSP16, literal(-10)))
          CFI (cfiCond135) V12 load(1, XDATA, add(CFA_XSP16, literal(-9)))
          CFI (cfiCond135) V13 load(1, XDATA, add(CFA_XSP16, literal(-8)))
          CFI (cfiCond135) V14 load(1, XDATA, add(CFA_XSP16, literal(-7)))
          CFI (cfiCond135) R7 load(1, XDATA, add(CFA_XSP16, literal(-6)))
          CFI (cfiCond135) ?RET_LOW load(1, XDATA, add(CFA_XSP16, literal(-5)))
          CFI (cfiCond135) ?RET_HIGH load(1, XDATA, add(CFA_XSP16, literal(-4)))
          CFI (cfiCond135) ?BRET_EXT load(1, XDATA, add(CFA_XSP16, literal(-3)))
          CFI (cfiCond135) DPL0 load(1, XDATA, add(CFA_XSP16, literal(-2)))
          CFI (cfiCond135) DPH0 load(1, XDATA, add(CFA_XSP16, literal(-1)))
          CFI (cfiCond135) CFA_SP SP+-4
          CFI (cfiCond135) CFA_XSP16 add(XSP16, 23)
          CFI Block cfiPicker136 Using cfiCommon1
          CFI (cfiPicker136) NoFunction
          CFI (cfiPicker136) Picker
        MOVX    A,@DPTR
        MOV     DPL,?V2
        MOV     DPH,?V3
        LCALL   ?Subroutine38 & 0xFFFF
??CrossCallReturnLabel_106:
        RET
          CFI EndBlock cfiCond126
          CFI EndBlock cfiCond127
          CFI EndBlock cfiCond128
          CFI EndBlock cfiCond129
          CFI EndBlock cfiCond130
          CFI EndBlock cfiCond131
          CFI EndBlock cfiCond132
          CFI EndBlock cfiCond133
          CFI EndBlock cfiCond134
          CFI EndBlock cfiCond135
          CFI EndBlock cfiPicker136

        RSEG BANKED_CODE:CODE:NOROOT(0)
?Subroutine38:
          CFI Block cfiCond137 Using cfiCommon0
          CFI Function MT_AfIncomingMsg
          CFI Conditional ??CrossCallReturnLabel_105, ??CrossCallReturnLabel_90, ??CrossCallReturnLabel_38
          CFI R6 load(1, XDATA, add(CFA_XSP16, literal(-23)))
          CFI VB load(1, XDATA, add(CFA_XSP16, literal(-22)))
          CFI V0 load(1, XDATA, add(CFA_XSP16, literal(-21)))
          CFI V1 load(1, XDATA, add(CFA_XSP16, literal(-20)))
          CFI V2 load(1, XDATA, add(CFA_XSP16, literal(-19)))
          CFI V3 load(1, XDATA, add(CFA_XSP16, literal(-18)))
          CFI V4 load(1, XDATA, add(CFA_XSP16, literal(-17)))
          CFI V5 load(1, XDATA, add(CFA_XSP16, literal(-16)))
          CFI V6 load(1, XDATA, add(CFA_XSP16, literal(-15)))
          CFI V7 load(1, XDATA, add(CFA_XSP16, literal(-14)))
          CFI V8 load(1, XDATA, add(CFA_XSP16, literal(-13)))
          CFI V9 load(1, XDATA, add(CFA_XSP16, literal(-12)))
          CFI V10 load(1, XDATA, add(CFA_XSP16, literal(-11)))
          CFI V11 load(1, XDATA, add(CFA_XSP16, literal(-10)))
          CFI V12 load(1, XDATA, add(CFA_XSP16, literal(-9)))
          CFI V13 load(1, XDATA, add(CFA_XSP16, literal(-8)))
          CFI V14 load(1, XDATA, add(CFA_XSP16, literal(-7)))
          CFI R7 load(1, XDATA, add(CFA_XSP16, literal(-6)))
          CFI ?RET_LOW load(1, XDATA, add(CFA_XSP16, literal(-5)))
          CFI ?RET_HIGH load(1, XDATA, add(CFA_XSP16, literal(-4)))
          CFI ?BRET_EXT load(1, XDATA, add(CFA_XSP16, literal(-3)))
          CFI DPL0 load(1, XDATA, add(CFA_XSP16, literal(-2)))
          CFI DPH0 load(1, XDATA, add(CFA_XSP16, literal(-1)))
          CFI CFA_SP SP+-6
          CFI CFA_XSP16 add(XSP16, 23)
          CFI Block cfiCond138 Using cfiCommon0
          CFI (cfiCond138) Function MT_AfIncomingMsg
          CFI (cfiCond138) Conditional ??CrossCallReturnLabel_105, ??CrossCallReturnLabel_90, ??CrossCallReturnLabel_39
          CFI (cfiCond138) R6 load(1, XDATA, add(CFA_XSP16, literal(-23)))
          CFI (cfiCond138) VB load(1, XDATA, add(CFA_XSP16, literal(-22)))
          CFI (cfiCond138) V0 load(1, XDATA, add(CFA_XSP16, literal(-21)))
          CFI (cfiCond138) V1 load(1, XDATA, add(CFA_XSP16, literal(-20)))
          CFI (cfiCond138) V2 load(1, XDATA, add(CFA_XSP16, literal(-19)))
          CFI (cfiCond138) V3 load(1, XDATA, add(CFA_XSP16, literal(-18)))
          CFI (cfiCond138) V4 load(1, XDATA, add(CFA_XSP16, literal(-17)))
          CFI (cfiCond138) V5 load(1, XDATA, add(CFA_XSP16, literal(-16)))
          CFI (cfiCond138) V6 load(1, XDATA, add(CFA_XSP16, literal(-15)))
          CFI (cfiCond138) V7 load(1, XDATA, add(CFA_XSP16, literal(-14)))
          CFI (cfiCond138) V8 load(1, XDATA, add(CFA_XSP16, literal(-13)))
          CFI (cfiCond138) V9 load(1, XDATA, add(CFA_XSP16, literal(-12)))
          CFI (cfiCond138) V10 load(1, XDATA, add(CFA_XSP16, literal(-11)))
          CFI (cfiCond138) V11 load(1, XDATA, add(CFA_XSP16, literal(-10)))
          CFI (cfiCond138) V12 load(1, XDATA, add(CFA_XSP16, literal(-9)))
          CFI (cfiCond138) V13 load(1, XDATA, add(CFA_XSP16, literal(-8)))
          CFI (cfiCond138) V14 load(1, XDATA, add(CFA_XSP16, literal(-7)))
          CFI (cfiCond138) R7 load(1, XDATA, add(CFA_XSP16, literal(-6)))
          CFI (cfiCond138) ?RET_LOW load(1, XDATA, add(CFA_XSP16, literal(-5)))
          CFI (cfiCond138) ?RET_HIGH load(1, XDATA, add(CFA_XSP16, literal(-4)))
          CFI (cfiCond138) ?BRET_EXT load(1, XDATA, add(CFA_XSP16, literal(-3)))
          CFI (cfiCond138) DPL0 load(1, XDATA, add(CFA_XSP16, literal(-2)))
          CFI (cfiCond138) DPH0 load(1, XDATA, add(CFA_XSP16, literal(-1)))
          CFI (cfiCond138) CFA_SP SP+-6
          CFI (cfiCond138) CFA_XSP16 add(XSP16, 23)
          CFI Block cfiCond139 Using cfiCommon0
          CFI (cfiCond139) Function MT_AfIncomingMsg
          CFI (cfiCond139) Conditional ??CrossCallReturnLabel_105, ??CrossCallReturnLabel_90, ??CrossCallReturnLabel_40
          CFI (cfiCond139) R6 load(1, XDATA, add(CFA_XSP16, literal(-23)))
          CFI (cfiCond139) VB load(1, XDATA, add(CFA_XSP16, literal(-22)))
          CFI (cfiCond139) V0 load(1, XDATA, add(CFA_XSP16, literal(-21)))
          CFI (cfiCond139) V1 load(1, XDATA, add(CFA_XSP16, literal(-20)))
          CFI (cfiCond139) V2 load(1, XDATA, add(CFA_XSP16, literal(-19)))
          CFI (cfiCond139) V3 load(1, XDATA, add(CFA_XSP16, literal(-18)))
          CFI (cfiCond139) V4 load(1, XDATA, add(CFA_XSP16, literal(-17)))
          CFI (cfiCond139) V5 load(1, XDATA, add(CFA_XSP16, literal(-16)))
          CFI (cfiCond139) V6 load(1, XDATA, add(CFA_XSP16, literal(-15)))
          CFI (cfiCond139) V7 load(1, XDATA, add(CFA_XSP16, literal(-14)))
          CFI (cfiCond139) V8 load(1, XDATA, add(CFA_XSP16, literal(-13)))
          CFI (cfiCond139) V9 load(1, XDATA, add(CFA_XSP16, literal(-12)))
          CFI (cfiCond139) V10 load(1, XDATA, add(CFA_XSP16, literal(-11)))
          CFI (cfiCond139) V11 load(1, XDATA, add(CFA_XSP16, literal(-10)))
          CFI (cfiCond139) V12 load(1, XDATA, add(CFA_XSP16, literal(-9)))
          CFI (cfiCond139) V13 load(1, XDATA, add(CFA_XSP16, literal(-8)))
          CFI (cfiCond139) V14 load(1, XDATA, add(CFA_XSP16, literal(-7)))
          CFI (cfiCond139) R7 load(1, XDATA, add(CFA_XSP16, literal(-6)))
          CFI (cfiCond139) ?RET_LOW load(1, XDATA, add(CFA_XSP16, literal(-5)))
          CFI (cfiCond139) ?RET_HIGH load(1, XDATA, add(CFA_XSP16, literal(-4)))
          CFI (cfiCond139) ?BRET_EXT load(1, XDATA, add(CFA_XSP16, literal(-3)))
          CFI (cfiCond139) DPL0 load(1, XDATA, add(CFA_XSP16, literal(-2)))
          CFI (cfiCond139) DPH0 load(1, XDATA, add(CFA_XSP16, literal(-1)))
          CFI (cfiCond139) CFA_SP SP+-6
          CFI (cfiCond139) CFA_XSP16 add(XSP16, 23)
          CFI Block cfiCond140 Using cfiCommon0
          CFI (cfiCond140) Function MT_AfIncomingMsg
          CFI (cfiCond140) Conditional ??CrossCallReturnLabel_105, ??CrossCallReturnLabel_90, ??CrossCallReturnLabel_41
          CFI (cfiCond140) R6 load(1, XDATA, add(CFA_XSP16, literal(-23)))
          CFI (cfiCond140) VB load(1, XDATA, add(CFA_XSP16, literal(-22)))
          CFI (cfiCond140) V0 load(1, XDATA, add(CFA_XSP16, literal(-21)))
          CFI (cfiCond140) V1 load(1, XDATA, add(CFA_XSP16, literal(-20)))
          CFI (cfiCond140) V2 load(1, XDATA, add(CFA_XSP16, literal(-19)))
          CFI (cfiCond140) V3 load(1, XDATA, add(CFA_XSP16, literal(-18)))
          CFI (cfiCond140) V4 load(1, XDATA, add(CFA_XSP16, literal(-17)))
          CFI (cfiCond140) V5 load(1, XDATA, add(CFA_XSP16, literal(-16)))
          CFI (cfiCond140) V6 load(1, XDATA, add(CFA_XSP16, literal(-15)))
          CFI (cfiCond140) V7 load(1, XDATA, add(CFA_XSP16, literal(-14)))
          CFI (cfiCond140) V8 load(1, XDATA, add(CFA_XSP16, literal(-13)))
          CFI (cfiCond140) V9 load(1, XDATA, add(CFA_XSP16, literal(-12)))
          CFI (cfiCond140) V10 load(1, XDATA, add(CFA_XSP16, literal(-11)))
          CFI (cfiCond140) V11 load(1, XDATA, add(CFA_XSP16, literal(-10)))
          CFI (cfiCond140) V12 load(1, XDATA, add(CFA_XSP16, literal(-9)))
          CFI (cfiCond140) V13 load(1, XDATA, add(CFA_XSP16, literal(-8)))
          CFI (cfiCond140) V14 load(1, XDATA, add(CFA_XSP16, literal(-7)))
          CFI (cfiCond140) R7 load(1, XDATA, add(CFA_XSP16, literal(-6)))
          CFI (cfiCond140) ?RET_LOW load(1, XDATA, add(CFA_XSP16, literal(-5)))
          CFI (cfiCond140) ?RET_HIGH load(1, XDATA, add(CFA_XSP16, literal(-4)))
          CFI (cfiCond140) ?BRET_EXT load(1, XDATA, add(CFA_XSP16, literal(-3)))
          CFI (cfiCond140) DPL0 load(1, XDATA, add(CFA_XSP16, literal(-2)))
          CFI (cfiCond140) DPH0 load(1, XDATA, add(CFA_XSP16, literal(-1)))
          CFI (cfiCond140) CFA_SP SP+-6
          CFI (cfiCond140) CFA_XSP16 add(XSP16, 23)
          CFI Block cfiCond141 Using cfiCommon0
          CFI (cfiCond141) Function MT_AfIncomingMsg
          CFI (cfiCond141) Conditional ??CrossCallReturnLabel_105, ??CrossCallReturnLabel_91, ??CrossCallReturnLabel_87
          CFI (cfiCond141) R6 load(1, XDATA, add(CFA_XSP16, literal(-23)))
          CFI (cfiCond141) VB load(1, XDATA, add(CFA_XSP16, literal(-22)))
          CFI (cfiCond141) V0 load(1, XDATA, add(CFA_XSP16, literal(-21)))
          CFI (cfiCond141) V1 load(1, XDATA, add(CFA_XSP16, literal(-20)))
          CFI (cfiCond141) V2 load(1, XDATA, add(CFA_XSP16, literal(-19)))
          CFI (cfiCond141) V3 load(1, XDATA, add(CFA_XSP16, literal(-18)))
          CFI (cfiCond141) V4 load(1, XDATA, add(CFA_XSP16, literal(-17)))
          CFI (cfiCond141) V5 load(1, XDATA, add(CFA_XSP16, literal(-16)))
          CFI (cfiCond141) V6 load(1, XDATA, add(CFA_XSP16, literal(-15)))
          CFI (cfiCond141) V7 load(1, XDATA, add(CFA_XSP16, literal(-14)))
          CFI (cfiCond141) V8 load(1, XDATA, add(CFA_XSP16, literal(-13)))
          CFI (cfiCond141) V9 load(1, XDATA, add(CFA_XSP16, literal(-12)))
          CFI (cfiCond141) V10 load(1, XDATA, add(CFA_XSP16, literal(-11)))
          CFI (cfiCond141) V11 load(1, XDATA, add(CFA_XSP16, literal(-10)))
          CFI (cfiCond141) V12 load(1, XDATA, add(CFA_XSP16, literal(-9)))
          CFI (cfiCond141) V13 load(1, XDATA, add(CFA_XSP16, literal(-8)))
          CFI (cfiCond141) V14 load(1, XDATA, add(CFA_XSP16, literal(-7)))
          CFI (cfiCond141) R7 load(1, XDATA, add(CFA_XSP16, literal(-6)))
          CFI (cfiCond141) ?RET_LOW load(1, XDATA, add(CFA_XSP16, literal(-5)))
          CFI (cfiCond141) ?RET_HIGH load(1, XDATA, add(CFA_XSP16, literal(-4)))
          CFI (cfiCond141) ?BRET_EXT load(1, XDATA, add(CFA_XSP16, literal(-3)))
          CFI (cfiCond141) DPL0 load(1, XDATA, add(CFA_XSP16, literal(-2)))
          CFI (cfiCond141) DPH0 load(1, XDATA, add(CFA_XSP16, literal(-1)))
          CFI (cfiCond141) CFA_SP SP+-6
          CFI (cfiCond141) CFA_XSP16 add(XSP16, 23)
          CFI Block cfiCond142 Using cfiCommon0
          CFI (cfiCond142) Function MT_AfIncomingMsg
          CFI (cfiCond142) Conditional ??CrossCallReturnLabel_105, ??CrossCallReturnLabel_91, ??CrossCallReturnLabel_88
          CFI (cfiCond142) R6 load(1, XDATA, add(CFA_XSP16, literal(-23)))
          CFI (cfiCond142) VB load(1, XDATA, add(CFA_XSP16, literal(-22)))
          CFI (cfiCond142) V0 load(1, XDATA, add(CFA_XSP16, literal(-21)))
          CFI (cfiCond142) V1 load(1, XDATA, add(CFA_XSP16, literal(-20)))
          CFI (cfiCond142) V2 load(1, XDATA, add(CFA_XSP16, literal(-19)))
          CFI (cfiCond142) V3 load(1, XDATA, add(CFA_XSP16, literal(-18)))
          CFI (cfiCond142) V4 load(1, XDATA, add(CFA_XSP16, literal(-17)))
          CFI (cfiCond142) V5 load(1, XDATA, add(CFA_XSP16, literal(-16)))
          CFI (cfiCond142) V6 load(1, XDATA, add(CFA_XSP16, literal(-15)))
          CFI (cfiCond142) V7 load(1, XDATA, add(CFA_XSP16, literal(-14)))
          CFI (cfiCond142) V8 load(1, XDATA, add(CFA_XSP16, literal(-13)))
          CFI (cfiCond142) V9 load(1, XDATA, add(CFA_XSP16, literal(-12)))
          CFI (cfiCond142) V10 load(1, XDATA, add(CFA_XSP16, literal(-11)))
          CFI (cfiCond142) V11 load(1, XDATA, add(CFA_XSP16, literal(-10)))
          CFI (cfiCond142) V12 load(1, XDATA, add(CFA_XSP16, literal(-9)))
          CFI (cfiCond142) V13 load(1, XDATA, add(CFA_XSP16, literal(-8)))
          CFI (cfiCond142) V14 load(1, XDATA, add(CFA_XSP16, literal(-7)))
          CFI (cfiCond142) R7 load(1, XDATA, add(CFA_XSP16, literal(-6)))
          CFI (cfiCond142) ?RET_LOW load(1, XDATA, add(CFA_XSP16, literal(-5)))
          CFI (cfiCond142) ?RET_HIGH load(1, XDATA, add(CFA_XSP16, literal(-4)))
          CFI (cfiCond142) ?BRET_EXT load(1, XDATA, add(CFA_XSP16, literal(-3)))
          CFI (cfiCond142) DPL0 load(1, XDATA, add(CFA_XSP16, literal(-2)))
          CFI (cfiCond142) DPH0 load(1, XDATA, add(CFA_XSP16, literal(-1)))
          CFI (cfiCond142) CFA_SP SP+-6
          CFI (cfiCond142) CFA_XSP16 add(XSP16, 23)
          CFI Block cfiCond143 Using cfiCommon0
          CFI (cfiCond143) Function MT_AfIncomingMsg
          CFI (cfiCond143) Conditional ??CrossCallReturnLabel_105, ??CrossCallReturnLabel_91, ??CrossCallReturnLabel_89
          CFI (cfiCond143) R6 load(1, XDATA, add(CFA_XSP16, literal(-23)))
          CFI (cfiCond143) VB load(1, XDATA, add(CFA_XSP16, literal(-22)))
          CFI (cfiCond143) V0 load(1, XDATA, add(CFA_XSP16, literal(-21)))
          CFI (cfiCond143) V1 load(1, XDATA, add(CFA_XSP16, literal(-20)))
          CFI (cfiCond143) V2 load(1, XDATA, add(CFA_XSP16, literal(-19)))
          CFI (cfiCond143) V3 load(1, XDATA, add(CFA_XSP16, literal(-18)))
          CFI (cfiCond143) V4 load(1, XDATA, add(CFA_XSP16, literal(-17)))
          CFI (cfiCond143) V5 load(1, XDATA, add(CFA_XSP16, literal(-16)))
          CFI (cfiCond143) V6 load(1, XDATA, add(CFA_XSP16, literal(-15)))
          CFI (cfiCond143) V7 load(1, XDATA, add(CFA_XSP16, literal(-14)))
          CFI (cfiCond143) V8 load(1, XDATA, add(CFA_XSP16, literal(-13)))
          CFI (cfiCond143) V9 load(1, XDATA, add(CFA_XSP16, literal(-12)))
          CFI (cfiCond143) V10 load(1, XDATA, add(CFA_XSP16, literal(-11)))
          CFI (cfiCond143) V11 load(1, XDATA, add(CFA_XSP16, literal(-10)))
          CFI (cfiCond143) V12 load(1, XDATA, add(CFA_XSP16, literal(-9)))
          CFI (cfiCond143) V13 load(1, XDATA, add(CFA_XSP16, literal(-8)))
          CFI (cfiCond143) V14 load(1, XDATA, add(CFA_XSP16, literal(-7)))
          CFI (cfiCond143) R7 load(1, XDATA, add(CFA_XSP16, literal(-6)))
          CFI (cfiCond143) ?RET_LOW load(1, XDATA, add(CFA_XSP16, literal(-5)))
          CFI (cfiCond143) ?RET_HIGH load(1, XDATA, add(CFA_XSP16, literal(-4)))
          CFI (cfiCond143) ?BRET_EXT load(1, XDATA, add(CFA_XSP16, literal(-3)))
          CFI (cfiCond143) DPL0 load(1, XDATA, add(CFA_XSP16, literal(-2)))
          CFI (cfiCond143) DPH0 load(1, XDATA, add(CFA_XSP16, literal(-1)))
          CFI (cfiCond143) CFA_SP SP+-6
          CFI (cfiCond143) CFA_XSP16 add(XSP16, 23)
          CFI Block cfiCond144 Using cfiCommon0
          CFI (cfiCond144) Function MT_AfIncomingMsg
          CFI (cfiCond144) Conditional ??CrossCallReturnLabel_106, ??CrossCallReturnLabel_103, ??CrossCallReturnLabel_7
          CFI (cfiCond144) R6 load(1, XDATA, add(CFA_XSP16, literal(-23)))
          CFI (cfiCond144) VB load(1, XDATA, add(CFA_XSP16, literal(-22)))
          CFI (cfiCond144) V0 load(1, XDATA, add(CFA_XSP16, literal(-21)))
          CFI (cfiCond144) V1 load(1, XDATA, add(CFA_XSP16, literal(-20)))
          CFI (cfiCond144) V2 load(1, XDATA, add(CFA_XSP16, literal(-19)))
          CFI (cfiCond144) V3 load(1, XDATA, add(CFA_XSP16, literal(-18)))
          CFI (cfiCond144) V4 load(1, XDATA, add(CFA_XSP16, literal(-17)))
          CFI (cfiCond144) V5 load(1, XDATA, add(CFA_XSP16, literal(-16)))
          CFI (cfiCond144) V6 load(1, XDATA, add(CFA_XSP16, literal(-15)))
          CFI (cfiCond144) V7 load(1, XDATA, add(CFA_XSP16, literal(-14)))
          CFI (cfiCond144) V8 load(1, XDATA, add(CFA_XSP16, literal(-13)))
          CFI (cfiCond144) V9 load(1, XDATA, add(CFA_XSP16, literal(-12)))
          CFI (cfiCond144) V10 load(1, XDATA, add(CFA_XSP16, literal(-11)))
          CFI (cfiCond144) V11 load(1, XDATA, add(CFA_XSP16, literal(-10)))
          CFI (cfiCond144) V12 load(1, XDATA, add(CFA_XSP16, literal(-9)))
          CFI (cfiCond144) V13 load(1, XDATA, add(CFA_XSP16, literal(-8)))
          CFI (cfiCond144) V14 load(1, XDATA, add(CFA_XSP16, literal(-7)))
          CFI (cfiCond144) R7 load(1, XDATA, add(CFA_XSP16, literal(-6)))
          CFI (cfiCond144) ?RET_LOW load(1, XDATA, add(CFA_XSP16, literal(-5)))
          CFI (cfiCond144) ?RET_HIGH load(1, XDATA, add(CFA_XSP16, literal(-4)))
          CFI (cfiCond144) ?BRET_EXT load(1, XDATA, add(CFA_XSP16, literal(-3)))
          CFI (cfiCond144) DPL0 load(1, XDATA, add(CFA_XSP16, literal(-2)))
          CFI (cfiCond144) DPH0 load(1, XDATA, add(CFA_XSP16, literal(-1)))
          CFI (cfiCond144) CFA_SP SP+-6
          CFI (cfiCond144) CFA_XSP16 add(XSP16, 23)
          CFI Block cfiCond145 Using cfiCommon0
          CFI (cfiCond145) Function MT_AfIncomingMsg
          CFI (cfiCond145) Conditional ??CrossCallReturnLabel_106, ??CrossCallReturnLabel_103, ??CrossCallReturnLabel_8
          CFI (cfiCond145) R6 load(1, XDATA, add(CFA_XSP16, literal(-23)))
          CFI (cfiCond145) VB load(1, XDATA, add(CFA_XSP16, literal(-22)))
          CFI (cfiCond145) V0 load(1, XDATA, add(CFA_XSP16, literal(-21)))
          CFI (cfiCond145) V1 load(1, XDATA, add(CFA_XSP16, literal(-20)))
          CFI (cfiCond145) V2 load(1, XDATA, add(CFA_XSP16, literal(-19)))
          CFI (cfiCond145) V3 load(1, XDATA, add(CFA_XSP16, literal(-18)))
          CFI (cfiCond145) V4 load(1, XDATA, add(CFA_XSP16, literal(-17)))
          CFI (cfiCond145) V5 load(1, XDATA, add(CFA_XSP16, literal(-16)))
          CFI (cfiCond145) V6 load(1, XDATA, add(CFA_XSP16, literal(-15)))
          CFI (cfiCond145) V7 load(1, XDATA, add(CFA_XSP16, literal(-14)))
          CFI (cfiCond145) V8 load(1, XDATA, add(CFA_XSP16, literal(-13)))
          CFI (cfiCond145) V9 load(1, XDATA, add(CFA_XSP16, literal(-12)))
          CFI (cfiCond145) V10 load(1, XDATA, add(CFA_XSP16, literal(-11)))
          CFI (cfiCond145) V11 load(1, XDATA, add(CFA_XSP16, literal(-10)))
          CFI (cfiCond145) V12 load(1, XDATA, add(CFA_XSP16, literal(-9)))
          CFI (cfiCond145) V13 load(1, XDATA, add(CFA_XSP16, literal(-8)))
          CFI (cfiCond145) V14 load(1, XDATA, add(CFA_XSP16, literal(-7)))
          CFI (cfiCond145) R7 load(1, XDATA, add(CFA_XSP16, literal(-6)))
          CFI (cfiCond145) ?RET_LOW load(1, XDATA, add(CFA_XSP16, literal(-5)))
          CFI (cfiCond145) ?RET_HIGH load(1, XDATA, add(CFA_XSP16, literal(-4)))
          CFI (cfiCond145) ?BRET_EXT load(1, XDATA, add(CFA_XSP16, literal(-3)))
          CFI (cfiCond145) DPL0 load(1, XDATA, add(CFA_XSP16, literal(-2)))
          CFI (cfiCond145) DPH0 load(1, XDATA, add(CFA_XSP16, literal(-1)))
          CFI (cfiCond145) CFA_SP SP+-6
          CFI (cfiCond145) CFA_XSP16 add(XSP16, 23)
          CFI Block cfiCond146 Using cfiCommon0
          CFI (cfiCond146) Function MT_AfIncomingMsg
          CFI (cfiCond146) Conditional ??CrossCallReturnLabel_106, ??CrossCallReturnLabel_102, ??CrossCallReturnLabel_0
          CFI (cfiCond146) R6 load(1, XDATA, add(CFA_XSP16, literal(-23)))
          CFI (cfiCond146) VB load(1, XDATA, add(CFA_XSP16, literal(-22)))
          CFI (cfiCond146) V0 load(1, XDATA, add(CFA_XSP16, literal(-21)))
          CFI (cfiCond146) V1 load(1, XDATA, add(CFA_XSP16, literal(-20)))
          CFI (cfiCond146) V2 load(1, XDATA, add(CFA_XSP16, literal(-19)))
          CFI (cfiCond146) V3 load(1, XDATA, add(CFA_XSP16, literal(-18)))
          CFI (cfiCond146) V4 load(1, XDATA, add(CFA_XSP16, literal(-17)))
          CFI (cfiCond146) V5 load(1, XDATA, add(CFA_XSP16, literal(-16)))
          CFI (cfiCond146) V6 load(1, XDATA, add(CFA_XSP16, literal(-15)))
          CFI (cfiCond146) V7 load(1, XDATA, add(CFA_XSP16, literal(-14)))
          CFI (cfiCond146) V8 load(1, XDATA, add(CFA_XSP16, literal(-13)))
          CFI (cfiCond146) V9 load(1, XDATA, add(CFA_XSP16, literal(-12)))
          CFI (cfiCond146) V10 load(1, XDATA, add(CFA_XSP16, literal(-11)))
          CFI (cfiCond146) V11 load(1, XDATA, add(CFA_XSP16, literal(-10)))
          CFI (cfiCond146) V12 load(1, XDATA, add(CFA_XSP16, literal(-9)))
          CFI (cfiCond146) V13 load(1, XDATA, add(CFA_XSP16, literal(-8)))
          CFI (cfiCond146) V14 load(1, XDATA, add(CFA_XSP16, literal(-7)))
          CFI (cfiCond146) R7 load(1, XDATA, add(CFA_XSP16, literal(-6)))
          CFI (cfiCond146) ?RET_LOW load(1, XDATA, add(CFA_XSP16, literal(-5)))
          CFI (cfiCond146) ?RET_HIGH load(1, XDATA, add(CFA_XSP16, literal(-4)))
          CFI (cfiCond146) ?BRET_EXT load(1, XDATA, add(CFA_XSP16, literal(-3)))
          CFI (cfiCond146) DPL0 load(1, XDATA, add(CFA_XSP16, literal(-2)))
          CFI (cfiCond146) DPH0 load(1, XDATA, add(CFA_XSP16, literal(-1)))
          CFI (cfiCond146) CFA_SP SP+-6
          CFI (cfiCond146) CFA_XSP16 add(XSP16, 23)
          CFI Block cfiCond147 Using cfiCommon0
          CFI (cfiCond147) Function MT_AfIncomingMsg
          CFI (cfiCond147) Conditional ??CrossCallReturnLabel_106, ??CrossCallReturnLabel_102, ??CrossCallReturnLabel_1
          CFI (cfiCond147) R6 load(1, XDATA, add(CFA_XSP16, literal(-23)))
          CFI (cfiCond147) VB load(1, XDATA, add(CFA_XSP16, literal(-22)))
          CFI (cfiCond147) V0 load(1, XDATA, add(CFA_XSP16, literal(-21)))
          CFI (cfiCond147) V1 load(1, XDATA, add(CFA_XSP16, literal(-20)))
          CFI (cfiCond147) V2 load(1, XDATA, add(CFA_XSP16, literal(-19)))
          CFI (cfiCond147) V3 load(1, XDATA, add(CFA_XSP16, literal(-18)))
          CFI (cfiCond147) V4 load(1, XDATA, add(CFA_XSP16, literal(-17)))
          CFI (cfiCond147) V5 load(1, XDATA, add(CFA_XSP16, literal(-16)))
          CFI (cfiCond147) V6 load(1, XDATA, add(CFA_XSP16, literal(-15)))
          CFI (cfiCond147) V7 load(1, XDATA, add(CFA_XSP16, literal(-14)))
          CFI (cfiCond147) V8 load(1, XDATA, add(CFA_XSP16, literal(-13)))
          CFI (cfiCond147) V9 load(1, XDATA, add(CFA_XSP16, literal(-12)))
          CFI (cfiCond147) V10 load(1, XDATA, add(CFA_XSP16, literal(-11)))
          CFI (cfiCond147) V11 load(1, XDATA, add(CFA_XSP16, literal(-10)))
          CFI (cfiCond147) V12 load(1, XDATA, add(CFA_XSP16, literal(-9)))
          CFI (cfiCond147) V13 load(1, XDATA, add(CFA_XSP16, literal(-8)))
          CFI (cfiCond147) V14 load(1, XDATA, add(CFA_XSP16, literal(-7)))
          CFI (cfiCond147) R7 load(1, XDATA, add(CFA_XSP16, literal(-6)))
          CFI (cfiCond147) ?RET_LOW load(1, XDATA, add(CFA_XSP16, literal(-5)))
          CFI (cfiCond147) ?RET_HIGH load(1, XDATA, add(CFA_XSP16, literal(-4)))
          CFI (cfiCond147) ?BRET_EXT load(1, XDATA, add(CFA_XSP16, literal(-3)))
          CFI (cfiCond147) DPL0 load(1, XDATA, add(CFA_XSP16, literal(-2)))
          CFI (cfiCond147) DPH0 load(1, XDATA, add(CFA_XSP16, literal(-1)))
          CFI (cfiCond147) CFA_SP SP+-6
          CFI (cfiCond147) CFA_XSP16 add(XSP16, 23)
          CFI Block cfiCond148 Using cfiCommon0
          CFI (cfiCond148) Function MT_AfIncomingMsg
          CFI (cfiCond148) Conditional ??CrossCallReturnLabel_106, ??CrossCallReturnLabel_104, ??CrossCallReturnLabel_96
          CFI (cfiCond148) R6 load(1, XDATA, add(CFA_XSP16, literal(-23)))
          CFI (cfiCond148) VB load(1, XDATA, add(CFA_XSP16, literal(-22)))
          CFI (cfiCond148) V0 load(1, XDATA, add(CFA_XSP16, literal(-21)))
          CFI (cfiCond148) V1 load(1, XDATA, add(CFA_XSP16, literal(-20)))
          CFI (cfiCond148) V2 load(1, XDATA, add(CFA_XSP16, literal(-19)))
          CFI (cfiCond148) V3 load(1, XDATA, add(CFA_XSP16, literal(-18)))
          CFI (cfiCond148) V4 load(1, XDATA, add(CFA_XSP16, literal(-17)))
          CFI (cfiCond148) V5 load(1, XDATA, add(CFA_XSP16, literal(-16)))
          CFI (cfiCond148) V6 load(1, XDATA, add(CFA_XSP16, literal(-15)))
          CFI (cfiCond148) V7 load(1, XDATA, add(CFA_XSP16, literal(-14)))
          CFI (cfiCond148) V8 load(1, XDATA, add(CFA_XSP16, literal(-13)))
          CFI (cfiCond148) V9 load(1, XDATA, add(CFA_XSP16, literal(-12)))
          CFI (cfiCond148) V10 load(1, XDATA, add(CFA_XSP16, literal(-11)))
          CFI (cfiCond148) V11 load(1, XDATA, add(CFA_XSP16, literal(-10)))
          CFI (cfiCond148) V12 load(1, XDATA, add(CFA_XSP16, literal(-9)))
          CFI (cfiCond148) V13 load(1, XDATA, add(CFA_XSP16, literal(-8)))
          CFI (cfiCond148) V14 load(1, XDATA, add(CFA_XSP16, literal(-7)))
          CFI (cfiCond148) R7 load(1, XDATA, add(CFA_XSP16, literal(-6)))
          CFI (cfiCond148) ?RET_LOW load(1, XDATA, add(CFA_XSP16, literal(-5)))
          CFI (cfiCond148) ?RET_HIGH load(1, XDATA, add(CFA_XSP16, literal(-4)))
          CFI (cfiCond148) ?BRET_EXT load(1, XDATA, add(CFA_XSP16, literal(-3)))
          CFI (cfiCond148) DPL0 load(1, XDATA, add(CFA_XSP16, literal(-2)))
          CFI (cfiCond148) DPH0 load(1, XDATA, add(CFA_XSP16, literal(-1)))
          CFI (cfiCond148) CFA_SP SP+-6
          CFI (cfiCond148) CFA_XSP16 add(XSP16, 23)
          CFI Block cfiCond149 Using cfiCommon0
          CFI (cfiCond149) Function MT_AfIncomingMsg
          CFI (cfiCond149) Conditional ??CrossCallReturnLabel_106, ??CrossCallReturnLabel_104, ??CrossCallReturnLabel_97
          CFI (cfiCond149) R6 load(1, XDATA, add(CFA_XSP16, literal(-23)))
          CFI (cfiCond149) VB load(1, XDATA, add(CFA_XSP16, literal(-22)))
          CFI (cfiCond149) V0 load(1, XDATA, add(CFA_XSP16, literal(-21)))
          CFI (cfiCond149) V1 load(1, XDATA, add(CFA_XSP16, literal(-20)))
          CFI (cfiCond149) V2 load(1, XDATA, add(CFA_XSP16, literal(-19)))
          CFI (cfiCond149) V3 load(1, XDATA, add(CFA_XSP16, literal(-18)))
          CFI (cfiCond149) V4 load(1, XDATA, add(CFA_XSP16, literal(-17)))
          CFI (cfiCond149) V5 load(1, XDATA, add(CFA_XSP16, literal(-16)))
          CFI (cfiCond149) V6 load(1, XDATA, add(CFA_XSP16, literal(-15)))
          CFI (cfiCond149) V7 load(1, XDATA, add(CFA_XSP16, literal(-14)))
          CFI (cfiCond149) V8 load(1, XDATA, add(CFA_XSP16, literal(-13)))
          CFI (cfiCond149) V9 load(1, XDATA, add(CFA_XSP16, literal(-12)))
          CFI (cfiCond149) V10 load(1, XDATA, add(CFA_XSP16, literal(-11)))
          CFI (cfiCond149) V11 load(1, XDATA, add(CFA_XSP16, literal(-10)))
          CFI (cfiCond149) V12 load(1, XDATA, add(CFA_XSP16, literal(-9)))
          CFI (cfiCond149) V13 load(1, XDATA, add(CFA_XSP16, literal(-8)))
          CFI (cfiCond149) V14 load(1, XDATA, add(CFA_XSP16, literal(-7)))
          CFI (cfiCond149) R7 load(1, XDATA, add(CFA_XSP16, literal(-6)))
          CFI (cfiCond149) ?RET_LOW load(1, XDATA, add(CFA_XSP16, literal(-5)))
          CFI (cfiCond149) ?RET_HIGH load(1, XDATA, add(CFA_XSP16, literal(-4)))
          CFI (cfiCond149) ?BRET_EXT load(1, XDATA, add(CFA_XSP16, literal(-3)))
          CFI (cfiCond149) DPL0 load(1, XDATA, add(CFA_XSP16, literal(-2)))
          CFI (cfiCond149) DPH0 load(1, XDATA, add(CFA_XSP16, literal(-1)))
          CFI (cfiCond149) CFA_SP SP+-6
          CFI (cfiCond149) CFA_XSP16 add(XSP16, 23)
          CFI Block cfiCond150 Using cfiCommon0
          CFI (cfiCond150) Function MT_AfIncomingMsg
          CFI (cfiCond150) Conditional ??CrossCallReturnLabel_106, ??CrossCallReturnLabel_104, ??CrossCallReturnLabel_98
          CFI (cfiCond150) R6 load(1, XDATA, add(CFA_XSP16, literal(-23)))
          CFI (cfiCond150) VB load(1, XDATA, add(CFA_XSP16, literal(-22)))
          CFI (cfiCond150) V0 load(1, XDATA, add(CFA_XSP16, literal(-21)))
          CFI (cfiCond150) V1 load(1, XDATA, add(CFA_XSP16, literal(-20)))
          CFI (cfiCond150) V2 load(1, XDATA, add(CFA_XSP16, literal(-19)))
          CFI (cfiCond150) V3 load(1, XDATA, add(CFA_XSP16, literal(-18)))
          CFI (cfiCond150) V4 load(1, XDATA, add(CFA_XSP16, literal(-17)))
          CFI (cfiCond150) V5 load(1, XDATA, add(CFA_XSP16, literal(-16)))
          CFI (cfiCond150) V6 load(1, XDATA, add(CFA_XSP16, literal(-15)))
          CFI (cfiCond150) V7 load(1, XDATA, add(CFA_XSP16, literal(-14)))
          CFI (cfiCond150) V8 load(1, XDATA, add(CFA_XSP16, literal(-13)))
          CFI (cfiCond150) V9 load(1, XDATA, add(CFA_XSP16, literal(-12)))
          CFI (cfiCond150) V10 load(1, XDATA, add(CFA_XSP16, literal(-11)))
          CFI (cfiCond150) V11 load(1, XDATA, add(CFA_XSP16, literal(-10)))
          CFI (cfiCond150) V12 load(1, XDATA, add(CFA_XSP16, literal(-9)))
          CFI (cfiCond150) V13 load(1, XDATA, add(CFA_XSP16, literal(-8)))
          CFI (cfiCond150) V14 load(1, XDATA, add(CFA_XSP16, literal(-7)))
          CFI (cfiCond150) R7 load(1, XDATA, add(CFA_XSP16, literal(-6)))
          CFI (cfiCond150) ?RET_LOW load(1, XDATA, add(CFA_XSP16, literal(-5)))
          CFI (cfiCond150) ?RET_HIGH load(1, XDATA, add(CFA_XSP16, literal(-4)))
          CFI (cfiCond150) ?BRET_EXT load(1, XDATA, add(CFA_XSP16, literal(-3)))
          CFI (cfiCond150) DPL0 load(1, XDATA, add(CFA_XSP16, literal(-2)))
          CFI (cfiCond150) DPH0 load(1, XDATA, add(CFA_XSP16, literal(-1)))
          CFI (cfiCond150) CFA_SP SP+-6
          CFI (cfiCond150) CFA_XSP16 add(XSP16, 23)
          CFI Block cfiCond151 Using cfiCommon0
          CFI (cfiCond151) Function MT_AfIncomingMsg
          CFI (cfiCond151) Conditional ??CrossCallReturnLabel_106, ??CrossCallReturnLabel_104, ??CrossCallReturnLabel_99
          CFI (cfiCond151) R6 load(1, XDATA, add(CFA_XSP16, literal(-23)))
          CFI (cfiCond151) VB load(1, XDATA, add(CFA_XSP16, literal(-22)))
          CFI (cfiCond151) V0 load(1, XDATA, add(CFA_XSP16, literal(-21)))
          CFI (cfiCond151) V1 load(1, XDATA, add(CFA_XSP16, literal(-20)))
          CFI (cfiCond151) V2 load(1, XDATA, add(CFA_XSP16, literal(-19)))
          CFI (cfiCond151) V3 load(1, XDATA, add(CFA_XSP16, literal(-18)))
          CFI (cfiCond151) V4 load(1, XDATA, add(CFA_XSP16, literal(-17)))
          CFI (cfiCond151) V5 load(1, XDATA, add(CFA_XSP16, literal(-16)))
          CFI (cfiCond151) V6 load(1, XDATA, add(CFA_XSP16, literal(-15)))
          CFI (cfiCond151) V7 load(1, XDATA, add(CFA_XSP16, literal(-14)))
          CFI (cfiCond151) V8 load(1, XDATA, add(CFA_XSP16, literal(-13)))
          CFI (cfiCond151) V9 load(1, XDATA, add(CFA_XSP16, literal(-12)))
          CFI (cfiCond151) V10 load(1, XDATA, add(CFA_XSP16, literal(-11)))
          CFI (cfiCond151) V11 load(1, XDATA, add(CFA_XSP16, literal(-10)))
          CFI (cfiCond151) V12 load(1, XDATA, add(CFA_XSP16, literal(-9)))
          CFI (cfiCond151) V13 load(1, XDATA, add(CFA_XSP16, literal(-8)))
          CFI (cfiCond151) V14 load(1, XDATA, add(CFA_XSP16, literal(-7)))
          CFI (cfiCond151) R7 load(1, XDATA, add(CFA_XSP16, literal(-6)))
          CFI (cfiCond151) ?RET_LOW load(1, XDATA, add(CFA_XSP16, literal(-5)))
          CFI (cfiCond151) ?RET_HIGH load(1, XDATA, add(CFA_XSP16, literal(-4)))
          CFI (cfiCond151) ?BRET_EXT load(1, XDATA, add(CFA_XSP16, literal(-3)))
          CFI (cfiCond151) DPL0 load(1, XDATA, add(CFA_XSP16, literal(-2)))
          CFI (cfiCond151) DPH0 load(1, XDATA, add(CFA_XSP16, literal(-1)))
          CFI (cfiCond151) CFA_SP SP+-6
          CFI (cfiCond151) CFA_XSP16 add(XSP16, 23)
          CFI Block cfiCond152 Using cfiCommon0
          CFI (cfiCond152) Function MT_AfIncomingMsg
          CFI (cfiCond152) Conditional ??CrossCallReturnLabel_106, ??CrossCallReturnLabel_104, ??CrossCallReturnLabel_100
          CFI (cfiCond152) R6 load(1, XDATA, add(CFA_XSP16, literal(-23)))
          CFI (cfiCond152) VB load(1, XDATA, add(CFA_XSP16, literal(-22)))
          CFI (cfiCond152) V0 load(1, XDATA, add(CFA_XSP16, literal(-21)))
          CFI (cfiCond152) V1 load(1, XDATA, add(CFA_XSP16, literal(-20)))
          CFI (cfiCond152) V2 load(1, XDATA, add(CFA_XSP16, literal(-19)))
          CFI (cfiCond152) V3 load(1, XDATA, add(CFA_XSP16, literal(-18)))
          CFI (cfiCond152) V4 load(1, XDATA, add(CFA_XSP16, literal(-17)))
          CFI (cfiCond152) V5 load(1, XDATA, add(CFA_XSP16, literal(-16)))
          CFI (cfiCond152) V6 load(1, XDATA, add(CFA_XSP16, literal(-15)))
          CFI (cfiCond152) V7 load(1, XDATA, add(CFA_XSP16, literal(-14)))
          CFI (cfiCond152) V8 load(1, XDATA, add(CFA_XSP16, literal(-13)))
          CFI (cfiCond152) V9 load(1, XDATA, add(CFA_XSP16, literal(-12)))
          CFI (cfiCond152) V10 load(1, XDATA, add(CFA_XSP16, literal(-11)))
          CFI (cfiCond152) V11 load(1, XDATA, add(CFA_XSP16, literal(-10)))
          CFI (cfiCond152) V12 load(1, XDATA, add(CFA_XSP16, literal(-9)))
          CFI (cfiCond152) V13 load(1, XDATA, add(CFA_XSP16, literal(-8)))
          CFI (cfiCond152) V14 load(1, XDATA, add(CFA_XSP16, literal(-7)))
          CFI (cfiCond152) R7 load(1, XDATA, add(CFA_XSP16, literal(-6)))
          CFI (cfiCond152) ?RET_LOW load(1, XDATA, add(CFA_XSP16, literal(-5)))
          CFI (cfiCond152) ?RET_HIGH load(1, XDATA, add(CFA_XSP16, literal(-4)))
          CFI (cfiCond152) ?BRET_EXT load(1, XDATA, add(CFA_XSP16, literal(-3)))
          CFI (cfiCond152) DPL0 load(1, XDATA, add(CFA_XSP16, literal(-2)))
          CFI (cfiCond152) DPH0 load(1, XDATA, add(CFA_XSP16, literal(-1)))
          CFI (cfiCond152) CFA_SP SP+-6
          CFI (cfiCond152) CFA_XSP16 add(XSP16, 23)
          CFI Block cfiCond153 Using cfiCommon0
          CFI (cfiCond153) Function MT_AfIncomingMsg
          CFI (cfiCond153) Conditional ??CrossCallReturnLabel_106, ??CrossCallReturnLabel_104, ??CrossCallReturnLabel_101
          CFI (cfiCond153) R6 load(1, XDATA, add(CFA_XSP16, literal(-23)))
          CFI (cfiCond153) VB load(1, XDATA, add(CFA_XSP16, literal(-22)))
          CFI (cfiCond153) V0 load(1, XDATA, add(CFA_XSP16, literal(-21)))
          CFI (cfiCond153) V1 load(1, XDATA, add(CFA_XSP16, literal(-20)))
          CFI (cfiCond153) V2 load(1, XDATA, add(CFA_XSP16, literal(-19)))
          CFI (cfiCond153) V3 load(1, XDATA, add(CFA_XSP16, literal(-18)))
          CFI (cfiCond153) V4 load(1, XDATA, add(CFA_XSP16, literal(-17)))
          CFI (cfiCond153) V5 load(1, XDATA, add(CFA_XSP16, literal(-16)))
          CFI (cfiCond153) V6 load(1, XDATA, add(CFA_XSP16, literal(-15)))
          CFI (cfiCond153) V7 load(1, XDATA, add(CFA_XSP16, literal(-14)))
          CFI (cfiCond153) V8 load(1, XDATA, add(CFA_XSP16, literal(-13)))
          CFI (cfiCond153) V9 load(1, XDATA, add(CFA_XSP16, literal(-12)))
          CFI (cfiCond153) V10 load(1, XDATA, add(CFA_XSP16, literal(-11)))
          CFI (cfiCond153) V11 load(1, XDATA, add(CFA_XSP16, literal(-10)))
          CFI (cfiCond153) V12 load(1, XDATA, add(CFA_XSP16, literal(-9)))
          CFI (cfiCond153) V13 load(1, XDATA, add(CFA_XSP16, literal(-8)))
          CFI (cfiCond153) V14 load(1, XDATA, add(CFA_XSP16, literal(-7)))
          CFI (cfiCond153) R7 load(1, XDATA, add(CFA_XSP16, literal(-6)))
          CFI (cfiCond153) ?RET_LOW load(1, XDATA, add(CFA_XSP16, literal(-5)))
          CFI (cfiCond153) ?RET_HIGH load(1, XDATA, add(CFA_XSP16, literal(-4)))
          CFI (cfiCond153) ?BRET_EXT load(1, XDATA, add(CFA_XSP16, literal(-3)))
          CFI (cfiCond153) DPL0 load(1, XDATA, add(CFA_XSP16, literal(-2)))
          CFI (cfiCond153) DPH0 load(1, XDATA, add(CFA_XSP16, literal(-1)))
          CFI (cfiCond153) CFA_SP SP+-6
          CFI (cfiCond153) CFA_XSP16 add(XSP16, 23)
          CFI Block cfiPicker154 Using cfiCommon1
          CFI (cfiPicker154) NoFunction
          CFI (cfiPicker154) Picker
        MOVX    @DPTR,A
        INC     DPTR
        MOV     ?V2,DPL
        MOV     ?V3,DPH
        RET
          CFI EndBlock cfiCond137
          CFI EndBlock cfiCond138
          CFI EndBlock cfiCond139
          CFI EndBlock cfiCond140
          CFI EndBlock cfiCond141
          CFI EndBlock cfiCond142
          CFI EndBlock cfiCond143
          CFI EndBlock cfiCond144
          CFI EndBlock cfiCond145
          CFI EndBlock cfiCond146
          CFI EndBlock cfiCond147
          CFI EndBlock cfiCond148
          CFI EndBlock cfiCond149
          CFI EndBlock cfiCond150
          CFI EndBlock cfiCond151
          CFI EndBlock cfiCond152
          CFI EndBlock cfiCond153
          CFI EndBlock cfiPicker154

        RSEG BANKED_CODE:CODE:NOROOT(0)
?Subroutine3:
          CFI Block cfiCond155 Using cfiCommon0
          CFI Function MT_AfIncomingMsg
          CFI Conditional ??CrossCallReturnLabel_0
          CFI R6 load(1, XDATA, add(CFA_XSP16, literal(-23)))
          CFI VB load(1, XDATA, add(CFA_XSP16, literal(-22)))
          CFI V0 load(1, XDATA, add(CFA_XSP16, literal(-21)))
          CFI V1 load(1, XDATA, add(CFA_XSP16, literal(-20)))
          CFI V2 load(1, XDATA, add(CFA_XSP16, literal(-19)))
          CFI V3 load(1, XDATA, add(CFA_XSP16, literal(-18)))
          CFI V4 load(1, XDATA, add(CFA_XSP16, literal(-17)))
          CFI V5 load(1, XDATA, add(CFA_XSP16, literal(-16)))
          CFI V6 load(1, XDATA, add(CFA_XSP16, literal(-15)))
          CFI V7 load(1, XDATA, add(CFA_XSP16, literal(-14)))
          CFI V8 load(1, XDATA, add(CFA_XSP16, literal(-13)))
          CFI V9 load(1, XDATA, add(CFA_XSP16, literal(-12)))
          CFI V10 load(1, XDATA, add(CFA_XSP16, literal(-11)))
          CFI V11 load(1, XDATA, add(CFA_XSP16, literal(-10)))
          CFI V12 load(1, XDATA, add(CFA_XSP16, literal(-9)))
          CFI V13 load(1, XDATA, add(CFA_XSP16, literal(-8)))
          CFI V14 load(1, XDATA, add(CFA_XSP16, literal(-7)))
          CFI R7 load(1, XDATA, add(CFA_XSP16, literal(-6)))
          CFI ?RET_LOW load(1, XDATA, add(CFA_XSP16, literal(-5)))
          CFI ?RET_HIGH load(1, XDATA, add(CFA_XSP16, literal(-4)))
          CFI ?BRET_EXT load(1, XDATA, add(CFA_XSP16, literal(-3)))
          CFI DPL0 load(1, XDATA, add(CFA_XSP16, literal(-2)))
          CFI DPH0 load(1, XDATA, add(CFA_XSP16, literal(-1)))
          CFI CFA_SP SP+-2
          CFI CFA_XSP16 add(XSP16, 23)
          CFI Block cfiCond156 Using cfiCommon0
          CFI (cfiCond156) Function MT_AfIncomingMsg
          CFI (cfiCond156) Conditional ??CrossCallReturnLabel_1
          CFI (cfiCond156) R6 load(1, XDATA, add(CFA_XSP16, literal(-23)))
          CFI (cfiCond156) VB load(1, XDATA, add(CFA_XSP16, literal(-22)))
          CFI (cfiCond156) V0 load(1, XDATA, add(CFA_XSP16, literal(-21)))
          CFI (cfiCond156) V1 load(1, XDATA, add(CFA_XSP16, literal(-20)))
          CFI (cfiCond156) V2 load(1, XDATA, add(CFA_XSP16, literal(-19)))
          CFI (cfiCond156) V3 load(1, XDATA, add(CFA_XSP16, literal(-18)))
          CFI (cfiCond156) V4 load(1, XDATA, add(CFA_XSP16, literal(-17)))
          CFI (cfiCond156) V5 load(1, XDATA, add(CFA_XSP16, literal(-16)))
          CFI (cfiCond156) V6 load(1, XDATA, add(CFA_XSP16, literal(-15)))
          CFI (cfiCond156) V7 load(1, XDATA, add(CFA_XSP16, literal(-14)))
          CFI (cfiCond156) V8 load(1, XDATA, add(CFA_XSP16, literal(-13)))
          CFI (cfiCond156) V9 load(1, XDATA, add(CFA_XSP16, literal(-12)))
          CFI (cfiCond156) V10 load(1, XDATA, add(CFA_XSP16, literal(-11)))
          CFI (cfiCond156) V11 load(1, XDATA, add(CFA_XSP16, literal(-10)))
          CFI (cfiCond156) V12 load(1, XDATA, add(CFA_XSP16, literal(-9)))
          CFI (cfiCond156) V13 load(1, XDATA, add(CFA_XSP16, literal(-8)))
          CFI (cfiCond156) V14 load(1, XDATA, add(CFA_XSP16, literal(-7)))
          CFI (cfiCond156) R7 load(1, XDATA, add(CFA_XSP16, literal(-6)))
          CFI (cfiCond156) ?RET_LOW load(1, XDATA, add(CFA_XSP16, literal(-5)))
          CFI (cfiCond156) ?RET_HIGH load(1, XDATA, add(CFA_XSP16, literal(-4)))
          CFI (cfiCond156) ?BRET_EXT load(1, XDATA, add(CFA_XSP16, literal(-3)))
          CFI (cfiCond156) DPL0 load(1, XDATA, add(CFA_XSP16, literal(-2)))
          CFI (cfiCond156) DPH0 load(1, XDATA, add(CFA_XSP16, literal(-1)))
          CFI (cfiCond156) CFA_SP SP+-2
          CFI (cfiCond156) CFA_XSP16 add(XSP16, 23)
          CFI Block cfiPicker157 Using cfiCommon1
          CFI (cfiPicker157) NoFunction
          CFI (cfiPicker157) Picker
        MOV     R0,A
        CLR     A
        ADDC    A,?V9
        MOV     R1,A
        MOV     DPL,R0
        MOV     DPH,R1
        LCALL   ?Subroutine31 & 0xFFFF
??CrossCallReturnLabel_102:
        MOV     DPL,R0
        MOV     DPH,R1
        INC     DPTR
        RET
          CFI EndBlock cfiCond155
          CFI EndBlock cfiCond156
          CFI EndBlock cfiPicker157

        RSEG BANKED_CODE:CODE:NOROOT(0)
?Subroutine1:
          CFI Block cfiCond158 Using cfiCommon0
          CFI Function MT_AfIncomingMsg
          CFI Conditional ??CrossCallReturnLabel_96
          CFI R6 load(1, XDATA, add(CFA_XSP16, literal(-23)))
          CFI VB load(1, XDATA, add(CFA_XSP16, literal(-22)))
          CFI V0 load(1, XDATA, add(CFA_XSP16, literal(-21)))
          CFI V1 load(1, XDATA, add(CFA_XSP16, literal(-20)))
          CFI V2 load(1, XDATA, add(CFA_XSP16, literal(-19)))
          CFI V3 load(1, XDATA, add(CFA_XSP16, literal(-18)))
          CFI V4 load(1, XDATA, add(CFA_XSP16, literal(-17)))
          CFI V5 load(1, XDATA, add(CFA_XSP16, literal(-16)))
          CFI V6 load(1, XDATA, add(CFA_XSP16, literal(-15)))
          CFI V7 load(1, XDATA, add(CFA_XSP16, literal(-14)))
          CFI V8 load(1, XDATA, add(CFA_XSP16, literal(-13)))
          CFI V9 load(1, XDATA, add(CFA_XSP16, literal(-12)))
          CFI V10 load(1, XDATA, add(CFA_XSP16, literal(-11)))
          CFI V11 load(1, XDATA, add(CFA_XSP16, literal(-10)))
          CFI V12 load(1, XDATA, add(CFA_XSP16, literal(-9)))
          CFI V13 load(1, XDATA, add(CFA_XSP16, literal(-8)))
          CFI V14 load(1, XDATA, add(CFA_XSP16, literal(-7)))
          CFI R7 load(1, XDATA, add(CFA_XSP16, literal(-6)))
          CFI ?RET_LOW load(1, XDATA, add(CFA_XSP16, literal(-5)))
          CFI ?RET_HIGH load(1, XDATA, add(CFA_XSP16, literal(-4)))
          CFI ?BRET_EXT load(1, XDATA, add(CFA_XSP16, literal(-3)))
          CFI DPL0 load(1, XDATA, add(CFA_XSP16, literal(-2)))
          CFI DPH0 load(1, XDATA, add(CFA_XSP16, literal(-1)))
          CFI CFA_SP SP+-2
          CFI CFA_XSP16 add(XSP16, 23)
          CFI Block cfiCond159 Using cfiCommon0
          CFI (cfiCond159) Function MT_AfIncomingMsg
          CFI (cfiCond159) Conditional ??CrossCallReturnLabel_97
          CFI (cfiCond159) R6 load(1, XDATA, add(CFA_XSP16, literal(-23)))
          CFI (cfiCond159) VB load(1, XDATA, add(CFA_XSP16, literal(-22)))
          CFI (cfiCond159) V0 load(1, XDATA, add(CFA_XSP16, literal(-21)))
          CFI (cfiCond159) V1 load(1, XDATA, add(CFA_XSP16, literal(-20)))
          CFI (cfiCond159) V2 load(1, XDATA, add(CFA_XSP16, literal(-19)))
          CFI (cfiCond159) V3 load(1, XDATA, add(CFA_XSP16, literal(-18)))
          CFI (cfiCond159) V4 load(1, XDATA, add(CFA_XSP16, literal(-17)))
          CFI (cfiCond159) V5 load(1, XDATA, add(CFA_XSP16, literal(-16)))
          CFI (cfiCond159) V6 load(1, XDATA, add(CFA_XSP16, literal(-15)))
          CFI (cfiCond159) V7 load(1, XDATA, add(CFA_XSP16, literal(-14)))
          CFI (cfiCond159) V8 load(1, XDATA, add(CFA_XSP16, literal(-13)))
          CFI (cfiCond159) V9 load(1, XDATA, add(CFA_XSP16, literal(-12)))
          CFI (cfiCond159) V10 load(1, XDATA, add(CFA_XSP16, literal(-11)))
          CFI (cfiCond159) V11 load(1, XDATA, add(CFA_XSP16, literal(-10)))
          CFI (cfiCond159) V12 load(1, XDATA, add(CFA_XSP16, literal(-9)))
          CFI (cfiCond159) V13 load(1, XDATA, add(CFA_XSP16, literal(-8)))
          CFI (cfiCond159) V14 load(1, XDATA, add(CFA_XSP16, literal(-7)))
          CFI (cfiCond159) R7 load(1, XDATA, add(CFA_XSP16, literal(-6)))
          CFI (cfiCond159) ?RET_LOW load(1, XDATA, add(CFA_XSP16, literal(-5)))
          CFI (cfiCond159) ?RET_HIGH load(1, XDATA, add(CFA_XSP16, literal(-4)))
          CFI (cfiCond159) ?BRET_EXT load(1, XDATA, add(CFA_XSP16, literal(-3)))
          CFI (cfiCond159) DPL0 load(1, XDATA, add(CFA_XSP16, literal(-2)))
          CFI (cfiCond159) DPH0 load(1, XDATA, add(CFA_XSP16, literal(-1)))
          CFI (cfiCond159) CFA_SP SP+-2
          CFI (cfiCond159) CFA_XSP16 add(XSP16, 23)
          CFI Block cfiCond160 Using cfiCommon0
          CFI (cfiCond160) Function MT_AfIncomingMsg
          CFI (cfiCond160) Conditional ??CrossCallReturnLabel_98
          CFI (cfiCond160) R6 load(1, XDATA, add(CFA_XSP16, literal(-23)))
          CFI (cfiCond160) VB load(1, XDATA, add(CFA_XSP16, literal(-22)))
          CFI (cfiCond160) V0 load(1, XDATA, add(CFA_XSP16, literal(-21)))
          CFI (cfiCond160) V1 load(1, XDATA, add(CFA_XSP16, literal(-20)))
          CFI (cfiCond160) V2 load(1, XDATA, add(CFA_XSP16, literal(-19)))
          CFI (cfiCond160) V3 load(1, XDATA, add(CFA_XSP16, literal(-18)))
          CFI (cfiCond160) V4 load(1, XDATA, add(CFA_XSP16, literal(-17)))
          CFI (cfiCond160) V5 load(1, XDATA, add(CFA_XSP16, literal(-16)))
          CFI (cfiCond160) V6 load(1, XDATA, add(CFA_XSP16, literal(-15)))
          CFI (cfiCond160) V7 load(1, XDATA, add(CFA_XSP16, literal(-14)))
          CFI (cfiCond160) V8 load(1, XDATA, add(CFA_XSP16, literal(-13)))
          CFI (cfiCond160) V9 load(1, XDATA, add(CFA_XSP16, literal(-12)))
          CFI (cfiCond160) V10 load(1, XDATA, add(CFA_XSP16, literal(-11)))
          CFI (cfiCond160) V11 load(1, XDATA, add(CFA_XSP16, literal(-10)))
          CFI (cfiCond160) V12 load(1, XDATA, add(CFA_XSP16, literal(-9)))
          CFI (cfiCond160) V13 load(1, XDATA, add(CFA_XSP16, literal(-8)))
          CFI (cfiCond160) V14 load(1, XDATA, add(CFA_XSP16, literal(-7)))
          CFI (cfiCond160) R7 load(1, XDATA, add(CFA_XSP16, literal(-6)))
          CFI (cfiCond160) ?RET_LOW load(1, XDATA, add(CFA_XSP16, literal(-5)))
          CFI (cfiCond160) ?RET_HIGH load(1, XDATA, add(CFA_XSP16, literal(-4)))
          CFI (cfiCond160) ?BRET_EXT load(1, XDATA, add(CFA_XSP16, literal(-3)))
          CFI (cfiCond160) DPL0 load(1, XDATA, add(CFA_XSP16, literal(-2)))
          CFI (cfiCond160) DPH0 load(1, XDATA, add(CFA_XSP16, literal(-1)))
          CFI (cfiCond160) CFA_SP SP+-2
          CFI (cfiCond160) CFA_XSP16 add(XSP16, 23)
          CFI Block cfiCond161 Using cfiCommon0
          CFI (cfiCond161) Function MT_AfIncomingMsg
          CFI (cfiCond161) Conditional ??CrossCallReturnLabel_99
          CFI (cfiCond161) R6 load(1, XDATA, add(CFA_XSP16, literal(-23)))
          CFI (cfiCond161) VB load(1, XDATA, add(CFA_XSP16, literal(-22)))
          CFI (cfiCond161) V0 load(1, XDATA, add(CFA_XSP16, literal(-21)))
          CFI (cfiCond161) V1 load(1, XDATA, add(CFA_XSP16, literal(-20)))
          CFI (cfiCond161) V2 load(1, XDATA, add(CFA_XSP16, literal(-19)))
          CFI (cfiCond161) V3 load(1, XDATA, add(CFA_XSP16, literal(-18)))
          CFI (cfiCond161) V4 load(1, XDATA, add(CFA_XSP16, literal(-17)))
          CFI (cfiCond161) V5 load(1, XDATA, add(CFA_XSP16, literal(-16)))
          CFI (cfiCond161) V6 load(1, XDATA, add(CFA_XSP16, literal(-15)))
          CFI (cfiCond161) V7 load(1, XDATA, add(CFA_XSP16, literal(-14)))
          CFI (cfiCond161) V8 load(1, XDATA, add(CFA_XSP16, literal(-13)))
          CFI (cfiCond161) V9 load(1, XDATA, add(CFA_XSP16, literal(-12)))
          CFI (cfiCond161) V10 load(1, XDATA, add(CFA_XSP16, literal(-11)))
          CFI (cfiCond161) V11 load(1, XDATA, add(CFA_XSP16, literal(-10)))
          CFI (cfiCond161) V12 load(1, XDATA, add(CFA_XSP16, literal(-9)))
          CFI (cfiCond161) V13 load(1, XDATA, add(CFA_XSP16, literal(-8)))
          CFI (cfiCond161) V14 load(1, XDATA, add(CFA_XSP16, literal(-7)))
          CFI (cfiCond161) R7 load(1, XDATA, add(CFA_XSP16, literal(-6)))
          CFI (cfiCond161) ?RET_LOW load(1, XDATA, add(CFA_XSP16, literal(-5)))
          CFI (cfiCond161) ?RET_HIGH load(1, XDATA, add(CFA_XSP16, literal(-4)))
          CFI (cfiCond161) ?BRET_EXT load(1, XDATA, add(CFA_XSP16, literal(-3)))
          CFI (cfiCond161) DPL0 load(1, XDATA, add(CFA_XSP16, literal(-2)))
          CFI (cfiCond161) DPH0 load(1, XDATA, add(CFA_XSP16, literal(-1)))
          CFI (cfiCond161) CFA_SP SP+-2
          CFI (cfiCond161) CFA_XSP16 add(XSP16, 23)
          CFI Block cfiPicker162 Using cfiCommon1
          CFI (cfiPicker162) NoFunction
          CFI (cfiPicker162) Picker
        MOV     DPL,A
        CLR     A
        ADDC    A,?V9
        MOV     DPH,A
          CFI EndBlock cfiCond158
          CFI EndBlock cfiCond159
          CFI EndBlock cfiCond160
          CFI EndBlock cfiCond161
          CFI EndBlock cfiPicker162
        REQUIRE ??Subroutine43_0
        ; // Fall through to label ??Subroutine43_0

        RSEG BANKED_CODE:CODE:NOROOT(0)
??Subroutine43_0:
          CFI Block cfiCond163 Using cfiCommon0
          CFI Function MT_AfIncomingMsg
          CFI Conditional ??CrossCallReturnLabel_100
          CFI R6 load(1, XDATA, add(CFA_XSP16, literal(-23)))
          CFI VB load(1, XDATA, add(CFA_XSP16, literal(-22)))
          CFI V0 load(1, XDATA, add(CFA_XSP16, literal(-21)))
          CFI V1 load(1, XDATA, add(CFA_XSP16, literal(-20)))
          CFI V2 load(1, XDATA, add(CFA_XSP16, literal(-19)))
          CFI V3 load(1, XDATA, add(CFA_XSP16, literal(-18)))
          CFI V4 load(1, XDATA, add(CFA_XSP16, literal(-17)))
          CFI V5 load(1, XDATA, add(CFA_XSP16, literal(-16)))
          CFI V6 load(1, XDATA, add(CFA_XSP16, literal(-15)))
          CFI V7 load(1, XDATA, add(CFA_XSP16, literal(-14)))
          CFI V8 load(1, XDATA, add(CFA_XSP16, literal(-13)))
          CFI V9 load(1, XDATA, add(CFA_XSP16, literal(-12)))
          CFI V10 load(1, XDATA, add(CFA_XSP16, literal(-11)))
          CFI V11 load(1, XDATA, add(CFA_XSP16, literal(-10)))
          CFI V12 load(1, XDATA, add(CFA_XSP16, literal(-9)))
          CFI V13 load(1, XDATA, add(CFA_XSP16, literal(-8)))
          CFI V14 load(1, XDATA, add(CFA_XSP16, literal(-7)))
          CFI R7 load(1, XDATA, add(CFA_XSP16, literal(-6)))
          CFI ?RET_LOW load(1, XDATA, add(CFA_XSP16, literal(-5)))
          CFI ?RET_HIGH load(1, XDATA, add(CFA_XSP16, literal(-4)))
          CFI ?BRET_EXT load(1, XDATA, add(CFA_XSP16, literal(-3)))
          CFI DPL0 load(1, XDATA, add(CFA_XSP16, literal(-2)))
          CFI DPH0 load(1, XDATA, add(CFA_XSP16, literal(-1)))
          CFI CFA_SP SP+-2
          CFI CFA_XSP16 add(XSP16, 23)
          CFI Block cfiCond164 Using cfiCommon0
          CFI (cfiCond164) Function MT_AfIncomingMsg
          CFI (cfiCond164) Conditional ??CrossCallReturnLabel_101
          CFI (cfiCond164) R6 load(1, XDATA, add(CFA_XSP16, literal(-23)))
          CFI (cfiCond164) VB load(1, XDATA, add(CFA_XSP16, literal(-22)))
          CFI (cfiCond164) V0 load(1, XDATA, add(CFA_XSP16, literal(-21)))
          CFI (cfiCond164) V1 load(1, XDATA, add(CFA_XSP16, literal(-20)))
          CFI (cfiCond164) V2 load(1, XDATA, add(CFA_XSP16, literal(-19)))
          CFI (cfiCond164) V3 load(1, XDATA, add(CFA_XSP16, literal(-18)))
          CFI (cfiCond164) V4 load(1, XDATA, add(CFA_XSP16, literal(-17)))
          CFI (cfiCond164) V5 load(1, XDATA, add(CFA_XSP16, literal(-16)))
          CFI (cfiCond164) V6 load(1, XDATA, add(CFA_XSP16, literal(-15)))
          CFI (cfiCond164) V7 load(1, XDATA, add(CFA_XSP16, literal(-14)))
          CFI (cfiCond164) V8 load(1, XDATA, add(CFA_XSP16, literal(-13)))
          CFI (cfiCond164) V9 load(1, XDATA, add(CFA_XSP16, literal(-12)))
          CFI (cfiCond164) V10 load(1, XDATA, add(CFA_XSP16, literal(-11)))
          CFI (cfiCond164) V11 load(1, XDATA, add(CFA_XSP16, literal(-10)))
          CFI (cfiCond164) V12 load(1, XDATA, add(CFA_XSP16, literal(-9)))
          CFI (cfiCond164) V13 load(1, XDATA, add(CFA_XSP16, literal(-8)))
          CFI (cfiCond164) V14 load(1, XDATA, add(CFA_XSP16, literal(-7)))
          CFI (cfiCond164) R7 load(1, XDATA, add(CFA_XSP16, literal(-6)))
          CFI (cfiCond164) ?RET_LOW load(1, XDATA, add(CFA_XSP16, literal(-5)))
          CFI (cfiCond164) ?RET_HIGH load(1, XDATA, add(CFA_XSP16, literal(-4)))
          CFI (cfiCond164) ?BRET_EXT load(1, XDATA, add(CFA_XSP16, literal(-3)))
          CFI (cfiCond164) DPL0 load(1, XDATA, add(CFA_XSP16, literal(-2)))
          CFI (cfiCond164) DPH0 load(1, XDATA, add(CFA_XSP16, literal(-1)))
          CFI (cfiCond164) CFA_SP SP+-2
          CFI (cfiCond164) CFA_XSP16 add(XSP16, 23)
          CFI Block cfiCond165 Using cfiCommon0
          CFI (cfiCond165) Function MT_AfIncomingMsg
          CFI (cfiCond165) Conditional ??CrossCallReturnLabel_96
          CFI (cfiCond165) R6 load(1, XDATA, add(CFA_XSP16, literal(-23)))
          CFI (cfiCond165) VB load(1, XDATA, add(CFA_XSP16, literal(-22)))
          CFI (cfiCond165) V0 load(1, XDATA, add(CFA_XSP16, literal(-21)))
          CFI (cfiCond165) V1 load(1, XDATA, add(CFA_XSP16, literal(-20)))
          CFI (cfiCond165) V2 load(1, XDATA, add(CFA_XSP16, literal(-19)))
          CFI (cfiCond165) V3 load(1, XDATA, add(CFA_XSP16, literal(-18)))
          CFI (cfiCond165) V4 load(1, XDATA, add(CFA_XSP16, literal(-17)))
          CFI (cfiCond165) V5 load(1, XDATA, add(CFA_XSP16, literal(-16)))
          CFI (cfiCond165) V6 load(1, XDATA, add(CFA_XSP16, literal(-15)))
          CFI (cfiCond165) V7 load(1, XDATA, add(CFA_XSP16, literal(-14)))
          CFI (cfiCond165) V8 load(1, XDATA, add(CFA_XSP16, literal(-13)))
          CFI (cfiCond165) V9 load(1, XDATA, add(CFA_XSP16, literal(-12)))
          CFI (cfiCond165) V10 load(1, XDATA, add(CFA_XSP16, literal(-11)))
          CFI (cfiCond165) V11 load(1, XDATA, add(CFA_XSP16, literal(-10)))
          CFI (cfiCond165) V12 load(1, XDATA, add(CFA_XSP16, literal(-9)))
          CFI (cfiCond165) V13 load(1, XDATA, add(CFA_XSP16, literal(-8)))
          CFI (cfiCond165) V14 load(1, XDATA, add(CFA_XSP16, literal(-7)))
          CFI (cfiCond165) R7 load(1, XDATA, add(CFA_XSP16, literal(-6)))
          CFI (cfiCond165) ?RET_LOW load(1, XDATA, add(CFA_XSP16, literal(-5)))
          CFI (cfiCond165) ?RET_HIGH load(1, XDATA, add(CFA_XSP16, literal(-4)))
          CFI (cfiCond165) ?BRET_EXT load(1, XDATA, add(CFA_XSP16, literal(-3)))
          CFI (cfiCond165) DPL0 load(1, XDATA, add(CFA_XSP16, literal(-2)))
          CFI (cfiCond165) DPH0 load(1, XDATA, add(CFA_XSP16, literal(-1)))
          CFI (cfiCond165) CFA_SP SP+-2
          CFI (cfiCond165) CFA_XSP16 add(XSP16, 23)
          CFI Block cfiCond166 Using cfiCommon0
          CFI (cfiCond166) Function MT_AfIncomingMsg
          CFI (cfiCond166) Conditional ??CrossCallReturnLabel_97
          CFI (cfiCond166) R6 load(1, XDATA, add(CFA_XSP16, literal(-23)))
          CFI (cfiCond166) VB load(1, XDATA, add(CFA_XSP16, literal(-22)))
          CFI (cfiCond166) V0 load(1, XDATA, add(CFA_XSP16, literal(-21)))
          CFI (cfiCond166) V1 load(1, XDATA, add(CFA_XSP16, literal(-20)))
          CFI (cfiCond166) V2 load(1, XDATA, add(CFA_XSP16, literal(-19)))
          CFI (cfiCond166) V3 load(1, XDATA, add(CFA_XSP16, literal(-18)))
          CFI (cfiCond166) V4 load(1, XDATA, add(CFA_XSP16, literal(-17)))
          CFI (cfiCond166) V5 load(1, XDATA, add(CFA_XSP16, literal(-16)))
          CFI (cfiCond166) V6 load(1, XDATA, add(CFA_XSP16, literal(-15)))
          CFI (cfiCond166) V7 load(1, XDATA, add(CFA_XSP16, literal(-14)))
          CFI (cfiCond166) V8 load(1, XDATA, add(CFA_XSP16, literal(-13)))
          CFI (cfiCond166) V9 load(1, XDATA, add(CFA_XSP16, literal(-12)))
          CFI (cfiCond166) V10 load(1, XDATA, add(CFA_XSP16, literal(-11)))
          CFI (cfiCond166) V11 load(1, XDATA, add(CFA_XSP16, literal(-10)))
          CFI (cfiCond166) V12 load(1, XDATA, add(CFA_XSP16, literal(-9)))
          CFI (cfiCond166) V13 load(1, XDATA, add(CFA_XSP16, literal(-8)))
          CFI (cfiCond166) V14 load(1, XDATA, add(CFA_XSP16, literal(-7)))
          CFI (cfiCond166) R7 load(1, XDATA, add(CFA_XSP16, literal(-6)))
          CFI (cfiCond166) ?RET_LOW load(1, XDATA, add(CFA_XSP16, literal(-5)))
          CFI (cfiCond166) ?RET_HIGH load(1, XDATA, add(CFA_XSP16, literal(-4)))
          CFI (cfiCond166) ?BRET_EXT load(1, XDATA, add(CFA_XSP16, literal(-3)))
          CFI (cfiCond166) DPL0 load(1, XDATA, add(CFA_XSP16, literal(-2)))
          CFI (cfiCond166) DPH0 load(1, XDATA, add(CFA_XSP16, literal(-1)))
          CFI (cfiCond166) CFA_SP SP+-2
          CFI (cfiCond166) CFA_XSP16 add(XSP16, 23)
          CFI Block cfiCond167 Using cfiCommon0
          CFI (cfiCond167) Function MT_AfIncomingMsg
          CFI (cfiCond167) Conditional ??CrossCallReturnLabel_98
          CFI (cfiCond167) R6 load(1, XDATA, add(CFA_XSP16, literal(-23)))
          CFI (cfiCond167) VB load(1, XDATA, add(CFA_XSP16, literal(-22)))
          CFI (cfiCond167) V0 load(1, XDATA, add(CFA_XSP16, literal(-21)))
          CFI (cfiCond167) V1 load(1, XDATA, add(CFA_XSP16, literal(-20)))
          CFI (cfiCond167) V2 load(1, XDATA, add(CFA_XSP16, literal(-19)))
          CFI (cfiCond167) V3 load(1, XDATA, add(CFA_XSP16, literal(-18)))
          CFI (cfiCond167) V4 load(1, XDATA, add(CFA_XSP16, literal(-17)))
          CFI (cfiCond167) V5 load(1, XDATA, add(CFA_XSP16, literal(-16)))
          CFI (cfiCond167) V6 load(1, XDATA, add(CFA_XSP16, literal(-15)))
          CFI (cfiCond167) V7 load(1, XDATA, add(CFA_XSP16, literal(-14)))
          CFI (cfiCond167) V8 load(1, XDATA, add(CFA_XSP16, literal(-13)))
          CFI (cfiCond167) V9 load(1, XDATA, add(CFA_XSP16, literal(-12)))
          CFI (cfiCond167) V10 load(1, XDATA, add(CFA_XSP16, literal(-11)))
          CFI (cfiCond167) V11 load(1, XDATA, add(CFA_XSP16, literal(-10)))
          CFI (cfiCond167) V12 load(1, XDATA, add(CFA_XSP16, literal(-9)))
          CFI (cfiCond167) V13 load(1, XDATA, add(CFA_XSP16, literal(-8)))
          CFI (cfiCond167) V14 load(1, XDATA, add(CFA_XSP16, literal(-7)))
          CFI (cfiCond167) R7 load(1, XDATA, add(CFA_XSP16, literal(-6)))
          CFI (cfiCond167) ?RET_LOW load(1, XDATA, add(CFA_XSP16, literal(-5)))
          CFI (cfiCond167) ?RET_HIGH load(1, XDATA, add(CFA_XSP16, literal(-4)))
          CFI (cfiCond167) ?BRET_EXT load(1, XDATA, add(CFA_XSP16, literal(-3)))
          CFI (cfiCond167) DPL0 load(1, XDATA, add(CFA_XSP16, literal(-2)))
          CFI (cfiCond167) DPH0 load(1, XDATA, add(CFA_XSP16, literal(-1)))
          CFI (cfiCond167) CFA_SP SP+-2
          CFI (cfiCond167) CFA_XSP16 add(XSP16, 23)
          CFI Block cfiCond168 Using cfiCommon0
          CFI (cfiCond168) Function MT_AfIncomingMsg
          CFI (cfiCond168) Conditional ??CrossCallReturnLabel_99
          CFI (cfiCond168) R6 load(1, XDATA, add(CFA_XSP16, literal(-23)))
          CFI (cfiCond168) VB load(1, XDATA, add(CFA_XSP16, literal(-22)))
          CFI (cfiCond168) V0 load(1, XDATA, add(CFA_XSP16, literal(-21)))
          CFI (cfiCond168) V1 load(1, XDATA, add(CFA_XSP16, literal(-20)))
          CFI (cfiCond168) V2 load(1, XDATA, add(CFA_XSP16, literal(-19)))
          CFI (cfiCond168) V3 load(1, XDATA, add(CFA_XSP16, literal(-18)))
          CFI (cfiCond168) V4 load(1, XDATA, add(CFA_XSP16, literal(-17)))
          CFI (cfiCond168) V5 load(1, XDATA, add(CFA_XSP16, literal(-16)))
          CFI (cfiCond168) V6 load(1, XDATA, add(CFA_XSP16, literal(-15)))
          CFI (cfiCond168) V7 load(1, XDATA, add(CFA_XSP16, literal(-14)))
          CFI (cfiCond168) V8 load(1, XDATA, add(CFA_XSP16, literal(-13)))
          CFI (cfiCond168) V9 load(1, XDATA, add(CFA_XSP16, literal(-12)))
          CFI (cfiCond168) V10 load(1, XDATA, add(CFA_XSP16, literal(-11)))
          CFI (cfiCond168) V11 load(1, XDATA, add(CFA_XSP16, literal(-10)))
          CFI (cfiCond168) V12 load(1, XDATA, add(CFA_XSP16, literal(-9)))
          CFI (cfiCond168) V13 load(1, XDATA, add(CFA_XSP16, literal(-8)))
          CFI (cfiCond168) V14 load(1, XDATA, add(CFA_XSP16, literal(-7)))
          CFI (cfiCond168) R7 load(1, XDATA, add(CFA_XSP16, literal(-6)))
          CFI (cfiCond168) ?RET_LOW load(1, XDATA, add(CFA_XSP16, literal(-5)))
          CFI (cfiCond168) ?RET_HIGH load(1, XDATA, add(CFA_XSP16, literal(-4)))
          CFI (cfiCond168) ?BRET_EXT load(1, XDATA, add(CFA_XSP16, literal(-3)))
          CFI (cfiCond168) DPL0 load(1, XDATA, add(CFA_XSP16, literal(-2)))
          CFI (cfiCond168) DPH0 load(1, XDATA, add(CFA_XSP16, literal(-1)))
          CFI (cfiCond168) CFA_SP SP+-2
          CFI (cfiCond168) CFA_XSP16 add(XSP16, 23)
          CFI Block cfiPicker169 Using cfiCommon1
          CFI (cfiPicker169) NoFunction
          CFI (cfiPicker169) Picker
        LCALL   ?Subroutine31 & 0xFFFF
??CrossCallReturnLabel_104:
        MOV     A,?V8
        RET
          CFI EndBlock cfiCond163
          CFI EndBlock cfiCond164
          CFI EndBlock cfiCond165
          CFI EndBlock cfiCond166
          CFI EndBlock cfiCond167
          CFI EndBlock cfiCond168
          CFI EndBlock cfiPicker169
//  758 
//  759 /**************************************************************************************************
//  760  * @fn          MT_AfDataRetrieve
//  761  *
//  762  * @brief   Process AF Data Retrieve command to incrementally read out a very large
//  763  *          incoming AF message.
//  764  *
//  765  * input parameters
//  766  *
//  767  * @param pBuf - pointer to the received buffer
//  768  *
//  769  * output parameters
//  770  *
//  771  * @param rtrn - AF-Status of the operation.
//  772  *
//  773  * @return      None.
//  774  **************************************************************************************************
//  775  */

        RSEG BANKED_CODE:CODE:NOROOT(0)
//  776 void MT_AfDataRetrieve(uint8 *pBuf)
MT_AfDataRetrieve:
          CFI Block cfiBlock170 Using cfiCommon0
          CFI Function MT_AfDataRetrieve
        CODE
//  777 {
        FUNCALL MT_AfDataRetrieve, osal_mem_free
        LOCFRAME ISTACK, 0, STACK
        LOCFRAME PSTACK, 0, STACK
        LOCFRAME XSTACK, 21, STACK
        LOCFRAME IOVERLAY, 0, STATIC
        LOCFRAME DOVERLAY, 0, STATIC
        ARGFRAME ISTACK, 0, STACK
        ARGFRAME PSTACK, 0, STACK
        ARGFRAME XSTACK, 21, STACK
        ARGFRAME IOVERLAY, 0, STATIC
        ARGFRAME DOVERLAY, 0, STATIC
        FUNCALL MT_AfDataRetrieve, MT_BuildAndSendZToolResponse
        LOCFRAME ISTACK, 0, STACK
        LOCFRAME PSTACK, 0, STACK
        LOCFRAME XSTACK, 21, STACK
        LOCFRAME IOVERLAY, 0, STATIC
        LOCFRAME DOVERLAY, 0, STATIC
        ARGFRAME ISTACK, 0, STACK
        ARGFRAME PSTACK, 0, STACK
        ARGFRAME XSTACK, 21, STACK
        ARGFRAME IOVERLAY, 0, STATIC
        ARGFRAME DOVERLAY, 0, STATIC
        FUNCALL MT_AfDataRetrieve, osal_mem_alloc
        LOCFRAME ISTACK, 0, STACK
        LOCFRAME PSTACK, 0, STACK
        LOCFRAME XSTACK, 21, STACK
        LOCFRAME IOVERLAY, 0, STATIC
        LOCFRAME DOVERLAY, 0, STATIC
        ARGFRAME ISTACK, 0, STACK
        ARGFRAME PSTACK, 0, STACK
        ARGFRAME XSTACK, 21, STACK
        ARGFRAME IOVERLAY, 0, STATIC
        ARGFRAME DOVERLAY, 0, STATIC
        FUNCALL MT_AfDataRetrieve, osal_memcpy
        LOCFRAME ISTACK, 0, STACK
        LOCFRAME PSTACK, 0, STACK
        LOCFRAME XSTACK, 24, STACK
        LOCFRAME IOVERLAY, 0, STATIC
        LOCFRAME DOVERLAY, 0, STATIC
        ARGFRAME ISTACK, 0, STACK
        ARGFRAME PSTACK, 0, STACK
        ARGFRAME XSTACK, 24, STACK
        ARGFRAME IOVERLAY, 0, STATIC
        ARGFRAME DOVERLAY, 0, STATIC
        FUNCALL MT_AfDataRetrieve, MT_BuildAndSendZToolResponse
        LOCFRAME ISTACK, 0, STACK
        LOCFRAME PSTACK, 0, STACK
        LOCFRAME XSTACK, 21, STACK
        LOCFRAME IOVERLAY, 0, STATIC
        LOCFRAME DOVERLAY, 0, STATIC
        ARGFRAME ISTACK, 0, STACK
        ARGFRAME PSTACK, 0, STACK
        ARGFRAME XSTACK, 21, STACK
        ARGFRAME IOVERLAY, 0, STATIC
        ARGFRAME DOVERLAY, 0, STATIC
        FUNCALL MT_AfDataRetrieve, osal_mem_free
        LOCFRAME ISTACK, 0, STACK
        LOCFRAME PSTACK, 0, STACK
        LOCFRAME XSTACK, 21, STACK
        LOCFRAME IOVERLAY, 0, STATIC
        LOCFRAME DOVERLAY, 0, STATIC
        ARGFRAME ISTACK, 0, STACK
        ARGFRAME PSTACK, 0, STACK
        ARGFRAME XSTACK, 21, STACK
        ARGFRAME IOVERLAY, 0, STATIC
        ARGFRAME DOVERLAY, 0, STATIC
        REQUIRE ?V0
        REQUIRE ?V1
        REQUIRE ?V2
        REQUIRE ?V3
        REQUIRE ?V4
        REQUIRE ?V5
        REQUIRE ?V6
        REQUIRE ?V7
        REQUIRE ?V8
        REQUIRE ?V9
        REQUIRE ?V10
        REQUIRE ?V11
        REQUIRE ?V12
        MOV     A,#-0x15
        LCALL   ?BANKED_ENTER_XDATA
          CFI DPH0 load(1, XDATA, add(CFA_XSP16, literal(-1)))
          CFI DPL0 load(1, XDATA, add(CFA_XSP16, literal(-2)))
          CFI ?BRET_EXT load(1, XDATA, add(CFA_XSP16, literal(-3)))
          CFI ?RET_HIGH load(1, XDATA, add(CFA_XSP16, literal(-4)))
          CFI ?RET_LOW load(1, XDATA, add(CFA_XSP16, literal(-5)))
          CFI R7 load(1, XDATA, add(CFA_XSP16, literal(-6)))
          CFI V12 load(1, XDATA, add(CFA_XSP16, literal(-7)))
          CFI V11 load(1, XDATA, add(CFA_XSP16, literal(-8)))
          CFI V10 load(1, XDATA, add(CFA_XSP16, literal(-9)))
          CFI V9 load(1, XDATA, add(CFA_XSP16, literal(-10)))
          CFI V8 load(1, XDATA, add(CFA_XSP16, literal(-11)))
          CFI V7 load(1, XDATA, add(CFA_XSP16, literal(-12)))
          CFI V6 load(1, XDATA, add(CFA_XSP16, literal(-13)))
          CFI V5 load(1, XDATA, add(CFA_XSP16, literal(-14)))
          CFI V4 load(1, XDATA, add(CFA_XSP16, literal(-15)))
          CFI V3 load(1, XDATA, add(CFA_XSP16, literal(-16)))
          CFI V2 load(1, XDATA, add(CFA_XSP16, literal(-17)))
          CFI V1 load(1, XDATA, add(CFA_XSP16, literal(-18)))
          CFI V0 load(1, XDATA, add(CFA_XSP16, literal(-19)))
          CFI VB load(1, XDATA, add(CFA_XSP16, literal(-20)))
          CFI R6 load(1, XDATA, add(CFA_XSP16, literal(-21)))
          CFI CFA_SP SP+0
          CFI CFA_XSP16 add(XSP16, 21)
        ; Saved register size: 21
        ; Auto size: 0
        MOV     ?V0,R2
        MOV     ?V1,R3
//  778   #define MT_AF_RTV_HDR_SZ  2
//  779 
//  780   uint32 timestamp;
//  781   mtAfInMsgList_t *pPrev, *pItem = pMtAfInMsgList;
        MOV     DPTR,#pMtAfInMsgList
        MOVX    A,@DPTR
        MOV     ?V2,A
        INC     DPTR
        MOVX    A,@DPTR
        MOV     ?V3,A
//  782   uint8 rtrn = afStatus_FAILED;
        MOV     R2,#0x1
//  783   uint8 len = 0;
        MOV     ?V12,#0x0
//  784 
//  785   pBuf += MT_RPC_FRAME_HDR_SZ;
        MOV     A,?V0
        ADD     A,#0x3
        MOV     ?V0,A
        JNC     ??MT_AfDataRetrieve_0
        INC     ?V1
//  786   timestamp = BUILD_UINT32(pBuf[0], pBuf[1], pBuf[2], pBuf[3]);
??MT_AfDataRetrieve_0:
        MOV     DPL,A
        MOV     DPH,?V1
        MOVX    A,@DPTR
        MOV     ?V4,A
        CLR     A
        MOV     ?V5,A
        MOV     ?V6,A
        MOV     ?V7,A
        INC     DPTR
        MOVX    A,@DPTR
        MOV     ?V8,A
        CLR     A
        MOV     ?V9,A
        MOV     ?V10,A
        MOV     ?V11,A
        MOV     A,#0x8
        MOV     R0,#?V8
        LCALL   ?L_SHL
        MOV     R0,#?V4
        MOV     R1,#?V8
        LCALL   ?L_ADD
        MOV     DPL,?V0
        MOV     DPH,?V1
        INC     DPTR
        INC     DPTR
        MOVX    A,@DPTR
        MOV     ?V8,A
        CLR     A
        MOV     ?V9,A
        MOV     A,#0x10
        MOV     R0,#?V8
        LCALL   ?L_SHL
        MOV     R0,#?V4
        MOV     R1,#?V8
        LCALL   ?L_ADD
        MOV     DPL,?V0
        MOV     DPH,?V1
        INC     DPTR
        INC     DPTR
        INC     DPTR
        MOVX    A,@DPTR
        MOV     ?V8,A
        CLR     A
        MOV     ?V10,A
        MOV     A,#0x18
        MOV     R0,#?V8
        LCALL   ?L_SHL
        MOV     R0,#?V4
        MOV     R1,#?V8
        LCALL   ?L_ADD
        SJMP    ??MT_AfDataRetrieve_1
//  787 
//  788   while (pItem != NULL)
//  789   {
//  790     pPrev = pItem;
//  791     if (pItem->timestamp == timestamp)
//  792     {
//  793       break;
//  794     }
//  795     pItem = pItem->next;
??MT_AfDataRetrieve_2:
        MOV     DPL,R4
        MOV     DPH,R5
        MOVX    A,@DPTR
        MOV     ?V2,A
        INC     DPTR
        MOVX    A,@DPTR
        MOV     ?V3,A
??MT_AfDataRetrieve_1:
        MOV     A,?V2
        ORL     A,?V3
        JZ      ??MT_AfDataRetrieve_3
        MOV     R4,?V2
        MOV     R5,?V3
        MOV     DPL,R4
        MOV     DPH,R5
        INC     DPTR
        INC     DPTR
        INC     DPTR
        INC     DPTR
        MOV     R0,#?V4
        LCALL   ?L_EQ_X
        JNZ     ??MT_AfDataRetrieve_2
//  796   }
//  797 
//  798   if (pItem != NULL)
//  799   {
//  800     uint16 idx;
//  801     uint8 *pRsp;
//  802 
//  803     pBuf += 4;
        MOV     A,?V0
        ADD     A,#0x4
        MOV     ?V0,A
        JNC     ??MT_AfDataRetrieve_4
        INC     ?V1
//  804     idx = BUILD_UINT16(pBuf[0], pBuf[1]);
??MT_AfDataRetrieve_4:
        MOV     DPL,A
        MOV     DPH,?V1
        LCALL   ?Subroutine4 & 0xFFFF
//  805     len = pBuf[2];
??CrossCallReturnLabel_3:
        MOV     DPL,?V0
        MOV     DPH,?V1
        INC     DPTR
        INC     DPTR
        MOVX    A,@DPTR
        MOV     ?V12,A
//  806 
//  807     if (len == 0)  // Indication to delete the afIncomingMSGPacket.
        JNZ     ??MT_AfDataRetrieve_5
//  808     {
//  809       if (pMtAfInMsgList == pItem)
        LCALL   ?Subroutine21 & 0xFFFF
??CrossCallReturnLabel_111:
        MOV     A,R4
        XRL     A,R0
        JNZ     ??MT_AfDataRetrieve_6
        MOV     A,R5
        XRL     A,R1
??MT_AfDataRetrieve_6:
        MOV     DPL,R4
        MOV     DPH,R5
        JNZ     ??MT_AfDataRetrieve_7
//  810       {
//  811         pMtAfInMsgList = pItem->next;
        LCALL   ?Subroutine20 & 0xFFFF
//  812       }
??CrossCallReturnLabel_34:
        SJMP    ??MT_AfDataRetrieve_8
//  813       else
//  814       {
//  815         pPrev->next = pItem->next;
??MT_AfDataRetrieve_7:
        LCALL   ??Subroutine44_0 & 0xFFFF
//  816       }
??CrossCallReturnLabel_108:
        MOV     DPL,R4
        MOV     DPH,R5
??MT_AfDataRetrieve_8:
        LCALL   ?Subroutine27 & 0xFFFF
//  817       (void)osal_mem_free(pItem);
??CrossCallReturnLabel_52:
        ; Setup parameters for call to function osal_mem_free
        MOV     R2,?V2
        MOV     R3,?V3
        LCALL   ??osal_mem_free?relay; Banked call to: osal_mem_free
//  818       rtrn = afStatus_SUCCESS;
        MOV     R2,#0x0
//  819     }
//  820     else if ((pRsp = osal_mem_alloc(len + MT_AF_RTV_HDR_SZ)) == NULL)
//  821     {
//  822       rtrn = afStatus_MEM_FAIL;
//  823       len = 0;
//  824     }
//  825     else
//  826     {
//  827       pRsp[0] = ZSuccess;
//  828       pRsp[1] = len;
//  829       (void)osal_memcpy(pRsp + MT_AF_RTV_HDR_SZ, pItem->data+idx, len);
//  830       MT_BuildAndSendZToolResponse(((uint8)MT_RPC_CMD_SRSP | (uint8)MT_RPC_SYS_AF),
//  831                                            MT_AF_DATA_RETRIEVE, len + MT_AF_RTV_HDR_SZ, pRsp);
//  832       (void)osal_mem_free(pRsp);
//  833       return;
//  834     }
//  835   }
//  836 
//  837   pBuf[0] = rtrn;
??MT_AfDataRetrieve_3:
        MOV     A,R2
        MOV     DPL,?V0
        MOV     DPH,?V1
        MOVX    @DPTR,A
//  838   pBuf[1] = len;
        INC     DPTR
        MOV     A,?V12
        MOVX    @DPTR,A
//  839   MT_BuildAndSendZToolResponse(((uint8)MT_RPC_CMD_SRSP | (uint8)MT_RPC_SYS_AF),
//  840                                        MT_AF_DATA_RETRIEVE, MT_AF_RTV_HDR_SZ, pBuf);
        ; Setup parameters for call to function MT_BuildAndSendZToolResponse
        MOV     R4,?V0
        MOV     R5,?V1
        MOV     R3,#0x2
        MOV     R2,#0x12
        MOV     R1,#0x64
        LCALL   ??MT_BuildAndSendZToolResponse?relay; Banked call to: MT_BuildAndSendZToolResponse
//  841 }
??MT_AfDataRetrieve_9:
        MOV     R7,#0xd
        LJMP    ?BANKED_LEAVE_XDATA
??MT_AfDataRetrieve_5:
        ; Setup parameters for call to function osal_mem_alloc
        ADD     A,#0x2
        MOV     R2,A
        CLR     A
        ADDC    A,#0x0
        MOV     R3,A
        LCALL   ??osal_mem_alloc?relay; Banked call to: osal_mem_alloc
        MOV     ?V6,R2
        MOV     ?V7,R3
        MOV     R6,?V6
        MOV     R7,?V7
        MOV     A,R6
        ORL     A,R7
        JNZ     ??MT_AfDataRetrieve_10
        MOV     R2,#0x10
        MOV     ?V12,#0x0
        SJMP    ??MT_AfDataRetrieve_3
??MT_AfDataRetrieve_10:
        MOV     DPL,R6
        MOV     DPH,R7
        CLR     A
        MOVX    @DPTR,A
        INC     DPTR
        MOV     A,?V12
        MOVX    @DPTR,A
        ; Setup parameters for call to function osal_memcpy
        MOV     DPL,?V2
        MOV     DPH,?V3
        INC     DPTR
        INC     DPTR
        MOVX    A,@DPTR
        ADD     A,?V4
        MOV     ?V0,A
        INC     DPTR
        MOVX    A,@DPTR
        ADDC    A,?V5
        MOV     ?V1,A
        MOV     ?V2,#0x0
        MOV     R0,#?V0
        LCALL   ?PUSH_XSTACK_I_THREE
          CFI CFA_XSP16 add(XSP16, 24)
        MOV     ?V0,?V12
        MOV     R4,?V0
        MOV     R5,#0x0
        MOV     A,R6
        ADD     A,#0x2
        MOV     R2,A
        CLR     A
        ADDC    A,R7
        MOV     R3,A
        LCALL   ??osal_memcpy?relay  ; Banked call to: osal_memcpy
        MOV     A,#0x3
        LCALL   ?DEALLOC_XSTACK8
          CFI CFA_XSP16 add(XSP16, 21)
        ; Setup parameters for call to function MT_BuildAndSendZToolResponse
        MOV     A,R6
        MOV     R4,A
        MOV     A,R7
        MOV     R5,A
        MOV     A,#0x2
        ADD     A,?V12
        MOV     R3,A
        MOV     R2,#0x12
        MOV     R1,#0x64
        LCALL   ??MT_BuildAndSendZToolResponse?relay; Banked call to: MT_BuildAndSendZToolResponse
        ; Setup parameters for call to function osal_mem_free
        MOV     A,R6
        MOV     R2,A
        MOV     A,R7
        MOV     R3,A
        LCALL   ??osal_mem_free?relay; Banked call to: osal_mem_free
        SJMP    ??MT_AfDataRetrieve_9
          CFI EndBlock cfiBlock170

        RSEG BANKED_CODE:CODE:NOROOT(0)
?Subroutine21:
          CFI Block cfiCond171 Using cfiCommon0
          CFI Function MT_AfExec
          CFI Conditional ??CrossCallReturnLabel_109
          CFI R6 load(1, XDATA, add(CFA_XSP16, literal(-9)))
          CFI VB load(1, XDATA, add(CFA_XSP16, literal(-8)))
          CFI V0 load(1, XDATA, add(CFA_XSP16, literal(-7)))
          CFI R7 load(1, XDATA, add(CFA_XSP16, literal(-6)))
          CFI ?RET_LOW load(1, XDATA, add(CFA_XSP16, literal(-5)))
          CFI ?RET_HIGH load(1, XDATA, add(CFA_XSP16, literal(-4)))
          CFI ?BRET_EXT load(1, XDATA, add(CFA_XSP16, literal(-3)))
          CFI DPL0 load(1, XDATA, add(CFA_XSP16, literal(-2)))
          CFI DPH0 load(1, XDATA, add(CFA_XSP16, literal(-1)))
          CFI CFA_SP SP+-2
          CFI CFA_XSP16 add(XSP16, 9)
          CFI Block cfiCond172 Using cfiCommon0
          CFI (cfiCond172) Function MT_AfIncomingMsg
          CFI (cfiCond172) Conditional ??CrossCallReturnLabel_110
          CFI (cfiCond172) R6 load(1, XDATA, add(CFA_XSP16, literal(-23)))
          CFI (cfiCond172) VB load(1, XDATA, add(CFA_XSP16, literal(-22)))
          CFI (cfiCond172) V0 load(1, XDATA, add(CFA_XSP16, literal(-21)))
          CFI (cfiCond172) V1 load(1, XDATA, add(CFA_XSP16, literal(-20)))
          CFI (cfiCond172) V2 load(1, XDATA, add(CFA_XSP16, literal(-19)))
          CFI (cfiCond172) V3 load(1, XDATA, add(CFA_XSP16, literal(-18)))
          CFI (cfiCond172) V4 load(1, XDATA, add(CFA_XSP16, literal(-17)))
          CFI (cfiCond172) V5 load(1, XDATA, add(CFA_XSP16, literal(-16)))
          CFI (cfiCond172) V6 load(1, XDATA, add(CFA_XSP16, literal(-15)))
          CFI (cfiCond172) V7 load(1, XDATA, add(CFA_XSP16, literal(-14)))
          CFI (cfiCond172) V8 load(1, XDATA, add(CFA_XSP16, literal(-13)))
          CFI (cfiCond172) V9 load(1, XDATA, add(CFA_XSP16, literal(-12)))
          CFI (cfiCond172) V10 load(1, XDATA, add(CFA_XSP16, literal(-11)))
          CFI (cfiCond172) V11 load(1, XDATA, add(CFA_XSP16, literal(-10)))
          CFI (cfiCond172) V12 load(1, XDATA, add(CFA_XSP16, literal(-9)))
          CFI (cfiCond172) V13 load(1, XDATA, add(CFA_XSP16, literal(-8)))
          CFI (cfiCond172) V14 load(1, XDATA, add(CFA_XSP16, literal(-7)))
          CFI (cfiCond172) R7 load(1, XDATA, add(CFA_XSP16, literal(-6)))
          CFI (cfiCond172) ?RET_LOW load(1, XDATA, add(CFA_XSP16, literal(-5)))
          CFI (cfiCond172) ?RET_HIGH load(1, XDATA, add(CFA_XSP16, literal(-4)))
          CFI (cfiCond172) ?BRET_EXT load(1, XDATA, add(CFA_XSP16, literal(-3)))
          CFI (cfiCond172) DPL0 load(1, XDATA, add(CFA_XSP16, literal(-2)))
          CFI (cfiCond172) DPH0 load(1, XDATA, add(CFA_XSP16, literal(-1)))
          CFI (cfiCond172) CFA_SP SP+-2
          CFI (cfiCond172) CFA_XSP16 add(XSP16, 23)
          CFI Block cfiCond173 Using cfiCommon0
          CFI (cfiCond173) Function MT_AfDataRetrieve
          CFI (cfiCond173) Conditional ??CrossCallReturnLabel_111
          CFI (cfiCond173) R6 load(1, XDATA, add(CFA_XSP16, literal(-21)))
          CFI (cfiCond173) VB load(1, XDATA, add(CFA_XSP16, literal(-20)))
          CFI (cfiCond173) V0 load(1, XDATA, add(CFA_XSP16, literal(-19)))
          CFI (cfiCond173) V1 load(1, XDATA, add(CFA_XSP16, literal(-18)))
          CFI (cfiCond173) V2 load(1, XDATA, add(CFA_XSP16, literal(-17)))
          CFI (cfiCond173) V3 load(1, XDATA, add(CFA_XSP16, literal(-16)))
          CFI (cfiCond173) V4 load(1, XDATA, add(CFA_XSP16, literal(-15)))
          CFI (cfiCond173) V5 load(1, XDATA, add(CFA_XSP16, literal(-14)))
          CFI (cfiCond173) V6 load(1, XDATA, add(CFA_XSP16, literal(-13)))
          CFI (cfiCond173) V7 load(1, XDATA, add(CFA_XSP16, literal(-12)))
          CFI (cfiCond173) V8 load(1, XDATA, add(CFA_XSP16, literal(-11)))
          CFI (cfiCond173) V9 load(1, XDATA, add(CFA_XSP16, literal(-10)))
          CFI (cfiCond173) V10 load(1, XDATA, add(CFA_XSP16, literal(-9)))
          CFI (cfiCond173) V11 load(1, XDATA, add(CFA_XSP16, literal(-8)))
          CFI (cfiCond173) V12 load(1, XDATA, add(CFA_XSP16, literal(-7)))
          CFI (cfiCond173) R7 load(1, XDATA, add(CFA_XSP16, literal(-6)))
          CFI (cfiCond173) ?RET_LOW load(1, XDATA, add(CFA_XSP16, literal(-5)))
          CFI (cfiCond173) ?RET_HIGH load(1, XDATA, add(CFA_XSP16, literal(-4)))
          CFI (cfiCond173) ?BRET_EXT load(1, XDATA, add(CFA_XSP16, literal(-3)))
          CFI (cfiCond173) DPL0 load(1, XDATA, add(CFA_XSP16, literal(-2)))
          CFI (cfiCond173) DPH0 load(1, XDATA, add(CFA_XSP16, literal(-1)))
          CFI (cfiCond173) CFA_SP SP+-2
          CFI (cfiCond173) CFA_XSP16 add(XSP16, 21)
          CFI Block cfiPicker174 Using cfiCommon1
          CFI (cfiPicker174) NoFunction
          CFI (cfiPicker174) Picker
        MOV     DPTR,#pMtAfInMsgList
          CFI EndBlock cfiCond171
          CFI EndBlock cfiCond172
          CFI EndBlock cfiCond173
          CFI EndBlock cfiPicker174
        REQUIRE ??Subroutine44_0
        ; // Fall through to label ??Subroutine44_0

        RSEG BANKED_CODE:CODE:NOROOT(0)
??Subroutine44_0:
          CFI Block cfiCond175 Using cfiCommon0
          CFI Function MT_AfExec
          CFI Conditional ??CrossCallReturnLabel_107
          CFI R6 load(1, XDATA, add(CFA_XSP16, literal(-9)))
          CFI VB load(1, XDATA, add(CFA_XSP16, literal(-8)))
          CFI V0 load(1, XDATA, add(CFA_XSP16, literal(-7)))
          CFI R7 load(1, XDATA, add(CFA_XSP16, literal(-6)))
          CFI ?RET_LOW load(1, XDATA, add(CFA_XSP16, literal(-5)))
          CFI ?RET_HIGH load(1, XDATA, add(CFA_XSP16, literal(-4)))
          CFI ?BRET_EXT load(1, XDATA, add(CFA_XSP16, literal(-3)))
          CFI DPL0 load(1, XDATA, add(CFA_XSP16, literal(-2)))
          CFI DPH0 load(1, XDATA, add(CFA_XSP16, literal(-1)))
          CFI CFA_SP SP+-2
          CFI CFA_XSP16 add(XSP16, 9)
          CFI Block cfiCond176 Using cfiCommon0
          CFI (cfiCond176) Function MT_AfDataRetrieve
          CFI (cfiCond176) Conditional ??CrossCallReturnLabel_108
          CFI (cfiCond176) R6 load(1, XDATA, add(CFA_XSP16, literal(-21)))
          CFI (cfiCond176) VB load(1, XDATA, add(CFA_XSP16, literal(-20)))
          CFI (cfiCond176) V0 load(1, XDATA, add(CFA_XSP16, literal(-19)))
          CFI (cfiCond176) V1 load(1, XDATA, add(CFA_XSP16, literal(-18)))
          CFI (cfiCond176) V2 load(1, XDATA, add(CFA_XSP16, literal(-17)))
          CFI (cfiCond176) V3 load(1, XDATA, add(CFA_XSP16, literal(-16)))
          CFI (cfiCond176) V4 load(1, XDATA, add(CFA_XSP16, literal(-15)))
          CFI (cfiCond176) V5 load(1, XDATA, add(CFA_XSP16, literal(-14)))
          CFI (cfiCond176) V6 load(1, XDATA, add(CFA_XSP16, literal(-13)))
          CFI (cfiCond176) V7 load(1, XDATA, add(CFA_XSP16, literal(-12)))
          CFI (cfiCond176) V8 load(1, XDATA, add(CFA_XSP16, literal(-11)))
          CFI (cfiCond176) V9 load(1, XDATA, add(CFA_XSP16, literal(-10)))
          CFI (cfiCond176) V10 load(1, XDATA, add(CFA_XSP16, literal(-9)))
          CFI (cfiCond176) V11 load(1, XDATA, add(CFA_XSP16, literal(-8)))
          CFI (cfiCond176) V12 load(1, XDATA, add(CFA_XSP16, literal(-7)))
          CFI (cfiCond176) R7 load(1, XDATA, add(CFA_XSP16, literal(-6)))
          CFI (cfiCond176) ?RET_LOW load(1, XDATA, add(CFA_XSP16, literal(-5)))
          CFI (cfiCond176) ?RET_HIGH load(1, XDATA, add(CFA_XSP16, literal(-4)))
          CFI (cfiCond176) ?BRET_EXT load(1, XDATA, add(CFA_XSP16, literal(-3)))
          CFI (cfiCond176) DPL0 load(1, XDATA, add(CFA_XSP16, literal(-2)))
          CFI (cfiCond176) DPH0 load(1, XDATA, add(CFA_XSP16, literal(-1)))
          CFI (cfiCond176) CFA_SP SP+-2
          CFI (cfiCond176) CFA_XSP16 add(XSP16, 21)
          CFI Block cfiCond177 Using cfiCommon0
          CFI (cfiCond177) Function MT_AfExec
          CFI (cfiCond177) Conditional ??CrossCallReturnLabel_109
          CFI (cfiCond177) R6 load(1, XDATA, add(CFA_XSP16, literal(-9)))
          CFI (cfiCond177) VB load(1, XDATA, add(CFA_XSP16, literal(-8)))
          CFI (cfiCond177) V0 load(1, XDATA, add(CFA_XSP16, literal(-7)))
          CFI (cfiCond177) R7 load(1, XDATA, add(CFA_XSP16, literal(-6)))
          CFI (cfiCond177) ?RET_LOW load(1, XDATA, add(CFA_XSP16, literal(-5)))
          CFI (cfiCond177) ?RET_HIGH load(1, XDATA, add(CFA_XSP16, literal(-4)))
          CFI (cfiCond177) ?BRET_EXT load(1, XDATA, add(CFA_XSP16, literal(-3)))
          CFI (cfiCond177) DPL0 load(1, XDATA, add(CFA_XSP16, literal(-2)))
          CFI (cfiCond177) DPH0 load(1, XDATA, add(CFA_XSP16, literal(-1)))
          CFI (cfiCond177) CFA_SP SP+-2
          CFI (cfiCond177) CFA_XSP16 add(XSP16, 9)
          CFI Block cfiCond178 Using cfiCommon0
          CFI (cfiCond178) Function MT_AfIncomingMsg
          CFI (cfiCond178) Conditional ??CrossCallReturnLabel_110
          CFI (cfiCond178) R6 load(1, XDATA, add(CFA_XSP16, literal(-23)))
          CFI (cfiCond178) VB load(1, XDATA, add(CFA_XSP16, literal(-22)))
          CFI (cfiCond178) V0 load(1, XDATA, add(CFA_XSP16, literal(-21)))
          CFI (cfiCond178) V1 load(1, XDATA, add(CFA_XSP16, literal(-20)))
          CFI (cfiCond178) V2 load(1, XDATA, add(CFA_XSP16, literal(-19)))
          CFI (cfiCond178) V3 load(1, XDATA, add(CFA_XSP16, literal(-18)))
          CFI (cfiCond178) V4 load(1, XDATA, add(CFA_XSP16, literal(-17)))
          CFI (cfiCond178) V5 load(1, XDATA, add(CFA_XSP16, literal(-16)))
          CFI (cfiCond178) V6 load(1, XDATA, add(CFA_XSP16, literal(-15)))
          CFI (cfiCond178) V7 load(1, XDATA, add(CFA_XSP16, literal(-14)))
          CFI (cfiCond178) V8 load(1, XDATA, add(CFA_XSP16, literal(-13)))
          CFI (cfiCond178) V9 load(1, XDATA, add(CFA_XSP16, literal(-12)))
          CFI (cfiCond178) V10 load(1, XDATA, add(CFA_XSP16, literal(-11)))
          CFI (cfiCond178) V11 load(1, XDATA, add(CFA_XSP16, literal(-10)))
          CFI (cfiCond178) V12 load(1, XDATA, add(CFA_XSP16, literal(-9)))
          CFI (cfiCond178) V13 load(1, XDATA, add(CFA_XSP16, literal(-8)))
          CFI (cfiCond178) V14 load(1, XDATA, add(CFA_XSP16, literal(-7)))
          CFI (cfiCond178) R7 load(1, XDATA, add(CFA_XSP16, literal(-6)))
          CFI (cfiCond178) ?RET_LOW load(1, XDATA, add(CFA_XSP16, literal(-5)))
          CFI (cfiCond178) ?RET_HIGH load(1, XDATA, add(CFA_XSP16, literal(-4)))
          CFI (cfiCond178) ?BRET_EXT load(1, XDATA, add(CFA_XSP16, literal(-3)))
          CFI (cfiCond178) DPL0 load(1, XDATA, add(CFA_XSP16, literal(-2)))
          CFI (cfiCond178) DPH0 load(1, XDATA, add(CFA_XSP16, literal(-1)))
          CFI (cfiCond178) CFA_SP SP+-2
          CFI (cfiCond178) CFA_XSP16 add(XSP16, 23)
          CFI Block cfiCond179 Using cfiCommon0
          CFI (cfiCond179) Function MT_AfDataRetrieve
          CFI (cfiCond179) Conditional ??CrossCallReturnLabel_111
          CFI (cfiCond179) R6 load(1, XDATA, add(CFA_XSP16, literal(-21)))
          CFI (cfiCond179) VB load(1, XDATA, add(CFA_XSP16, literal(-20)))
          CFI (cfiCond179) V0 load(1, XDATA, add(CFA_XSP16, literal(-19)))
          CFI (cfiCond179) V1 load(1, XDATA, add(CFA_XSP16, literal(-18)))
          CFI (cfiCond179) V2 load(1, XDATA, add(CFA_XSP16, literal(-17)))
          CFI (cfiCond179) V3 load(1, XDATA, add(CFA_XSP16, literal(-16)))
          CFI (cfiCond179) V4 load(1, XDATA, add(CFA_XSP16, literal(-15)))
          CFI (cfiCond179) V5 load(1, XDATA, add(CFA_XSP16, literal(-14)))
          CFI (cfiCond179) V6 load(1, XDATA, add(CFA_XSP16, literal(-13)))
          CFI (cfiCond179) V7 load(1, XDATA, add(CFA_XSP16, literal(-12)))
          CFI (cfiCond179) V8 load(1, XDATA, add(CFA_XSP16, literal(-11)))
          CFI (cfiCond179) V9 load(1, XDATA, add(CFA_XSP16, literal(-10)))
          CFI (cfiCond179) V10 load(1, XDATA, add(CFA_XSP16, literal(-9)))
          CFI (cfiCond179) V11 load(1, XDATA, add(CFA_XSP16, literal(-8)))
          CFI (cfiCond179) V12 load(1, XDATA, add(CFA_XSP16, literal(-7)))
          CFI (cfiCond179) R7 load(1, XDATA, add(CFA_XSP16, literal(-6)))
          CFI (cfiCond179) ?RET_LOW load(1, XDATA, add(CFA_XSP16, literal(-5)))
          CFI (cfiCond179) ?RET_HIGH load(1, XDATA, add(CFA_XSP16, literal(-4)))
          CFI (cfiCond179) ?BRET_EXT load(1, XDATA, add(CFA_XSP16, literal(-3)))
          CFI (cfiCond179) DPL0 load(1, XDATA, add(CFA_XSP16, literal(-2)))
          CFI (cfiCond179) DPH0 load(1, XDATA, add(CFA_XSP16, literal(-1)))
          CFI (cfiCond179) CFA_SP SP+-2
          CFI (cfiCond179) CFA_XSP16 add(XSP16, 21)
          CFI Block cfiPicker180 Using cfiCommon1
          CFI (cfiPicker180) NoFunction
          CFI (cfiPicker180) Picker
        MOVX    A,@DPTR
        MOV     R0,A
        INC     DPTR
        MOVX    A,@DPTR
        MOV     R1,A
        RET
          CFI EndBlock cfiCond175
          CFI EndBlock cfiCond176
          CFI EndBlock cfiCond177
          CFI EndBlock cfiCond178
          CFI EndBlock cfiCond179
          CFI EndBlock cfiPicker180

        RSEG BANKED_CODE:CODE:NOROOT(0)
?Subroutine20:
          CFI Block cfiCond181 Using cfiCommon0
          CFI Function MT_AfExec
          CFI Conditional ??CrossCallReturnLabel_33
          CFI R6 load(1, XDATA, add(CFA_XSP16, literal(-9)))
          CFI VB load(1, XDATA, add(CFA_XSP16, literal(-8)))
          CFI V0 load(1, XDATA, add(CFA_XSP16, literal(-7)))
          CFI R7 load(1, XDATA, add(CFA_XSP16, literal(-6)))
          CFI ?RET_LOW load(1, XDATA, add(CFA_XSP16, literal(-5)))
          CFI ?RET_HIGH load(1, XDATA, add(CFA_XSP16, literal(-4)))
          CFI ?BRET_EXT load(1, XDATA, add(CFA_XSP16, literal(-3)))
          CFI DPL0 load(1, XDATA, add(CFA_XSP16, literal(-2)))
          CFI DPH0 load(1, XDATA, add(CFA_XSP16, literal(-1)))
          CFI CFA_SP SP+-2
          CFI CFA_XSP16 add(XSP16, 9)
          CFI Block cfiCond182 Using cfiCommon0
          CFI (cfiCond182) Function MT_AfDataRetrieve
          CFI (cfiCond182) Conditional ??CrossCallReturnLabel_34
          CFI (cfiCond182) R6 load(1, XDATA, add(CFA_XSP16, literal(-21)))
          CFI (cfiCond182) VB load(1, XDATA, add(CFA_XSP16, literal(-20)))
          CFI (cfiCond182) V0 load(1, XDATA, add(CFA_XSP16, literal(-19)))
          CFI (cfiCond182) V1 load(1, XDATA, add(CFA_XSP16, literal(-18)))
          CFI (cfiCond182) V2 load(1, XDATA, add(CFA_XSP16, literal(-17)))
          CFI (cfiCond182) V3 load(1, XDATA, add(CFA_XSP16, literal(-16)))
          CFI (cfiCond182) V4 load(1, XDATA, add(CFA_XSP16, literal(-15)))
          CFI (cfiCond182) V5 load(1, XDATA, add(CFA_XSP16, literal(-14)))
          CFI (cfiCond182) V6 load(1, XDATA, add(CFA_XSP16, literal(-13)))
          CFI (cfiCond182) V7 load(1, XDATA, add(CFA_XSP16, literal(-12)))
          CFI (cfiCond182) V8 load(1, XDATA, add(CFA_XSP16, literal(-11)))
          CFI (cfiCond182) V9 load(1, XDATA, add(CFA_XSP16, literal(-10)))
          CFI (cfiCond182) V10 load(1, XDATA, add(CFA_XSP16, literal(-9)))
          CFI (cfiCond182) V11 load(1, XDATA, add(CFA_XSP16, literal(-8)))
          CFI (cfiCond182) V12 load(1, XDATA, add(CFA_XSP16, literal(-7)))
          CFI (cfiCond182) R7 load(1, XDATA, add(CFA_XSP16, literal(-6)))
          CFI (cfiCond182) ?RET_LOW load(1, XDATA, add(CFA_XSP16, literal(-5)))
          CFI (cfiCond182) ?RET_HIGH load(1, XDATA, add(CFA_XSP16, literal(-4)))
          CFI (cfiCond182) ?BRET_EXT load(1, XDATA, add(CFA_XSP16, literal(-3)))
          CFI (cfiCond182) DPL0 load(1, XDATA, add(CFA_XSP16, literal(-2)))
          CFI (cfiCond182) DPH0 load(1, XDATA, add(CFA_XSP16, literal(-1)))
          CFI (cfiCond182) CFA_SP SP+-2
          CFI (cfiCond182) CFA_XSP16 add(XSP16, 21)
          CFI Block cfiPicker183 Using cfiCommon1
          CFI (cfiPicker183) NoFunction
          CFI (cfiPicker183) Picker
        MOVX    A,@DPTR
        MOV     R0,A
        INC     DPTR
        MOVX    A,@DPTR
        MOV     R1,A
        MOV     DPTR,#pMtAfInMsgList
        RET
          CFI EndBlock cfiCond181
          CFI EndBlock cfiCond182
          CFI EndBlock cfiPicker183

        RSEG BANKED_CODE:CODE:NOROOT(0)
?Subroutine4:
          CFI Block cfiCond184 Using cfiCommon0
          CFI Function MT_AfDataRequestSrcRtg
          CFI Conditional ??CrossCallReturnLabel_2
          CFI R6 load(1, XDATA, add(CFA_XSP16, literal(-20)))
          CFI VB load(1, XDATA, add(CFA_XSP16, literal(-19)))
          CFI V0 load(1, XDATA, add(CFA_XSP16, literal(-18)))
          CFI V1 load(1, XDATA, add(CFA_XSP16, literal(-17)))
          CFI V2 load(1, XDATA, add(CFA_XSP16, literal(-16)))
          CFI V3 load(1, XDATA, add(CFA_XSP16, literal(-15)))
          CFI V4 load(1, XDATA, add(CFA_XSP16, literal(-14)))
          CFI V5 load(1, XDATA, add(CFA_XSP16, literal(-13)))
          CFI V6 load(1, XDATA, add(CFA_XSP16, literal(-12)))
          CFI V7 load(1, XDATA, add(CFA_XSP16, literal(-11)))
          CFI V8 load(1, XDATA, add(CFA_XSP16, literal(-10)))
          CFI V9 load(1, XDATA, add(CFA_XSP16, literal(-9)))
          CFI V10 load(1, XDATA, add(CFA_XSP16, literal(-8)))
          CFI V11 load(1, XDATA, add(CFA_XSP16, literal(-7)))
          CFI R7 load(1, XDATA, add(CFA_XSP16, literal(-6)))
          CFI ?RET_LOW load(1, XDATA, add(CFA_XSP16, literal(-5)))
          CFI ?RET_HIGH load(1, XDATA, add(CFA_XSP16, literal(-4)))
          CFI ?BRET_EXT load(1, XDATA, add(CFA_XSP16, literal(-3)))
          CFI DPL0 load(1, XDATA, add(CFA_XSP16, literal(-2)))
          CFI DPH0 load(1, XDATA, add(CFA_XSP16, literal(-1)))
          CFI CFA_SP SP+-2
          CFI CFA_XSP16 add(XSP16, 34)
          CFI Block cfiCond185 Using cfiCommon0
          CFI (cfiCond185) Function MT_AfDataRetrieve
          CFI (cfiCond185) Conditional ??CrossCallReturnLabel_3
          CFI (cfiCond185) R6 load(1, XDATA, add(CFA_XSP16, literal(-21)))
          CFI (cfiCond185) VB load(1, XDATA, add(CFA_XSP16, literal(-20)))
          CFI (cfiCond185) V0 load(1, XDATA, add(CFA_XSP16, literal(-19)))
          CFI (cfiCond185) V1 load(1, XDATA, add(CFA_XSP16, literal(-18)))
          CFI (cfiCond185) V2 load(1, XDATA, add(CFA_XSP16, literal(-17)))
          CFI (cfiCond185) V3 load(1, XDATA, add(CFA_XSP16, literal(-16)))
          CFI (cfiCond185) V4 load(1, XDATA, add(CFA_XSP16, literal(-15)))
          CFI (cfiCond185) V5 load(1, XDATA, add(CFA_XSP16, literal(-14)))
          CFI (cfiCond185) V6 load(1, XDATA, add(CFA_XSP16, literal(-13)))
          CFI (cfiCond185) V7 load(1, XDATA, add(CFA_XSP16, literal(-12)))
          CFI (cfiCond185) V8 load(1, XDATA, add(CFA_XSP16, literal(-11)))
          CFI (cfiCond185) V9 load(1, XDATA, add(CFA_XSP16, literal(-10)))
          CFI (cfiCond185) V10 load(1, XDATA, add(CFA_XSP16, literal(-9)))
          CFI (cfiCond185) V11 load(1, XDATA, add(CFA_XSP16, literal(-8)))
          CFI (cfiCond185) V12 load(1, XDATA, add(CFA_XSP16, literal(-7)))
          CFI (cfiCond185) R7 load(1, XDATA, add(CFA_XSP16, literal(-6)))
          CFI (cfiCond185) ?RET_LOW load(1, XDATA, add(CFA_XSP16, literal(-5)))
          CFI (cfiCond185) ?RET_HIGH load(1, XDATA, add(CFA_XSP16, literal(-4)))
          CFI (cfiCond185) ?BRET_EXT load(1, XDATA, add(CFA_XSP16, literal(-3)))
          CFI (cfiCond185) DPL0 load(1, XDATA, add(CFA_XSP16, literal(-2)))
          CFI (cfiCond185) DPH0 load(1, XDATA, add(CFA_XSP16, literal(-1)))
          CFI (cfiCond185) CFA_SP SP+-2
          CFI (cfiCond185) CFA_XSP16 add(XSP16, 21)
          CFI Block cfiPicker186 Using cfiCommon1
          CFI (cfiPicker186) NoFunction
          CFI (cfiPicker186) Picker
        MOVX    A,@DPTR
        MOV     R2,A
        INC     DPTR
        MOVX    A,@DPTR
        MOV     R0,A
        CLR     A
        XCH     A,R0
        MOV     R1,A
        MOV     A,R2
        ADD     A,R0
        MOV     ?V4,A
        CLR     A
        ADDC    A,R1
        MOV     ?V5,A
        RET
          CFI EndBlock cfiCond184
          CFI EndBlock cfiCond185
          CFI EndBlock cfiPicker186
//  842 
//  843 /**************************************************************************************************
//  844  * @fn          MT_AfDataStore
//  845  *
//  846  * @brief   Process AF Data Store command to incrementally store the data buffer for very large
//  847  *          outgoing AF message.
//  848  *
//  849  * input parameters
//  850  *
//  851  * @param pBuf - pointer to the received buffer
//  852  *
//  853  * output parameters
//  854  *
//  855  * @param rtrn - AF-Status of the operation.
//  856  *
//  857  * @return      None.
//  858  **************************************************************************************************
//  859  */

        RSEG BANKED_CODE:CODE:NOROOT(0)
//  860 void MT_AfDataStore(uint8 *pBuf)
MT_AfDataStore:
          CFI Block cfiBlock187 Using cfiCommon0
          CFI Function MT_AfDataStore
        CODE
//  861 {
        FUNCALL MT_AfDataStore, AF_DataRequest
        LOCFRAME ISTACK, 0, STACK
        LOCFRAME PSTACK, 0, STACK
        LOCFRAME XSTACK, 21, STACK
        LOCFRAME IOVERLAY, 0, STATIC
        LOCFRAME DOVERLAY, 0, STATIC
        ARGFRAME ISTACK, 0, STACK
        ARGFRAME PSTACK, 0, STACK
        ARGFRAME XSTACK, 21, STACK
        ARGFRAME IOVERLAY, 0, STATIC
        ARGFRAME DOVERLAY, 0, STATIC
        FUNCALL MT_AfDataStore, osal_mem_free
        LOCFRAME ISTACK, 0, STACK
        LOCFRAME PSTACK, 0, STACK
        LOCFRAME XSTACK, 12, STACK
        LOCFRAME IOVERLAY, 0, STATIC
        LOCFRAME DOVERLAY, 0, STATIC
        ARGFRAME ISTACK, 0, STACK
        ARGFRAME PSTACK, 0, STACK
        ARGFRAME XSTACK, 12, STACK
        ARGFRAME IOVERLAY, 0, STATIC
        ARGFRAME DOVERLAY, 0, STATIC
        FUNCALL MT_AfDataStore, osal_memcpy
        LOCFRAME ISTACK, 0, STACK
        LOCFRAME PSTACK, 0, STACK
        LOCFRAME XSTACK, 15, STACK
        LOCFRAME IOVERLAY, 0, STATIC
        LOCFRAME DOVERLAY, 0, STATIC
        ARGFRAME ISTACK, 0, STACK
        ARGFRAME PSTACK, 0, STACK
        ARGFRAME XSTACK, 15, STACK
        ARGFRAME IOVERLAY, 0, STATIC
        ARGFRAME DOVERLAY, 0, STATIC
        FUNCALL MT_AfDataStore, MT_BuildAndSendZToolResponse
        LOCFRAME ISTACK, 0, STACK
        LOCFRAME PSTACK, 0, STACK
        LOCFRAME XSTACK, 12, STACK
        LOCFRAME IOVERLAY, 0, STATIC
        LOCFRAME DOVERLAY, 0, STATIC
        ARGFRAME ISTACK, 0, STACK
        ARGFRAME PSTACK, 0, STACK
        ARGFRAME XSTACK, 12, STACK
        ARGFRAME IOVERLAY, 0, STATIC
        ARGFRAME DOVERLAY, 0, STATIC
        REQUIRE ?V0
        REQUIRE ?V1
        REQUIRE ?V2
        MOV     A,#-0xb
        LCALL   ?BANKED_ENTER_XDATA
          CFI DPH0 load(1, XDATA, add(CFA_XSP16, literal(-1)))
          CFI DPL0 load(1, XDATA, add(CFA_XSP16, literal(-2)))
          CFI ?BRET_EXT load(1, XDATA, add(CFA_XSP16, literal(-3)))
          CFI ?RET_HIGH load(1, XDATA, add(CFA_XSP16, literal(-4)))
          CFI ?RET_LOW load(1, XDATA, add(CFA_XSP16, literal(-5)))
          CFI R7 load(1, XDATA, add(CFA_XSP16, literal(-6)))
          CFI V2 load(1, XDATA, add(CFA_XSP16, literal(-7)))
          CFI V1 load(1, XDATA, add(CFA_XSP16, literal(-8)))
          CFI V0 load(1, XDATA, add(CFA_XSP16, literal(-9)))
          CFI VB load(1, XDATA, add(CFA_XSP16, literal(-10)))
          CFI R6 load(1, XDATA, add(CFA_XSP16, literal(-11)))
          CFI CFA_SP SP+0
          CFI CFA_XSP16 add(XSP16, 11)
        ; Saved register size: 11
        ; Auto size: 1
        MOV     A,#-0x1
        LCALL   ?ALLOC_XSTACK8
          CFI CFA_XSP16 add(XSP16, 12)
//  862   uint16 idx;
//  863   uint8 len, rtrn = afStatus_FAILED;
        MOV     DPL,?XSP + 0
        MOV     DPH,?XSP + 1
        MOV     A,#0x1
        MOVX    @DPTR,A
//  864 
//  865   pBuf += MT_RPC_FRAME_HDR_SZ;
        MOV     A,R2
        ADD     A,#0x3
        MOV     R2,A
        JNC     ??MT_AfDataStore_0
        INC     R3
//  866   idx = BUILD_UINT16(pBuf[0], pBuf[1]);
??MT_AfDataStore_0:
        MOV     DPL,R2
        MOV     DPH,R3
        MOVX    A,@DPTR
        MOV     R4,A
        INC     DPTR
        MOVX    A,@DPTR
        MOV     R0,A
        CLR     A
        XCH     A,R0
        MOV     R1,A
        MOV     A,R4
        ADD     A,R0
        MOV     R6,A
        CLR     A
        ADDC    A,R1
        MOV     R7,A
//  867   len = pBuf[2];
        MOV     DPL,R2
        MOV     DPH,R3
        INC     DPTR
        INC     DPTR
        MOVX    A,@DPTR
        MOV     R4,A
//  868   pBuf += 3;
        MOV     A,R2
        ADD     A,#0x3
        MOV     R2,A
        JNC     ??MT_AfDataStore_1
        INC     R3
//  869 
//  870   if (pMtAfDataReq == NULL)
??MT_AfDataStore_1:
        LCALL   ?Subroutine2 & 0xFFFF
??CrossCallReturnLabel_86:
        JNZ     ??MT_AfDataStore_2
//  871   {
//  872     rtrn = afStatus_MEM_FAIL;
        MOV     DPL,?XSP + 0
        MOV     DPH,?XSP + 1
        MOV     A,#0x10
        LJMP    ??MT_AfDataStore_3 & 0xFFFF
//  873   }
//  874   else if (len == 0)  // Indication to send the message.
??MT_AfDataStore_2:
        MOV     A,R4
        JNZ     ??MT_AfDataStore_4
//  875   {
//  876     rtrn = AF_DataRequest(&(pMtAfDataReq->dstAddr), pMtAfDataReq->epDesc, pMtAfDataReq->cId,
//  877                             pMtAfDataReq->dataLen,  pMtAfDataReq->data,
//  878                           &(pMtAfDataReq->transId), pMtAfDataReq->txOpts, pMtAfDataReq->radius);
        ; Setup parameters for call to function AF_DataRequest
        LCALL   ?Subroutine14 & 0xFFFF
??CrossCallReturnLabel_23:
        MOVX    A,@DPTR
        MOV     ?V0,A
        MOV     R0,#?V0
        LCALL   ?PUSH_XSTACK_I_ONE
          CFI CFA_XSP16 add(XSP16, 13)
        MOV     DPTR,#pMtAfDataReq
        MOVX    A,@DPTR
        ADD     A,#0x14
        MOV     ?V0,A
        INC     DPTR
        MOVX    A,@DPTR
        ADDC    A,#0x0
        MOV     ?V1,A
        MOV     R0,#?V0
        LCALL   ?PUSH_XSTACK_I_TWO
          CFI CFA_XSP16 add(XSP16, 15)
        LCALL   ?Subroutine8 & 0xFFFF
??CrossCallReturnLabel_12:
        LCALL   ?PUSH_XSTACK8_X_TWO
          CFI CFA_XSP16 add(XSP16, 17)
        LCALL   ?Subroutine11 & 0xFFFF
??CrossCallReturnLabel_19:
        LCALL   ?PUSH_XSTACK8_X_TWO
          CFI CFA_XSP16 add(XSP16, 19)
        LCALL   ?Subroutine10 & 0xFFFF
??CrossCallReturnLabel_17:
        LCALL   ?PUSH_XSTACK8_X_TWO
          CFI CFA_XSP16 add(XSP16, 21)
        LCALL   ?Subroutine12 & 0xFFFF
??CrossCallReturnLabel_21:
        MOVX    A,@DPTR
        MOV     R1,A
        LCALL   ?Subroutine9 & 0xFFFF
??CrossCallReturnLabel_15:
        MOVX    A,@DPTR
        MOV     R4,A
        INC     DPTR
        MOVX    A,@DPTR
        MOV     R5,A
        LCALL   ?Subroutine16 & 0xFFFF
??CrossCallReturnLabel_25:
        LCALL   ??AF_DataRequest?relay; Banked call to: AF_DataRequest
        MOV     A,#0x9
        LCALL   ?DEALLOC_XSTACK8
          CFI CFA_XSP16 add(XSP16, 12)
        MOV     A,R1
        MOV     DPL,?XSP + 0
        MOV     DPH,?XSP + 1
        MOVX    @DPTR,A
//  879     (void)osal_mem_free(pMtAfDataReq);
        ; Setup parameters for call to function osal_mem_free
        LCALL   ?Subroutine15 & 0xFFFF
??CrossCallReturnLabel_95:
        LCALL   ??osal_mem_free?relay; Banked call to: osal_mem_free
//  880     pMtAfDataReq = NULL;
        MOV     DPTR,#pMtAfDataReq
        CLR     A
        MOVX    @DPTR,A
        INC     DPTR
        SJMP    ??MT_AfDataStore_3
//  881   }
//  882   else
//  883   {
//  884     (void)osal_memcpy(pMtAfDataReq->data+idx, pBuf, len);
??MT_AfDataStore_4:
        ; Setup parameters for call to function osal_memcpy
        MOV     ?V0,R2
        MOV     ?V1,R3
        MOV     ?V2,#0x0
        MOV     R0,#?V0
        LCALL   ?PUSH_XSTACK_I_THREE
          CFI CFA_XSP16 add(XSP16, 15)
        MOV     R5,#0x0
        LCALL   ?Subroutine8 & 0xFFFF
??CrossCallReturnLabel_13:
        MOVX    A,@DPTR
        ADD     A,R6
        MOV     R2,A
        INC     DPTR
        MOVX    A,@DPTR
        ADDC    A,R7
        MOV     R3,A
        LCALL   ??osal_memcpy?relay  ; Banked call to: osal_memcpy
        MOV     A,#0x3
        LCALL   ?DEALLOC_XSTACK8
          CFI CFA_XSP16 add(XSP16, 12)
//  885     rtrn = afStatus_SUCCESS;
        MOV     DPL,?XSP + 0
        MOV     DPH,?XSP + 1
        CLR     A
??MT_AfDataStore_3:
        MOVX    @DPTR,A
//  886   }
//  887 
//  888   MT_BuildAndSendZToolResponse(((uint8)MT_RPC_CMD_SRSP | (uint8)MT_RPC_SYS_AF),
//  889                                                                 MT_AF_DATA_STORE, 1, &rtrn);
        ; Setup parameters for call to function MT_BuildAndSendZToolResponse
        MOV     R4,?XSP + 0
        MOV     R5,?XSP + 1
        MOV     R3,#0x1
        MOV     R2,#0x11
        MOV     R1,#0x64
        LCALL   ??MT_BuildAndSendZToolResponse?relay; Banked call to: MT_BuildAndSendZToolResponse
//  890 }
        MOV     A,#0x1
        LCALL   ?DEALLOC_XSTACK8
          CFI CFA_XSP16 add(XSP16, 11)
        MOV     R7,#0x3
        LJMP    ?BANKED_LEAVE_XDATA
          CFI EndBlock cfiBlock187

        RSEG BANKED_CODE:CODE:NOROOT(0)
?Subroutine16:
          CFI Block cfiCond188 Using cfiCommon0
          CFI Function MT_AfDataRequest
          CFI Conditional ??CrossCallReturnLabel_24
          CFI R6 load(1, XDATA, add(CFA_XSP16, literal(-22)))
          CFI VB load(1, XDATA, add(CFA_XSP16, literal(-21)))
          CFI V0 load(1, XDATA, add(CFA_XSP16, literal(-20)))
          CFI V1 load(1, XDATA, add(CFA_XSP16, literal(-19)))
          CFI V2 load(1, XDATA, add(CFA_XSP16, literal(-18)))
          CFI V3 load(1, XDATA, add(CFA_XSP16, literal(-17)))
          CFI V4 load(1, XDATA, add(CFA_XSP16, literal(-16)))
          CFI V5 load(1, XDATA, add(CFA_XSP16, literal(-15)))
          CFI V6 load(1, XDATA, add(CFA_XSP16, literal(-14)))
          CFI V7 load(1, XDATA, add(CFA_XSP16, literal(-13)))
          CFI V8 load(1, XDATA, add(CFA_XSP16, literal(-12)))
          CFI V9 load(1, XDATA, add(CFA_XSP16, literal(-11)))
          CFI V10 load(1, XDATA, add(CFA_XSP16, literal(-10)))
          CFI V11 load(1, XDATA, add(CFA_XSP16, literal(-9)))
          CFI V12 load(1, XDATA, add(CFA_XSP16, literal(-8)))
          CFI V13 load(1, XDATA, add(CFA_XSP16, literal(-7)))
          CFI R7 load(1, XDATA, add(CFA_XSP16, literal(-6)))
          CFI ?RET_LOW load(1, XDATA, add(CFA_XSP16, literal(-5)))
          CFI ?RET_HIGH load(1, XDATA, add(CFA_XSP16, literal(-4)))
          CFI ?BRET_EXT load(1, XDATA, add(CFA_XSP16, literal(-3)))
          CFI DPL0 load(1, XDATA, add(CFA_XSP16, literal(-2)))
          CFI DPH0 load(1, XDATA, add(CFA_XSP16, literal(-1)))
          CFI CFA_SP SP+-2
          CFI CFA_XSP16 add(XSP16, 39)
          CFI Block cfiCond189 Using cfiCommon0
          CFI (cfiCond189) Function MT_AfDataStore
          CFI (cfiCond189) Conditional ??CrossCallReturnLabel_25
          CFI (cfiCond189) R6 load(1, XDATA, add(CFA_XSP16, literal(-11)))
          CFI (cfiCond189) VB load(1, XDATA, add(CFA_XSP16, literal(-10)))
          CFI (cfiCond189) V0 load(1, XDATA, add(CFA_XSP16, literal(-9)))
          CFI (cfiCond189) V1 load(1, XDATA, add(CFA_XSP16, literal(-8)))
          CFI (cfiCond189) V2 load(1, XDATA, add(CFA_XSP16, literal(-7)))
          CFI (cfiCond189) R7 load(1, XDATA, add(CFA_XSP16, literal(-6)))
          CFI (cfiCond189) ?RET_LOW load(1, XDATA, add(CFA_XSP16, literal(-5)))
          CFI (cfiCond189) ?RET_HIGH load(1, XDATA, add(CFA_XSP16, literal(-4)))
          CFI (cfiCond189) ?BRET_EXT load(1, XDATA, add(CFA_XSP16, literal(-3)))
          CFI (cfiCond189) DPL0 load(1, XDATA, add(CFA_XSP16, literal(-2)))
          CFI (cfiCond189) DPH0 load(1, XDATA, add(CFA_XSP16, literal(-1)))
          CFI (cfiCond189) CFA_SP SP+-2
          CFI (cfiCond189) CFA_XSP16 add(XSP16, 21)
          CFI Block cfiPicker190 Using cfiCommon1
          CFI (cfiPicker190) NoFunction
          CFI (cfiPicker190) Picker
        MOV     DPTR,#pMtAfDataReq
        MOVX    A,@DPTR
        ADD     A,#0x2
        MOV     R2,A
        INC     DPTR
        MOVX    A,@DPTR
        ADDC    A,#0x0
        MOV     R3,A
        RET
          CFI EndBlock cfiCond188
          CFI EndBlock cfiCond189
          CFI EndBlock cfiPicker190

        RSEG BANKED_CODE:CODE:NOROOT(0)
?Subroutine14:
          CFI Block cfiCond191 Using cfiCommon0
          CFI Function MT_AfDataRequest
          CFI Conditional ??CrossCallReturnLabel_22
          CFI R6 load(1, XDATA, add(CFA_XSP16, literal(-22)))
          CFI VB load(1, XDATA, add(CFA_XSP16, literal(-21)))
          CFI V0 load(1, XDATA, add(CFA_XSP16, literal(-20)))
          CFI V1 load(1, XDATA, add(CFA_XSP16, literal(-19)))
          CFI V2 load(1, XDATA, add(CFA_XSP16, literal(-18)))
          CFI V3 load(1, XDATA, add(CFA_XSP16, literal(-17)))
          CFI V4 load(1, XDATA, add(CFA_XSP16, literal(-16)))
          CFI V5 load(1, XDATA, add(CFA_XSP16, literal(-15)))
          CFI V6 load(1, XDATA, add(CFA_XSP16, literal(-14)))
          CFI V7 load(1, XDATA, add(CFA_XSP16, literal(-13)))
          CFI V8 load(1, XDATA, add(CFA_XSP16, literal(-12)))
          CFI V9 load(1, XDATA, add(CFA_XSP16, literal(-11)))
          CFI V10 load(1, XDATA, add(CFA_XSP16, literal(-10)))
          CFI V11 load(1, XDATA, add(CFA_XSP16, literal(-9)))
          CFI V12 load(1, XDATA, add(CFA_XSP16, literal(-8)))
          CFI V13 load(1, XDATA, add(CFA_XSP16, literal(-7)))
          CFI R7 load(1, XDATA, add(CFA_XSP16, literal(-6)))
          CFI ?RET_LOW load(1, XDATA, add(CFA_XSP16, literal(-5)))
          CFI ?RET_HIGH load(1, XDATA, add(CFA_XSP16, literal(-4)))
          CFI ?BRET_EXT load(1, XDATA, add(CFA_XSP16, literal(-3)))
          CFI DPL0 load(1, XDATA, add(CFA_XSP16, literal(-2)))
          CFI DPH0 load(1, XDATA, add(CFA_XSP16, literal(-1)))
          CFI CFA_SP SP+-2
          CFI CFA_XSP16 add(XSP16, 36)
          CFI Block cfiCond192 Using cfiCommon0
          CFI (cfiCond192) Function MT_AfDataStore
          CFI (cfiCond192) Conditional ??CrossCallReturnLabel_23
          CFI (cfiCond192) R6 load(1, XDATA, add(CFA_XSP16, literal(-11)))
          CFI (cfiCond192) VB load(1, XDATA, add(CFA_XSP16, literal(-10)))
          CFI (cfiCond192) V0 load(1, XDATA, add(CFA_XSP16, literal(-9)))
          CFI (cfiCond192) V1 load(1, XDATA, add(CFA_XSP16, literal(-8)))
          CFI (cfiCond192) V2 load(1, XDATA, add(CFA_XSP16, literal(-7)))
          CFI (cfiCond192) R7 load(1, XDATA, add(CFA_XSP16, literal(-6)))
          CFI (cfiCond192) ?RET_LOW load(1, XDATA, add(CFA_XSP16, literal(-5)))
          CFI (cfiCond192) ?RET_HIGH load(1, XDATA, add(CFA_XSP16, literal(-4)))
          CFI (cfiCond192) ?BRET_EXT load(1, XDATA, add(CFA_XSP16, literal(-3)))
          CFI (cfiCond192) DPL0 load(1, XDATA, add(CFA_XSP16, literal(-2)))
          CFI (cfiCond192) DPH0 load(1, XDATA, add(CFA_XSP16, literal(-1)))
          CFI (cfiCond192) CFA_SP SP+-2
          CFI (cfiCond192) CFA_XSP16 add(XSP16, 12)
          CFI Block cfiPicker193 Using cfiCommon1
          CFI (cfiPicker193) NoFunction
          CFI (cfiPicker193) Picker
        MOVX    A,@DPTR
        XCH     A,R0
        ADD     A,#0x16
        MOV     DPL,A
        CLR     A
        ADDC    A,R0
        MOV     DPH,A
        RET
          CFI EndBlock cfiCond191
          CFI EndBlock cfiCond192
          CFI EndBlock cfiPicker193

        RSEG BANKED_CODE:CODE:NOROOT(0)
?Subroutine12:
          CFI Block cfiCond194 Using cfiCommon0
          CFI Function MT_AfDataRequest
          CFI Conditional ??CrossCallReturnLabel_20
          CFI R6 load(1, XDATA, add(CFA_XSP16, literal(-22)))
          CFI VB load(1, XDATA, add(CFA_XSP16, literal(-21)))
          CFI V0 load(1, XDATA, add(CFA_XSP16, literal(-20)))
          CFI V1 load(1, XDATA, add(CFA_XSP16, literal(-19)))
          CFI V2 load(1, XDATA, add(CFA_XSP16, literal(-18)))
          CFI V3 load(1, XDATA, add(CFA_XSP16, literal(-17)))
          CFI V4 load(1, XDATA, add(CFA_XSP16, literal(-16)))
          CFI V5 load(1, XDATA, add(CFA_XSP16, literal(-15)))
          CFI V6 load(1, XDATA, add(CFA_XSP16, literal(-14)))
          CFI V7 load(1, XDATA, add(CFA_XSP16, literal(-13)))
          CFI V8 load(1, XDATA, add(CFA_XSP16, literal(-12)))
          CFI V9 load(1, XDATA, add(CFA_XSP16, literal(-11)))
          CFI V10 load(1, XDATA, add(CFA_XSP16, literal(-10)))
          CFI V11 load(1, XDATA, add(CFA_XSP16, literal(-9)))
          CFI V12 load(1, XDATA, add(CFA_XSP16, literal(-8)))
          CFI V13 load(1, XDATA, add(CFA_XSP16, literal(-7)))
          CFI R7 load(1, XDATA, add(CFA_XSP16, literal(-6)))
          CFI ?RET_LOW load(1, XDATA, add(CFA_XSP16, literal(-5)))
          CFI ?RET_HIGH load(1, XDATA, add(CFA_XSP16, literal(-4)))
          CFI ?BRET_EXT load(1, XDATA, add(CFA_XSP16, literal(-3)))
          CFI DPL0 load(1, XDATA, add(CFA_XSP16, literal(-2)))
          CFI DPH0 load(1, XDATA, add(CFA_XSP16, literal(-1)))
          CFI CFA_SP SP+-2
          CFI CFA_XSP16 add(XSP16, 36)
          CFI Block cfiCond195 Using cfiCommon0
          CFI (cfiCond195) Function MT_AfDataStore
          CFI (cfiCond195) Conditional ??CrossCallReturnLabel_21
          CFI (cfiCond195) R6 load(1, XDATA, add(CFA_XSP16, literal(-11)))
          CFI (cfiCond195) VB load(1, XDATA, add(CFA_XSP16, literal(-10)))
          CFI (cfiCond195) V0 load(1, XDATA, add(CFA_XSP16, literal(-9)))
          CFI (cfiCond195) V1 load(1, XDATA, add(CFA_XSP16, literal(-8)))
          CFI (cfiCond195) V2 load(1, XDATA, add(CFA_XSP16, literal(-7)))
          CFI (cfiCond195) R7 load(1, XDATA, add(CFA_XSP16, literal(-6)))
          CFI (cfiCond195) ?RET_LOW load(1, XDATA, add(CFA_XSP16, literal(-5)))
          CFI (cfiCond195) ?RET_HIGH load(1, XDATA, add(CFA_XSP16, literal(-4)))
          CFI (cfiCond195) ?BRET_EXT load(1, XDATA, add(CFA_XSP16, literal(-3)))
          CFI (cfiCond195) DPL0 load(1, XDATA, add(CFA_XSP16, literal(-2)))
          CFI (cfiCond195) DPH0 load(1, XDATA, add(CFA_XSP16, literal(-1)))
          CFI (cfiCond195) CFA_SP SP+-2
          CFI (cfiCond195) CFA_XSP16 add(XSP16, 21)
          CFI Block cfiPicker196 Using cfiCommon1
          CFI (cfiPicker196) NoFunction
          CFI (cfiPicker196) Picker
        LCALL   ?Subroutine32 & 0xFFFF
??CrossCallReturnLabel_66:
        ADD     A,#0x15
        MOV     DPL,A
        CLR     A
        ADDC    A,R0
        MOV     DPH,A
        RET
          CFI EndBlock cfiCond194
          CFI EndBlock cfiCond195
          CFI EndBlock cfiPicker196

        RSEG BANKED_CODE:CODE:NOROOT(0)
?Subroutine11:
          CFI Block cfiCond197 Using cfiCommon0
          CFI Function MT_AfDataRequest
          CFI Conditional ??CrossCallReturnLabel_18
          CFI R6 load(1, XDATA, add(CFA_XSP16, literal(-22)))
          CFI VB load(1, XDATA, add(CFA_XSP16, literal(-21)))
          CFI V0 load(1, XDATA, add(CFA_XSP16, literal(-20)))
          CFI V1 load(1, XDATA, add(CFA_XSP16, literal(-19)))
          CFI V2 load(1, XDATA, add(CFA_XSP16, literal(-18)))
          CFI V3 load(1, XDATA, add(CFA_XSP16, literal(-17)))
          CFI V4 load(1, XDATA, add(CFA_XSP16, literal(-16)))
          CFI V5 load(1, XDATA, add(CFA_XSP16, literal(-15)))
          CFI V6 load(1, XDATA, add(CFA_XSP16, literal(-14)))
          CFI V7 load(1, XDATA, add(CFA_XSP16, literal(-13)))
          CFI V8 load(1, XDATA, add(CFA_XSP16, literal(-12)))
          CFI V9 load(1, XDATA, add(CFA_XSP16, literal(-11)))
          CFI V10 load(1, XDATA, add(CFA_XSP16, literal(-10)))
          CFI V11 load(1, XDATA, add(CFA_XSP16, literal(-9)))
          CFI V12 load(1, XDATA, add(CFA_XSP16, literal(-8)))
          CFI V13 load(1, XDATA, add(CFA_XSP16, literal(-7)))
          CFI R7 load(1, XDATA, add(CFA_XSP16, literal(-6)))
          CFI ?RET_LOW load(1, XDATA, add(CFA_XSP16, literal(-5)))
          CFI ?RET_HIGH load(1, XDATA, add(CFA_XSP16, literal(-4)))
          CFI ?BRET_EXT load(1, XDATA, add(CFA_XSP16, literal(-3)))
          CFI DPL0 load(1, XDATA, add(CFA_XSP16, literal(-2)))
          CFI DPH0 load(1, XDATA, add(CFA_XSP16, literal(-1)))
          CFI CFA_SP SP+-2
          CFI CFA_XSP16 add(XSP16, 36)
          CFI Block cfiCond198 Using cfiCommon0
          CFI (cfiCond198) Function MT_AfDataStore
          CFI (cfiCond198) Conditional ??CrossCallReturnLabel_19
          CFI (cfiCond198) R6 load(1, XDATA, add(CFA_XSP16, literal(-11)))
          CFI (cfiCond198) VB load(1, XDATA, add(CFA_XSP16, literal(-10)))
          CFI (cfiCond198) V0 load(1, XDATA, add(CFA_XSP16, literal(-9)))
          CFI (cfiCond198) V1 load(1, XDATA, add(CFA_XSP16, literal(-8)))
          CFI (cfiCond198) V2 load(1, XDATA, add(CFA_XSP16, literal(-7)))
          CFI (cfiCond198) R7 load(1, XDATA, add(CFA_XSP16, literal(-6)))
          CFI (cfiCond198) ?RET_LOW load(1, XDATA, add(CFA_XSP16, literal(-5)))
          CFI (cfiCond198) ?RET_HIGH load(1, XDATA, add(CFA_XSP16, literal(-4)))
          CFI (cfiCond198) ?BRET_EXT load(1, XDATA, add(CFA_XSP16, literal(-3)))
          CFI (cfiCond198) DPL0 load(1, XDATA, add(CFA_XSP16, literal(-2)))
          CFI (cfiCond198) DPH0 load(1, XDATA, add(CFA_XSP16, literal(-1)))
          CFI (cfiCond198) CFA_SP SP+-2
          CFI (cfiCond198) CFA_XSP16 add(XSP16, 17)
          CFI Block cfiPicker199 Using cfiCommon1
          CFI (cfiPicker199) NoFunction
          CFI (cfiPicker199) Picker
        LCALL   ?Subroutine32 & 0xFFFF
??CrossCallReturnLabel_65:
        ADD     A,#0x12
        MOV     DPL,A
        CLR     A
        ADDC    A,R0
        MOV     DPH,A
        RET
          CFI EndBlock cfiCond197
          CFI EndBlock cfiCond198
          CFI EndBlock cfiPicker199

        RSEG BANKED_CODE:CODE:NOROOT(0)
?Subroutine32:
          CFI Block cfiCond200 Using cfiCommon0
          CFI Function MT_AfDataRequest
          CFI Conditional ??CrossCallReturnLabel_61
          CFI R6 load(1, XDATA, add(CFA_XSP16, literal(-22)))
          CFI VB load(1, XDATA, add(CFA_XSP16, literal(-21)))
          CFI V0 load(1, XDATA, add(CFA_XSP16, literal(-20)))
          CFI V1 load(1, XDATA, add(CFA_XSP16, literal(-19)))
          CFI V2 load(1, XDATA, add(CFA_XSP16, literal(-18)))
          CFI V3 load(1, XDATA, add(CFA_XSP16, literal(-17)))
          CFI V4 load(1, XDATA, add(CFA_XSP16, literal(-16)))
          CFI V5 load(1, XDATA, add(CFA_XSP16, literal(-15)))
          CFI V6 load(1, XDATA, add(CFA_XSP16, literal(-14)))
          CFI V7 load(1, XDATA, add(CFA_XSP16, literal(-13)))
          CFI V8 load(1, XDATA, add(CFA_XSP16, literal(-12)))
          CFI V9 load(1, XDATA, add(CFA_XSP16, literal(-11)))
          CFI V10 load(1, XDATA, add(CFA_XSP16, literal(-10)))
          CFI V11 load(1, XDATA, add(CFA_XSP16, literal(-9)))
          CFI V12 load(1, XDATA, add(CFA_XSP16, literal(-8)))
          CFI V13 load(1, XDATA, add(CFA_XSP16, literal(-7)))
          CFI R7 load(1, XDATA, add(CFA_XSP16, literal(-6)))
          CFI ?RET_LOW load(1, XDATA, add(CFA_XSP16, literal(-5)))
          CFI ?RET_HIGH load(1, XDATA, add(CFA_XSP16, literal(-4)))
          CFI ?BRET_EXT load(1, XDATA, add(CFA_XSP16, literal(-3)))
          CFI DPL0 load(1, XDATA, add(CFA_XSP16, literal(-2)))
          CFI DPH0 load(1, XDATA, add(CFA_XSP16, literal(-1)))
          CFI CFA_XSP16 add(XSP16, 36)
          CFI Block cfiCond201 Using cfiCommon0
          CFI (cfiCond201) Function MT_AfExec
          CFI (cfiCond201) Conditional ??CrossCallReturnLabel_62, ??CrossCallReturnLabel_10
          CFI (cfiCond201) R6 load(1, XDATA, add(CFA_XSP16, literal(-9)))
          CFI (cfiCond201) VB load(1, XDATA, add(CFA_XSP16, literal(-8)))
          CFI (cfiCond201) V0 load(1, XDATA, add(CFA_XSP16, literal(-7)))
          CFI (cfiCond201) R7 load(1, XDATA, add(CFA_XSP16, literal(-6)))
          CFI (cfiCond201) ?RET_LOW load(1, XDATA, add(CFA_XSP16, literal(-5)))
          CFI (cfiCond201) ?RET_HIGH load(1, XDATA, add(CFA_XSP16, literal(-4)))
          CFI (cfiCond201) ?BRET_EXT load(1, XDATA, add(CFA_XSP16, literal(-3)))
          CFI (cfiCond201) DPL0 load(1, XDATA, add(CFA_XSP16, literal(-2)))
          CFI (cfiCond201) DPH0 load(1, XDATA, add(CFA_XSP16, literal(-1)))
          CFI (cfiCond201) CFA_SP SP+-4
          CFI (cfiCond201) CFA_XSP16 add(XSP16, 9)
          CFI Block cfiCond202 Using cfiCommon0
          CFI (cfiCond202) Function MT_AfDataRequest
          CFI (cfiCond202) Conditional ??CrossCallReturnLabel_62, ??CrossCallReturnLabel_9
          CFI (cfiCond202) R6 load(1, XDATA, add(CFA_XSP16, literal(-22)))
          CFI (cfiCond202) VB load(1, XDATA, add(CFA_XSP16, literal(-21)))
          CFI (cfiCond202) V0 load(1, XDATA, add(CFA_XSP16, literal(-20)))
          CFI (cfiCond202) V1 load(1, XDATA, add(CFA_XSP16, literal(-19)))
          CFI (cfiCond202) V2 load(1, XDATA, add(CFA_XSP16, literal(-18)))
          CFI (cfiCond202) V3 load(1, XDATA, add(CFA_XSP16, literal(-17)))
          CFI (cfiCond202) V4 load(1, XDATA, add(CFA_XSP16, literal(-16)))
          CFI (cfiCond202) V5 load(1, XDATA, add(CFA_XSP16, literal(-15)))
          CFI (cfiCond202) V6 load(1, XDATA, add(CFA_XSP16, literal(-14)))
          CFI (cfiCond202) V7 load(1, XDATA, add(CFA_XSP16, literal(-13)))
          CFI (cfiCond202) V8 load(1, XDATA, add(CFA_XSP16, literal(-12)))
          CFI (cfiCond202) V9 load(1, XDATA, add(CFA_XSP16, literal(-11)))
          CFI (cfiCond202) V10 load(1, XDATA, add(CFA_XSP16, literal(-10)))
          CFI (cfiCond202) V11 load(1, XDATA, add(CFA_XSP16, literal(-9)))
          CFI (cfiCond202) V12 load(1, XDATA, add(CFA_XSP16, literal(-8)))
          CFI (cfiCond202) V13 load(1, XDATA, add(CFA_XSP16, literal(-7)))
          CFI (cfiCond202) R7 load(1, XDATA, add(CFA_XSP16, literal(-6)))
          CFI (cfiCond202) ?RET_LOW load(1, XDATA, add(CFA_XSP16, literal(-5)))
          CFI (cfiCond202) ?RET_HIGH load(1, XDATA, add(CFA_XSP16, literal(-4)))
          CFI (cfiCond202) ?BRET_EXT load(1, XDATA, add(CFA_XSP16, literal(-3)))
          CFI (cfiCond202) DPL0 load(1, XDATA, add(CFA_XSP16, literal(-2)))
          CFI (cfiCond202) DPH0 load(1, XDATA, add(CFA_XSP16, literal(-1)))
          CFI (cfiCond202) CFA_SP SP+-4
          CFI (cfiCond202) CFA_XSP16 add(XSP16, 36)
          CFI Block cfiCond203 Using cfiCommon0
          CFI (cfiCond203) Function MT_AfDataRequest
          CFI (cfiCond203) Conditional ??CrossCallReturnLabel_66, ??CrossCallReturnLabel_20
          CFI (cfiCond203) R6 load(1, XDATA, add(CFA_XSP16, literal(-22)))
          CFI (cfiCond203) VB load(1, XDATA, add(CFA_XSP16, literal(-21)))
          CFI (cfiCond203) V0 load(1, XDATA, add(CFA_XSP16, literal(-20)))
          CFI (cfiCond203) V1 load(1, XDATA, add(CFA_XSP16, literal(-19)))
          CFI (cfiCond203) V2 load(1, XDATA, add(CFA_XSP16, literal(-18)))
          CFI (cfiCond203) V3 load(1, XDATA, add(CFA_XSP16, literal(-17)))
          CFI (cfiCond203) V4 load(1, XDATA, add(CFA_XSP16, literal(-16)))
          CFI (cfiCond203) V5 load(1, XDATA, add(CFA_XSP16, literal(-15)))
          CFI (cfiCond203) V6 load(1, XDATA, add(CFA_XSP16, literal(-14)))
          CFI (cfiCond203) V7 load(1, XDATA, add(CFA_XSP16, literal(-13)))
          CFI (cfiCond203) V8 load(1, XDATA, add(CFA_XSP16, literal(-12)))
          CFI (cfiCond203) V9 load(1, XDATA, add(CFA_XSP16, literal(-11)))
          CFI (cfiCond203) V10 load(1, XDATA, add(CFA_XSP16, literal(-10)))
          CFI (cfiCond203) V11 load(1, XDATA, add(CFA_XSP16, literal(-9)))
          CFI (cfiCond203) V12 load(1, XDATA, add(CFA_XSP16, literal(-8)))
          CFI (cfiCond203) V13 load(1, XDATA, add(CFA_XSP16, literal(-7)))
          CFI (cfiCond203) R7 load(1, XDATA, add(CFA_XSP16, literal(-6)))
          CFI (cfiCond203) ?RET_LOW load(1, XDATA, add(CFA_XSP16, literal(-5)))
          CFI (cfiCond203) ?RET_HIGH load(1, XDATA, add(CFA_XSP16, literal(-4)))
          CFI (cfiCond203) ?BRET_EXT load(1, XDATA, add(CFA_XSP16, literal(-3)))
          CFI (cfiCond203) DPL0 load(1, XDATA, add(CFA_XSP16, literal(-2)))
          CFI (cfiCond203) DPH0 load(1, XDATA, add(CFA_XSP16, literal(-1)))
          CFI (cfiCond203) CFA_SP SP+-4
          CFI (cfiCond203) CFA_XSP16 add(XSP16, 36)
          CFI Block cfiCond204 Using cfiCommon0
          CFI (cfiCond204) Function MT_AfDataStore
          CFI (cfiCond204) Conditional ??CrossCallReturnLabel_66, ??CrossCallReturnLabel_21
          CFI (cfiCond204) R6 load(1, XDATA, add(CFA_XSP16, literal(-11)))
          CFI (cfiCond204) VB load(1, XDATA, add(CFA_XSP16, literal(-10)))
          CFI (cfiCond204) V0 load(1, XDATA, add(CFA_XSP16, literal(-9)))
          CFI (cfiCond204) V1 load(1, XDATA, add(CFA_XSP16, literal(-8)))
          CFI (cfiCond204) V2 load(1, XDATA, add(CFA_XSP16, literal(-7)))
          CFI (cfiCond204) R7 load(1, XDATA, add(CFA_XSP16, literal(-6)))
          CFI (cfiCond204) ?RET_LOW load(1, XDATA, add(CFA_XSP16, literal(-5)))
          CFI (cfiCond204) ?RET_HIGH load(1, XDATA, add(CFA_XSP16, literal(-4)))
          CFI (cfiCond204) ?BRET_EXT load(1, XDATA, add(CFA_XSP16, literal(-3)))
          CFI (cfiCond204) DPL0 load(1, XDATA, add(CFA_XSP16, literal(-2)))
          CFI (cfiCond204) DPH0 load(1, XDATA, add(CFA_XSP16, literal(-1)))
          CFI (cfiCond204) CFA_SP SP+-4
          CFI (cfiCond204) CFA_XSP16 add(XSP16, 21)
          CFI Block cfiCond205 Using cfiCommon0
          CFI (cfiCond205) Function MT_AfDataRequest
          CFI (cfiCond205) Conditional ??CrossCallReturnLabel_65, ??CrossCallReturnLabel_18
          CFI (cfiCond205) R6 load(1, XDATA, add(CFA_XSP16, literal(-22)))
          CFI (cfiCond205) VB load(1, XDATA, add(CFA_XSP16, literal(-21)))
          CFI (cfiCond205) V0 load(1, XDATA, add(CFA_XSP16, literal(-20)))
          CFI (cfiCond205) V1 load(1, XDATA, add(CFA_XSP16, literal(-19)))
          CFI (cfiCond205) V2 load(1, XDATA, add(CFA_XSP16, literal(-18)))
          CFI (cfiCond205) V3 load(1, XDATA, add(CFA_XSP16, literal(-17)))
          CFI (cfiCond205) V4 load(1, XDATA, add(CFA_XSP16, literal(-16)))
          CFI (cfiCond205) V5 load(1, XDATA, add(CFA_XSP16, literal(-15)))
          CFI (cfiCond205) V6 load(1, XDATA, add(CFA_XSP16, literal(-14)))
          CFI (cfiCond205) V7 load(1, XDATA, add(CFA_XSP16, literal(-13)))
          CFI (cfiCond205) V8 load(1, XDATA, add(CFA_XSP16, literal(-12)))
          CFI (cfiCond205) V9 load(1, XDATA, add(CFA_XSP16, literal(-11)))
          CFI (cfiCond205) V10 load(1, XDATA, add(CFA_XSP16, literal(-10)))
          CFI (cfiCond205) V11 load(1, XDATA, add(CFA_XSP16, literal(-9)))
          CFI (cfiCond205) V12 load(1, XDATA, add(CFA_XSP16, literal(-8)))
          CFI (cfiCond205) V13 load(1, XDATA, add(CFA_XSP16, literal(-7)))
          CFI (cfiCond205) R7 load(1, XDATA, add(CFA_XSP16, literal(-6)))
          CFI (cfiCond205) ?RET_LOW load(1, XDATA, add(CFA_XSP16, literal(-5)))
          CFI (cfiCond205) ?RET_HIGH load(1, XDATA, add(CFA_XSP16, literal(-4)))
          CFI (cfiCond205) ?BRET_EXT load(1, XDATA, add(CFA_XSP16, literal(-3)))
          CFI (cfiCond205) DPL0 load(1, XDATA, add(CFA_XSP16, literal(-2)))
          CFI (cfiCond205) DPH0 load(1, XDATA, add(CFA_XSP16, literal(-1)))
          CFI (cfiCond205) CFA_SP SP+-4
          CFI (cfiCond205) CFA_XSP16 add(XSP16, 36)
          CFI Block cfiCond206 Using cfiCommon0
          CFI (cfiCond206) Function MT_AfDataStore
          CFI (cfiCond206) Conditional ??CrossCallReturnLabel_65, ??CrossCallReturnLabel_19
          CFI (cfiCond206) R6 load(1, XDATA, add(CFA_XSP16, literal(-11)))
          CFI (cfiCond206) VB load(1, XDATA, add(CFA_XSP16, literal(-10)))
          CFI (cfiCond206) V0 load(1, XDATA, add(CFA_XSP16, literal(-9)))
          CFI (cfiCond206) V1 load(1, XDATA, add(CFA_XSP16, literal(-8)))
          CFI (cfiCond206) V2 load(1, XDATA, add(CFA_XSP16, literal(-7)))
          CFI (cfiCond206) R7 load(1, XDATA, add(CFA_XSP16, literal(-6)))
          CFI (cfiCond206) ?RET_LOW load(1, XDATA, add(CFA_XSP16, literal(-5)))
          CFI (cfiCond206) ?RET_HIGH load(1, XDATA, add(CFA_XSP16, literal(-4)))
          CFI (cfiCond206) ?BRET_EXT load(1, XDATA, add(CFA_XSP16, literal(-3)))
          CFI (cfiCond206) DPL0 load(1, XDATA, add(CFA_XSP16, literal(-2)))
          CFI (cfiCond206) DPH0 load(1, XDATA, add(CFA_XSP16, literal(-1)))
          CFI (cfiCond206) CFA_SP SP+-4
          CFI (cfiCond206) CFA_XSP16 add(XSP16, 17)
          CFI Block cfiCond207 Using cfiCommon0
          CFI (cfiCond207) Function MT_AfDataRequest
          CFI (cfiCond207) Conditional ??CrossCallReturnLabel_64, ??CrossCallReturnLabel_16
          CFI (cfiCond207) R6 load(1, XDATA, add(CFA_XSP16, literal(-22)))
          CFI (cfiCond207) VB load(1, XDATA, add(CFA_XSP16, literal(-21)))
          CFI (cfiCond207) V0 load(1, XDATA, add(CFA_XSP16, literal(-20)))
          CFI (cfiCond207) V1 load(1, XDATA, add(CFA_XSP16, literal(-19)))
          CFI (cfiCond207) V2 load(1, XDATA, add(CFA_XSP16, literal(-18)))
          CFI (cfiCond207) V3 load(1, XDATA, add(CFA_XSP16, literal(-17)))
          CFI (cfiCond207) V4 load(1, XDATA, add(CFA_XSP16, literal(-16)))
          CFI (cfiCond207) V5 load(1, XDATA, add(CFA_XSP16, literal(-15)))
          CFI (cfiCond207) V6 load(1, XDATA, add(CFA_XSP16, literal(-14)))
          CFI (cfiCond207) V7 load(1, XDATA, add(CFA_XSP16, literal(-13)))
          CFI (cfiCond207) V8 load(1, XDATA, add(CFA_XSP16, literal(-12)))
          CFI (cfiCond207) V9 load(1, XDATA, add(CFA_XSP16, literal(-11)))
          CFI (cfiCond207) V10 load(1, XDATA, add(CFA_XSP16, literal(-10)))
          CFI (cfiCond207) V11 load(1, XDATA, add(CFA_XSP16, literal(-9)))
          CFI (cfiCond207) V12 load(1, XDATA, add(CFA_XSP16, literal(-8)))
          CFI (cfiCond207) V13 load(1, XDATA, add(CFA_XSP16, literal(-7)))
          CFI (cfiCond207) R7 load(1, XDATA, add(CFA_XSP16, literal(-6)))
          CFI (cfiCond207) ?RET_LOW load(1, XDATA, add(CFA_XSP16, literal(-5)))
          CFI (cfiCond207) ?RET_HIGH load(1, XDATA, add(CFA_XSP16, literal(-4)))
          CFI (cfiCond207) ?BRET_EXT load(1, XDATA, add(CFA_XSP16, literal(-3)))
          CFI (cfiCond207) DPL0 load(1, XDATA, add(CFA_XSP16, literal(-2)))
          CFI (cfiCond207) DPH0 load(1, XDATA, add(CFA_XSP16, literal(-1)))
          CFI (cfiCond207) CFA_SP SP+-4
          CFI (cfiCond207) CFA_XSP16 add(XSP16, 36)
          CFI Block cfiCond208 Using cfiCommon0
          CFI (cfiCond208) Function MT_AfDataStore
          CFI (cfiCond208) Conditional ??CrossCallReturnLabel_64, ??CrossCallReturnLabel_17
          CFI (cfiCond208) R6 load(1, XDATA, add(CFA_XSP16, literal(-11)))
          CFI (cfiCond208) VB load(1, XDATA, add(CFA_XSP16, literal(-10)))
          CFI (cfiCond208) V0 load(1, XDATA, add(CFA_XSP16, literal(-9)))
          CFI (cfiCond208) V1 load(1, XDATA, add(CFA_XSP16, literal(-8)))
          CFI (cfiCond208) V2 load(1, XDATA, add(CFA_XSP16, literal(-7)))
          CFI (cfiCond208) R7 load(1, XDATA, add(CFA_XSP16, literal(-6)))
          CFI (cfiCond208) ?RET_LOW load(1, XDATA, add(CFA_XSP16, literal(-5)))
          CFI (cfiCond208) ?RET_HIGH load(1, XDATA, add(CFA_XSP16, literal(-4)))
          CFI (cfiCond208) ?BRET_EXT load(1, XDATA, add(CFA_XSP16, literal(-3)))
          CFI (cfiCond208) DPL0 load(1, XDATA, add(CFA_XSP16, literal(-2)))
          CFI (cfiCond208) DPH0 load(1, XDATA, add(CFA_XSP16, literal(-1)))
          CFI (cfiCond208) CFA_SP SP+-4
          CFI (cfiCond208) CFA_XSP16 add(XSP16, 19)
          CFI Block cfiCond209 Using cfiCommon0
          CFI (cfiCond209) Function MT_AfDataRequest
          CFI (cfiCond209) Conditional ??CrossCallReturnLabel_63, ??CrossCallReturnLabel_14
          CFI (cfiCond209) R6 load(1, XDATA, add(CFA_XSP16, literal(-22)))
          CFI (cfiCond209) VB load(1, XDATA, add(CFA_XSP16, literal(-21)))
          CFI (cfiCond209) V0 load(1, XDATA, add(CFA_XSP16, literal(-20)))
          CFI (cfiCond209) V1 load(1, XDATA, add(CFA_XSP16, literal(-19)))
          CFI (cfiCond209) V2 load(1, XDATA, add(CFA_XSP16, literal(-18)))
          CFI (cfiCond209) V3 load(1, XDATA, add(CFA_XSP16, literal(-17)))
          CFI (cfiCond209) V4 load(1, XDATA, add(CFA_XSP16, literal(-16)))
          CFI (cfiCond209) V5 load(1, XDATA, add(CFA_XSP16, literal(-15)))
          CFI (cfiCond209) V6 load(1, XDATA, add(CFA_XSP16, literal(-14)))
          CFI (cfiCond209) V7 load(1, XDATA, add(CFA_XSP16, literal(-13)))
          CFI (cfiCond209) V8 load(1, XDATA, add(CFA_XSP16, literal(-12)))
          CFI (cfiCond209) V9 load(1, XDATA, add(CFA_XSP16, literal(-11)))
          CFI (cfiCond209) V10 load(1, XDATA, add(CFA_XSP16, literal(-10)))
          CFI (cfiCond209) V11 load(1, XDATA, add(CFA_XSP16, literal(-9)))
          CFI (cfiCond209) V12 load(1, XDATA, add(CFA_XSP16, literal(-8)))
          CFI (cfiCond209) V13 load(1, XDATA, add(CFA_XSP16, literal(-7)))
          CFI (cfiCond209) R7 load(1, XDATA, add(CFA_XSP16, literal(-6)))
          CFI (cfiCond209) ?RET_LOW load(1, XDATA, add(CFA_XSP16, literal(-5)))
          CFI (cfiCond209) ?RET_HIGH load(1, XDATA, add(CFA_XSP16, literal(-4)))
          CFI (cfiCond209) ?BRET_EXT load(1, XDATA, add(CFA_XSP16, literal(-3)))
          CFI (cfiCond209) DPL0 load(1, XDATA, add(CFA_XSP16, literal(-2)))
          CFI (cfiCond209) DPH0 load(1, XDATA, add(CFA_XSP16, literal(-1)))
          CFI (cfiCond209) CFA_SP SP+-4
          CFI (cfiCond209) CFA_XSP16 add(XSP16, 36)
          CFI Block cfiCond210 Using cfiCommon0
          CFI (cfiCond210) Function MT_AfDataStore
          CFI (cfiCond210) Conditional ??CrossCallReturnLabel_63, ??CrossCallReturnLabel_15
          CFI (cfiCond210) R6 load(1, XDATA, add(CFA_XSP16, literal(-11)))
          CFI (cfiCond210) VB load(1, XDATA, add(CFA_XSP16, literal(-10)))
          CFI (cfiCond210) V0 load(1, XDATA, add(CFA_XSP16, literal(-9)))
          CFI (cfiCond210) V1 load(1, XDATA, add(CFA_XSP16, literal(-8)))
          CFI (cfiCond210) V2 load(1, XDATA, add(CFA_XSP16, literal(-7)))
          CFI (cfiCond210) R7 load(1, XDATA, add(CFA_XSP16, literal(-6)))
          CFI (cfiCond210) ?RET_LOW load(1, XDATA, add(CFA_XSP16, literal(-5)))
          CFI (cfiCond210) ?RET_HIGH load(1, XDATA, add(CFA_XSP16, literal(-4)))
          CFI (cfiCond210) ?BRET_EXT load(1, XDATA, add(CFA_XSP16, literal(-3)))
          CFI (cfiCond210) DPL0 load(1, XDATA, add(CFA_XSP16, literal(-2)))
          CFI (cfiCond210) DPH0 load(1, XDATA, add(CFA_XSP16, literal(-1)))
          CFI (cfiCond210) CFA_SP SP+-4
          CFI (cfiCond210) CFA_XSP16 add(XSP16, 21)
          CFI Block cfiPicker211 Using cfiCommon1
          CFI (cfiPicker211) NoFunction
          CFI (cfiPicker211) Picker
        MOV     DPTR,#pMtAfDataReq
        MOVX    A,@DPTR
        MOV     R0,A
        INC     DPTR
        MOVX    A,@DPTR
        XCH     A,R0
        RET
          CFI EndBlock cfiCond200
          CFI EndBlock cfiCond201
          CFI EndBlock cfiCond202
          CFI EndBlock cfiCond203
          CFI EndBlock cfiCond204
          CFI EndBlock cfiCond205
          CFI EndBlock cfiCond206
          CFI EndBlock cfiCond207
          CFI EndBlock cfiCond208
          CFI EndBlock cfiCond209
          CFI EndBlock cfiCond210
          CFI EndBlock cfiPicker211

        RSEG BANKED_CODE:CODE:NOROOT(0)
?Subroutine10:
          CFI Block cfiCond212 Using cfiCommon0
          CFI Function MT_AfDataRequest
          CFI Conditional ??CrossCallReturnLabel_16
          CFI R6 load(1, XDATA, add(CFA_XSP16, literal(-22)))
          CFI VB load(1, XDATA, add(CFA_XSP16, literal(-21)))
          CFI V0 load(1, XDATA, add(CFA_XSP16, literal(-20)))
          CFI V1 load(1, XDATA, add(CFA_XSP16, literal(-19)))
          CFI V2 load(1, XDATA, add(CFA_XSP16, literal(-18)))
          CFI V3 load(1, XDATA, add(CFA_XSP16, literal(-17)))
          CFI V4 load(1, XDATA, add(CFA_XSP16, literal(-16)))
          CFI V5 load(1, XDATA, add(CFA_XSP16, literal(-15)))
          CFI V6 load(1, XDATA, add(CFA_XSP16, literal(-14)))
          CFI V7 load(1, XDATA, add(CFA_XSP16, literal(-13)))
          CFI V8 load(1, XDATA, add(CFA_XSP16, literal(-12)))
          CFI V9 load(1, XDATA, add(CFA_XSP16, literal(-11)))
          CFI V10 load(1, XDATA, add(CFA_XSP16, literal(-10)))
          CFI V11 load(1, XDATA, add(CFA_XSP16, literal(-9)))
          CFI V12 load(1, XDATA, add(CFA_XSP16, literal(-8)))
          CFI V13 load(1, XDATA, add(CFA_XSP16, literal(-7)))
          CFI R7 load(1, XDATA, add(CFA_XSP16, literal(-6)))
          CFI ?RET_LOW load(1, XDATA, add(CFA_XSP16, literal(-5)))
          CFI ?RET_HIGH load(1, XDATA, add(CFA_XSP16, literal(-4)))
          CFI ?BRET_EXT load(1, XDATA, add(CFA_XSP16, literal(-3)))
          CFI DPL0 load(1, XDATA, add(CFA_XSP16, literal(-2)))
          CFI DPH0 load(1, XDATA, add(CFA_XSP16, literal(-1)))
          CFI CFA_SP SP+-2
          CFI CFA_XSP16 add(XSP16, 36)
          CFI Block cfiCond213 Using cfiCommon0
          CFI (cfiCond213) Function MT_AfDataStore
          CFI (cfiCond213) Conditional ??CrossCallReturnLabel_17
          CFI (cfiCond213) R6 load(1, XDATA, add(CFA_XSP16, literal(-11)))
          CFI (cfiCond213) VB load(1, XDATA, add(CFA_XSP16, literal(-10)))
          CFI (cfiCond213) V0 load(1, XDATA, add(CFA_XSP16, literal(-9)))
          CFI (cfiCond213) V1 load(1, XDATA, add(CFA_XSP16, literal(-8)))
          CFI (cfiCond213) V2 load(1, XDATA, add(CFA_XSP16, literal(-7)))
          CFI (cfiCond213) R7 load(1, XDATA, add(CFA_XSP16, literal(-6)))
          CFI (cfiCond213) ?RET_LOW load(1, XDATA, add(CFA_XSP16, literal(-5)))
          CFI (cfiCond213) ?RET_HIGH load(1, XDATA, add(CFA_XSP16, literal(-4)))
          CFI (cfiCond213) ?BRET_EXT load(1, XDATA, add(CFA_XSP16, literal(-3)))
          CFI (cfiCond213) DPL0 load(1, XDATA, add(CFA_XSP16, literal(-2)))
          CFI (cfiCond213) DPH0 load(1, XDATA, add(CFA_XSP16, literal(-1)))
          CFI (cfiCond213) CFA_SP SP+-2
          CFI (cfiCond213) CFA_XSP16 add(XSP16, 19)
          CFI Block cfiPicker214 Using cfiCommon1
          CFI (cfiPicker214) NoFunction
          CFI (cfiPicker214) Picker
        LCALL   ?Subroutine32 & 0xFFFF
??CrossCallReturnLabel_64:
        ADD     A,#0x10
        MOV     DPL,A
        CLR     A
        ADDC    A,R0
        MOV     DPH,A
        RET
          CFI EndBlock cfiCond212
          CFI EndBlock cfiCond213
          CFI EndBlock cfiPicker214

        RSEG BANKED_CODE:CODE:NOROOT(0)
?Subroutine9:
          CFI Block cfiCond215 Using cfiCommon0
          CFI Function MT_AfDataRequest
          CFI Conditional ??CrossCallReturnLabel_14
          CFI R6 load(1, XDATA, add(CFA_XSP16, literal(-22)))
          CFI VB load(1, XDATA, add(CFA_XSP16, literal(-21)))
          CFI V0 load(1, XDATA, add(CFA_XSP16, literal(-20)))
          CFI V1 load(1, XDATA, add(CFA_XSP16, literal(-19)))
          CFI V2 load(1, XDATA, add(CFA_XSP16, literal(-18)))
          CFI V3 load(1, XDATA, add(CFA_XSP16, literal(-17)))
          CFI V4 load(1, XDATA, add(CFA_XSP16, literal(-16)))
          CFI V5 load(1, XDATA, add(CFA_XSP16, literal(-15)))
          CFI V6 load(1, XDATA, add(CFA_XSP16, literal(-14)))
          CFI V7 load(1, XDATA, add(CFA_XSP16, literal(-13)))
          CFI V8 load(1, XDATA, add(CFA_XSP16, literal(-12)))
          CFI V9 load(1, XDATA, add(CFA_XSP16, literal(-11)))
          CFI V10 load(1, XDATA, add(CFA_XSP16, literal(-10)))
          CFI V11 load(1, XDATA, add(CFA_XSP16, literal(-9)))
          CFI V12 load(1, XDATA, add(CFA_XSP16, literal(-8)))
          CFI V13 load(1, XDATA, add(CFA_XSP16, literal(-7)))
          CFI R7 load(1, XDATA, add(CFA_XSP16, literal(-6)))
          CFI ?RET_LOW load(1, XDATA, add(CFA_XSP16, literal(-5)))
          CFI ?RET_HIGH load(1, XDATA, add(CFA_XSP16, literal(-4)))
          CFI ?BRET_EXT load(1, XDATA, add(CFA_XSP16, literal(-3)))
          CFI DPL0 load(1, XDATA, add(CFA_XSP16, literal(-2)))
          CFI DPH0 load(1, XDATA, add(CFA_XSP16, literal(-1)))
          CFI CFA_SP SP+-2
          CFI CFA_XSP16 add(XSP16, 36)
          CFI Block cfiCond216 Using cfiCommon0
          CFI (cfiCond216) Function MT_AfDataStore
          CFI (cfiCond216) Conditional ??CrossCallReturnLabel_15
          CFI (cfiCond216) R6 load(1, XDATA, add(CFA_XSP16, literal(-11)))
          CFI (cfiCond216) VB load(1, XDATA, add(CFA_XSP16, literal(-10)))
          CFI (cfiCond216) V0 load(1, XDATA, add(CFA_XSP16, literal(-9)))
          CFI (cfiCond216) V1 load(1, XDATA, add(CFA_XSP16, literal(-8)))
          CFI (cfiCond216) V2 load(1, XDATA, add(CFA_XSP16, literal(-7)))
          CFI (cfiCond216) R7 load(1, XDATA, add(CFA_XSP16, literal(-6)))
          CFI (cfiCond216) ?RET_LOW load(1, XDATA, add(CFA_XSP16, literal(-5)))
          CFI (cfiCond216) ?RET_HIGH load(1, XDATA, add(CFA_XSP16, literal(-4)))
          CFI (cfiCond216) ?BRET_EXT load(1, XDATA, add(CFA_XSP16, literal(-3)))
          CFI (cfiCond216) DPL0 load(1, XDATA, add(CFA_XSP16, literal(-2)))
          CFI (cfiCond216) DPH0 load(1, XDATA, add(CFA_XSP16, literal(-1)))
          CFI (cfiCond216) CFA_SP SP+-2
          CFI (cfiCond216) CFA_XSP16 add(XSP16, 21)
          CFI Block cfiPicker217 Using cfiCommon1
          CFI (cfiPicker217) NoFunction
          CFI (cfiPicker217) Picker
        LCALL   ?Subroutine32 & 0xFFFF
??CrossCallReturnLabel_63:
        ADD     A,#0xe
        MOV     DPL,A
        CLR     A
        ADDC    A,R0
        MOV     DPH,A
        RET
          CFI EndBlock cfiCond215
          CFI EndBlock cfiCond216
          CFI EndBlock cfiPicker217

        RSEG BANKED_CODE:CODE:NOROOT(0)
?Subroutine8:
          CFI Block cfiCond218 Using cfiCommon0
          CFI Function MT_AfDataRequest
          CFI Conditional ??CrossCallReturnLabel_11
          CFI R6 load(1, XDATA, add(CFA_XSP16, literal(-22)))
          CFI VB load(1, XDATA, add(CFA_XSP16, literal(-21)))
          CFI V0 load(1, XDATA, add(CFA_XSP16, literal(-20)))
          CFI V1 load(1, XDATA, add(CFA_XSP16, literal(-19)))
          CFI V2 load(1, XDATA, add(CFA_XSP16, literal(-18)))
          CFI V3 load(1, XDATA, add(CFA_XSP16, literal(-17)))
          CFI V4 load(1, XDATA, add(CFA_XSP16, literal(-16)))
          CFI V5 load(1, XDATA, add(CFA_XSP16, literal(-15)))
          CFI V6 load(1, XDATA, add(CFA_XSP16, literal(-14)))
          CFI V7 load(1, XDATA, add(CFA_XSP16, literal(-13)))
          CFI V8 load(1, XDATA, add(CFA_XSP16, literal(-12)))
          CFI V9 load(1, XDATA, add(CFA_XSP16, literal(-11)))
          CFI V10 load(1, XDATA, add(CFA_XSP16, literal(-10)))
          CFI V11 load(1, XDATA, add(CFA_XSP16, literal(-9)))
          CFI V12 load(1, XDATA, add(CFA_XSP16, literal(-8)))
          CFI V13 load(1, XDATA, add(CFA_XSP16, literal(-7)))
          CFI R7 load(1, XDATA, add(CFA_XSP16, literal(-6)))
          CFI ?RET_LOW load(1, XDATA, add(CFA_XSP16, literal(-5)))
          CFI ?RET_HIGH load(1, XDATA, add(CFA_XSP16, literal(-4)))
          CFI ?BRET_EXT load(1, XDATA, add(CFA_XSP16, literal(-3)))
          CFI DPL0 load(1, XDATA, add(CFA_XSP16, literal(-2)))
          CFI DPH0 load(1, XDATA, add(CFA_XSP16, literal(-1)))
          CFI CFA_SP SP+-2
          CFI CFA_XSP16 add(XSP16, 36)
          CFI Block cfiCond219 Using cfiCommon0
          CFI (cfiCond219) Function MT_AfDataStore
          CFI (cfiCond219) Conditional ??CrossCallReturnLabel_12
          CFI (cfiCond219) R6 load(1, XDATA, add(CFA_XSP16, literal(-11)))
          CFI (cfiCond219) VB load(1, XDATA, add(CFA_XSP16, literal(-10)))
          CFI (cfiCond219) V0 load(1, XDATA, add(CFA_XSP16, literal(-9)))
          CFI (cfiCond219) V1 load(1, XDATA, add(CFA_XSP16, literal(-8)))
          CFI (cfiCond219) V2 load(1, XDATA, add(CFA_XSP16, literal(-7)))
          CFI (cfiCond219) R7 load(1, XDATA, add(CFA_XSP16, literal(-6)))
          CFI (cfiCond219) ?RET_LOW load(1, XDATA, add(CFA_XSP16, literal(-5)))
          CFI (cfiCond219) ?RET_HIGH load(1, XDATA, add(CFA_XSP16, literal(-4)))
          CFI (cfiCond219) ?BRET_EXT load(1, XDATA, add(CFA_XSP16, literal(-3)))
          CFI (cfiCond219) DPL0 load(1, XDATA, add(CFA_XSP16, literal(-2)))
          CFI (cfiCond219) DPH0 load(1, XDATA, add(CFA_XSP16, literal(-1)))
          CFI (cfiCond219) CFA_SP SP+-2
          CFI (cfiCond219) CFA_XSP16 add(XSP16, 15)
          CFI Block cfiCond220 Using cfiCommon0
          CFI (cfiCond220) Function MT_AfDataStore
          CFI (cfiCond220) Conditional ??CrossCallReturnLabel_13
          CFI (cfiCond220) R6 load(1, XDATA, add(CFA_XSP16, literal(-11)))
          CFI (cfiCond220) VB load(1, XDATA, add(CFA_XSP16, literal(-10)))
          CFI (cfiCond220) V0 load(1, XDATA, add(CFA_XSP16, literal(-9)))
          CFI (cfiCond220) V1 load(1, XDATA, add(CFA_XSP16, literal(-8)))
          CFI (cfiCond220) V2 load(1, XDATA, add(CFA_XSP16, literal(-7)))
          CFI (cfiCond220) R7 load(1, XDATA, add(CFA_XSP16, literal(-6)))
          CFI (cfiCond220) ?RET_LOW load(1, XDATA, add(CFA_XSP16, literal(-5)))
          CFI (cfiCond220) ?RET_HIGH load(1, XDATA, add(CFA_XSP16, literal(-4)))
          CFI (cfiCond220) ?BRET_EXT load(1, XDATA, add(CFA_XSP16, literal(-3)))
          CFI (cfiCond220) DPL0 load(1, XDATA, add(CFA_XSP16, literal(-2)))
          CFI (cfiCond220) DPH0 load(1, XDATA, add(CFA_XSP16, literal(-1)))
          CFI (cfiCond220) CFA_SP SP+-2
          CFI (cfiCond220) CFA_XSP16 add(XSP16, 15)
          CFI Block cfiPicker221 Using cfiCommon1
          CFI (cfiPicker221) NoFunction
          CFI (cfiPicker221) Picker
        MOV     DPTR,#pMtAfDataReq
        MOVX    A,@DPTR
        MOV     R0,A
        INC     DPTR
        MOVX    A,@DPTR
        MOV     DPH,A
        MOV     DPL,R0
        RET
          CFI EndBlock cfiCond218
          CFI EndBlock cfiCond219
          CFI EndBlock cfiCond220
          CFI EndBlock cfiPicker221

        RSEG BANK_RELAYS:CODE:REORDER:NOROOT(0)
??MT_AfExec?relay:
        CODE
        LCALL   ?BDISPATCH
        DATA24
        DC24    MT_AfExec

        RSEG BANK_RELAYS:CODE:REORDER:NOROOT(0)
??MT_AfCommandProcessing?relay:
        CODE
        LCALL   ?BDISPATCH
        DATA24
        DC24    MT_AfCommandProcessing

        RSEG BANK_RELAYS:CODE:REORDER:NOROOT(0)
??MT_AfRegister?relay:
        CODE
        LCALL   ?BDISPATCH
        DATA24
        DC24    MT_AfRegister

        RSEG BANK_RELAYS:CODE:REORDER:NOROOT(0)
??MT_AfDataRequest?relay:
        CODE
        LCALL   ?BDISPATCH
        DATA24
        DC24    MT_AfDataRequest

        RSEG BANK_RELAYS:CODE:REORDER:NOROOT(0)
??MT_AfDataRequestSrcRtg?relay:
        CODE
        LCALL   ?BDISPATCH
        DATA24
        DC24    MT_AfDataRequestSrcRtg

        RSEG BANK_RELAYS:CODE:REORDER:NOROOT(0)
??MT_AfDataConfirm?relay:
        CODE
        LCALL   ?BDISPATCH
        DATA24
        DC24    MT_AfDataConfirm

        RSEG BANK_RELAYS:CODE:REORDER:NOROOT(0)
??MT_AfIncomingMsg?relay:
        CODE
        LCALL   ?BDISPATCH
        DATA24
        DC24    MT_AfIncomingMsg

        RSEG BANK_RELAYS:CODE:REORDER:NOROOT(0)
??MT_AfDataRetrieve?relay:
        CODE
        LCALL   ?BDISPATCH
        DATA24
        DC24    MT_AfDataRetrieve

        RSEG BANK_RELAYS:CODE:REORDER:NOROOT(0)
??MT_AfDataStore?relay:
        CODE
        LCALL   ?BDISPATCH
        DATA24
        DC24    MT_AfDataStore

        END
//  891 
//  892 /**************************************************************************************************
//  893  * @fn          MT_AfAPSF_ConfigSet
//  894  *
//  895  * @brief       This function is the MT proxy for afAPSF_ConfigSet().
//  896  *
//  897  * input parameters
//  898  *
//  899  * @param       pBuf - Pointer to the received buffer.
//  900  *
//  901  * output parameters
//  902  *
//  903  * None.
//  904  *
//  905  * @return      None.
//  906  */
//  907 static void MT_AfAPSF_ConfigSet(uint8 *pBuf)
//  908 {
//  909   afAPSF_Config_t cfg = { pBuf[MT_RPC_POS_DAT0+1], pBuf[MT_RPC_POS_DAT0+2] };
//  910   afStatus_t rtrn = afAPSF_ConfigSet(pBuf[MT_RPC_POS_DAT0], &cfg);
//  911 
//  912   MT_BuildAndSendZToolResponse(((uint8)MT_RPC_CMD_SRSP | (uint8)MT_RPC_SYS_AF),
//  913                                        MT_AF_APSF_CONFIG_SET, 1, (uint8 *)&rtrn);
//  914 }
//  915 
//  916 /***************************************************************************************************
//  917 ***************************************************************************************************/
// 
// 3 178 bytes in segment BANKED_CODE
//    54 bytes in segment BANK_RELAYS
//     4 bytes in segment XDATA_Z
// 
// 3 232 bytes of CODE  memory
//     4 bytes of XDATA memory
//
//Errors: none
//Warnings: none
