///////////////////////////////////////////////////////////////////////////////
//                                                                            /
// IAR C/C++ Compiler V8.30.1.41636 for 8051            19/Oct/2017  13:11:54 /
// Copyright 2004-2013 IAR Systems AB.                                        /
//                                                                            /
//    Core               =  plain                                             /
//    Code model         =  banked                                            /
//    Data model         =  large                                             /
//    Calling convention =  xdata reentrant                                   /
//    Constant location  =  data_rom                                          /
//    Dptr setup         =  1,16                                              /
//                                                                            /
//    Source file        =  D:\简宝山\寿县17-09-01 25\程序\无线节点程序\code\ /
//                          Projects\zstack\Samples\SampleApp\Source\SampleAp /
//                          p.c                                               /
//    Command line       =  -f "D:\简宝山\寿县17-09-01                        /
//                          25\程序\无线节点程序\code\Projects\zstack\Samples /
//                          \SampleApp\CC2530DB\..\..\..\Tools\CC2530DB\f8wCo /
//                          ord.cfg" (-DCPU32MHZ -DROOT=__near_func           /
//                          -DMAC_CFG_APP_PENDING_QUEUE=TRUE                  /
//                          -DMAC_CFG_TX_DATA_MAX=5 -DMAC_CFG_TX_MAX=8        /
//                          -DMAC_CFG_RX_MAX=5 -DZDO_COORDINATOR -DRTR_NWK)   /
//                          -f "D:\简宝山\寿县17-09-01                        /
//                          25\程序\无线节点程序\code\Projects\zstack\Samples /
//                          \SampleApp\CC2530DB\..\..\..\Tools\CC2530DB\f8wCo /
//                          nfig.cfg" (-DZIGBEEPRO -DSECURE=0                 /
//                          -DZG_SECURE_DYNAMIC=0 -DREFLECTOR                 /
//                          -DDEFAULT_CHANLIST=0x00000800                     /
//                          -DZDAPP_CONFIG_PAN_ID=0xFFF1                      /
//                          -DNWK_START_DELAY=100 -DEXTENDED_JOINING_RANDOM_M /
//                          ASK=0x007F -DBEACON_REQUEST_DELAY=100             /
//                          -DBEACON_REQ_DELAY_MASK=0x00FF                    /
//                          -DLINK_STATUS_JITTER_MASK=0x007F                  /
//                          -DROUTE_EXPIRY_TIME=30 -DAPSC_ACK_WAIT_DURATION_P /
//                          OLLED=3000 -DNWK_INDIRECT_MSG_TIMEOUT=7           /
//                          -DMAX_RREQ_ENTRIES=8 -DAPSC_MAX_FRAME_RETRIES=3   /
//                          -DNWK_MAX_DATA_RETRIES=2                          /
//                          -DMAX_POLL_FAILURE_RETRIES=2 -DMAX_BCAST=9        /
//                          -DAPS_MAX_GROUPS=16 -DMAX_RTG_ENTRIES=40          /
//                          -DNWK_MAX_BINDING_ENTRIES=4                       /
//                          -DMAX_BINDING_CLUSTER_IDS=4                       /
//                          "-DDEFAULT_KEY={0x01, 0x03, 0x05, 0x07, 0x09,     /
//                          0x0B, 0x0D, 0x0F, 0x00, 0x02, 0x04, 0x06, 0x08,   /
//                          0x0A, 0x0C, 0x0D}" -DMAC_MAX_FRAME_SIZE=116       /
//                          -DZDNWKMGR_MIN_TRANSMISSIONS=20 "-DCONST=const    /
//                          __code" -DGENERIC=__generic                       /
//                          -DRFD_RCVC_ALWAYS_ON=FALSE -DPOLL_RATE=1000       /
//                          -DQUEUED_POLL_RATE=100 -DRESPONSE_POLL_RATE=100)  /
//                          -DREJOIN_POLL_RATE=440 "D:\简宝山\寿县17-09-01    /
//                          25\程序\无线节点程序\code\Projects\zstack\Samples /
//                          \SampleApp\Source\SampleApp.c" -D                 /
//                          BUILD_ALL_DEVICES -D HOLD_AUTO_START -D           /
//                          LCD_SUPPORTED -D HAL_UART=FALSE -lC               /
//                          "D:\简宝山\寿县17-09-01                           /
//                          25\程序\无线节点程序\code\Projects\zstack\Samples /
//                          \SampleApp\CC2530DB\DemoEB\List\" -lA             /
//                          "D:\简宝山\寿县17-09-01                           /
//                          25\程序\无线节点程序\code\Projects\zstack\Samples /
//                          \SampleApp\CC2530DB\DemoEB\List\"                 /
//                          --diag_suppress Pe001,Pa010 -o                    /
//                          "D:\简宝山\寿县17-09-01                           /
//                          25\程序\无线节点程序\code\Projects\zstack\Samples /
//                          \SampleApp\CC2530DB\DemoEB\Obj\" -e               /
//                          --no_code_motion --debug --core=plain             /
//                          --dptr=16,1 --data_model=large                    /
//                          --code_model=banked --calling_convention=xdata_re /
//                          entrant --place_constants=data_rom                /
//                          --nr_virtual_regs 16 -I "D:\简宝山\寿县17-09-01   /
//                          25\程序\无线节点程序\code\Projects\zstack\Samples /
//                          \SampleApp\CC2530DB\" -I "D:\简宝山\寿县17-09-01  /
//                          25\程序\无线节点程序\code\Projects\zstack\Samples /
//                          \SampleApp\CC2530DB\..\Source\" -I                /
//                          "D:\简宝山\寿县17-09-01                           /
//                          25\程序\无线节点程序\code\Projects\zstack\Samples /
//                          \SampleApp\CC2530DB\..\Source\hardware\" -I       /
//                          "D:\简宝山\寿县17-09-01                           /
//                          25\程序\无线节点程序\code\Projects\zstack\Samples /
//                          \SampleApp\CC2530DB\..\..\..\ZMain\TI2530DB\" -I  /
//                          "D:\简宝山\寿县17-09-01                           /
//                          25\程序\无线节点程序\code\Projects\zstack\Samples /
//                          \SampleApp\CC2530DB\..\..\..\..\..\Components\hal /
//                          \include\" -I "D:\简宝山\寿县17-09-01             /
//                          25\程序\无线节点程序\code\Projects\zstack\Samples /
//                          \SampleApp\CC2530DB\..\..\..\..\..\Components\hal /
//                          \target\CC2530EB\" -I "D:\简宝山\寿县17-09-01     /
//                          25\程序\无线节点程序\code\Projects\zstack\Samples /
//                          \SampleApp\CC2530DB\..\..\..\..\..\Components\mac /
//                          \include\" -I "D:\简宝山\寿县17-09-01             /
//                          25\程序\无线节点程序\code\Projects\zstack\Samples /
//                          \SampleApp\CC2530DB\..\..\..\..\..\Components\mac /
//                          \high_level\" -I "D:\简宝山\寿县17-09-01          /
//                          25\程序\无线节点程序\code\Projects\zstack\Samples /
//                          \SampleApp\CC2530DB\..\..\..\..\..\Components\mac /
//                          \low_level\srf04\" -I "D:\简宝山\寿县17-09-01     /
//                          25\程序\无线节点程序\code\Projects\zstack\Samples /
//                          \SampleApp\CC2530DB\..\..\..\..\..\Components\mac /
//                          \low_level\srf04\single_chip\" -I                 /
//                          "D:\简宝山\寿县17-09-01                           /
//                          25\程序\无线节点程序\code\Projects\zstack\Samples /
//                          \SampleApp\CC2530DB\..\..\..\..\..\Components\mt\ /
//                          " -I "D:\简宝山\寿县17-09-01                      /
//                          25\程序\无线节点程序\code\Projects\zstack\Samples /
//                          \SampleApp\CC2530DB\..\..\..\..\..\Components\osa /
//                          l\include\" -I "D:\简宝山\寿县17-09-01            /
//                          25\程序\无线节点程序\code\Projects\zstack\Samples /
//                          \SampleApp\CC2530DB\..\..\..\..\..\Components\ser /
//                          vices\saddr\" -I "D:\简宝山\寿县17-09-01          /
//                          25\程序\无线节点程序\code\Projects\zstack\Samples /
//                          \SampleApp\CC2530DB\..\..\..\..\..\Components\ser /
//                          vices\sdata\" -I "D:\简宝山\寿县17-09-01          /
//                          25\程序\无线节点程序\code\Projects\zstack\Samples /
//                          \SampleApp\CC2530DB\..\..\..\..\..\Components\sta /
//                          ck\af\" -I "D:\简宝山\寿县17-09-01                /
//                          25\程序\无线节点程序\code\Projects\zstack\Samples /
//                          \SampleApp\CC2530DB\..\..\..\..\..\Components\sta /
//                          ck\nwk\" -I "D:\简宝山\寿县17-09-01               /
//                          25\程序\无线节点程序\code\Projects\zstack\Samples /
//                          \SampleApp\CC2530DB\..\..\..\..\..\Components\sta /
//                          ck\sapi\" -I "D:\简宝山\寿县17-09-01              /
//                          25\程序\无线节点程序\code\Projects\zstack\Samples /
//                          \SampleApp\CC2530DB\..\..\..\..\..\Components\sta /
//                          ck\sec\" -I "D:\简宝山\寿县17-09-01               /
//                          25\程序\无线节点程序\code\Projects\zstack\Samples /
//                          \SampleApp\CC2530DB\..\..\..\..\..\Components\sta /
//                          ck\sys\" -I "D:\简宝山\寿县17-09-01               /
//                          25\程序\无线节点程序\code\Projects\zstack\Samples /
//                          \SampleApp\CC2530DB\..\..\..\..\..\Components\sta /
//                          ck\zdo\" -I "D:\简宝山\寿县17-09-01               /
//                          25\程序\无线节点程序\code\Projects\zstack\Samples /
//                          \SampleApp\CC2530DB\..\..\..\..\..\Components\zma /
//                          c\" -I "D:\简宝山\寿县17-09-01                    /
//                          25\程序\无线节点程序\code\Projects\zstack\Samples /
//                          \SampleApp\CC2530DB\..\..\..\..\..\Components\zma /
//                          c\f8w\" -Ohz --require_prototypes                 /
//    List file          =  D:\简宝山\寿县17-09-01 25\程序\无线节点程序\code\ /
//                          Projects\zstack\Samples\SampleApp\CC2530DB\DemoEB /
//                          \List\SampleApp.s51                               /
//                                                                            /
//                                                                            /
///////////////////////////////////////////////////////////////////////////////

        NAME SampleApp

        RTMODEL "__SystemLibrary", "CLib"
        RTMODEL "__calling_convention", "xdata_reentrant"
        RTMODEL "__code_model", "banked"
        RTMODEL "__core", "plain"
        RTMODEL "__data_model", "large"
        RTMODEL "__dptr_size", "16"
        RTMODEL "__extended_stack", "disabled"
        RTMODEL "__iar_require _formatted_read", ""
        RTMODEL "__iar_require _formatted_write", "flags,qualifiers,widths"
        RTMODEL "__location_for_constants", "data"
        RTMODEL "__number_of_dptrs", "1"
        RTMODEL "__rt_version", "1"

        RSEG DOVERLAY:DATA:NOROOT(0)
        RSEG IOVERLAY:IDATA:NOROOT(0)
        RSEG ISTACK:IDATA:NOROOT(0)
        RSEG PSTACK:XDATA:NOROOT(0)
        RSEG XSTACK:XDATA:NOROOT(0)

        EXTERN ?V0
        EXTERN ?V1
        EXTERN ?V2
        EXTERN ?V3
        EXTERN ?V4
        EXTERN ?V5
        EXTERN ?V6
        EXTERN ?ALLOC_XSTACK8
        EXTERN ?BANKED_ENTER_XDATA
        EXTERN ?BANKED_LEAVE_XDATA
        EXTERN ?BDISPATCH
        EXTERN ?BRET
        EXTERN ?DEALLOC_XSTACK8
        EXTERN ?L_EQ_X
        EXTERN ?L_MOV_TO_X
        EXTERN ?L_MOV_X
        EXTERN ?L_SHL
        EXTERN ?PUSH_XSTACK8_X_FOUR
        EXTERN ?PUSH_XSTACK8_X_TWO
        EXTERN ?PUSH_XSTACK_I_ONE
        EXTERN ?PUSH_XSTACK_I_THREE
        EXTERN ?PUSH_XSTACK_I_TWO
        EXTERN ?UL_SHR
        EXTERN ?XSP
        EXTERN ?XSTACK_DISP0_8
        EXTERN __INIT_XDATA_I
        EXTERN __INIT_XDATA_Z

        PUBLIC ??ReturnTorF?relay
        FUNCTION ??ReturnTorF?relay,0203H
        PUBLIC ??SampleApp_Init?relay
        FUNCTION ??SampleApp_Init?relay,0203H
        PUBLIC ??SampleApp_MessageMSGCB?relay
        FUNCTION ??SampleApp_MessageMSGCB?relay,0203H
        PUBLIC ??SampleApp_ProcessEvent?relay
        FUNCTION ??SampleApp_ProcessEvent?relay,0203H
        PUBLIC ??SampleApp_SendPeriodicMessage?relay
        FUNCTION ??SampleApp_SendPeriodicMessage?relay,0203H
        PUBLIC ??SampleApp_SendPointToPointMessage?relay
        FUNCTION ??SampleApp_SendPointToPointMessage?relay,0203H
        PUBLIC ??SampleApp_SerialCMD?relay
        FUNCTION ??SampleApp_SerialCMD?relay,0203H
        PUBLIC ??SendDataToCollector?relay
        FUNCTION ??SendDataToCollector?relay,0203H
        PUBLIC Point_To_Point_DstAddr
        PUBLIC ReturnTorF
        FUNCTION ReturnTorF,021203H
        ARGFRAME XSTACK, 17, STACK
        ARGFRAME IOVERLAY, 0, STATIC
        ARGFRAME DOVERLAY, 0, STATIC
        LOCFRAME ISTACK, 2, STACK
        PUBLIC SampleAppFlashCounter
        PUBLIC SampleAppPeriodicCounter
        PUBLIC SampleApp_ClusterList
        PUBLIC SampleApp_Flash_DstAddr
        PUBLIC SampleApp_Group
        PUBLIC SampleApp_Init
        FUNCTION SampleApp_Init,0a1203H
        ARGFRAME XSTACK, 0, STACK
        LOCFRAME XSTACK, 14, STACK
        PUBLIC SampleApp_MessageMSGCB
        FUNCTION SampleApp_MessageMSGCB,0a1203H
        ARGFRAME XSTACK, 12, STACK
        ARGFRAME IOVERLAY, 0, STATIC
        ARGFRAME DOVERLAY, 0, STATIC
        LOCFRAME XSTACK, 10, STACK
        PUBLIC SampleApp_NwkState
        PUBLIC SampleApp_Periodic_DstAddr
        PUBLIC SampleApp_ProcessEvent
        FUNCTION SampleApp_ProcessEvent,0a1203H
        ARGFRAME XSTACK, 0, STACK
        LOCFRAME XSTACK, 28, STACK
        PUBLIC SampleApp_SendPeriodicMessage
        FUNCTION SampleApp_SendPeriodicMessage,0a1203H
        ARGFRAME XSTACK, 17, STACK
        ARGFRAME IOVERLAY, 0, STATIC
        ARGFRAME DOVERLAY, 0, STATIC
        LOCFRAME XSTACK, 19, STACK
        PUBLIC SampleApp_SendPointToPointMessage
        FUNCTION SampleApp_SendPointToPointMessage,0a1203H
        ARGFRAME XSTACK, 0, STACK
        ARGFRAME IOVERLAY, 0, STATIC
        ARGFRAME DOVERLAY, 0, STATIC
        LOCFRAME XSTACK, 19, STACK
        PUBLIC SampleApp_SerialCMD
        FUNCTION SampleApp_SerialCMD,0a1203H
        ARGFRAME XSTACK, 12, STACK
        ARGFRAME IOVERLAY, 0, STATIC
        ARGFRAME DOVERLAY, 0, STATIC
        LOCFRAME XSTACK, 35, STACK
        PUBLIC SampleApp_SimpleDesc
        PUBLIC SampleApp_TaskID
        PUBLIC SampleApp_TransID
        PUBLIC SampleApp_epDesc
        PUBLIC SendDataToCollector
        FUNCTION SendDataToCollector,021203H
        ARGFRAME XSTACK, 17, STACK
        ARGFRAME IOVERLAY, 0, STATIC
        ARGFRAME DOVERLAY, 0, STATIC
        LOCFRAME ISTACK, 2, STACK
        PUBWEAK __Constant_7fff800
        PUBLIC cal_t0
        PUBLIC coordi
        PUBLIC data_coor
        PUBLIC debug
        PUBLIC dev_gh
        PUBLIC dev_id
        PUBLIC dev_wddt
        PUBLIC gh_factor
        PUBLIC rs_flag
        PUBLIC sensor_id
        
          CFI Names cfiNames0
          CFI StackFrame CFA_SP SP IDATA
          CFI StackFrame CFA_PSP16 PSP16 XDATA
          CFI StackFrame CFA_XSP16 XSP16 XDATA
          CFI StaticOverlayFrame CFA_IOVERLAY IOVERLAY
          CFI StaticOverlayFrame CFA_DOVERLAY DOVERLAY
          CFI Resource `PSW.CY`:1, `B.BR0`:1, `B.BR1`:1, `B.BR2`:1, `B.BR3`:1
          CFI Resource `B.BR4`:1, `B.BR5`:1, `B.BR6`:1, `B.BR7`:1, `VB.BR8`:1
          CFI Resource `VB.BR9`:1, `VB.BR10`:1, `VB.BR11`:1, `VB.BR12`:1
          CFI Resource `VB.BR13`:1, `VB.BR14`:1, `VB.BR15`:1, VB:8, B:8, A:8
          CFI Resource PSW:8, DPL0:8, DPH0:8, R0:8, R1:8, R2:8, R3:8, R4:8, R5:8
          CFI Resource R6:8, R7:8, V0:8, V1:8, V2:8, V3:8, V4:8, V5:8, V6:8, V7:8
          CFI Resource V8:8, V9:8, V10:8, V11:8, V12:8, V13:8, V14:8, V15:8, SP:8
          CFI Resource PSPH:8, PSPL:8, PSP16:16, XSPH:8, XSPL:8, XSP16:16
          CFI VirtualResource ?RET:24
          CFI Resource ?BRET_EXT:8
          CFI VirtualResource ?RET_HIGH:8, ?RET_LOW:8
          CFI ResourceParts PSP16 PSPH, PSPL
          CFI ResourceParts XSP16 XSPH, XSPL
          CFI ResourceParts ?RET ?BRET_EXT, ?RET_HIGH, ?RET_LOW
          CFI EndNames cfiNames0
        
          CFI Common cfiCommon0 Using cfiNames0
          CFI CodeAlign 1
          CFI DataAlign -1
          CFI ReturnAddress ?RET CODE
          CFI CFA_DOVERLAY Used
          CFI CFA_IOVERLAY Used
          CFI CFA_SP SP+-3
          CFI CFA_PSP16 PSP16+0
          CFI CFA_XSP16 XSP16+0
          CFI `PSW.CY` SameValue
          CFI `B.BR0` SameValue
          CFI `B.BR1` SameValue
          CFI `B.BR2` SameValue
          CFI `B.BR3` SameValue
          CFI `B.BR4` SameValue
          CFI `B.BR5` SameValue
          CFI `B.BR6` SameValue
          CFI `B.BR7` SameValue
          CFI `VB.BR8` SameValue
          CFI `VB.BR9` SameValue
          CFI `VB.BR10` SameValue
          CFI `VB.BR11` SameValue
          CFI `VB.BR12` SameValue
          CFI `VB.BR13` SameValue
          CFI `VB.BR14` SameValue
          CFI `VB.BR15` SameValue
          CFI VB SameValue
          CFI B Undefined
          CFI A Undefined
          CFI PSW SameValue
          CFI DPL0 SameValue
          CFI DPH0 SameValue
          CFI R0 Undefined
          CFI R1 Undefined
          CFI R2 Undefined
          CFI R3 Undefined
          CFI R4 Undefined
          CFI R5 Undefined
          CFI R6 SameValue
          CFI R7 SameValue
          CFI V0 SameValue
          CFI V1 SameValue
          CFI V2 SameValue
          CFI V3 SameValue
          CFI V4 SameValue
          CFI V5 SameValue
          CFI V6 SameValue
          CFI V7 SameValue
          CFI V8 SameValue
          CFI V9 SameValue
          CFI V10 SameValue
          CFI V11 SameValue
          CFI V12 SameValue
          CFI V13 SameValue
          CFI V14 SameValue
          CFI V15 SameValue
          CFI PSPH Undefined
          CFI PSPL Undefined
          CFI XSPH Undefined
          CFI XSPL Undefined
          CFI ?RET Concat
          CFI ?BRET_EXT Frame(CFA_SP, 3)
          CFI ?RET_HIGH Frame(CFA_SP, 2)
          CFI ?RET_LOW Frame(CFA_SP, 1)
          CFI EndCommon cfiCommon0
        
        
          CFI Common cfiCommon1 Using cfiNames0
          CFI CodeAlign 1
          CFI DataAlign -1
          CFI ReturnAddress ?RET CODE
          CFI CFA_DOVERLAY Used
          CFI CFA_IOVERLAY Used
          CFI CFA_SP SP+-2
          CFI CFA_PSP16 PSP16+0
          CFI CFA_XSP16 XSP16+0
          CFI `PSW.CY` SameValue
          CFI `B.BR0` SameValue
          CFI `B.BR1` SameValue
          CFI `B.BR2` SameValue
          CFI `B.BR3` SameValue
          CFI `B.BR4` SameValue
          CFI `B.BR5` SameValue
          CFI `B.BR6` SameValue
          CFI `B.BR7` SameValue
          CFI `VB.BR8` SameValue
          CFI `VB.BR9` SameValue
          CFI `VB.BR10` SameValue
          CFI `VB.BR11` SameValue
          CFI `VB.BR12` SameValue
          CFI `VB.BR13` SameValue
          CFI `VB.BR14` SameValue
          CFI `VB.BR15` SameValue
          CFI VB SameValue
          CFI B SameValue
          CFI A SameValue
          CFI PSW SameValue
          CFI DPL0 SameValue
          CFI DPH0 SameValue
          CFI R0 SameValue
          CFI R1 SameValue
          CFI R2 SameValue
          CFI R3 SameValue
          CFI R4 SameValue
          CFI R5 SameValue
          CFI R6 SameValue
          CFI R7 SameValue
          CFI V0 SameValue
          CFI V1 SameValue
          CFI V2 SameValue
          CFI V3 SameValue
          CFI V4 SameValue
          CFI V5 SameValue
          CFI V6 SameValue
          CFI V7 SameValue
          CFI V8 SameValue
          CFI V9 SameValue
          CFI V10 SameValue
          CFI V11 SameValue
          CFI V12 SameValue
          CFI V13 SameValue
          CFI V14 SameValue
          CFI V15 SameValue
          CFI PSPH Undefined
          CFI PSPL Undefined
          CFI XSPH Undefined
          CFI XSPL Undefined
          CFI ?RET Concat
          CFI ?BRET_EXT SameValue
          CFI ?RET_HIGH Frame(CFA_SP, 2)
          CFI ?RET_LOW Frame(CFA_SP, 1)
          CFI EndCommon cfiCommon1
        
ADC_Init            SYMBOL "ADC_Init"
??ADC_Init?relay    SYMBOL "?relay", ADC_Init
AF_DataRequest      SYMBOL "AF_DataRequest"
??AF_DataRequest?relay SYMBOL "?relay", AF_DataRequest
HalLcdWriteString   SYMBOL "HalLcdWriteString"
??HalLcdWriteString?relay SYMBOL "?relay", HalLcdWriteString
HalUARTWrite        SYMBOL "HalUARTWrite"
??HalUARTWrite?relay SYMBOL "?relay", HalUARTWrite
MT_UartInit         SYMBOL "MT_UartInit"
??MT_UartInit?relay SYMBOL "?relay", MT_UartInit
MT_UartRegisterTaskID SYMBOL "MT_UartRegisterTaskID"
??MT_UartRegisterTaskID?relay SYMBOL "?relay", MT_UartRegisterTaskID
NLME_UpdateNV       SYMBOL "NLME_UpdateNV"
??NLME_UpdateNV?relay SYMBOL "?relay", NLME_UpdateNV
RegisterForKeys     SYMBOL "RegisterForKeys"
??RegisterForKeys?relay SYMBOL "?relay", RegisterForKeys
WDT_Feed            SYMBOL "WDT_Feed"
??WDT_Feed?relay    SYMBOL "?relay", WDT_Feed
WDT_Init            SYMBOL "WDT_Init"
??WDT_Init?relay    SYMBOL "?relay", WDT_Init
ZDOInitDevice       SYMBOL "ZDOInitDevice"
??ZDOInitDevice?relay SYMBOL "?relay", ZDOInitDevice
afRegister          SYMBOL "afRegister"
??afRegister?relay  SYMBOL "?relay", afRegister
aps_AddGroup        SYMBOL "aps_AddGroup"
??aps_AddGroup?relay SYMBOL "?relay", aps_AddGroup
atoi                SYMBOL "atoi"
??atoi?relay        SYMBOL "?relay", atoi
nvItemInit          SYMBOL "nvItemInit"
??nvItemInit?relay  SYMBOL "?relay", nvItemInit
osal_memcmp         SYMBOL "osal_memcmp"
??osal_memcmp?relay SYMBOL "?relay", osal_memcmp
osal_memcpy         SYMBOL "osal_memcpy"
??osal_memcpy?relay SYMBOL "?relay", osal_memcpy
osal_memset         SYMBOL "osal_memset"
??osal_memset?relay SYMBOL "?relay", osal_memset
osal_msg_deallocate SYMBOL "osal_msg_deallocate"
??osal_msg_deallocate?relay SYMBOL "?relay", osal_msg_deallocate
osal_msg_receive    SYMBOL "osal_msg_receive"
??osal_msg_receive?relay SYMBOL "?relay", osal_msg_receive
osal_start_reload_timer SYMBOL "osal_start_reload_timer"
??osal_start_reload_timer?relay SYMBOL "?relay", osal_start_reload_timer
printf              SYMBOL "printf"
??printf?relay      SYMBOL "?relay", printf
readCoordinatorJumper SYMBOL "readCoordinatorJumper"
??readCoordinatorJumper?relay SYMBOL "?relay", readCoordinatorJumper
sprintf             SYMBOL "sprintf"
??sprintf?relay     SYMBOL "?relay", sprintf
sscanf              SYMBOL "sscanf"
??sscanf?relay      SYMBOL "?relay", sscanf
zgWriteStartupOptions SYMBOL "zgWriteStartupOptions"
??zgWriteStartupOptions?relay SYMBOL "?relay", zgWriteStartupOptions
ReturnTorF          SYMBOL "ReturnTorF"
??ReturnTorF?relay  SYMBOL "?relay", ReturnTorF
SampleApp_Init      SYMBOL "SampleApp_Init"
??SampleApp_Init?relay SYMBOL "?relay", SampleApp_Init
SampleApp_MessageMSGCB SYMBOL "SampleApp_MessageMSGCB"
??SampleApp_MessageMSGCB?relay SYMBOL "?relay", SampleApp_MessageMSGCB
SampleApp_ProcessEvent SYMBOL "SampleApp_ProcessEvent"
??SampleApp_ProcessEvent?relay SYMBOL "?relay", SampleApp_ProcessEvent
SampleApp_SendPeriodicMessage SYMBOL "SampleApp_SendPeriodicMessage"
??SampleApp_SendPeriodicMessage?relay SYMBOL "?relay", SampleApp_SendPeriodicMessage
SampleApp_SendPointToPointMessage SYMBOL "SampleApp_SendPointToPointMessage"
??SampleApp_SendPointToPointMessage?relay SYMBOL "?relay", SampleApp_SendPointToPointMessage
SampleApp_SerialCMD SYMBOL "SampleApp_SerialCMD"
??SampleApp_SerialCMD?relay SYMBOL "?relay", SampleApp_SerialCMD
SendDataToCollector SYMBOL "SendDataToCollector"
??SendDataToCollector?relay SYMBOL "?relay", SendDataToCollector

        EXTERN ??ADC_Init?relay
        FUNCTION ??ADC_Init?relay,00H
        EXTERN ??AF_DataRequest?relay
        FUNCTION ??AF_DataRequest?relay,00H
        EXTERN ??HalLcdWriteString?relay
        FUNCTION ??HalLcdWriteString?relay,00H
        EXTERN ??HalUARTWrite?relay
        FUNCTION ??HalUARTWrite?relay,00H
        EXTERN ??MT_UartInit?relay
        FUNCTION ??MT_UartInit?relay,00H
        EXTERN ??MT_UartRegisterTaskID?relay
        FUNCTION ??MT_UartRegisterTaskID?relay,00H
        EXTERN ??NLME_UpdateNV?relay
        FUNCTION ??NLME_UpdateNV?relay,00H
        EXTERN ??RegisterForKeys?relay
        FUNCTION ??RegisterForKeys?relay,00H
        EXTERN ??WDT_Feed?relay
        FUNCTION ??WDT_Feed?relay,00H
        EXTERN ??WDT_Init?relay
        FUNCTION ??WDT_Init?relay,00H
        EXTERN ??ZDOInitDevice?relay
        FUNCTION ??ZDOInitDevice?relay,00H
        EXTERN ??afRegister?relay
        FUNCTION ??afRegister?relay,00H
        EXTERN ??aps_AddGroup?relay
        FUNCTION ??aps_AddGroup?relay,00H
        EXTERN ??atoi?relay
        FUNCTION ??atoi?relay,00H
        EXTERN ??nvItemInit?relay
        FUNCTION ??nvItemInit?relay,00H
        EXTERN ??osal_memcmp?relay
        FUNCTION ??osal_memcmp?relay,00H
        EXTERN ??osal_memcpy?relay
        FUNCTION ??osal_memcpy?relay,00H
        EXTERN ??osal_memset?relay
        FUNCTION ??osal_memset?relay,00H
        EXTERN ??osal_msg_deallocate?relay
        FUNCTION ??osal_msg_deallocate?relay,00H
        EXTERN ??osal_msg_receive?relay
        FUNCTION ??osal_msg_receive?relay,00H
        EXTERN ??osal_start_reload_timer?relay
        FUNCTION ??osal_start_reload_timer?relay,00H
        EXTERN ??printf?relay
        FUNCTION ??printf?relay,00H
        EXTERN ??readCoordinatorJumper?relay
        FUNCTION ??readCoordinatorJumper?relay,00H
        EXTERN ??sprintf?relay
        FUNCTION ??sprintf?relay,00H
        EXTERN ??sscanf?relay
        FUNCTION ??sscanf?relay,00H
        EXTERN ??zgWriteStartupOptions?relay
        FUNCTION ??zgWriteStartupOptions?relay,00H
        EXTERN ADC_Init
        FUNCTION ADC_Init,0202H
        ARGFRAME ISTACK, 0, STACK
        ARGFRAME PSTACK, 0, STACK
        ARGFRAME XSTACK, 11, STACK
        ARGFRAME IOVERLAY, 0, STATIC
        ARGFRAME DOVERLAY, 0, STATIC
        EXTERN AF_DataRequest
        FUNCTION AF_DataRequest,0202H
        ARGFRAME ISTACK, 0, STACK
        ARGFRAME PSTACK, 0, STACK
        ARGFRAME XSTACK, 19, STACK
        ARGFRAME IOVERLAY, 0, STATIC
        ARGFRAME DOVERLAY, 0, STATIC
        EXTERN HalLcdWriteString
        FUNCTION HalLcdWriteString,0202H
        ARGFRAME ISTACK, 0, STACK
        ARGFRAME PSTACK, 0, STACK
        ARGFRAME XSTACK, 11, STACK
        ARGFRAME IOVERLAY, 0, STATIC
        ARGFRAME DOVERLAY, 0, STATIC
        EXTERN HalUARTWrite
        FUNCTION HalUARTWrite,0202H
        ARGFRAME ISTACK, 2, STACK
        ARGFRAME PSTACK, 0, STACK
        ARGFRAME XSTACK, 10, STACK
        ARGFRAME IOVERLAY, 0, STATIC
        ARGFRAME DOVERLAY, 0, STATIC
        EXTERN MT_UartInit
        FUNCTION MT_UartInit,0202H
        ARGFRAME ISTACK, 0, STACK
        ARGFRAME PSTACK, 0, STACK
        ARGFRAME XSTACK, 11, STACK
        ARGFRAME IOVERLAY, 0, STATIC
        ARGFRAME DOVERLAY, 0, STATIC
        EXTERN MT_UartRegisterTaskID
        FUNCTION MT_UartRegisterTaskID,0202H
        ARGFRAME ISTACK, 0, STACK
        ARGFRAME PSTACK, 0, STACK
        ARGFRAME XSTACK, 11, STACK
        ARGFRAME IOVERLAY, 0, STATIC
        ARGFRAME DOVERLAY, 0, STATIC
        EXTERN NLME_UpdateNV
        FUNCTION NLME_UpdateNV,0202H
        ARGFRAME ISTACK, 0, STACK
        ARGFRAME PSTACK, 0, STACK
        ARGFRAME XSTACK, 17, STACK
        ARGFRAME IOVERLAY, 0, STATIC
        ARGFRAME DOVERLAY, 0, STATIC
        EXTERN RegisterForKeys
        FUNCTION RegisterForKeys,0202H
        ARGFRAME ISTACK, 0, STACK
        ARGFRAME PSTACK, 0, STACK
        ARGFRAME XSTACK, 11, STACK
        ARGFRAME IOVERLAY, 0, STATIC
        ARGFRAME DOVERLAY, 0, STATIC
        EXTERN WDT_Feed
        FUNCTION WDT_Feed,0202H
        ARGFRAME ISTACK, 0, STACK
        ARGFRAME PSTACK, 0, STACK
        ARGFRAME XSTACK, 12, STACK
        ARGFRAME IOVERLAY, 0, STATIC
        ARGFRAME DOVERLAY, 0, STATIC
        EXTERN WDT_Init
        FUNCTION WDT_Init,0202H
        ARGFRAME ISTACK, 0, STACK
        ARGFRAME PSTACK, 0, STACK
        ARGFRAME XSTACK, 11, STACK
        ARGFRAME IOVERLAY, 0, STATIC
        ARGFRAME DOVERLAY, 0, STATIC
        EXTERN ZDOInitDevice
        FUNCTION ZDOInitDevice,0202H
        ARGFRAME ISTACK, 0, STACK
        ARGFRAME PSTACK, 0, STACK
        ARGFRAME XSTACK, 11, STACK
        ARGFRAME IOVERLAY, 0, STATIC
        ARGFRAME DOVERLAY, 0, STATIC
        EXTERN _NIB
        EXTERN aExtendedAddress
        EXTERN afRegister
        FUNCTION afRegister,0202H
        ARGFRAME ISTACK, 0, STACK
        ARGFRAME PSTACK, 0, STACK
        ARGFRAME XSTACK, 11, STACK
        ARGFRAME IOVERLAY, 0, STATIC
        ARGFRAME DOVERLAY, 0, STATIC
        EXTERN aps_AddGroup
        FUNCTION aps_AddGroup,0202H
        ARGFRAME ISTACK, 0, STACK
        ARGFRAME PSTACK, 0, STACK
        ARGFRAME XSTACK, 11, STACK
        ARGFRAME IOVERLAY, 0, STATIC
        ARGFRAME DOVERLAY, 0, STATIC
        EXTERN atoi
        FUNCTION atoi,010202H
        ARGFRAME ISTACK, 0, STACK
        ARGFRAME PSTACK, 0, STACK
        ARGFRAME XSTACK, 17, STACK
        ARGFRAME IOVERLAY, 0, STATIC
        ARGFRAME DOVERLAY, 0, STATIC
        EXTERN nvItemInit
        FUNCTION nvItemInit,0202H
        ARGFRAME ISTACK, 0, STACK
        ARGFRAME PSTACK, 0, STACK
        ARGFRAME XSTACK, 19, STACK
        ARGFRAME IOVERLAY, 0, STATIC
        ARGFRAME DOVERLAY, 0, STATIC
        EXTERN osal_memcmp
        FUNCTION osal_memcmp,0202H
        ARGFRAME ISTACK, 0, STACK
        ARGFRAME PSTACK, 0, STACK
        ARGFRAME XSTACK, 20, STACK
        ARGFRAME IOVERLAY, 0, STATIC
        ARGFRAME DOVERLAY, 0, STATIC
        EXTERN osal_memcpy
        FUNCTION osal_memcpy,0202H
        ARGFRAME ISTACK, 0, STACK
        ARGFRAME PSTACK, 0, STACK
        ARGFRAME XSTACK, 14, STACK
        ARGFRAME IOVERLAY, 0, STATIC
        ARGFRAME DOVERLAY, 0, STATIC
        EXTERN osal_memset
        FUNCTION osal_memset,0202H
        ARGFRAME ISTACK, 0, STACK
        ARGFRAME PSTACK, 0, STACK
        ARGFRAME XSTACK, 17, STACK
        ARGFRAME IOVERLAY, 0, STATIC
        ARGFRAME DOVERLAY, 0, STATIC
        EXTERN osal_msg_deallocate
        FUNCTION osal_msg_deallocate,0202H
        ARGFRAME ISTACK, 0, STACK
        ARGFRAME PSTACK, 0, STACK
        ARGFRAME XSTACK, 12, STACK
        ARGFRAME IOVERLAY, 0, STATIC
        ARGFRAME DOVERLAY, 0, STATIC
        EXTERN osal_msg_receive
        FUNCTION osal_msg_receive,0202H
        ARGFRAME ISTACK, 0, STACK
        ARGFRAME PSTACK, 0, STACK
        ARGFRAME XSTACK, 12, STACK
        ARGFRAME IOVERLAY, 0, STATIC
        ARGFRAME DOVERLAY, 0, STATIC
        EXTERN osal_start_reload_timer
        FUNCTION osal_start_reload_timer,0202H
        ARGFRAME ISTACK, 0, STACK
        ARGFRAME PSTACK, 0, STACK
        ARGFRAME XSTACK, 11, STACK
        ARGFRAME IOVERLAY, 0, STATIC
        ARGFRAME DOVERLAY, 0, STATIC
        EXTERN printf
        FUNCTION printf,0202H
        ARGFRAME ISTACK, 2, STACK
        ARGFRAME PSTACK, 0, STACK
        ARGFRAME XSTACK, 28, STACK
        ARGFRAME IOVERLAY, 0, STATIC
        ARGFRAME DOVERLAY, 0, STATIC
        EXTERN readCoordinatorJumper
        FUNCTION readCoordinatorJumper,0202H
        ARGFRAME ISTACK, 0, STACK
        ARGFRAME PSTACK, 0, STACK
        ARGFRAME XSTACK, 11, STACK
        ARGFRAME IOVERLAY, 0, STATIC
        ARGFRAME DOVERLAY, 0, STATIC
        EXTERN sprintf
        FUNCTION sprintf,0202H
        ARGFRAME ISTACK, 0, STACK
        ARGFRAME PSTACK, 0, STACK
        ARGFRAME XSTACK, 35, STACK
        ARGFRAME IOVERLAY, 0, STATIC
        ARGFRAME DOVERLAY, 0, STATIC
        EXTERN sscanf
        FUNCTION sscanf,0202H
        ARGFRAME ISTACK, 0, STACK
        ARGFRAME PSTACK, 0, STACK
        ARGFRAME XSTACK, 19, STACK
        ARGFRAME IOVERLAY, 0, STATIC
        ARGFRAME DOVERLAY, 0, STATIC
        EXTERN zgConfigPANID
        EXTERN zgDefaultChannelList
        EXTERN zgDeviceLogicalType
        EXTERN zgWriteStartupOptions
        FUNCTION zgWriteStartupOptions,0202H
        ARGFRAME ISTACK, 0, STACK
        ARGFRAME PSTACK, 0, STACK
        ARGFRAME XSTACK, 17, STACK
        ARGFRAME IOVERLAY, 0, STATIC
        ARGFRAME DOVERLAY, 0, STATIC

// D:\简宝山\寿县17-09-01 25\程序\无线节点程序\code\Projects\zstack\Samples\SampleApp\Source\SampleApp.c
//    1 /**************************************************************************************************
//    2   Filename:       SampleApp.c
//    3   Revised:        $Date: 2009-03-18 15:56:27 -0700 (Wed, 18 Mar 2009) $
//    4   Revision:       $Revision: 19453 $
//    5 
//    6   Description:    Sample Application (no Profile).
//    7 
//    8 
//    9   Copyright 2007 Texas Instruments Incorporated. All rights reserved.
//   10 
//   11   IMPORTANT: Your use of this Software is limited to those specific rights
//   12   granted under the terms of a software license agreement between the user
//   13   who downloaded the software, his/her employer (which must be your employer)
//   14   and Texas Instruments Incorporated (the "License").  You may not use this
//   15   Software unless you agree to abide by the terms of the License. The License
//   16   limits your use, and you acknowledge, that the Software may not be modified,
//   17   copied or distributed unless embedded on a Texas Instruments microcontroller
//   18   or used solely and exclusively in conjunction with a Texas Instruments radio
//   19   frequency transceiver, which is integrated into your product.  Other than for
//   20   the foregoing purpose, you may not use, reproduce, copy, prepare derivative
//   21   works of, modify, distribute, perform, display or sell this Software and/or
//   22   its documentation for any purpose.
//   23 
//   24   YOU FURTHER ACKNOWLEDGE AND AGREE THAT THE SOFTWARE AND DOCUMENTATION ARE
//   25   PROVIDED AS IS?WITHOUT WARRANTY OF ANY KIND, EITHER EXPRESS OR IMPLIED,
//   26   INCLUDING WITHOUT LIMITATION, ANY WARRANTY OF MERCHANTABILITY, TITLE,
//   27   NON-INFRINGEMENT AND FITNESS FOR A PARTICULAR PURPOSE. IN NO EVENT SHALL
//   28   TEXAS INSTRUMENTS OR ITS LICENSORS BE LIABLE OR OBLIGATED UNDER CONTRACT,
//   29   NEGLIGENCE, STRICT LIABILITY, CONTRIBUTION, BREACH OF WARRANTY, OR OTHER
//   30   LEGAL EQUITABLE THEORY ANY DIRECT OR INDIRECT DAMAGES OR EXPENSES
//   31   INCLUDING BUT NOT LIMITED TO ANY INCIDENTAL, SPECIAL, INDIRECT, PUNITIVE
//   32   OR CONSEQUENTIAL DAMAGES, LOST PROFITS OR LOST DATA, COST OF PROCUREMENT
//   33   OF SUBSTITUTE GOODS, TECHNOLOGY, SERVICES, OR ANY CLAIMS BY THIRD PARTIES
//   34   (INCLUDING BUT NOT LIMITED TO ANY DEFENSE THEREOF), OR OTHER SIMILAR COSTS.
//   35 
//   36   Should you have any questions regarding your right to use this Software,
//   37   contact Texas Instruments Incorporated at www.TI.com.
//   38 **************************************************************************************************/
//   39 
//   40 /*********************************************************************
//   41   This application isn't intended to do anything useful, it is
//   42   intended to be a simple example of an application's structure.
//   43 
//   44   This application sends it's messages either as broadcast or
//   45   broadcast filtered group messages.  The other (more normal)
//   46   message addressing is unicast.  Most of the other sample
//   47   applications are written to support the unicast message model.
//   48 
//   49   Key control:
//   50     SW1:  Sends a flash command to all devices in Group 1.
//   51     SW2:  Adds/Removes (toggles) this device in and out
//   52           of Group 1.  This will enable and disable the
//   53           reception of the flash command.
//   54 *********************************************************************/
//   55 
//   56 /*********************************************************************
//   57  * INCLUDES
//   58  */
//   59 #include "OSAL.h"
//   60 #include "ZGlobals.h"
//   61 #include "AF.h"
//   62 #include "aps_groups.h"
//   63 #include "ZDApp.h"
//   64 
//   65 #include "SampleApp.h"
//   66 #include "SampleAppHw.h"
//   67 
//   68 #include "OnBoard.h"
//   69 
//   70 /* HAL */
//   71 #include "hal_lcd.h"
//   72 #include "hal_led.h"
//   73 #include "hal_key.h"
//   74 
//   75 #include  "MT_UART.h" //此处用于串口
//   76 #include  "MT.h"
//   77 #include "wdt.h"
//   78 #include "adc.h"
//   79 
//   80 #include "APSMEDE.h"
//   81 #include "AddrMgr.h"
//   82 
//   83 #include <stdio.h>
//   84 #include <stdlib.h>
//   85 #include <string.h>
//   86 
//   87 #include "osal_nv.h"
//   88 
//   89 /*********************************************************************
//   90  * MACROS（宏定义）
//   91  */
//   92 #define DATASENSOR_COOR  67
//   93 #define DATASENSOR_LEN  27
//   94 
//   95 #define DATA_OFFSET_ID    5
//   96 #define DATA_OFFSET_T0    9
//   97 #define DATA_OFFSET_U     14
//   98 #define DATA_OFFSET_GH    18
//   99 
//  100 #define COOR_DATA_LEN   67
//  101 
//  102 /* AD采样模拟开关通道 */
//  103 #define STDR_CHANNEL   0 //标准电阻
//  104 #define T0_CHANNEL     1 //温度
//  105 #define U_CHANNEL      2 //湿度
//  106 #define GH_CHANNEL     3 //光合表
//  107 
//  108 #define AD_VREF         1.25 //AD参考电压
//  109 
//  110 /*********************************************************************
//  111  * CONSTANTS
//  112  */
//  113 
//  114 /*********************************************************************
//  115  * TYPEDEFS(类型定义)
//  116  */
//  117 typedef struct
//  118 {
//  119   int temperature;
//  120   int humidity;
//  121   int photosyn; //光合量
//  122 }dataType_t;
//  123 
//  124 /*********************************************************************
//  125  * GLOBAL VARIABLES(全局变量)
//  126  */
//  127 #if (!defined (ZDO_COORDINATOR)) && (!defined (RTR_NWK))  //终端节点
//  128 
//  129 /*入网超时管理*/    /* 16.8.5适当调大离线时间限制，防止只选中单通道时重启时间过短，注意不能超过255 */
//  130 #define ORPHAN_MAX   (/*30*/60)   //离线时间限制
//  131 uint8 orphan=0;  //孤立节点计数，超过一定时间未连接到网络时重启设备
//  132 //uint8 heart=0;   //心跳包计数，超过一定时间未接收到心跳包则重启设备
//  133 //uint8 heart_open=0;  //心跳包开关
//  134 
//  135 #endif //终端
//  136 

        RSEG XDATA_Z:XDATA:NOROOT(0)
        DATA16
//  137 int debug = 0; //调试信息开关：1 开，0 关，默认关
debug:
        DS 2
        REQUIRE __INIT_XDATA_Z
//  138 

        RSEG XDATA_Z:XDATA:NOROOT(0)
        DATA16
//  139 int sensor_id = 0; //传感器ID
sensor_id:
        DS 2
        REQUIRE __INIT_XDATA_Z
//  140 

        RSEG XDATA_Z:XDATA:NOROOT(0)
        DATA32
//  141 float gh_factor = 0; //光合表系数
gh_factor:
        DS 4
        REQUIRE __INIT_XDATA_Z
//  142 

        RSEG XDATA_Z:XDATA:NOROOT(0)
        DATA16
//  143 int rs_flag = 0; //复位标志，1 复位，0 无操作
rs_flag:
        DS 2
        REQUIRE __INIT_XDATA_Z
//  144 

        RSEG XDATA_Z:XDATA:NOROOT(0)
        DATA8
//  145 uint8 dev_id[10] = {0}; //保存终端设备ID
dev_id:
        DS 10
        REQUIRE __INIT_XDATA_Z
//  146 

        RSEG XDATA_Z:XDATA:NOROOT(0)
        DATA8
//  147 uint8 dev_gh[10] = {0}; //保存终端设备光合表系数
dev_gh:
        DS 10
        REQUIRE __INIT_XDATA_Z
//  148 

        RSEG XDATA_Z:XDATA:NOROOT(0)
        DATA8
//  149 uint8 dev_wddt[10] = {0}; //保存终端设备温度订正
dev_wddt:
        DS 10
        REQUIRE __INIT_XDATA_Z
//  150 

        RSEG XDATA_Z:XDATA:NOROOT(0)
        DATA32
//  151 float cal_t0 = 0; //温度订正值变量
cal_t0:
        DS 4
        REQUIRE __INIT_XDATA_Z
//  152 
//  153 #if defined (ZDO_COORDINATOR) || defined (RTR_NWK) //协调器

        RSEG XDATA_I:XDATA:NOROOT(0)
//  154 char data_coor[128]={"BG,ID001,-600,099,1234,ID002,-600,099,1234,ID003,-600,099,1234,ED\r\n"}; //协调器数据->主采集器
data_coor:
        DATA8
        DS 128
        REQUIRE `?<Initializer for data_coor>`
        REQUIRE __INIT_XDATA_I

        RSEG XDATA_Z:XDATA:NOROOT(0)
        DATA8
//  155 dataType_t coordi[3]; //协调器数据变量
coordi:
        DS 18
        REQUIRE __INIT_XDATA_Z
//  156 #else //终端
//  157 char data_sensor[128]={"BG,ID001,-600,099,1234,ED\r\n"}; //终端传感器数据->协调器
//  158 dataType_t sensor; //传感器数据变量
//  159 #endif
//  160 
//  161 // This list should be filled with Application specific Cluster IDs.

        RSEG XDATA_ROM_C:CONST:REORDER:NOROOT(0)
        DATA8
//  162 const cId_t SampleApp_ClusterList[SAMPLEAPP_MAX_CLUSTERS] =
SampleApp_ClusterList:
        DATA16
        DW 1
        DW 2
        DW 0
        DW 0
//  163 {
//  164   SAMPLEAPP_PERIODIC_CLUSTERID,
//  165   SAMPLEAPP_FLASH_CLUSTERID
//  166 };
//  167 

        RSEG XDATA_ROM_C:CONST:REORDER:NOROOT(0)
        DATA8
//  168 const SimpleDescriptionFormat_t SampleApp_SimpleDesc =
SampleApp_SimpleDesc:
        DB 20
        DATA16
        DW 3848
        DW 1
        DATA8
        DB 0
        DB 4
        DATA16
        DW SampleApp_ClusterList
        DATA8
        DB 4
        DATA16
        DW SampleApp_ClusterList
//  169 {
//  170   SAMPLEAPP_ENDPOINT,              //  int Endpoint;
//  171   SAMPLEAPP_PROFID,                //  uint16 AppProfId[2];
//  172   SAMPLEAPP_DEVICEID,              //  uint16 AppDeviceId[2];
//  173   SAMPLEAPP_DEVICE_VERSION,        //  int   AppDevVer:4;
//  174   SAMPLEAPP_FLAGS,                 //  int   AppFlags:4;
//  175   SAMPLEAPP_MAX_CLUSTERS,          //  uint8  AppNumInClusters;
//  176   (cId_t *)SampleApp_ClusterList,  //  uint8 *pAppInClusterList;
//  177   SAMPLEAPP_MAX_CLUSTERS,          //  uint8  AppNumInClusters;
//  178   (cId_t *)SampleApp_ClusterList   //  uint8 *pAppInClusterList;
//  179 };
//  180 
//  181 // This is the Endpoint/Interface description.  It is defined here, but
//  182 // filled-in in SampleApp_Init().  Another way to go would be to fill
//  183 // in the structure here and make it a "const" (in code space).  The
//  184 // way it's defined in this sample app it is define in RAM.

        RSEG XDATA_Z:XDATA:NOROOT(0)
        DATA8
//  185 endPointDesc_t SampleApp_epDesc;
SampleApp_epDesc:
        DS 6
        REQUIRE __INIT_XDATA_Z
//  186 
//  187 /*********************************************************************
//  188  * EXTERNAL VARIABLES
//  189  */
//  190 
//  191 /*********************************************************************
//  192  * EXTERNAL FUNCTIONS
//  193  */
//  194 
//  195 /*********************************************************************
//  196  * LOCAL VARIABLES
//  197  */

        RSEG XDATA_Z:XDATA:NOROOT(0)
        DATA8
//  198 uint8 SampleApp_TaskID;   // Task ID for internal task/event processing
SampleApp_TaskID:
        DS 1
        REQUIRE __INIT_XDATA_Z
//  199                           // This variable will be received when
//  200                           // SampleApp_Init() is called.

        RSEG XDATA_Z:XDATA:NOROOT(0)
        DATA8
//  201 devStates_t SampleApp_NwkState;
SampleApp_NwkState:
        DS 1
        REQUIRE __INIT_XDATA_Z
//  202 

        RSEG XDATA_Z:XDATA:NOROOT(0)
        DATA8
//  203 uint8 SampleApp_TransID;  // This is the unique message ID (counter)
SampleApp_TransID:
        DS 1
        REQUIRE __INIT_XDATA_Z
//  204 

        RSEG XDATA_Z:XDATA:NOROOT(0)
        DATA8
//  205 afAddrType_t SampleApp_Periodic_DstAddr;
SampleApp_Periodic_DstAddr:
        DS 12
        REQUIRE __INIT_XDATA_Z

        RSEG XDATA_Z:XDATA:NOROOT(0)
        DATA8
//  206 afAddrType_t SampleApp_Flash_DstAddr;
SampleApp_Flash_DstAddr:
        DS 12
        REQUIRE __INIT_XDATA_Z

        RSEG XDATA_Z:XDATA:NOROOT(0)
        DATA8
//  207 afAddrType_t Point_To_Point_DstAddr; //网蜂点对点通信定义
Point_To_Point_DstAddr:
        DS 12
        REQUIRE __INIT_XDATA_Z
//  208 

        RSEG XDATA_Z:XDATA:NOROOT(0)
        DATA8
//  209 aps_Group_t SampleApp_Group;
SampleApp_Group:
        DS 18
        REQUIRE __INIT_XDATA_Z
//  210 

        RSEG XDATA_Z:XDATA:NOROOT(0)
        DATA8
//  211 uint8 SampleAppPeriodicCounter = 0;
SampleAppPeriodicCounter:
        DS 1
        REQUIRE __INIT_XDATA_Z

        RSEG XDATA_Z:XDATA:NOROOT(0)
        DATA8
//  212 uint8 SampleAppFlashCounter = 0;
SampleAppFlashCounter:
        DS 1
        REQUIRE __INIT_XDATA_Z
//  213 
//  214 /*********************************************************************
//  215  * LOCAL FUNCTIONS
//  216  */
//  217 void SampleApp_HandleKeys( uint8 shift, uint8 keys );
//  218 void SampleApp_MessageMSGCB( afIncomingMSGPacket_t *pckt );
//  219 void SampleApp_SendPeriodicMessage(char *p, int len );
//  220 void SampleApp_SendPointToPointMessage( char *p, int len ); //点对点发送函数
//  221 void SampleApp_SerialCMD( mtOSALSerialData_t * MSGpkt); //串口数据处理函数
//  222 void SendDataToCollector(char *ptr, int len); //串口向采集器发送数据
//  223 void ReturnTorF(int a, int b);//指令回复'T'或'F'
//  224 //void Order_Parse(char *str, int len, int flag); //协调器或串口指令解析
//  225 
//  226 /*********************************************************************
//  227  * NETWORK LAYER CALLBACKS
//  228  */
//  229 
//  230 /*********************************************************************
//  231  * PUBLIC FUNCTIONS
//  232  */
//  233 
//  234 /*********************************************************************
//  235  * @fn      SampleApp_Init
//  236  *
//  237  * @brief   Initialization function for the Generic App Task.
//  238  *          This is called during initialization and should contain
//  239  *          any application specific initialization (ie. hardware
//  240  *          initialization/setup, table initialization, power up
//  241  *          notificaiton ... ).
//  242  *          这是一个用户用于初始任务的函数，它是在系统初始化阶段被调用的，而且
//  243  *          在调用它的时候，它里面应该有相应任务的初始化（也就是说，用户有什么
//  244  *          初始化，都是放在这个函数里），比如：硬件初始化、数据表初始化、电源
//  245  *          初始化等等。
//  246  *
//  247  * @param   task_id - the ID assigned by OSAL.  This ID should be
//  248  *                    used to send messages and set timers.
//  249  *
//  250  * @return  none
//  251  */

        RSEG BANKED_CODE:CODE:NOROOT(0)
//  252 void SampleApp_Init( uint8 task_id )
SampleApp_Init:
          CFI Block cfiBlock0 Using cfiCommon0
          CFI Function SampleApp_Init
        CODE
//  253 {
        FUNCALL SampleApp_Init, osal_memset
        LOCFRAME ISTACK, 0, STACK
        LOCFRAME PSTACK, 0, STACK
        LOCFRAME XSTACK, 11, STACK
        LOCFRAME IOVERLAY, 0, STATIC
        LOCFRAME DOVERLAY, 0, STATIC
        ARGFRAME ISTACK, 0, STACK
        ARGFRAME PSTACK, 0, STACK
        ARGFRAME XSTACK, 11, STACK
        ARGFRAME IOVERLAY, 0, STATIC
        ARGFRAME DOVERLAY, 0, STATIC
        FUNCALL SampleApp_Init, MT_UartInit
        LOCFRAME ISTACK, 0, STACK
        LOCFRAME PSTACK, 0, STACK
        LOCFRAME XSTACK, 11, STACK
        LOCFRAME IOVERLAY, 0, STATIC
        LOCFRAME DOVERLAY, 0, STATIC
        ARGFRAME ISTACK, 0, STACK
        ARGFRAME PSTACK, 0, STACK
        ARGFRAME XSTACK, 11, STACK
        ARGFRAME IOVERLAY, 0, STATIC
        ARGFRAME DOVERLAY, 0, STATIC
        FUNCALL SampleApp_Init, MT_UartRegisterTaskID
        LOCFRAME ISTACK, 0, STACK
        LOCFRAME PSTACK, 0, STACK
        LOCFRAME XSTACK, 11, STACK
        LOCFRAME IOVERLAY, 0, STATIC
        LOCFRAME DOVERLAY, 0, STATIC
        ARGFRAME ISTACK, 0, STACK
        ARGFRAME PSTACK, 0, STACK
        ARGFRAME XSTACK, 11, STACK
        ARGFRAME IOVERLAY, 0, STATIC
        ARGFRAME DOVERLAY, 0, STATIC
        FUNCALL SampleApp_Init, printf
        LOCFRAME ISTACK, 0, STACK
        LOCFRAME PSTACK, 0, STACK
        LOCFRAME XSTACK, 11, STACK
        LOCFRAME IOVERLAY, 0, STATIC
        LOCFRAME DOVERLAY, 0, STATIC
        ARGFRAME ISTACK, 0, STACK
        ARGFRAME PSTACK, 0, STACK
        ARGFRAME XSTACK, 11, STACK
        ARGFRAME IOVERLAY, 0, STATIC
        ARGFRAME DOVERLAY, 0, STATIC
        FUNCALL SampleApp_Init, ADC_Init
        LOCFRAME ISTACK, 0, STACK
        LOCFRAME PSTACK, 0, STACK
        LOCFRAME XSTACK, 11, STACK
        LOCFRAME IOVERLAY, 0, STATIC
        LOCFRAME DOVERLAY, 0, STATIC
        ARGFRAME ISTACK, 0, STACK
        ARGFRAME PSTACK, 0, STACK
        ARGFRAME XSTACK, 11, STACK
        ARGFRAME IOVERLAY, 0, STATIC
        ARGFRAME DOVERLAY, 0, STATIC
        FUNCALL SampleApp_Init, osal_start_reload_timer
        LOCFRAME ISTACK, 0, STACK
        LOCFRAME PSTACK, 0, STACK
        LOCFRAME XSTACK, 11, STACK
        LOCFRAME IOVERLAY, 0, STATIC
        LOCFRAME DOVERLAY, 0, STATIC
        ARGFRAME ISTACK, 0, STACK
        ARGFRAME PSTACK, 0, STACK
        ARGFRAME XSTACK, 11, STACK
        ARGFRAME IOVERLAY, 0, STATIC
        ARGFRAME DOVERLAY, 0, STATIC
        FUNCALL SampleApp_Init, osal_start_reload_timer
        LOCFRAME ISTACK, 0, STACK
        LOCFRAME PSTACK, 0, STACK
        LOCFRAME XSTACK, 11, STACK
        LOCFRAME IOVERLAY, 0, STATIC
        LOCFRAME DOVERLAY, 0, STATIC
        ARGFRAME ISTACK, 0, STACK
        ARGFRAME PSTACK, 0, STACK
        ARGFRAME XSTACK, 11, STACK
        ARGFRAME IOVERLAY, 0, STATIC
        ARGFRAME DOVERLAY, 0, STATIC
        FUNCALL SampleApp_Init, WDT_Init
        LOCFRAME ISTACK, 0, STACK
        LOCFRAME PSTACK, 0, STACK
        LOCFRAME XSTACK, 11, STACK
        LOCFRAME IOVERLAY, 0, STATIC
        LOCFRAME DOVERLAY, 0, STATIC
        ARGFRAME ISTACK, 0, STACK
        ARGFRAME PSTACK, 0, STACK
        ARGFRAME XSTACK, 11, STACK
        ARGFRAME IOVERLAY, 0, STATIC
        ARGFRAME DOVERLAY, 0, STATIC
        FUNCALL SampleApp_Init, readCoordinatorJumper
        LOCFRAME ISTACK, 0, STACK
        LOCFRAME PSTACK, 0, STACK
        LOCFRAME XSTACK, 11, STACK
        LOCFRAME IOVERLAY, 0, STATIC
        LOCFRAME DOVERLAY, 0, STATIC
        ARGFRAME ISTACK, 0, STACK
        ARGFRAME PSTACK, 0, STACK
        ARGFRAME XSTACK, 11, STACK
        ARGFRAME IOVERLAY, 0, STATIC
        ARGFRAME DOVERLAY, 0, STATIC
        FUNCALL SampleApp_Init, ZDOInitDevice
        LOCFRAME ISTACK, 0, STACK
        LOCFRAME PSTACK, 0, STACK
        LOCFRAME XSTACK, 11, STACK
        LOCFRAME IOVERLAY, 0, STATIC
        LOCFRAME DOVERLAY, 0, STATIC
        ARGFRAME ISTACK, 0, STACK
        ARGFRAME PSTACK, 0, STACK
        ARGFRAME XSTACK, 11, STACK
        ARGFRAME IOVERLAY, 0, STATIC
        ARGFRAME DOVERLAY, 0, STATIC
        FUNCALL SampleApp_Init, afRegister
        LOCFRAME ISTACK, 0, STACK
        LOCFRAME PSTACK, 0, STACK
        LOCFRAME XSTACK, 11, STACK
        LOCFRAME IOVERLAY, 0, STATIC
        LOCFRAME DOVERLAY, 0, STATIC
        ARGFRAME ISTACK, 0, STACK
        ARGFRAME PSTACK, 0, STACK
        ARGFRAME XSTACK, 11, STACK
        ARGFRAME IOVERLAY, 0, STATIC
        ARGFRAME DOVERLAY, 0, STATIC
        FUNCALL SampleApp_Init, RegisterForKeys
        LOCFRAME ISTACK, 0, STACK
        LOCFRAME PSTACK, 0, STACK
        LOCFRAME XSTACK, 11, STACK
        LOCFRAME IOVERLAY, 0, STATIC
        LOCFRAME DOVERLAY, 0, STATIC
        ARGFRAME ISTACK, 0, STACK
        ARGFRAME PSTACK, 0, STACK
        ARGFRAME XSTACK, 11, STACK
        ARGFRAME IOVERLAY, 0, STATIC
        ARGFRAME DOVERLAY, 0, STATIC
        FUNCALL SampleApp_Init, osal_memcpy
        LOCFRAME ISTACK, 0, STACK
        LOCFRAME PSTACK, 0, STACK
        LOCFRAME XSTACK, 14, STACK
        LOCFRAME IOVERLAY, 0, STATIC
        LOCFRAME DOVERLAY, 0, STATIC
        ARGFRAME ISTACK, 0, STACK
        ARGFRAME PSTACK, 0, STACK
        ARGFRAME XSTACK, 14, STACK
        ARGFRAME IOVERLAY, 0, STATIC
        ARGFRAME DOVERLAY, 0, STATIC
        FUNCALL SampleApp_Init, aps_AddGroup
        LOCFRAME ISTACK, 0, STACK
        LOCFRAME PSTACK, 0, STACK
        LOCFRAME XSTACK, 11, STACK
        LOCFRAME IOVERLAY, 0, STATIC
        LOCFRAME DOVERLAY, 0, STATIC
        ARGFRAME ISTACK, 0, STACK
        ARGFRAME PSTACK, 0, STACK
        ARGFRAME XSTACK, 11, STACK
        ARGFRAME IOVERLAY, 0, STATIC
        ARGFRAME DOVERLAY, 0, STATIC
        FUNCALL SampleApp_Init, HalLcdWriteString
        LOCFRAME ISTACK, 0, STACK
        LOCFRAME PSTACK, 0, STACK
        LOCFRAME XSTACK, 11, STACK
        LOCFRAME IOVERLAY, 0, STATIC
        LOCFRAME DOVERLAY, 0, STATIC
        ARGFRAME ISTACK, 0, STACK
        ARGFRAME PSTACK, 0, STACK
        ARGFRAME XSTACK, 11, STACK
        ARGFRAME IOVERLAY, 0, STATIC
        ARGFRAME DOVERLAY, 0, STATIC
        REQUIRE ?V0
        REQUIRE ?V1
        REQUIRE ?V2
        MOV     A,#-0xb
        LCALL   ?BANKED_ENTER_XDATA
          CFI DPH0 load(1, XDATA, add(CFA_XSP16, literal(-1)))
          CFI DPL0 load(1, XDATA, add(CFA_XSP16, literal(-2)))
          CFI ?BRET_EXT load(1, XDATA, add(CFA_XSP16, literal(-3)))
          CFI ?RET_HIGH load(1, XDATA, add(CFA_XSP16, literal(-4)))
          CFI ?RET_LOW load(1, XDATA, add(CFA_XSP16, literal(-5)))
          CFI R7 load(1, XDATA, add(CFA_XSP16, literal(-6)))
          CFI V2 load(1, XDATA, add(CFA_XSP16, literal(-7)))
          CFI V1 load(1, XDATA, add(CFA_XSP16, literal(-8)))
          CFI V0 load(1, XDATA, add(CFA_XSP16, literal(-9)))
          CFI VB load(1, XDATA, add(CFA_XSP16, literal(-10)))
          CFI R6 load(1, XDATA, add(CFA_XSP16, literal(-11)))
          CFI CFA_SP SP+0
          CFI CFA_XSP16 add(XSP16, 11)
        ; Saved register size: 11
        ; Auto size: 0
        MOV     A,R1
        MOV     R6,A
//  254   SampleApp_TaskID = task_id;
        MOV     DPTR,#SampleApp_TaskID
        MOVX    @DPTR,A
//  255   SampleApp_NwkState = DEV_INIT;
        MOV     DPTR,#SampleApp_NwkState
        MOV     A,#0x1
        MOVX    @DPTR,A
//  256   SampleApp_TransID = 0;
        MOV     DPTR,#SampleApp_TransID
        CLR     A
        MOVX    @DPTR,A
//  257   
//  258 #if defined (ZDO_COORDINATOR) || defined (RTR_NWK) //协调器
//  259   osal_memset(coordi, 0, sizeof(dataType_t)*3); //协调器数据变量初始化
        ; Setup parameters for call to function osal_memset
        MOV     R4,#0x12
        MOV     R5,A
        MOV     R1,A
        MOV     R2,#coordi & 0xff
        MOV     R3,#(coordi >> 8) & 0xff
        LCALL   ??osal_memset?relay  ; Banked call to: osal_memset
//  260 #else //终端
//  261   osal_memset(&sensor, 0, sizeof(dataType_t)); //传感器数据变量初始化
//  262 #endif
//  263   
//  264   MT_UartInit(); //串口初始化
        ; Setup parameters for call to function MT_UartInit
        LCALL   ??MT_UartInit?relay  ; Banked call to: MT_UartInit
//  265   MT_UartRegisterTaskID(task_id); //登记任务号
        ; Setup parameters for call to function MT_UartRegisterTaskID
        MOV     A,R6
        MOV     R1,A
        LCALL   ??MT_UartRegisterTaskID?relay; Banked call to: MT_UartRegisterTaskID
//  266   printf("System init!\n"); //打印开机初始化信息
        ; Setup parameters for call to function printf
        MOV     R2,#`?<Constant "System init!\\n">` & 0xff
        MOV     R3,#(`?<Constant "System init!\\n">` >> 8) & 0xff
        LCALL   ??printf?relay       ; Banked call to: printf
//  267   
//  268   ADC_Init(); //AD7705初始化，包括初始化SPI1和复位I/O引脚配置
        ; Setup parameters for call to function ADC_Init
        LCALL   ??ADC_Init?relay     ; Banked call to: ADC_Init
//  269   
//  270   osal_start_reload_timer( SampleApp_TaskID, SAMPLEAPP_SEND_PERIODIC_MSG_EVT, SAMPLEAPP_SEND_PERIODIC_MSG_TIMEOUT ); //周期5s定时器
        ; Setup parameters for call to function osal_start_reload_timer
        MOV     R4,#-0x78
        MOV     R5,#0x13
        MOV     R2,#0x1
        MOV     R3,#0x0
        MOV     DPTR,#SampleApp_TaskID
        MOVX    A,@DPTR
        MOV     R1,A
        LCALL   ??osal_start_reload_timer?relay; Banked call to: osal_start_reload_timer
//  271   
//  272   osal_start_reload_timer( SampleApp_TaskID, SAMPLEAPP_WDT_PERIODIC_MSG_EVT, SAMPLEAPP_FEEDWDT_PERIODIC_TIMEOUT ); //周期500ms定时器
        ; Setup parameters for call to function osal_start_reload_timer
        MOV     R4,#-0xc
        MOV     R5,#0x1
        MOV     R2,#0x2
        MOV     R3,#0x0
        MOV     DPTR,#SampleApp_TaskID
        MOVX    A,@DPTR
        MOV     R1,A
        LCALL   ??osal_start_reload_timer?relay; Banked call to: osal_start_reload_timer
//  273             
//  274   WDT_Init();//看门狗初始化，放狗
        ; Setup parameters for call to function WDT_Init
        LCALL   ??WDT_Init?relay     ; Banked call to: WDT_Init
//  275   
//  276 #if !(defined (ZDO_COORDINATOR)) || !(defined (RTR_NWK)) //终端
//  277   /* 初始化保存系统参数的flash区域 */
//  278   if(SUCCESS != osal_nv_item_init(DEVICE_ID, DEVICE_ID_LEN, NULL)) //设备ID存入flash区域初始化
//  279     printf("ID flash init failed!!\n");
//  280   
//  281   if(SUCCESS !=osal_nv_item_init(DEVICE_GH, DEVICE_GH_LEN, NULL)) //设备光合表系数存入flash区域初始化
//  282     printf("GH flash init failed!!\n");
//  283   
//  284   if(SUCCESS !=osal_nv_item_init(DEVICE_WDDT, DEVICE_WDDT_LEN, NULL)) //设备温度订正值存入flash区域初始化
//  285     printf("WDDT flash init failed!!\n");
//  286   
//  287   /* 终端传感器读入系统初始化参数，设备ID与光合表系数 */
//  288   if(SUCCESS == osal_nv_read(DEVICE_ID, 0, DEVICE_ID_LEN, dev_id)) //读入flash中存放的设备ID
//  289     sensor_id = atoi(dev_id);
//  290   else
//  291     printf("ID flash read failed!!\n");
//  292   
//  293   if(SUCCESS == osal_nv_read(DEVICE_GH, 0, DEVICE_GH_LEN, dev_gh)) //读入flash中存放的设备光合表系数
//  294     gh_factor = atof(dev_gh);
//  295   else
//  296     printf("GH flash read failed!!\n");
//  297   
//  298   if(SUCCESS == osal_nv_read(DEVICE_WDDT, 0, DEVICE_WDDT_LEN, dev_wddt)) //读入flash中存放的设备温度订正值
//  299     cal_t0 = atof(dev_wddt);
//  300   else
//  301     printf("WDDT flash read failed!!\n");
//  302   
//  303 #endif
//  304   
//  305   // Device hardware initialization can be added here or in main() (Zmain.c).
//  306   // If the hardware is application specific - add it here.
//  307   // If the hardware is other parts of the device add it in main().
//  308 
//  309  #if defined ( BUILD_ALL_DEVICES )
//  310   // The "Demo" target is setup to have BUILD_ALL_DEVICES and HOLD_AUTO_START
//  311   // We are looking at a jumper (defined in SampleAppHw.c) to be jumpered
//  312   // together - if they are - we will start up a coordinator. Otherwise,
//  313   // the device will start as a router.
//  314   if ( readCoordinatorJumper() )
        ; Setup parameters for call to function readCoordinatorJumper
        LCALL   ??readCoordinatorJumper?relay; Banked call to: readCoordinatorJumper
        MOV     A,R1
        MOV     DPTR,#zgDeviceLogicalType
        JZ      ??SampleApp_Init_0
//  315     zgDeviceLogicalType = ZG_DEVICETYPE_COORDINATOR;
        CLR     A
        SJMP    ??SampleApp_Init_1
//  316   else
//  317     zgDeviceLogicalType = ZG_DEVICETYPE_ROUTER;
??SampleApp_Init_0:
        MOV     A,#0x1
??SampleApp_Init_1:
        MOVX    @DPTR,A
//  318 #endif // BUILD_ALL_DEVICES
//  319 
//  320 #if defined ( HOLD_AUTO_START )
//  321   // HOLD_AUTO_START is a compile option that will surpress ZDApp
//  322   //  from starting the device and wait for the application to
//  323   //  start the device.
//  324   ZDOInitDevice(0);
        ; Setup parameters for call to function ZDOInitDevice
        MOV     R2,#0x0
        MOV     R3,#0x0
        LCALL   ??ZDOInitDevice?relay; Banked call to: ZDOInitDevice
//  325 #endif
//  326 
//  327   // Setup for the periodic message's destination address
//  328   // Broadcast to everyone
//  329   SampleApp_Periodic_DstAddr.addrMode = (afAddrMode_t)AddrBroadcast;
        MOV     DPTR,#SampleApp_Periodic_DstAddr + 8
        MOV     A,#0xf
        MOVX    @DPTR,A
//  330   SampleApp_Periodic_DstAddr.endPoint = SAMPLEAPP_ENDPOINT;
        INC     DPTR
        MOV     A,#0x14
        MOVX    @DPTR,A
//  331   SampleApp_Periodic_DstAddr.addr.shortAddr = 0xFFFF;
        MOV     DPTR,#SampleApp_Periodic_DstAddr
        MOV     A,#-0x1
        MOVX    @DPTR,A
        INC     DPTR
        MOVX    @DPTR,A
//  332 
//  333   // Setup for the flash command's destination address - Group 1
//  334   SampleApp_Flash_DstAddr.addrMode = (afAddrMode_t)afAddrGroup;
        MOV     DPTR,#SampleApp_Flash_DstAddr + 8
        MOV     A,#0x1
        MOVX    @DPTR,A
//  335   SampleApp_Flash_DstAddr.endPoint = SAMPLEAPP_ENDPOINT;
        INC     DPTR
        MOV     A,#0x14
        MOVX    @DPTR,A
//  336   SampleApp_Flash_DstAddr.addr.shortAddr = SAMPLEAPP_FLASH_GROUP;
        MOV     DPTR,#SampleApp_Flash_DstAddr
        MOV     A,#0x1
        MOVX    @DPTR,A
        INC     DPTR
        CLR     A
        MOVX    @DPTR,A
//  337   
//  338   // 网蜂点对点通讯定义
//  339   Point_To_Point_DstAddr.addrMode = (afAddrMode_t)Addr16Bit;//点播
        MOV     DPTR,#Point_To_Point_DstAddr + 8
        MOV     A,#0x2
        MOVX    @DPTR,A
//  340   Point_To_Point_DstAddr.endPoint = SAMPLEAPP_ENDPOINT;
        INC     DPTR
        MOV     A,#0x14
        MOVX    @DPTR,A
//  341   Point_To_Point_DstAddr.addr.shortAddr = 0x0000; //发给协调器
        MOV     DPTR,#Point_To_Point_DstAddr
        CLR     A
        MOVX    @DPTR,A
        INC     DPTR
        MOVX    @DPTR,A
//  342 
//  343   // Fill out the endpoint description.
//  344   SampleApp_epDesc.endPoint = SAMPLEAPP_ENDPOINT;
        MOV     DPTR,#SampleApp_epDesc
        MOV     A,#0x14
        MOVX    @DPTR,A
//  345   SampleApp_epDesc.task_id = &SampleApp_TaskID;
        INC     DPTR
        MOV     A,#SampleApp_TaskID & 0xff
        MOVX    @DPTR,A
        INC     DPTR
        MOV     A,#(SampleApp_TaskID >> 8) & 0xff
        MOVX    @DPTR,A
//  346   SampleApp_epDesc.simpleDesc
//  347             = (SimpleDescriptionFormat_t *)&SampleApp_SimpleDesc;
        INC     DPTR
        MOV     A,#SampleApp_SimpleDesc & 0xff
        MOVX    @DPTR,A
        INC     DPTR
        MOV     A,#(SampleApp_SimpleDesc >> 8) & 0xff
        MOVX    @DPTR,A
//  348   SampleApp_epDesc.latencyReq = noLatencyReqs;
        INC     DPTR
        CLR     A
        MOVX    @DPTR,A
//  349 
//  350   // Register the endpoint description with the AF
//  351   afRegister( &SampleApp_epDesc );
        ; Setup parameters for call to function afRegister
        MOV     R2,#SampleApp_epDesc & 0xff
        MOV     R3,#(SampleApp_epDesc >> 8) & 0xff
        LCALL   ??afRegister?relay   ; Banked call to: afRegister
//  352 
//  353   // Register for all key events - This app will handle all key events
//  354   RegisterForKeys( SampleApp_TaskID );
        ; Setup parameters for call to function RegisterForKeys
        MOV     DPTR,#SampleApp_TaskID
        MOVX    A,@DPTR
        MOV     R1,A
        LCALL   ??RegisterForKeys?relay; Banked call to: RegisterForKeys
//  355 
//  356   // By default, all devices start out in Group 1
//  357   SampleApp_Group.ID = 0x0001;
        MOV     DPTR,#SampleApp_Group
        MOV     A,#0x1
        MOVX    @DPTR,A
        INC     DPTR
        CLR     A
        MOVX    @DPTR,A
//  358   osal_memcpy( SampleApp_Group.name, "Group 1", 7  );
        ; Setup parameters for call to function osal_memcpy
        MOV     ?V0,#`?<Constant "Group 1">` & 0xff
        MOV     ?V1,#(`?<Constant "Group 1">` >> 8) & 0xff
        MOV     ?V2,A
        MOV     R0,#?V0
        LCALL   ?PUSH_XSTACK_I_THREE
          CFI CFA_XSP16 add(XSP16, 14)
        MOV     R4,#0x7
        MOV     R5,#0x0
        MOV     R2,#(SampleApp_Group + 2) & 0xff
        MOV     R3,#((SampleApp_Group + 2) >> 8) & 0xff
        LCALL   ??osal_memcpy?relay  ; Banked call to: osal_memcpy
        MOV     A,#0x3
        LCALL   ?DEALLOC_XSTACK8
          CFI CFA_XSP16 add(XSP16, 11)
//  359   aps_AddGroup( SAMPLEAPP_ENDPOINT, &SampleApp_Group );
        ; Setup parameters for call to function aps_AddGroup
        MOV     R2,#SampleApp_Group & 0xff
        MOV     R3,#(SampleApp_Group >> 8) & 0xff
        MOV     R1,#0x14
        LCALL   ??aps_AddGroup?relay ; Banked call to: aps_AddGroup
//  360 
//  361 #if defined ( LCD_SUPPORTED )
//  362   HalLcdWriteString( "SampleApp", HAL_LCD_LINE_1 );
        ; Setup parameters for call to function HalLcdWriteString
        MOV     R1,#0x1
        MOV     R2,#`?<Constant "SampleApp">` & 0xff
        MOV     R3,#(`?<Constant "SampleApp">` >> 8) & 0xff
        LCALL   ??HalLcdWriteString?relay; Banked call to: HalLcdWriteString
//  363 #endif
//  364 }
        MOV     R7,#0x3
        LJMP    ?BANKED_LEAVE_XDATA
          CFI EndBlock cfiBlock0
//  365 
//  366 /*********************************************************************
//  367  * @fn      SampleApp_ProcessEvent
//  368  *
//  369  * @brief   Generic Application Task event processor.  This function
//  370  *          is called to process all events for the task.  Events
//  371  *          include timers, messages and any other user defined events.
//  372  *          事件处理函数（所有的事件都是它管理）
//  373  *
//  374  * @param   task_id  - The OSAL assigned task ID.
//  375  * @param   events - events to process.  This is a bit map and can
//  376  *                   contain more than one event.
//  377  *
//  378  * @return  none
//  379  */

        RSEG BANKED_CODE:CODE:NOROOT(0)
//  380 uint16 SampleApp_ProcessEvent( uint8 task_id, uint16 events )
SampleApp_ProcessEvent:
          CFI Block cfiBlock1 Using cfiCommon0
          CFI Function SampleApp_ProcessEvent
        CODE
//  381 {
        FUNCALL SampleApp_ProcessEvent, osal_msg_receive
        LOCFRAME ISTACK, 0, STACK
        LOCFRAME PSTACK, 0, STACK
        LOCFRAME XSTACK, 12, STACK
        LOCFRAME IOVERLAY, 0, STATIC
        LOCFRAME DOVERLAY, 0, STATIC
        ARGFRAME ISTACK, 0, STACK
        ARGFRAME PSTACK, 0, STACK
        ARGFRAME XSTACK, 12, STACK
        ARGFRAME IOVERLAY, 0, STATIC
        ARGFRAME DOVERLAY, 0, STATIC
        FUNCALL SampleApp_ProcessEvent, printf
        LOCFRAME ISTACK, 0, STACK
        LOCFRAME PSTACK, 0, STACK
        LOCFRAME XSTACK, 12, STACK
        LOCFRAME IOVERLAY, 0, STATIC
        LOCFRAME DOVERLAY, 0, STATIC
        ARGFRAME ISTACK, 0, STACK
        ARGFRAME PSTACK, 0, STACK
        ARGFRAME XSTACK, 12, STACK
        ARGFRAME IOVERLAY, 0, STATIC
        ARGFRAME DOVERLAY, 0, STATIC
        FUNCALL SampleApp_ProcessEvent, osal_msg_deallocate
        LOCFRAME ISTACK, 0, STACK
        LOCFRAME PSTACK, 0, STACK
        LOCFRAME XSTACK, 12, STACK
        LOCFRAME IOVERLAY, 0, STATIC
        LOCFRAME DOVERLAY, 0, STATIC
        ARGFRAME ISTACK, 0, STACK
        ARGFRAME PSTACK, 0, STACK
        ARGFRAME XSTACK, 12, STACK
        ARGFRAME IOVERLAY, 0, STATIC
        ARGFRAME DOVERLAY, 0, STATIC
        FUNCALL SampleApp_ProcessEvent, osal_msg_receive
        LOCFRAME ISTACK, 0, STACK
        LOCFRAME PSTACK, 0, STACK
        LOCFRAME XSTACK, 12, STACK
        LOCFRAME IOVERLAY, 0, STATIC
        LOCFRAME DOVERLAY, 0, STATIC
        ARGFRAME ISTACK, 0, STACK
        ARGFRAME PSTACK, 0, STACK
        ARGFRAME XSTACK, 12, STACK
        ARGFRAME IOVERLAY, 0, STATIC
        ARGFRAME DOVERLAY, 0, STATIC
        FUNCALL SampleApp_ProcessEvent, SampleApp_SerialCMD
        LOCFRAME ISTACK, 0, STACK
        LOCFRAME PSTACK, 0, STACK
        LOCFRAME XSTACK, 12, STACK
        LOCFRAME IOVERLAY, 0, STATIC
        LOCFRAME DOVERLAY, 0, STATIC
        ARGFRAME ISTACK, 0, STACK
        ARGFRAME PSTACK, 0, STACK
        ARGFRAME XSTACK, 12, STACK
        ARGFRAME IOVERLAY, 0, STATIC
        ARGFRAME DOVERLAY, 0, STATIC
        FUNCALL SampleApp_ProcessEvent, SampleApp_MessageMSGCB
        LOCFRAME ISTACK, 0, STACK
        LOCFRAME PSTACK, 0, STACK
        LOCFRAME XSTACK, 12, STACK
        LOCFRAME IOVERLAY, 0, STATIC
        LOCFRAME DOVERLAY, 0, STATIC
        ARGFRAME ISTACK, 0, STACK
        ARGFRAME PSTACK, 0, STACK
        ARGFRAME XSTACK, 12, STACK
        ARGFRAME IOVERLAY, 0, STATIC
        ARGFRAME DOVERLAY, 0, STATIC
        FUNCALL SampleApp_ProcessEvent, printf
        LOCFRAME ISTACK, 0, STACK
        LOCFRAME PSTACK, 0, STACK
        LOCFRAME XSTACK, 12, STACK
        LOCFRAME IOVERLAY, 0, STATIC
        LOCFRAME DOVERLAY, 0, STATIC
        ARGFRAME ISTACK, 0, STACK
        ARGFRAME PSTACK, 0, STACK
        ARGFRAME XSTACK, 12, STACK
        ARGFRAME IOVERLAY, 0, STATIC
        ARGFRAME DOVERLAY, 0, STATIC
        FUNCALL SampleApp_ProcessEvent, printf
        LOCFRAME ISTACK, 0, STACK
        LOCFRAME PSTACK, 0, STACK
        LOCFRAME XSTACK, 20, STACK
        LOCFRAME IOVERLAY, 0, STATIC
        LOCFRAME DOVERLAY, 0, STATIC
        ARGFRAME ISTACK, 0, STACK
        ARGFRAME PSTACK, 0, STACK
        ARGFRAME XSTACK, 20, STACK
        ARGFRAME IOVERLAY, 0, STATIC
        ARGFRAME DOVERLAY, 0, STATIC
        FUNCALL SampleApp_ProcessEvent, printf
        LOCFRAME ISTACK, 0, STACK
        LOCFRAME PSTACK, 0, STACK
        LOCFRAME XSTACK, 28, STACK
        LOCFRAME IOVERLAY, 0, STATIC
        LOCFRAME DOVERLAY, 0, STATIC
        ARGFRAME ISTACK, 0, STACK
        ARGFRAME PSTACK, 0, STACK
        ARGFRAME XSTACK, 28, STACK
        ARGFRAME IOVERLAY, 0, STATIC
        ARGFRAME DOVERLAY, 0, STATIC
        FUNCALL SampleApp_ProcessEvent, printf
        LOCFRAME ISTACK, 0, STACK
        LOCFRAME PSTACK, 0, STACK
        LOCFRAME XSTACK, 28, STACK
        LOCFRAME IOVERLAY, 0, STATIC
        LOCFRAME DOVERLAY, 0, STATIC
        ARGFRAME ISTACK, 0, STACK
        ARGFRAME PSTACK, 0, STACK
        ARGFRAME XSTACK, 28, STACK
        ARGFRAME IOVERLAY, 0, STATIC
        ARGFRAME DOVERLAY, 0, STATIC
        FUNCALL SampleApp_ProcessEvent, printf
        LOCFRAME ISTACK, 0, STACK
        LOCFRAME PSTACK, 0, STACK
        LOCFRAME XSTACK, 20, STACK
        LOCFRAME IOVERLAY, 0, STATIC
        LOCFRAME DOVERLAY, 0, STATIC
        ARGFRAME ISTACK, 0, STACK
        ARGFRAME PSTACK, 0, STACK
        ARGFRAME XSTACK, 20, STACK
        ARGFRAME IOVERLAY, 0, STATIC
        ARGFRAME DOVERLAY, 0, STATIC
        FUNCALL SampleApp_ProcessEvent, printf
        LOCFRAME ISTACK, 0, STACK
        LOCFRAME PSTACK, 0, STACK
        LOCFRAME XSTACK, 28, STACK
        LOCFRAME IOVERLAY, 0, STATIC
        LOCFRAME DOVERLAY, 0, STATIC
        ARGFRAME ISTACK, 0, STACK
        ARGFRAME PSTACK, 0, STACK
        ARGFRAME XSTACK, 28, STACK
        ARGFRAME IOVERLAY, 0, STATIC
        ARGFRAME DOVERLAY, 0, STATIC
        FUNCALL SampleApp_ProcessEvent, printf
        LOCFRAME ISTACK, 0, STACK
        LOCFRAME PSTACK, 0, STACK
        LOCFRAME XSTACK, 28, STACK
        LOCFRAME IOVERLAY, 0, STATIC
        LOCFRAME DOVERLAY, 0, STATIC
        ARGFRAME ISTACK, 0, STACK
        ARGFRAME PSTACK, 0, STACK
        ARGFRAME XSTACK, 28, STACK
        ARGFRAME IOVERLAY, 0, STATIC
        ARGFRAME DOVERLAY, 0, STATIC
        FUNCALL SampleApp_ProcessEvent, printf
        LOCFRAME ISTACK, 0, STACK
        LOCFRAME PSTACK, 0, STACK
        LOCFRAME XSTACK, 18, STACK
        LOCFRAME IOVERLAY, 0, STATIC
        LOCFRAME DOVERLAY, 0, STATIC
        ARGFRAME ISTACK, 0, STACK
        ARGFRAME PSTACK, 0, STACK
        ARGFRAME XSTACK, 18, STACK
        ARGFRAME IOVERLAY, 0, STATIC
        ARGFRAME DOVERLAY, 0, STATIC
        FUNCALL SampleApp_ProcessEvent, printf
        LOCFRAME ISTACK, 0, STACK
        LOCFRAME PSTACK, 0, STACK
        LOCFRAME XSTACK, 28, STACK
        LOCFRAME IOVERLAY, 0, STATIC
        LOCFRAME DOVERLAY, 0, STATIC
        ARGFRAME ISTACK, 0, STACK
        ARGFRAME PSTACK, 0, STACK
        ARGFRAME XSTACK, 28, STACK
        ARGFRAME IOVERLAY, 0, STATIC
        ARGFRAME DOVERLAY, 0, STATIC
        FUNCALL SampleApp_ProcessEvent, WDT_Feed
        LOCFRAME ISTACK, 0, STACK
        LOCFRAME PSTACK, 0, STACK
        LOCFRAME XSTACK, 12, STACK
        LOCFRAME IOVERLAY, 0, STATIC
        LOCFRAME DOVERLAY, 0, STATIC
        ARGFRAME ISTACK, 0, STACK
        ARGFRAME PSTACK, 0, STACK
        ARGFRAME XSTACK, 12, STACK
        ARGFRAME IOVERLAY, 0, STATIC
        ARGFRAME DOVERLAY, 0, STATIC
        REQUIRE ?V0
        REQUIRE ?V1
        REQUIRE ?V2
        REQUIRE ?V3
        MOV     A,#-0xc
        LCALL   ?BANKED_ENTER_XDATA
          CFI DPH0 load(1, XDATA, add(CFA_XSP16, literal(-1)))
          CFI DPL0 load(1, XDATA, add(CFA_XSP16, literal(-2)))
          CFI ?BRET_EXT load(1, XDATA, add(CFA_XSP16, literal(-3)))
          CFI ?RET_HIGH load(1, XDATA, add(CFA_XSP16, literal(-4)))
          CFI ?RET_LOW load(1, XDATA, add(CFA_XSP16, literal(-5)))
          CFI R7 load(1, XDATA, add(CFA_XSP16, literal(-6)))
          CFI V3 load(1, XDATA, add(CFA_XSP16, literal(-7)))
          CFI V2 load(1, XDATA, add(CFA_XSP16, literal(-8)))
          CFI V1 load(1, XDATA, add(CFA_XSP16, literal(-9)))
          CFI V0 load(1, XDATA, add(CFA_XSP16, literal(-10)))
          CFI VB load(1, XDATA, add(CFA_XSP16, literal(-11)))
          CFI R6 load(1, XDATA, add(CFA_XSP16, literal(-12)))
          CFI CFA_SP SP+0
          CFI CFA_XSP16 add(XSP16, 12)
        ; Saved register size: 12
        ; Auto size: 0
        MOV     ?V0,R2
        MOV     ?V1,R3
//  382   afIncomingMSGPacket_t *MSGpkt;
//  383   (void)task_id;  // Intentionally unreferenced parameter
//  384 
//  385   if ( events & SYS_EVENT_MSG )
        MOV     A,R3
        ANL     A,#0x80
        JNZ     $+5
        LJMP    ??SampleApp_ProcessEvent_0 & 0xFFFF
//  386   {
//  387     MSGpkt = (afIncomingMSGPacket_t *)osal_msg_receive( SampleApp_TaskID );
        ; Setup parameters for call to function osal_msg_receive
        SJMP    ??SampleApp_ProcessEvent_1
//  388     while ( MSGpkt )
//  389     {
//  390       switch ( MSGpkt->hdr.event )
//  391       {
//  392         case CMD_SERIAL_MSG: //串口收到数据后由 MT_UART 层传递过来的数据，用网蜂方法接收，编译时不定义 MT相关内容 
//  393           SampleApp_SerialCMD((mtOSALSerialData_t *)MSGpkt);
//  394           break;
//  395 
//  396         // Received when a messages is received (OTA) for this endpoint
//  397         case AF_INCOMING_MSG_CMD: //无线数据接收
//  398           SampleApp_MessageMSGCB( MSGpkt );
//  399           break;
//  400 
//  401         // Received whenever the device changes state in the network
//  402         case ZDO_STATE_CHANGE:
//  403           SampleApp_NwkState = (devStates_t)(MSGpkt->hdr.status);
//  404           if ( (SampleApp_NwkState == DEV_ZB_COORD)
//  405               || (SampleApp_NwkState == DEV_ROUTER)
//  406               || (SampleApp_NwkState == DEV_END_DEVICE) ) //网络连接成功
//  407           {
//  408             printf("NET SUCCESS!\r\n");
//  409             switch(SampleApp_NwkState)   //根据_NIB结构中的内容得到设备的短地址、父节点短地址、信道号和网络PanID，并通过串口打印出去
//  410             {
//  411             case DEV_ROUTER:  //路由器节点
//  412               printf("Router:0x%04X\r\nParent:0x%04X\r\nChannel:%d\r\nPanID:0x%04X\r\n",
//  413                       _NIB.nwkDevAddress,_NIB.nwkCoordAddress,_NIB.nwkLogicalChannel,_NIB.nwkPanId);
//  414 
//  415               printf("IEEE:%02X%02X%02X%02X%02X%02X%02X%02X\r\n",      //IEEE地址
//  416                       aExtendedAddress[7],aExtendedAddress[6],aExtendedAddress[5],aExtendedAddress[4],
//  417                       aExtendedAddress[3],aExtendedAddress[2],aExtendedAddress[1],aExtendedAddress[0]);
//  418 
//  419               printf("Parent IEEE:%02X%02X%02X%02X%02X%02X%02X%02X\r\n",      //父节点IEEE地址
//  420                       _NIB.nwkCoordExtAddress[7],_NIB.nwkCoordExtAddress[6],_NIB.nwkCoordExtAddress[5],_NIB.nwkCoordExtAddress[4],
//  421                       _NIB.nwkCoordExtAddress[3],_NIB.nwkCoordExtAddress[2],_NIB.nwkCoordExtAddress[1],_NIB.nwkCoordExtAddress[0]);
//  422 
//  423               break;
//  424             case DEV_END_DEVICE: //终端节点
//  425               printf("EndDevice:0x%04X\r\nParent:0x%04X\r\nChannel:%d\r\nPanID:0x%04X\r\n",
//  426                       _NIB.nwkDevAddress,_NIB.nwkCoordAddress,_NIB.nwkLogicalChannel,_NIB.nwkPanId);
//  427 
//  428               printf("IEEE:%02X%02X%02X%02X%02X%02X%02X%02X\r\n",      //IEEE地址
//  429                       aExtendedAddress[7],aExtendedAddress[6],aExtendedAddress[5],aExtendedAddress[4],
//  430                       aExtendedAddress[3],aExtendedAddress[2],aExtendedAddress[1],aExtendedAddress[0]);
//  431 
//  432               printf("Parent IEEE:%02X%02X%02X%02X%02X%02X%02X%02X\r\n",      //父节点IEEE地址
//  433                       _NIB.nwkCoordExtAddress[7],_NIB.nwkCoordExtAddress[6],_NIB.nwkCoordExtAddress[5],_NIB.nwkCoordExtAddress[4],
//  434                       _NIB.nwkCoordExtAddress[3],_NIB.nwkCoordExtAddress[2],_NIB.nwkCoordExtAddress[1],_NIB.nwkCoordExtAddress[0]);
//  435 
//  436               break;
//  437             case DEV_ZB_COORD:  //协调器
//  438               printf("Coordinator:0x%04X\r\nChannel:%d\r\nPanID:0x%04X\r\n",
//  439                       _NIB.nwkDevAddress,_NIB.nwkLogicalChannel,_NIB.nwkPanId);
//  440 
//  441               printf("IEEE:%02X%02X%02X%02X%02X%02X%02X%02X\r\n",      //IEEE地址
//  442                       aExtendedAddress[7],aExtendedAddress[6],aExtendedAddress[5],aExtendedAddress[4],
//  443                       aExtendedAddress[3],aExtendedAddress[2],aExtendedAddress[1],aExtendedAddress[0]);
//  444 
//  445               break;
//  446             default:
//  447               break;
//  448             }
//  449           }
//  450           else
//  451           {
//  452             // Device is no longer in the network
//  453             printf("NO NET\r\n");
??SampleApp_ProcessEvent_2:
        ; Setup parameters for call to function printf
        MOV     R2,#`?<Constant "NO NET\\r\\n">` & 0xff
        MOV     R3,#(`?<Constant "NO NET\\r\\n">` >> 8) & 0xff
        LCALL   ??printf?relay       ; Banked call to: printf
//  454             
//  455 #if (!defined (ZDO_COORDINATOR)) && (!defined (RTR_NWK))  //终端节点          
//  456             orphan++;  //孤立累计
//  457             if(orphan>ORPHAN_MAX)  //超过指定次数入网失败则重启设备
//  458             {
//  459               rs_flag = 1; //停止喂狗，致使系统复位
//  460             }
//  461 #endif //终端
//  462           }
//  463           break;
//  464 
//  465         default:
//  466           break;
//  467       }
//  468 
//  469       // Release the memory
//  470       osal_msg_deallocate( (uint8 *)MSGpkt );
??SampleApp_ProcessEvent_3:
        ; Setup parameters for call to function osal_msg_deallocate
        MOV     A,R6
        MOV     R2,A
        MOV     A,R7
        MOV     R3,A
        LCALL   ??osal_msg_deallocate?relay; Banked call to: osal_msg_deallocate
//  471 
//  472       // Next - if one is available
//  473       MSGpkt = (afIncomingMSGPacket_t *)osal_msg_receive( SampleApp_TaskID );
        ; Setup parameters for call to function osal_msg_receive
??SampleApp_ProcessEvent_1:
        MOV     DPTR,#SampleApp_TaskID
        MOVX    A,@DPTR
        MOV     R1,A
        LCALL   ??osal_msg_receive?relay; Banked call to: osal_msg_receive
        MOV     ?V2,R2
        MOV     ?V3,R3
        MOV     R6,?V2
        MOV     R7,?V3
        MOV     A,R6
        ORL     A,R7
        JNZ     $+5
        LJMP    ??SampleApp_ProcessEvent_4 & 0xFFFF
        MOV     DPL,R6
        MOV     DPH,R7
        MOVX    A,@DPTR
        DEC     A
        JZ      ??SampleApp_ProcessEvent_5
        ADD     A,#-0x19
        JZ      ??SampleApp_ProcessEvent_6
        ADD     A,#0x49
        JZ      ??SampleApp_ProcessEvent_7
        SJMP    ??SampleApp_ProcessEvent_3
??SampleApp_ProcessEvent_5:
        ; Setup parameters for call to function SampleApp_SerialCMD
        MOV     A,R6
        MOV     R2,A
        MOV     A,R7
        MOV     R3,A
        LCALL   ??SampleApp_SerialCMD?relay; Banked call to: SampleApp_SerialCMD
        SJMP    ??SampleApp_ProcessEvent_3
??SampleApp_ProcessEvent_6:
        ; Setup parameters for call to function SampleApp_MessageMSGCB
        MOV     A,R6
        MOV     R2,A
        MOV     A,R7
        MOV     R3,A
        LCALL   ??SampleApp_MessageMSGCB?relay; Banked call to: SampleApp_MessageMSGCB
        SJMP    ??SampleApp_ProcessEvent_3
??SampleApp_ProcessEvent_7:
        INC     DPTR
        MOVX    A,@DPTR
        MOV     DPTR,#SampleApp_NwkState
        MOVX    @DPTR,A
        XRL     A,#0x9
        JZ      ??SampleApp_ProcessEvent_8
        MOVX    A,@DPTR
        XRL     A,#0x7
        JZ      ??SampleApp_ProcessEvent_8
        MOVX    A,@DPTR
        XRL     A,#0x6
        JNZ     ??SampleApp_ProcessEvent_2
??SampleApp_ProcessEvent_8:
        ; Setup parameters for call to function printf
        MOV     R2,#`?<Constant "NET SUCCESS!\\r\\n">` & 0xff
        MOV     R3,#(`?<Constant "NET SUCCESS!\\r\\n">` >> 8) & 0xff
        LCALL   ??printf?relay       ; Banked call to: printf
        MOV     DPTR,#SampleApp_NwkState
        MOVX    A,@DPTR
        ADD     A,#-0x6
        JNZ     $+5
        LJMP    ??SampleApp_ProcessEvent_9 & 0xFFFF
        DEC     A
        JZ      ??SampleApp_ProcessEvent_10
        ADD     A,#-0x2
        JNZ     $+5
        LJMP    ??SampleApp_ProcessEvent_11 & 0xFFFF
        SJMP    ??SampleApp_ProcessEvent_3
??SampleApp_ProcessEvent_10:
        ; Setup parameters for call to function printf
        MOV     DPTR,#_NIB + 33
        LCALL   ?PUSH_XSTACK8_X_TWO
          CFI CFA_XSP16 add(XSP16, 14)
        LCALL   ?Subroutine4 & 0xFFFF
??CrossCallReturnLabel_3:
        LCALL   ?PUSH_XSTACK_I_TWO
          CFI CFA_XSP16 add(XSP16, 16)
        MOV     DPTR,#_NIB + 23
        LCALL   ?PUSH_XSTACK8_X_TWO
          CFI CFA_XSP16 add(XSP16, 18)
        MOV     DPTR,#_NIB + 20
        LCALL   ?PUSH_XSTACK8_X_TWO
          CFI CFA_XSP16 add(XSP16, 20)
        MOV     R2,#`?<Constant "Router:0x%04X\\r\\nParent...">` & 0xff
        MOV     R3,#(`?<Constant "Router:0x%04X\\r\\nParent...">` >> 8) & 0xff
??SampleApp_ProcessEvent_12:
        LCALL   ??printf?relay       ; Banked call to: printf
        MOV     A,#0x8
        LCALL   ?DEALLOC_XSTACK8
          CFI CFA_XSP16 add(XSP16, 12)
        ; Setup parameters for call to function printf
        LCALL   ?Subroutine3 & 0xFFFF
??CrossCallReturnLabel_33:
        LCALL   ?PUSH_XSTACK_I_TWO
          CFI CFA_XSP16 add(XSP16, 14)
        MOV     DPTR,#aExtendedAddress + 1
        LCALL   ??Subroutine8_0 & 0xFFFF
??CrossCallReturnLabel_11:
        LCALL   ?PUSH_XSTACK_I_TWO
          CFI CFA_XSP16 add(XSP16, 16)
        MOV     DPTR,#aExtendedAddress + 2
        LCALL   ??Subroutine8_0 & 0xFFFF
??CrossCallReturnLabel_12:
        LCALL   ?PUSH_XSTACK_I_TWO
          CFI CFA_XSP16 add(XSP16, 18)
        MOV     DPTR,#aExtendedAddress + 3
        LCALL   ??Subroutine8_0 & 0xFFFF
??CrossCallReturnLabel_13:
        LCALL   ?PUSH_XSTACK_I_TWO
          CFI CFA_XSP16 add(XSP16, 20)
        MOV     DPTR,#aExtendedAddress + 4
        LCALL   ??Subroutine8_0 & 0xFFFF
??CrossCallReturnLabel_14:
        LCALL   ?PUSH_XSTACK_I_TWO
          CFI CFA_XSP16 add(XSP16, 22)
        MOV     DPTR,#aExtendedAddress + 5
        LCALL   ??Subroutine8_0 & 0xFFFF
??CrossCallReturnLabel_15:
        LCALL   ?PUSH_XSTACK_I_TWO
          CFI CFA_XSP16 add(XSP16, 24)
        MOV     DPTR,#aExtendedAddress + 6
        LCALL   ??Subroutine8_0 & 0xFFFF
??CrossCallReturnLabel_16:
        LCALL   ?PUSH_XSTACK_I_TWO
          CFI CFA_XSP16 add(XSP16, 26)
        MOV     DPTR,#aExtendedAddress + 7
        LCALL   ??Subroutine8_0 & 0xFFFF
??CrossCallReturnLabel_17:
        LCALL   ?PUSH_XSTACK_I_TWO
          CFI CFA_XSP16 add(XSP16, 28)
        MOV     R2,#`?<Constant "IEEE:%02X%02X%02X%02X...">` & 0xff
        MOV     R3,#(`?<Constant "IEEE:%02X%02X%02X%02X...">` >> 8) & 0xff
        LCALL   ??printf?relay       ; Banked call to: printf
        MOV     A,#0x10
        LCALL   ?DEALLOC_XSTACK8
          CFI CFA_XSP16 add(XSP16, 12)
        ; Setup parameters for call to function printf
        MOV     DPTR,#_NIB + 25
        LCALL   ??Subroutine8_0 & 0xFFFF
??CrossCallReturnLabel_18:
        LCALL   ?PUSH_XSTACK_I_TWO
          CFI CFA_XSP16 add(XSP16, 14)
        MOV     DPTR,#_NIB + 26
        LCALL   ??Subroutine8_0 & 0xFFFF
??CrossCallReturnLabel_19:
        LCALL   ?PUSH_XSTACK_I_TWO
          CFI CFA_XSP16 add(XSP16, 16)
        MOV     DPTR,#_NIB + 27
        LCALL   ??Subroutine8_0 & 0xFFFF
??CrossCallReturnLabel_20:
        LCALL   ?PUSH_XSTACK_I_TWO
          CFI CFA_XSP16 add(XSP16, 18)
        MOV     DPTR,#_NIB + 28
        LCALL   ??Subroutine8_0 & 0xFFFF
??CrossCallReturnLabel_21:
        LCALL   ?PUSH_XSTACK_I_TWO
          CFI CFA_XSP16 add(XSP16, 20)
        MOV     DPTR,#_NIB + 29
        LCALL   ??Subroutine8_0 & 0xFFFF
??CrossCallReturnLabel_22:
        LCALL   ?PUSH_XSTACK_I_TWO
          CFI CFA_XSP16 add(XSP16, 22)
        MOV     DPTR,#_NIB + 30
        LCALL   ??Subroutine8_0 & 0xFFFF
??CrossCallReturnLabel_23:
        LCALL   ?PUSH_XSTACK_I_TWO
          CFI CFA_XSP16 add(XSP16, 24)
        MOV     DPTR,#_NIB + 31
        LCALL   ??Subroutine8_0 & 0xFFFF
??CrossCallReturnLabel_24:
        LCALL   ?PUSH_XSTACK_I_TWO
          CFI CFA_XSP16 add(XSP16, 26)
        MOV     DPTR,#_NIB + 32
        LCALL   ??Subroutine8_0 & 0xFFFF
??CrossCallReturnLabel_25:
        LCALL   ?PUSH_XSTACK_I_TWO
          CFI CFA_XSP16 add(XSP16, 28)
        MOV     R2,#`?<Constant "Parent IEEE:%02X%02X%...">` & 0xff
        MOV     R3,#(`?<Constant "Parent IEEE:%02X%02X%...">` >> 8) & 0xff
??SampleApp_ProcessEvent_13:
        LCALL   ??printf?relay       ; Banked call to: printf
        MOV     A,#0x10
        LCALL   ?DEALLOC_XSTACK8
          CFI CFA_XSP16 add(XSP16, 12)
        LJMP    ??SampleApp_ProcessEvent_3 & 0xFFFF
??SampleApp_ProcessEvent_9:
        ; Setup parameters for call to function printf
        MOV     DPTR,#_NIB + 33
        LCALL   ?PUSH_XSTACK8_X_TWO
          CFI CFA_XSP16 add(XSP16, 14)
        LCALL   ?Subroutine4 & 0xFFFF
??CrossCallReturnLabel_4:
        LCALL   ?PUSH_XSTACK_I_TWO
          CFI CFA_XSP16 add(XSP16, 16)
        MOV     DPTR,#_NIB + 23
        LCALL   ?PUSH_XSTACK8_X_TWO
          CFI CFA_XSP16 add(XSP16, 18)
        MOV     DPTR,#_NIB + 20
        LCALL   ?PUSH_XSTACK8_X_TWO
          CFI CFA_XSP16 add(XSP16, 20)
        MOV     R2,#`?<Constant "EndDevice:0x%04X\\r\\nPar...">` & 0xff
        MOV     R3,#(`?<Constant "EndDevice:0x%04X\\r\\nPar...">` >> 8) & 0xff
        LJMP    ??SampleApp_ProcessEvent_12 & 0xFFFF
          CFI CFA_XSP16 add(XSP16, 12)
??SampleApp_ProcessEvent_11:
        ; Setup parameters for call to function printf
        MOV     DPTR,#_NIB + 33
        LCALL   ?PUSH_XSTACK8_X_TWO
          CFI CFA_XSP16 add(XSP16, 14)
        LCALL   ?Subroutine4 & 0xFFFF
??CrossCallReturnLabel_5:
        LCALL   ?PUSH_XSTACK_I_TWO
          CFI CFA_XSP16 add(XSP16, 16)
        MOV     DPTR,#_NIB + 20
        LCALL   ?PUSH_XSTACK8_X_TWO
          CFI CFA_XSP16 add(XSP16, 18)
        MOV     R2,#`?<Constant "Coordinator:0x%04X\\r\\nC...">` & 0xff
        MOV     R3,#(`?<Constant "Coordinator:0x%04X\\r\\nC...">` >> 8) & 0xff
        LCALL   ??printf?relay       ; Banked call to: printf
        MOV     A,#0x6
        LCALL   ?DEALLOC_XSTACK8
          CFI CFA_XSP16 add(XSP16, 12)
        ; Setup parameters for call to function printf
        LCALL   ?Subroutine3 & 0xFFFF
//  474     }
??CrossCallReturnLabel_34:
        LCALL   ?PUSH_XSTACK_I_TWO
          CFI CFA_XSP16 add(XSP16, 14)
        MOV     DPTR,#aExtendedAddress + 1
        LCALL   ??Subroutine8_0 & 0xFFFF
??CrossCallReturnLabel_26:
        LCALL   ?PUSH_XSTACK_I_TWO
          CFI CFA_XSP16 add(XSP16, 16)
        MOV     DPTR,#aExtendedAddress + 2
        LCALL   ??Subroutine8_0 & 0xFFFF
??CrossCallReturnLabel_27:
        LCALL   ?PUSH_XSTACK_I_TWO
          CFI CFA_XSP16 add(XSP16, 18)
        MOV     DPTR,#aExtendedAddress + 3
        LCALL   ??Subroutine8_0 & 0xFFFF
??CrossCallReturnLabel_28:
        LCALL   ?PUSH_XSTACK_I_TWO
          CFI CFA_XSP16 add(XSP16, 20)
        MOV     DPTR,#aExtendedAddress + 4
        LCALL   ??Subroutine8_0 & 0xFFFF
??CrossCallReturnLabel_29:
        LCALL   ?PUSH_XSTACK_I_TWO
          CFI CFA_XSP16 add(XSP16, 22)
        MOV     DPTR,#aExtendedAddress + 5
        LCALL   ??Subroutine8_0 & 0xFFFF
??CrossCallReturnLabel_30:
        LCALL   ?PUSH_XSTACK_I_TWO
          CFI CFA_XSP16 add(XSP16, 24)
        MOV     DPTR,#aExtendedAddress + 6
        LCALL   ??Subroutine8_0 & 0xFFFF
??CrossCallReturnLabel_31:
        LCALL   ?PUSH_XSTACK_I_TWO
          CFI CFA_XSP16 add(XSP16, 26)
        MOV     DPTR,#aExtendedAddress + 7
        LCALL   ??Subroutine8_0 & 0xFFFF
??CrossCallReturnLabel_32:
        LCALL   ?PUSH_XSTACK_I_TWO
          CFI CFA_XSP16 add(XSP16, 28)
        MOV     R2,#`?<Constant "IEEE:%02X%02X%02X%02X...">` & 0xff
        MOV     R3,#(`?<Constant "IEEE:%02X%02X%02X%02X...">` >> 8) & 0xff
        LJMP    ??SampleApp_ProcessEvent_13 & 0xFFFF
          CFI CFA_XSP16 add(XSP16, 12)
//  475 
//  476     // return unprocessed events
//  477     return (events ^ SYS_EVENT_MSG);
??SampleApp_ProcessEvent_4:
        MOV     R2,?V0
        MOV     A,?V1
        XRL     A,#0x80
        MOV     R3,A
        SJMP    ??SampleApp_ProcessEvent_14
//  478   }
//  479 
//  480   // Send a message out - This event is generated by a timer
//  481   //  (setup in SampleApp_Init()).
//  482   /* AD采样事件处理，终端传感器数据采集和发送往协调器 */
//  483   if ( events & SAMPLEAPP_ADC_MEA_EVT )
??SampleApp_ProcessEvent_0:
        MOV     A,R2
        ANL     A,#0x4
        JZ      ??SampleApp_ProcessEvent_15
//  484   {
//  485     int numbers;
//  486     static uint16 res_std;
//  487     uint16 res_t0,res_u,res_gh;
//  488     float temp;
//  489     
//  490     
//  491  #if !(defined (ZDO_COORDINATOR)) && !(defined (RTR_NWK)) //终端
//  492     /* 终端数据采集处理 */
//  493     switch(adc_state)
//  494     {
//  495       case START: //开始测量
//  496             ADC_MeasureStart(STDR_CHANNEL, 0, 3, TRUE); //标准电阻AD转换开始    
//  497             adc_state = READY1; //进入下一状态
//  498             osal_start_timerEx( SampleApp_TaskID, SAMPLEAPP_ADC_MEA_EVT,SAMPLEAPP_ADC_MEA_TIMEOUT ); //200ms定时器事件，用于等待ADC转换完成
//  499             break;
//  500             
//  501       case READY1: //标准电阻AD采样值读取，开启温度ADC转换
//  502             res_std = ADC_ReadData(0);
//  503             ADC_MeasureStart(T0_CHANNEL, 0, 3, TRUE); //温度AD转换开始             
//  504             adc_state = READY2; //进入下一状态
//  505             osal_start_timerEx( SampleApp_TaskID, SAMPLEAPP_ADC_MEA_EVT,SAMPLEAPP_ADC_MEA_TIMEOUT ); //200ms定时器事件，用于等待ADC转换完成
//  506             break;
//  507             
//  508       case READY2: //温度AD采样值读取，开启湿度ADC转换
//  509             res_t0 = ADC_ReadData(0);
//  510             ADC_MeasureStart(U_CHANNEL, 0, 0, TRUE); //湿度AD转换开始
//  511             
//  512             if(res_std==0) //防止除数为零
//  513             {
//  514               res_std = 1;
//  515             }            
//  516             temp = (float)res_t0/(float)res_std*100;
//  517             temp = CalculateTemp(temp) + cal_t0 + CAL_T0_CONSTANT; //加上温度校准值
//  518             
//  519             temp = temp*10; //放大十倍，四舍五入
//  520             if(temp<0)
//  521             {
//  522               temp -= 0.5; 
//  523             }
//  524             else
//  525             {
//  526               temp += 0.5;
//  527             }
//  528              
//  529             sensor.temperature = temp;
//  530             
//  531             if(debug)
//  532             {
//  533               printf("\r\nres_std=%u,res_t0=%u,temper=%5.2f\r\n", res_std, res_t0, temp/10);
//  534             }
//  535             
//  536             adc_state = READY3; //进入下一状态
//  537             osal_start_timerEx( SampleApp_TaskID, SAMPLEAPP_ADC_MEA_EVT,SAMPLEAPP_ADC_MEA_TIMEOUT ); //200ms定时器事件，用于等待ADC转换完成
//  538             break;
//  539             
//  540       case READY3: //湿度AD采样值读取，开启光合量ADC转换
//  541             res_u = ADC_ReadData(0);
//  542             ADC_MeasureStart(GH_CHANNEL, 0, 3, TRUE); //光合量AD转换开始 ，增益8倍          
//  543             sensor.humidity = (float)res_u/65535*AD_VREF*100 + 0.5;
//  544             
//  545             if(debug)
//  546             {
//  547               printf("\r\nres_u=%u,humidity=%d\r\n", res_u, sensor.humidity);
//  548             }
//  549             
//  550             adc_state = READY4; //进入下一状态
//  551             osal_start_timerEx( SampleApp_TaskID, SAMPLEAPP_ADC_MEA_EVT,SAMPLEAPP_ADC_MEA_TIMEOUT ); //200ms定时器事件，用于等待ADC转换完成
//  552             break;
//  553             
//  554       case READY4: //光合量AD采样值读取，转换完成
//  555             res_gh = ADC_ReadData(0);
//  556             temp = (float)res_gh/65535*AD_VREF/8*1000; //乘1000电压单位转换为mV
//  557             sensor.photosyn = CalculateRadiation(temp, gh_factor) + 0.5 + CAL_GH; //加上光合整体订正值
//  558             if(debug)
//  559             {
//  560               printf("\r\nres_gh=%u,guanghe=%d\r\n", res_gh, sensor.photosyn);
//  561             }
//  562             adc_done = TRUE;
//  563             break;
//  564     }
//  565     
//  566     if(adc_done) //测量转换完成，数据处理发送
//  567     {
//  568           
//  569       adc_state = START; //初始化
//  570       
//  571       adc_done = FALSE; //清零，为下次转换做准备
//  572       
//  573       numbers = sprintf(data_sensor, "BG,ID%03u,%04d,%03d,%04d,ED\r\n", sensor_id, 
//  574                         sensor.temperature, sensor.humidity, sensor.photosyn);
//  575       
//  576       /* 终端数据发送 */
//  577       if(debug)
//  578       {
//  579         printf("\r\n%s", data_sensor);
//  580       }
//  581       
//  582       SampleApp_SendPointToPointMessage(data_sensor, numbers); //点对点发送函数,终端传感器数据发往协调器
//  583     }
//  584 #endif
//  585 
//  586     // return unprocessed events
//  587     return (events ^ SAMPLEAPP_ADC_MEA_EVT);
        MOV     A,R2
        XRL     A,#0x4
        SJMP    ??SampleApp_ProcessEvent_16
//  588   }
//  589   
//  590   /* 周期 5s 事件处理 */
//  591   if( events & SAMPLEAPP_SEND_PERIODIC_MSG_EVT )
??SampleApp_ProcessEvent_15:
        MOV     A,R2
        MOV     C,0xE0 /* A   */.0
        JNC     ??SampleApp_ProcessEvent_17
//  592   {
//  593 #if !(defined (ZDO_COORDINATOR)) && !(defined (RTR_NWK)) //终端
//  594     osal_set_event( SampleApp_TaskID, SAMPLEAPP_ADC_MEA_EVT );//触发ADC采样处理事件
//  595 #endif
//  596     // return unprocessed events
//  597     return (events ^ SAMPLEAPP_SEND_PERIODIC_MSG_EVT);
        XRL     A,#0x1
??SampleApp_ProcessEvent_16:
        MOV     R2,A
        SJMP    ??SampleApp_ProcessEvent_14
//  598   }
//  599   
//  600   /* 周期500ms喂狗事件处理 */
//  601   if( events & SAMPLEAPP_WDT_PERIODIC_MSG_EVT )
??SampleApp_ProcessEvent_17:
        ANL     A,#0x2
        JZ      ??SampleApp_ProcessEvent_18
//  602   {
//  603     if(!rs_flag)
        MOV     DPTR,#rs_flag
        LCALL   ?Subroutine6 & 0xFFFF
??CrossCallReturnLabel_8:
        JNZ     ??SampleApp_ProcessEvent_18
//  604     {
//  605       WDT_Feed();//喂狗
        ; Setup parameters for call to function WDT_Feed
        LCALL   ??WDT_Feed?relay     ; Banked call to: WDT_Feed
//  606       //HalUARTWrite(0,"hellow!\n",strlen("hellow!\n") );
//  607     }
//  608   }
//  609 
//  610   // Discard unknown events
//  611   return 0;
??SampleApp_ProcessEvent_18:
        MOV     R2,#0x0
        MOV     R3,#0x0
??SampleApp_ProcessEvent_14:
        MOV     R7,#0x4
        LJMP    ?BANKED_LEAVE_XDATA
          CFI EndBlock cfiBlock1
//  612 }

        RSEG BANKED_CODE:CODE:NOROOT(0)
?Subroutine4:
          CFI Block cfiCond2 Using cfiCommon0
          CFI Function SampleApp_ProcessEvent
          CFI Conditional ??CrossCallReturnLabel_3
          CFI R6 load(1, XDATA, add(CFA_XSP16, literal(-12)))
          CFI VB load(1, XDATA, add(CFA_XSP16, literal(-11)))
          CFI V0 load(1, XDATA, add(CFA_XSP16, literal(-10)))
          CFI V1 load(1, XDATA, add(CFA_XSP16, literal(-9)))
          CFI V2 load(1, XDATA, add(CFA_XSP16, literal(-8)))
          CFI V3 load(1, XDATA, add(CFA_XSP16, literal(-7)))
          CFI R7 load(1, XDATA, add(CFA_XSP16, literal(-6)))
          CFI ?RET_LOW load(1, XDATA, add(CFA_XSP16, literal(-5)))
          CFI ?RET_HIGH load(1, XDATA, add(CFA_XSP16, literal(-4)))
          CFI ?BRET_EXT load(1, XDATA, add(CFA_XSP16, literal(-3)))
          CFI DPL0 load(1, XDATA, add(CFA_XSP16, literal(-2)))
          CFI DPH0 load(1, XDATA, add(CFA_XSP16, literal(-1)))
          CFI CFA_SP SP+-2
          CFI CFA_XSP16 add(XSP16, 14)
          CFI Block cfiCond3 Using cfiCommon0
          CFI (cfiCond3) Function SampleApp_ProcessEvent
          CFI (cfiCond3) Conditional ??CrossCallReturnLabel_4
          CFI (cfiCond3) R6 load(1, XDATA, add(CFA_XSP16, literal(-12)))
          CFI (cfiCond3) VB load(1, XDATA, add(CFA_XSP16, literal(-11)))
          CFI (cfiCond3) V0 load(1, XDATA, add(CFA_XSP16, literal(-10)))
          CFI (cfiCond3) V1 load(1, XDATA, add(CFA_XSP16, literal(-9)))
          CFI (cfiCond3) V2 load(1, XDATA, add(CFA_XSP16, literal(-8)))
          CFI (cfiCond3) V3 load(1, XDATA, add(CFA_XSP16, literal(-7)))
          CFI (cfiCond3) R7 load(1, XDATA, add(CFA_XSP16, literal(-6)))
          CFI (cfiCond3) ?RET_LOW load(1, XDATA, add(CFA_XSP16, literal(-5)))
          CFI (cfiCond3) ?RET_HIGH load(1, XDATA, add(CFA_XSP16, literal(-4)))
          CFI (cfiCond3) ?BRET_EXT load(1, XDATA, add(CFA_XSP16, literal(-3)))
          CFI (cfiCond3) DPL0 load(1, XDATA, add(CFA_XSP16, literal(-2)))
          CFI (cfiCond3) DPH0 load(1, XDATA, add(CFA_XSP16, literal(-1)))
          CFI (cfiCond3) CFA_SP SP+-2
          CFI (cfiCond3) CFA_XSP16 add(XSP16, 14)
          CFI Block cfiCond4 Using cfiCommon0
          CFI (cfiCond4) Function SampleApp_ProcessEvent
          CFI (cfiCond4) Conditional ??CrossCallReturnLabel_5
          CFI (cfiCond4) R6 load(1, XDATA, add(CFA_XSP16, literal(-12)))
          CFI (cfiCond4) VB load(1, XDATA, add(CFA_XSP16, literal(-11)))
          CFI (cfiCond4) V0 load(1, XDATA, add(CFA_XSP16, literal(-10)))
          CFI (cfiCond4) V1 load(1, XDATA, add(CFA_XSP16, literal(-9)))
          CFI (cfiCond4) V2 load(1, XDATA, add(CFA_XSP16, literal(-8)))
          CFI (cfiCond4) V3 load(1, XDATA, add(CFA_XSP16, literal(-7)))
          CFI (cfiCond4) R7 load(1, XDATA, add(CFA_XSP16, literal(-6)))
          CFI (cfiCond4) ?RET_LOW load(1, XDATA, add(CFA_XSP16, literal(-5)))
          CFI (cfiCond4) ?RET_HIGH load(1, XDATA, add(CFA_XSP16, literal(-4)))
          CFI (cfiCond4) ?BRET_EXT load(1, XDATA, add(CFA_XSP16, literal(-3)))
          CFI (cfiCond4) DPL0 load(1, XDATA, add(CFA_XSP16, literal(-2)))
          CFI (cfiCond4) DPH0 load(1, XDATA, add(CFA_XSP16, literal(-1)))
          CFI (cfiCond4) CFA_SP SP+-2
          CFI (cfiCond4) CFA_XSP16 add(XSP16, 14)
          CFI Block cfiPicker5 Using cfiCommon1
          CFI (cfiPicker5) NoFunction
          CFI (cfiPicker5) Picker
        MOV     DPTR,#_NIB + 22
        MOVX    A,@DPTR
        MOV     ?V2,A
        MOV     ?V3,#0x0
        MOV     R0,#?V2
        RET
          CFI EndBlock cfiCond2
          CFI EndBlock cfiCond3
          CFI EndBlock cfiCond4
          CFI EndBlock cfiPicker5

        RSEG BANKED_CODE:CODE:NOROOT(0)
?Subroutine3:
          CFI Block cfiCond6 Using cfiCommon0
          CFI Function SampleApp_ProcessEvent
          CFI Conditional ??CrossCallReturnLabel_33
          CFI R6 load(1, XDATA, add(CFA_XSP16, literal(-12)))
          CFI VB load(1, XDATA, add(CFA_XSP16, literal(-11)))
          CFI V0 load(1, XDATA, add(CFA_XSP16, literal(-10)))
          CFI V1 load(1, XDATA, add(CFA_XSP16, literal(-9)))
          CFI V2 load(1, XDATA, add(CFA_XSP16, literal(-8)))
          CFI V3 load(1, XDATA, add(CFA_XSP16, literal(-7)))
          CFI R7 load(1, XDATA, add(CFA_XSP16, literal(-6)))
          CFI ?RET_LOW load(1, XDATA, add(CFA_XSP16, literal(-5)))
          CFI ?RET_HIGH load(1, XDATA, add(CFA_XSP16, literal(-4)))
          CFI ?BRET_EXT load(1, XDATA, add(CFA_XSP16, literal(-3)))
          CFI DPL0 load(1, XDATA, add(CFA_XSP16, literal(-2)))
          CFI DPH0 load(1, XDATA, add(CFA_XSP16, literal(-1)))
          CFI CFA_SP SP+-2
          CFI CFA_XSP16 add(XSP16, 12)
          CFI Block cfiCond7 Using cfiCommon0
          CFI (cfiCond7) Function SampleApp_ProcessEvent
          CFI (cfiCond7) Conditional ??CrossCallReturnLabel_34
          CFI (cfiCond7) R6 load(1, XDATA, add(CFA_XSP16, literal(-12)))
          CFI (cfiCond7) VB load(1, XDATA, add(CFA_XSP16, literal(-11)))
          CFI (cfiCond7) V0 load(1, XDATA, add(CFA_XSP16, literal(-10)))
          CFI (cfiCond7) V1 load(1, XDATA, add(CFA_XSP16, literal(-9)))
          CFI (cfiCond7) V2 load(1, XDATA, add(CFA_XSP16, literal(-8)))
          CFI (cfiCond7) V3 load(1, XDATA, add(CFA_XSP16, literal(-7)))
          CFI (cfiCond7) R7 load(1, XDATA, add(CFA_XSP16, literal(-6)))
          CFI (cfiCond7) ?RET_LOW load(1, XDATA, add(CFA_XSP16, literal(-5)))
          CFI (cfiCond7) ?RET_HIGH load(1, XDATA, add(CFA_XSP16, literal(-4)))
          CFI (cfiCond7) ?BRET_EXT load(1, XDATA, add(CFA_XSP16, literal(-3)))
          CFI (cfiCond7) DPL0 load(1, XDATA, add(CFA_XSP16, literal(-2)))
          CFI (cfiCond7) DPH0 load(1, XDATA, add(CFA_XSP16, literal(-1)))
          CFI (cfiCond7) CFA_SP SP+-2
          CFI (cfiCond7) CFA_XSP16 add(XSP16, 12)
          CFI Block cfiPicker8 Using cfiCommon1
          CFI (cfiPicker8) NoFunction
          CFI (cfiPicker8) Picker
        MOV     DPTR,#aExtendedAddress
          CFI EndBlock cfiCond6
          CFI EndBlock cfiCond7
          CFI EndBlock cfiPicker8
        REQUIRE ??Subroutine8_0
        ; // Fall through to label ??Subroutine8_0

        RSEG BANKED_CODE:CODE:NOROOT(0)
??Subroutine8_0:
          CFI Block cfiCond9 Using cfiCommon0
          CFI Function SampleApp_ProcessEvent
          CFI Conditional ??CrossCallReturnLabel_11
          CFI R6 load(1, XDATA, add(CFA_XSP16, literal(-12)))
          CFI VB load(1, XDATA, add(CFA_XSP16, literal(-11)))
          CFI V0 load(1, XDATA, add(CFA_XSP16, literal(-10)))
          CFI V1 load(1, XDATA, add(CFA_XSP16, literal(-9)))
          CFI V2 load(1, XDATA, add(CFA_XSP16, literal(-8)))
          CFI V3 load(1, XDATA, add(CFA_XSP16, literal(-7)))
          CFI R7 load(1, XDATA, add(CFA_XSP16, literal(-6)))
          CFI ?RET_LOW load(1, XDATA, add(CFA_XSP16, literal(-5)))
          CFI ?RET_HIGH load(1, XDATA, add(CFA_XSP16, literal(-4)))
          CFI ?BRET_EXT load(1, XDATA, add(CFA_XSP16, literal(-3)))
          CFI DPL0 load(1, XDATA, add(CFA_XSP16, literal(-2)))
          CFI DPH0 load(1, XDATA, add(CFA_XSP16, literal(-1)))
          CFI CFA_SP SP+-2
          CFI CFA_XSP16 add(XSP16, 14)
          CFI Block cfiCond10 Using cfiCommon0
          CFI (cfiCond10) Function SampleApp_ProcessEvent
          CFI (cfiCond10) Conditional ??CrossCallReturnLabel_12
          CFI (cfiCond10) R6 load(1, XDATA, add(CFA_XSP16, literal(-12)))
          CFI (cfiCond10) VB load(1, XDATA, add(CFA_XSP16, literal(-11)))
          CFI (cfiCond10) V0 load(1, XDATA, add(CFA_XSP16, literal(-10)))
          CFI (cfiCond10) V1 load(1, XDATA, add(CFA_XSP16, literal(-9)))
          CFI (cfiCond10) V2 load(1, XDATA, add(CFA_XSP16, literal(-8)))
          CFI (cfiCond10) V3 load(1, XDATA, add(CFA_XSP16, literal(-7)))
          CFI (cfiCond10) R7 load(1, XDATA, add(CFA_XSP16, literal(-6)))
          CFI (cfiCond10) ?RET_LOW load(1, XDATA, add(CFA_XSP16, literal(-5)))
          CFI (cfiCond10) ?RET_HIGH load(1, XDATA, add(CFA_XSP16, literal(-4)))
          CFI (cfiCond10) ?BRET_EXT load(1, XDATA, add(CFA_XSP16, literal(-3)))
          CFI (cfiCond10) DPL0 load(1, XDATA, add(CFA_XSP16, literal(-2)))
          CFI (cfiCond10) DPH0 load(1, XDATA, add(CFA_XSP16, literal(-1)))
          CFI (cfiCond10) CFA_SP SP+-2
          CFI (cfiCond10) CFA_XSP16 add(XSP16, 16)
          CFI Block cfiCond11 Using cfiCommon0
          CFI (cfiCond11) Function SampleApp_ProcessEvent
          CFI (cfiCond11) Conditional ??CrossCallReturnLabel_13
          CFI (cfiCond11) R6 load(1, XDATA, add(CFA_XSP16, literal(-12)))
          CFI (cfiCond11) VB load(1, XDATA, add(CFA_XSP16, literal(-11)))
          CFI (cfiCond11) V0 load(1, XDATA, add(CFA_XSP16, literal(-10)))
          CFI (cfiCond11) V1 load(1, XDATA, add(CFA_XSP16, literal(-9)))
          CFI (cfiCond11) V2 load(1, XDATA, add(CFA_XSP16, literal(-8)))
          CFI (cfiCond11) V3 load(1, XDATA, add(CFA_XSP16, literal(-7)))
          CFI (cfiCond11) R7 load(1, XDATA, add(CFA_XSP16, literal(-6)))
          CFI (cfiCond11) ?RET_LOW load(1, XDATA, add(CFA_XSP16, literal(-5)))
          CFI (cfiCond11) ?RET_HIGH load(1, XDATA, add(CFA_XSP16, literal(-4)))
          CFI (cfiCond11) ?BRET_EXT load(1, XDATA, add(CFA_XSP16, literal(-3)))
          CFI (cfiCond11) DPL0 load(1, XDATA, add(CFA_XSP16, literal(-2)))
          CFI (cfiCond11) DPH0 load(1, XDATA, add(CFA_XSP16, literal(-1)))
          CFI (cfiCond11) CFA_SP SP+-2
          CFI (cfiCond11) CFA_XSP16 add(XSP16, 18)
          CFI Block cfiCond12 Using cfiCommon0
          CFI (cfiCond12) Function SampleApp_ProcessEvent
          CFI (cfiCond12) Conditional ??CrossCallReturnLabel_14
          CFI (cfiCond12) R6 load(1, XDATA, add(CFA_XSP16, literal(-12)))
          CFI (cfiCond12) VB load(1, XDATA, add(CFA_XSP16, literal(-11)))
          CFI (cfiCond12) V0 load(1, XDATA, add(CFA_XSP16, literal(-10)))
          CFI (cfiCond12) V1 load(1, XDATA, add(CFA_XSP16, literal(-9)))
          CFI (cfiCond12) V2 load(1, XDATA, add(CFA_XSP16, literal(-8)))
          CFI (cfiCond12) V3 load(1, XDATA, add(CFA_XSP16, literal(-7)))
          CFI (cfiCond12) R7 load(1, XDATA, add(CFA_XSP16, literal(-6)))
          CFI (cfiCond12) ?RET_LOW load(1, XDATA, add(CFA_XSP16, literal(-5)))
          CFI (cfiCond12) ?RET_HIGH load(1, XDATA, add(CFA_XSP16, literal(-4)))
          CFI (cfiCond12) ?BRET_EXT load(1, XDATA, add(CFA_XSP16, literal(-3)))
          CFI (cfiCond12) DPL0 load(1, XDATA, add(CFA_XSP16, literal(-2)))
          CFI (cfiCond12) DPH0 load(1, XDATA, add(CFA_XSP16, literal(-1)))
          CFI (cfiCond12) CFA_SP SP+-2
          CFI (cfiCond12) CFA_XSP16 add(XSP16, 20)
          CFI Block cfiCond13 Using cfiCommon0
          CFI (cfiCond13) Function SampleApp_ProcessEvent
          CFI (cfiCond13) Conditional ??CrossCallReturnLabel_15
          CFI (cfiCond13) R6 load(1, XDATA, add(CFA_XSP16, literal(-12)))
          CFI (cfiCond13) VB load(1, XDATA, add(CFA_XSP16, literal(-11)))
          CFI (cfiCond13) V0 load(1, XDATA, add(CFA_XSP16, literal(-10)))
          CFI (cfiCond13) V1 load(1, XDATA, add(CFA_XSP16, literal(-9)))
          CFI (cfiCond13) V2 load(1, XDATA, add(CFA_XSP16, literal(-8)))
          CFI (cfiCond13) V3 load(1, XDATA, add(CFA_XSP16, literal(-7)))
          CFI (cfiCond13) R7 load(1, XDATA, add(CFA_XSP16, literal(-6)))
          CFI (cfiCond13) ?RET_LOW load(1, XDATA, add(CFA_XSP16, literal(-5)))
          CFI (cfiCond13) ?RET_HIGH load(1, XDATA, add(CFA_XSP16, literal(-4)))
          CFI (cfiCond13) ?BRET_EXT load(1, XDATA, add(CFA_XSP16, literal(-3)))
          CFI (cfiCond13) DPL0 load(1, XDATA, add(CFA_XSP16, literal(-2)))
          CFI (cfiCond13) DPH0 load(1, XDATA, add(CFA_XSP16, literal(-1)))
          CFI (cfiCond13) CFA_SP SP+-2
          CFI (cfiCond13) CFA_XSP16 add(XSP16, 22)
          CFI Block cfiCond14 Using cfiCommon0
          CFI (cfiCond14) Function SampleApp_ProcessEvent
          CFI (cfiCond14) Conditional ??CrossCallReturnLabel_16
          CFI (cfiCond14) R6 load(1, XDATA, add(CFA_XSP16, literal(-12)))
          CFI (cfiCond14) VB load(1, XDATA, add(CFA_XSP16, literal(-11)))
          CFI (cfiCond14) V0 load(1, XDATA, add(CFA_XSP16, literal(-10)))
          CFI (cfiCond14) V1 load(1, XDATA, add(CFA_XSP16, literal(-9)))
          CFI (cfiCond14) V2 load(1, XDATA, add(CFA_XSP16, literal(-8)))
          CFI (cfiCond14) V3 load(1, XDATA, add(CFA_XSP16, literal(-7)))
          CFI (cfiCond14) R7 load(1, XDATA, add(CFA_XSP16, literal(-6)))
          CFI (cfiCond14) ?RET_LOW load(1, XDATA, add(CFA_XSP16, literal(-5)))
          CFI (cfiCond14) ?RET_HIGH load(1, XDATA, add(CFA_XSP16, literal(-4)))
          CFI (cfiCond14) ?BRET_EXT load(1, XDATA, add(CFA_XSP16, literal(-3)))
          CFI (cfiCond14) DPL0 load(1, XDATA, add(CFA_XSP16, literal(-2)))
          CFI (cfiCond14) DPH0 load(1, XDATA, add(CFA_XSP16, literal(-1)))
          CFI (cfiCond14) CFA_SP SP+-2
          CFI (cfiCond14) CFA_XSP16 add(XSP16, 24)
          CFI Block cfiCond15 Using cfiCommon0
          CFI (cfiCond15) Function SampleApp_ProcessEvent
          CFI (cfiCond15) Conditional ??CrossCallReturnLabel_17
          CFI (cfiCond15) R6 load(1, XDATA, add(CFA_XSP16, literal(-12)))
          CFI (cfiCond15) VB load(1, XDATA, add(CFA_XSP16, literal(-11)))
          CFI (cfiCond15) V0 load(1, XDATA, add(CFA_XSP16, literal(-10)))
          CFI (cfiCond15) V1 load(1, XDATA, add(CFA_XSP16, literal(-9)))
          CFI (cfiCond15) V2 load(1, XDATA, add(CFA_XSP16, literal(-8)))
          CFI (cfiCond15) V3 load(1, XDATA, add(CFA_XSP16, literal(-7)))
          CFI (cfiCond15) R7 load(1, XDATA, add(CFA_XSP16, literal(-6)))
          CFI (cfiCond15) ?RET_LOW load(1, XDATA, add(CFA_XSP16, literal(-5)))
          CFI (cfiCond15) ?RET_HIGH load(1, XDATA, add(CFA_XSP16, literal(-4)))
          CFI (cfiCond15) ?BRET_EXT load(1, XDATA, add(CFA_XSP16, literal(-3)))
          CFI (cfiCond15) DPL0 load(1, XDATA, add(CFA_XSP16, literal(-2)))
          CFI (cfiCond15) DPH0 load(1, XDATA, add(CFA_XSP16, literal(-1)))
          CFI (cfiCond15) CFA_SP SP+-2
          CFI (cfiCond15) CFA_XSP16 add(XSP16, 26)
          CFI Block cfiCond16 Using cfiCommon0
          CFI (cfiCond16) Function SampleApp_ProcessEvent
          CFI (cfiCond16) Conditional ??CrossCallReturnLabel_18
          CFI (cfiCond16) R6 load(1, XDATA, add(CFA_XSP16, literal(-12)))
          CFI (cfiCond16) VB load(1, XDATA, add(CFA_XSP16, literal(-11)))
          CFI (cfiCond16) V0 load(1, XDATA, add(CFA_XSP16, literal(-10)))
          CFI (cfiCond16) V1 load(1, XDATA, add(CFA_XSP16, literal(-9)))
          CFI (cfiCond16) V2 load(1, XDATA, add(CFA_XSP16, literal(-8)))
          CFI (cfiCond16) V3 load(1, XDATA, add(CFA_XSP16, literal(-7)))
          CFI (cfiCond16) R7 load(1, XDATA, add(CFA_XSP16, literal(-6)))
          CFI (cfiCond16) ?RET_LOW load(1, XDATA, add(CFA_XSP16, literal(-5)))
          CFI (cfiCond16) ?RET_HIGH load(1, XDATA, add(CFA_XSP16, literal(-4)))
          CFI (cfiCond16) ?BRET_EXT load(1, XDATA, add(CFA_XSP16, literal(-3)))
          CFI (cfiCond16) DPL0 load(1, XDATA, add(CFA_XSP16, literal(-2)))
          CFI (cfiCond16) DPH0 load(1, XDATA, add(CFA_XSP16, literal(-1)))
          CFI (cfiCond16) CFA_SP SP+-2
          CFI (cfiCond16) CFA_XSP16 add(XSP16, 12)
          CFI Block cfiCond17 Using cfiCommon0
          CFI (cfiCond17) Function SampleApp_ProcessEvent
          CFI (cfiCond17) Conditional ??CrossCallReturnLabel_19
          CFI (cfiCond17) R6 load(1, XDATA, add(CFA_XSP16, literal(-12)))
          CFI (cfiCond17) VB load(1, XDATA, add(CFA_XSP16, literal(-11)))
          CFI (cfiCond17) V0 load(1, XDATA, add(CFA_XSP16, literal(-10)))
          CFI (cfiCond17) V1 load(1, XDATA, add(CFA_XSP16, literal(-9)))
          CFI (cfiCond17) V2 load(1, XDATA, add(CFA_XSP16, literal(-8)))
          CFI (cfiCond17) V3 load(1, XDATA, add(CFA_XSP16, literal(-7)))
          CFI (cfiCond17) R7 load(1, XDATA, add(CFA_XSP16, literal(-6)))
          CFI (cfiCond17) ?RET_LOW load(1, XDATA, add(CFA_XSP16, literal(-5)))
          CFI (cfiCond17) ?RET_HIGH load(1, XDATA, add(CFA_XSP16, literal(-4)))
          CFI (cfiCond17) ?BRET_EXT load(1, XDATA, add(CFA_XSP16, literal(-3)))
          CFI (cfiCond17) DPL0 load(1, XDATA, add(CFA_XSP16, literal(-2)))
          CFI (cfiCond17) DPH0 load(1, XDATA, add(CFA_XSP16, literal(-1)))
          CFI (cfiCond17) CFA_SP SP+-2
          CFI (cfiCond17) CFA_XSP16 add(XSP16, 14)
          CFI Block cfiCond18 Using cfiCommon0
          CFI (cfiCond18) Function SampleApp_ProcessEvent
          CFI (cfiCond18) Conditional ??CrossCallReturnLabel_20
          CFI (cfiCond18) R6 load(1, XDATA, add(CFA_XSP16, literal(-12)))
          CFI (cfiCond18) VB load(1, XDATA, add(CFA_XSP16, literal(-11)))
          CFI (cfiCond18) V0 load(1, XDATA, add(CFA_XSP16, literal(-10)))
          CFI (cfiCond18) V1 load(1, XDATA, add(CFA_XSP16, literal(-9)))
          CFI (cfiCond18) V2 load(1, XDATA, add(CFA_XSP16, literal(-8)))
          CFI (cfiCond18) V3 load(1, XDATA, add(CFA_XSP16, literal(-7)))
          CFI (cfiCond18) R7 load(1, XDATA, add(CFA_XSP16, literal(-6)))
          CFI (cfiCond18) ?RET_LOW load(1, XDATA, add(CFA_XSP16, literal(-5)))
          CFI (cfiCond18) ?RET_HIGH load(1, XDATA, add(CFA_XSP16, literal(-4)))
          CFI (cfiCond18) ?BRET_EXT load(1, XDATA, add(CFA_XSP16, literal(-3)))
          CFI (cfiCond18) DPL0 load(1, XDATA, add(CFA_XSP16, literal(-2)))
          CFI (cfiCond18) DPH0 load(1, XDATA, add(CFA_XSP16, literal(-1)))
          CFI (cfiCond18) CFA_SP SP+-2
          CFI (cfiCond18) CFA_XSP16 add(XSP16, 16)
          CFI Block cfiCond19 Using cfiCommon0
          CFI (cfiCond19) Function SampleApp_ProcessEvent
          CFI (cfiCond19) Conditional ??CrossCallReturnLabel_21
          CFI (cfiCond19) R6 load(1, XDATA, add(CFA_XSP16, literal(-12)))
          CFI (cfiCond19) VB load(1, XDATA, add(CFA_XSP16, literal(-11)))
          CFI (cfiCond19) V0 load(1, XDATA, add(CFA_XSP16, literal(-10)))
          CFI (cfiCond19) V1 load(1, XDATA, add(CFA_XSP16, literal(-9)))
          CFI (cfiCond19) V2 load(1, XDATA, add(CFA_XSP16, literal(-8)))
          CFI (cfiCond19) V3 load(1, XDATA, add(CFA_XSP16, literal(-7)))
          CFI (cfiCond19) R7 load(1, XDATA, add(CFA_XSP16, literal(-6)))
          CFI (cfiCond19) ?RET_LOW load(1, XDATA, add(CFA_XSP16, literal(-5)))
          CFI (cfiCond19) ?RET_HIGH load(1, XDATA, add(CFA_XSP16, literal(-4)))
          CFI (cfiCond19) ?BRET_EXT load(1, XDATA, add(CFA_XSP16, literal(-3)))
          CFI (cfiCond19) DPL0 load(1, XDATA, add(CFA_XSP16, literal(-2)))
          CFI (cfiCond19) DPH0 load(1, XDATA, add(CFA_XSP16, literal(-1)))
          CFI (cfiCond19) CFA_SP SP+-2
          CFI (cfiCond19) CFA_XSP16 add(XSP16, 18)
          CFI Block cfiCond20 Using cfiCommon0
          CFI (cfiCond20) Function SampleApp_ProcessEvent
          CFI (cfiCond20) Conditional ??CrossCallReturnLabel_22
          CFI (cfiCond20) R6 load(1, XDATA, add(CFA_XSP16, literal(-12)))
          CFI (cfiCond20) VB load(1, XDATA, add(CFA_XSP16, literal(-11)))
          CFI (cfiCond20) V0 load(1, XDATA, add(CFA_XSP16, literal(-10)))
          CFI (cfiCond20) V1 load(1, XDATA, add(CFA_XSP16, literal(-9)))
          CFI (cfiCond20) V2 load(1, XDATA, add(CFA_XSP16, literal(-8)))
          CFI (cfiCond20) V3 load(1, XDATA, add(CFA_XSP16, literal(-7)))
          CFI (cfiCond20) R7 load(1, XDATA, add(CFA_XSP16, literal(-6)))
          CFI (cfiCond20) ?RET_LOW load(1, XDATA, add(CFA_XSP16, literal(-5)))
          CFI (cfiCond20) ?RET_HIGH load(1, XDATA, add(CFA_XSP16, literal(-4)))
          CFI (cfiCond20) ?BRET_EXT load(1, XDATA, add(CFA_XSP16, literal(-3)))
          CFI (cfiCond20) DPL0 load(1, XDATA, add(CFA_XSP16, literal(-2)))
          CFI (cfiCond20) DPH0 load(1, XDATA, add(CFA_XSP16, literal(-1)))
          CFI (cfiCond20) CFA_SP SP+-2
          CFI (cfiCond20) CFA_XSP16 add(XSP16, 20)
          CFI Block cfiCond21 Using cfiCommon0
          CFI (cfiCond21) Function SampleApp_ProcessEvent
          CFI (cfiCond21) Conditional ??CrossCallReturnLabel_23
          CFI (cfiCond21) R6 load(1, XDATA, add(CFA_XSP16, literal(-12)))
          CFI (cfiCond21) VB load(1, XDATA, add(CFA_XSP16, literal(-11)))
          CFI (cfiCond21) V0 load(1, XDATA, add(CFA_XSP16, literal(-10)))
          CFI (cfiCond21) V1 load(1, XDATA, add(CFA_XSP16, literal(-9)))
          CFI (cfiCond21) V2 load(1, XDATA, add(CFA_XSP16, literal(-8)))
          CFI (cfiCond21) V3 load(1, XDATA, add(CFA_XSP16, literal(-7)))
          CFI (cfiCond21) R7 load(1, XDATA, add(CFA_XSP16, literal(-6)))
          CFI (cfiCond21) ?RET_LOW load(1, XDATA, add(CFA_XSP16, literal(-5)))
          CFI (cfiCond21) ?RET_HIGH load(1, XDATA, add(CFA_XSP16, literal(-4)))
          CFI (cfiCond21) ?BRET_EXT load(1, XDATA, add(CFA_XSP16, literal(-3)))
          CFI (cfiCond21) DPL0 load(1, XDATA, add(CFA_XSP16, literal(-2)))
          CFI (cfiCond21) DPH0 load(1, XDATA, add(CFA_XSP16, literal(-1)))
          CFI (cfiCond21) CFA_SP SP+-2
          CFI (cfiCond21) CFA_XSP16 add(XSP16, 22)
          CFI Block cfiCond22 Using cfiCommon0
          CFI (cfiCond22) Function SampleApp_ProcessEvent
          CFI (cfiCond22) Conditional ??CrossCallReturnLabel_24
          CFI (cfiCond22) R6 load(1, XDATA, add(CFA_XSP16, literal(-12)))
          CFI (cfiCond22) VB load(1, XDATA, add(CFA_XSP16, literal(-11)))
          CFI (cfiCond22) V0 load(1, XDATA, add(CFA_XSP16, literal(-10)))
          CFI (cfiCond22) V1 load(1, XDATA, add(CFA_XSP16, literal(-9)))
          CFI (cfiCond22) V2 load(1, XDATA, add(CFA_XSP16, literal(-8)))
          CFI (cfiCond22) V3 load(1, XDATA, add(CFA_XSP16, literal(-7)))
          CFI (cfiCond22) R7 load(1, XDATA, add(CFA_XSP16, literal(-6)))
          CFI (cfiCond22) ?RET_LOW load(1, XDATA, add(CFA_XSP16, literal(-5)))
          CFI (cfiCond22) ?RET_HIGH load(1, XDATA, add(CFA_XSP16, literal(-4)))
          CFI (cfiCond22) ?BRET_EXT load(1, XDATA, add(CFA_XSP16, literal(-3)))
          CFI (cfiCond22) DPL0 load(1, XDATA, add(CFA_XSP16, literal(-2)))
          CFI (cfiCond22) DPH0 load(1, XDATA, add(CFA_XSP16, literal(-1)))
          CFI (cfiCond22) CFA_SP SP+-2
          CFI (cfiCond22) CFA_XSP16 add(XSP16, 24)
          CFI Block cfiCond23 Using cfiCommon0
          CFI (cfiCond23) Function SampleApp_ProcessEvent
          CFI (cfiCond23) Conditional ??CrossCallReturnLabel_25
          CFI (cfiCond23) R6 load(1, XDATA, add(CFA_XSP16, literal(-12)))
          CFI (cfiCond23) VB load(1, XDATA, add(CFA_XSP16, literal(-11)))
          CFI (cfiCond23) V0 load(1, XDATA, add(CFA_XSP16, literal(-10)))
          CFI (cfiCond23) V1 load(1, XDATA, add(CFA_XSP16, literal(-9)))
          CFI (cfiCond23) V2 load(1, XDATA, add(CFA_XSP16, literal(-8)))
          CFI (cfiCond23) V3 load(1, XDATA, add(CFA_XSP16, literal(-7)))
          CFI (cfiCond23) R7 load(1, XDATA, add(CFA_XSP16, literal(-6)))
          CFI (cfiCond23) ?RET_LOW load(1, XDATA, add(CFA_XSP16, literal(-5)))
          CFI (cfiCond23) ?RET_HIGH load(1, XDATA, add(CFA_XSP16, literal(-4)))
          CFI (cfiCond23) ?BRET_EXT load(1, XDATA, add(CFA_XSP16, literal(-3)))
          CFI (cfiCond23) DPL0 load(1, XDATA, add(CFA_XSP16, literal(-2)))
          CFI (cfiCond23) DPH0 load(1, XDATA, add(CFA_XSP16, literal(-1)))
          CFI (cfiCond23) CFA_SP SP+-2
          CFI (cfiCond23) CFA_XSP16 add(XSP16, 26)
          CFI Block cfiCond24 Using cfiCommon0
          CFI (cfiCond24) Function SampleApp_ProcessEvent
          CFI (cfiCond24) Conditional ??CrossCallReturnLabel_26
          CFI (cfiCond24) R6 load(1, XDATA, add(CFA_XSP16, literal(-12)))
          CFI (cfiCond24) VB load(1, XDATA, add(CFA_XSP16, literal(-11)))
          CFI (cfiCond24) V0 load(1, XDATA, add(CFA_XSP16, literal(-10)))
          CFI (cfiCond24) V1 load(1, XDATA, add(CFA_XSP16, literal(-9)))
          CFI (cfiCond24) V2 load(1, XDATA, add(CFA_XSP16, literal(-8)))
          CFI (cfiCond24) V3 load(1, XDATA, add(CFA_XSP16, literal(-7)))
          CFI (cfiCond24) R7 load(1, XDATA, add(CFA_XSP16, literal(-6)))
          CFI (cfiCond24) ?RET_LOW load(1, XDATA, add(CFA_XSP16, literal(-5)))
          CFI (cfiCond24) ?RET_HIGH load(1, XDATA, add(CFA_XSP16, literal(-4)))
          CFI (cfiCond24) ?BRET_EXT load(1, XDATA, add(CFA_XSP16, literal(-3)))
          CFI (cfiCond24) DPL0 load(1, XDATA, add(CFA_XSP16, literal(-2)))
          CFI (cfiCond24) DPH0 load(1, XDATA, add(CFA_XSP16, literal(-1)))
          CFI (cfiCond24) CFA_SP SP+-2
          CFI (cfiCond24) CFA_XSP16 add(XSP16, 14)
          CFI Block cfiCond25 Using cfiCommon0
          CFI (cfiCond25) Function SampleApp_ProcessEvent
          CFI (cfiCond25) Conditional ??CrossCallReturnLabel_27
          CFI (cfiCond25) R6 load(1, XDATA, add(CFA_XSP16, literal(-12)))
          CFI (cfiCond25) VB load(1, XDATA, add(CFA_XSP16, literal(-11)))
          CFI (cfiCond25) V0 load(1, XDATA, add(CFA_XSP16, literal(-10)))
          CFI (cfiCond25) V1 load(1, XDATA, add(CFA_XSP16, literal(-9)))
          CFI (cfiCond25) V2 load(1, XDATA, add(CFA_XSP16, literal(-8)))
          CFI (cfiCond25) V3 load(1, XDATA, add(CFA_XSP16, literal(-7)))
          CFI (cfiCond25) R7 load(1, XDATA, add(CFA_XSP16, literal(-6)))
          CFI (cfiCond25) ?RET_LOW load(1, XDATA, add(CFA_XSP16, literal(-5)))
          CFI (cfiCond25) ?RET_HIGH load(1, XDATA, add(CFA_XSP16, literal(-4)))
          CFI (cfiCond25) ?BRET_EXT load(1, XDATA, add(CFA_XSP16, literal(-3)))
          CFI (cfiCond25) DPL0 load(1, XDATA, add(CFA_XSP16, literal(-2)))
          CFI (cfiCond25) DPH0 load(1, XDATA, add(CFA_XSP16, literal(-1)))
          CFI (cfiCond25) CFA_SP SP+-2
          CFI (cfiCond25) CFA_XSP16 add(XSP16, 16)
          CFI Block cfiCond26 Using cfiCommon0
          CFI (cfiCond26) Function SampleApp_ProcessEvent
          CFI (cfiCond26) Conditional ??CrossCallReturnLabel_28
          CFI (cfiCond26) R6 load(1, XDATA, add(CFA_XSP16, literal(-12)))
          CFI (cfiCond26) VB load(1, XDATA, add(CFA_XSP16, literal(-11)))
          CFI (cfiCond26) V0 load(1, XDATA, add(CFA_XSP16, literal(-10)))
          CFI (cfiCond26) V1 load(1, XDATA, add(CFA_XSP16, literal(-9)))
          CFI (cfiCond26) V2 load(1, XDATA, add(CFA_XSP16, literal(-8)))
          CFI (cfiCond26) V3 load(1, XDATA, add(CFA_XSP16, literal(-7)))
          CFI (cfiCond26) R7 load(1, XDATA, add(CFA_XSP16, literal(-6)))
          CFI (cfiCond26) ?RET_LOW load(1, XDATA, add(CFA_XSP16, literal(-5)))
          CFI (cfiCond26) ?RET_HIGH load(1, XDATA, add(CFA_XSP16, literal(-4)))
          CFI (cfiCond26) ?BRET_EXT load(1, XDATA, add(CFA_XSP16, literal(-3)))
          CFI (cfiCond26) DPL0 load(1, XDATA, add(CFA_XSP16, literal(-2)))
          CFI (cfiCond26) DPH0 load(1, XDATA, add(CFA_XSP16, literal(-1)))
          CFI (cfiCond26) CFA_SP SP+-2
          CFI (cfiCond26) CFA_XSP16 add(XSP16, 18)
          CFI Block cfiCond27 Using cfiCommon0
          CFI (cfiCond27) Function SampleApp_ProcessEvent
          CFI (cfiCond27) Conditional ??CrossCallReturnLabel_29
          CFI (cfiCond27) R6 load(1, XDATA, add(CFA_XSP16, literal(-12)))
          CFI (cfiCond27) VB load(1, XDATA, add(CFA_XSP16, literal(-11)))
          CFI (cfiCond27) V0 load(1, XDATA, add(CFA_XSP16, literal(-10)))
          CFI (cfiCond27) V1 load(1, XDATA, add(CFA_XSP16, literal(-9)))
          CFI (cfiCond27) V2 load(1, XDATA, add(CFA_XSP16, literal(-8)))
          CFI (cfiCond27) V3 load(1, XDATA, add(CFA_XSP16, literal(-7)))
          CFI (cfiCond27) R7 load(1, XDATA, add(CFA_XSP16, literal(-6)))
          CFI (cfiCond27) ?RET_LOW load(1, XDATA, add(CFA_XSP16, literal(-5)))
          CFI (cfiCond27) ?RET_HIGH load(1, XDATA, add(CFA_XSP16, literal(-4)))
          CFI (cfiCond27) ?BRET_EXT load(1, XDATA, add(CFA_XSP16, literal(-3)))
          CFI (cfiCond27) DPL0 load(1, XDATA, add(CFA_XSP16, literal(-2)))
          CFI (cfiCond27) DPH0 load(1, XDATA, add(CFA_XSP16, literal(-1)))
          CFI (cfiCond27) CFA_SP SP+-2
          CFI (cfiCond27) CFA_XSP16 add(XSP16, 20)
          CFI Block cfiCond28 Using cfiCommon0
          CFI (cfiCond28) Function SampleApp_ProcessEvent
          CFI (cfiCond28) Conditional ??CrossCallReturnLabel_30
          CFI (cfiCond28) R6 load(1, XDATA, add(CFA_XSP16, literal(-12)))
          CFI (cfiCond28) VB load(1, XDATA, add(CFA_XSP16, literal(-11)))
          CFI (cfiCond28) V0 load(1, XDATA, add(CFA_XSP16, literal(-10)))
          CFI (cfiCond28) V1 load(1, XDATA, add(CFA_XSP16, literal(-9)))
          CFI (cfiCond28) V2 load(1, XDATA, add(CFA_XSP16, literal(-8)))
          CFI (cfiCond28) V3 load(1, XDATA, add(CFA_XSP16, literal(-7)))
          CFI (cfiCond28) R7 load(1, XDATA, add(CFA_XSP16, literal(-6)))
          CFI (cfiCond28) ?RET_LOW load(1, XDATA, add(CFA_XSP16, literal(-5)))
          CFI (cfiCond28) ?RET_HIGH load(1, XDATA, add(CFA_XSP16, literal(-4)))
          CFI (cfiCond28) ?BRET_EXT load(1, XDATA, add(CFA_XSP16, literal(-3)))
          CFI (cfiCond28) DPL0 load(1, XDATA, add(CFA_XSP16, literal(-2)))
          CFI (cfiCond28) DPH0 load(1, XDATA, add(CFA_XSP16, literal(-1)))
          CFI (cfiCond28) CFA_SP SP+-2
          CFI (cfiCond28) CFA_XSP16 add(XSP16, 22)
          CFI Block cfiCond29 Using cfiCommon0
          CFI (cfiCond29) Function SampleApp_ProcessEvent
          CFI (cfiCond29) Conditional ??CrossCallReturnLabel_31
          CFI (cfiCond29) R6 load(1, XDATA, add(CFA_XSP16, literal(-12)))
          CFI (cfiCond29) VB load(1, XDATA, add(CFA_XSP16, literal(-11)))
          CFI (cfiCond29) V0 load(1, XDATA, add(CFA_XSP16, literal(-10)))
          CFI (cfiCond29) V1 load(1, XDATA, add(CFA_XSP16, literal(-9)))
          CFI (cfiCond29) V2 load(1, XDATA, add(CFA_XSP16, literal(-8)))
          CFI (cfiCond29) V3 load(1, XDATA, add(CFA_XSP16, literal(-7)))
          CFI (cfiCond29) R7 load(1, XDATA, add(CFA_XSP16, literal(-6)))
          CFI (cfiCond29) ?RET_LOW load(1, XDATA, add(CFA_XSP16, literal(-5)))
          CFI (cfiCond29) ?RET_HIGH load(1, XDATA, add(CFA_XSP16, literal(-4)))
          CFI (cfiCond29) ?BRET_EXT load(1, XDATA, add(CFA_XSP16, literal(-3)))
          CFI (cfiCond29) DPL0 load(1, XDATA, add(CFA_XSP16, literal(-2)))
          CFI (cfiCond29) DPH0 load(1, XDATA, add(CFA_XSP16, literal(-1)))
          CFI (cfiCond29) CFA_SP SP+-2
          CFI (cfiCond29) CFA_XSP16 add(XSP16, 24)
          CFI Block cfiCond30 Using cfiCommon0
          CFI (cfiCond30) Function SampleApp_ProcessEvent
          CFI (cfiCond30) Conditional ??CrossCallReturnLabel_32
          CFI (cfiCond30) R6 load(1, XDATA, add(CFA_XSP16, literal(-12)))
          CFI (cfiCond30) VB load(1, XDATA, add(CFA_XSP16, literal(-11)))
          CFI (cfiCond30) V0 load(1, XDATA, add(CFA_XSP16, literal(-10)))
          CFI (cfiCond30) V1 load(1, XDATA, add(CFA_XSP16, literal(-9)))
          CFI (cfiCond30) V2 load(1, XDATA, add(CFA_XSP16, literal(-8)))
          CFI (cfiCond30) V3 load(1, XDATA, add(CFA_XSP16, literal(-7)))
          CFI (cfiCond30) R7 load(1, XDATA, add(CFA_XSP16, literal(-6)))
          CFI (cfiCond30) ?RET_LOW load(1, XDATA, add(CFA_XSP16, literal(-5)))
          CFI (cfiCond30) ?RET_HIGH load(1, XDATA, add(CFA_XSP16, literal(-4)))
          CFI (cfiCond30) ?BRET_EXT load(1, XDATA, add(CFA_XSP16, literal(-3)))
          CFI (cfiCond30) DPL0 load(1, XDATA, add(CFA_XSP16, literal(-2)))
          CFI (cfiCond30) DPH0 load(1, XDATA, add(CFA_XSP16, literal(-1)))
          CFI (cfiCond30) CFA_SP SP+-2
          CFI (cfiCond30) CFA_XSP16 add(XSP16, 26)
          CFI Block cfiCond31 Using cfiCommon0
          CFI (cfiCond31) Function SampleApp_ProcessEvent
          CFI (cfiCond31) Conditional ??CrossCallReturnLabel_33
          CFI (cfiCond31) R6 load(1, XDATA, add(CFA_XSP16, literal(-12)))
          CFI (cfiCond31) VB load(1, XDATA, add(CFA_XSP16, literal(-11)))
          CFI (cfiCond31) V0 load(1, XDATA, add(CFA_XSP16, literal(-10)))
          CFI (cfiCond31) V1 load(1, XDATA, add(CFA_XSP16, literal(-9)))
          CFI (cfiCond31) V2 load(1, XDATA, add(CFA_XSP16, literal(-8)))
          CFI (cfiCond31) V3 load(1, XDATA, add(CFA_XSP16, literal(-7)))
          CFI (cfiCond31) R7 load(1, XDATA, add(CFA_XSP16, literal(-6)))
          CFI (cfiCond31) ?RET_LOW load(1, XDATA, add(CFA_XSP16, literal(-5)))
          CFI (cfiCond31) ?RET_HIGH load(1, XDATA, add(CFA_XSP16, literal(-4)))
          CFI (cfiCond31) ?BRET_EXT load(1, XDATA, add(CFA_XSP16, literal(-3)))
          CFI (cfiCond31) DPL0 load(1, XDATA, add(CFA_XSP16, literal(-2)))
          CFI (cfiCond31) DPH0 load(1, XDATA, add(CFA_XSP16, literal(-1)))
          CFI (cfiCond31) CFA_SP SP+-2
          CFI (cfiCond31) CFA_XSP16 add(XSP16, 12)
          CFI Block cfiCond32 Using cfiCommon0
          CFI (cfiCond32) Function SampleApp_ProcessEvent
          CFI (cfiCond32) Conditional ??CrossCallReturnLabel_34
          CFI (cfiCond32) R6 load(1, XDATA, add(CFA_XSP16, literal(-12)))
          CFI (cfiCond32) VB load(1, XDATA, add(CFA_XSP16, literal(-11)))
          CFI (cfiCond32) V0 load(1, XDATA, add(CFA_XSP16, literal(-10)))
          CFI (cfiCond32) V1 load(1, XDATA, add(CFA_XSP16, literal(-9)))
          CFI (cfiCond32) V2 load(1, XDATA, add(CFA_XSP16, literal(-8)))
          CFI (cfiCond32) V3 load(1, XDATA, add(CFA_XSP16, literal(-7)))
          CFI (cfiCond32) R7 load(1, XDATA, add(CFA_XSP16, literal(-6)))
          CFI (cfiCond32) ?RET_LOW load(1, XDATA, add(CFA_XSP16, literal(-5)))
          CFI (cfiCond32) ?RET_HIGH load(1, XDATA, add(CFA_XSP16, literal(-4)))
          CFI (cfiCond32) ?BRET_EXT load(1, XDATA, add(CFA_XSP16, literal(-3)))
          CFI (cfiCond32) DPL0 load(1, XDATA, add(CFA_XSP16, literal(-2)))
          CFI (cfiCond32) DPH0 load(1, XDATA, add(CFA_XSP16, literal(-1)))
          CFI (cfiCond32) CFA_SP SP+-2
          CFI (cfiCond32) CFA_XSP16 add(XSP16, 12)
          CFI Block cfiPicker33 Using cfiCommon1
          CFI (cfiPicker33) NoFunction
          CFI (cfiPicker33) Picker
        MOVX    A,@DPTR
        MOV     ?V2,A
        MOV     R0,#?V2
        RET
          CFI EndBlock cfiCond9
          CFI EndBlock cfiCond10
          CFI EndBlock cfiCond11
          CFI EndBlock cfiCond12
          CFI EndBlock cfiCond13
          CFI EndBlock cfiCond14
          CFI EndBlock cfiCond15
          CFI EndBlock cfiCond16
          CFI EndBlock cfiCond17
          CFI EndBlock cfiCond18
          CFI EndBlock cfiCond19
          CFI EndBlock cfiCond20
          CFI EndBlock cfiCond21
          CFI EndBlock cfiCond22
          CFI EndBlock cfiCond23
          CFI EndBlock cfiCond24
          CFI EndBlock cfiCond25
          CFI EndBlock cfiCond26
          CFI EndBlock cfiCond27
          CFI EndBlock cfiCond28
          CFI EndBlock cfiCond29
          CFI EndBlock cfiCond30
          CFI EndBlock cfiCond31
          CFI EndBlock cfiCond32
          CFI EndBlock cfiPicker33
//  613 
//  614 /*********************************************************************
//  615  * Event Generation Functions
//  616  */
//  617 
//  618 
//  619 /*********************************************************************
//  620  * LOCAL FUNCTIONS
//  621  */
//  622 
//  623 /*********************************************************************
//  624  * @fn      SampleApp_MessageMSGCB
//  625  *
//  626  * @brief   这个函数管理所有接受到的数据，至于数据来自哪个设备，它是根据
//  627  *          簇ID来分辨的。
//  628  *          所有接收到的数据都会存入 afIncomingMSGPacket_t *pkt所指向的存储区域
//  629  *          内
//  630  *          
//  631  *          
//  632  *
//  633  * @param   none
//  634  *
//  635  * @return  none
//  636  */

        RSEG BANKED_CODE:CODE:NOROOT(0)
//  637 void SampleApp_MessageMSGCB( afIncomingMSGPacket_t *pkt ) //2017.03.17 杨广湘：去除簇ID方式解析信息，
SampleApp_MessageMSGCB:
          CFI Block cfiBlock34 Using cfiCommon0
          CFI Function SampleApp_MessageMSGCB
        CODE
//  638 {
        FUNCALL SampleApp_MessageMSGCB, HalUARTWrite
        LOCFRAME ISTACK, 0, STACK
        LOCFRAME PSTACK, 0, STACK
        LOCFRAME XSTACK, 10, STACK
        LOCFRAME IOVERLAY, 0, STATIC
        LOCFRAME DOVERLAY, 0, STATIC
        ARGFRAME ISTACK, 0, STACK
        ARGFRAME PSTACK, 0, STACK
        ARGFRAME XSTACK, 10, STACK
        ARGFRAME IOVERLAY, 0, STATIC
        ARGFRAME DOVERLAY, 0, STATIC
        FUNCALL SampleApp_MessageMSGCB, atoi
        LOCFRAME ISTACK, 0, STACK
        LOCFRAME PSTACK, 0, STACK
        LOCFRAME XSTACK, 10, STACK
        LOCFRAME IOVERLAY, 0, STATIC
        LOCFRAME DOVERLAY, 0, STATIC
        ARGFRAME ISTACK, 0, STACK
        ARGFRAME PSTACK, 0, STACK
        ARGFRAME XSTACK, 10, STACK
        ARGFRAME IOVERLAY, 0, STATIC
        ARGFRAME DOVERLAY, 0, STATIC
        FUNCALL SampleApp_MessageMSGCB, atoi
        LOCFRAME ISTACK, 0, STACK
        LOCFRAME PSTACK, 0, STACK
        LOCFRAME XSTACK, 10, STACK
        LOCFRAME IOVERLAY, 0, STATIC
        LOCFRAME DOVERLAY, 0, STATIC
        ARGFRAME ISTACK, 0, STACK
        ARGFRAME PSTACK, 0, STACK
        ARGFRAME XSTACK, 10, STACK
        ARGFRAME IOVERLAY, 0, STATIC
        ARGFRAME DOVERLAY, 0, STATIC
        FUNCALL SampleApp_MessageMSGCB, atoi
        LOCFRAME ISTACK, 0, STACK
        LOCFRAME PSTACK, 0, STACK
        LOCFRAME XSTACK, 10, STACK
        LOCFRAME IOVERLAY, 0, STATIC
        LOCFRAME DOVERLAY, 0, STATIC
        ARGFRAME ISTACK, 0, STACK
        ARGFRAME PSTACK, 0, STACK
        ARGFRAME XSTACK, 10, STACK
        ARGFRAME IOVERLAY, 0, STATIC
        ARGFRAME DOVERLAY, 0, STATIC
        FUNCALL SampleApp_MessageMSGCB, atoi
        LOCFRAME ISTACK, 0, STACK
        LOCFRAME PSTACK, 0, STACK
        LOCFRAME XSTACK, 10, STACK
        LOCFRAME IOVERLAY, 0, STATIC
        LOCFRAME DOVERLAY, 0, STATIC
        ARGFRAME ISTACK, 0, STACK
        ARGFRAME PSTACK, 0, STACK
        ARGFRAME XSTACK, 10, STACK
        ARGFRAME IOVERLAY, 0, STATIC
        ARGFRAME DOVERLAY, 0, STATIC
        REQUIRE ?V0
        REQUIRE ?V1
        MOV     A,#-0xa
        LCALL   ?BANKED_ENTER_XDATA
          CFI DPH0 load(1, XDATA, add(CFA_XSP16, literal(-1)))
          CFI DPL0 load(1, XDATA, add(CFA_XSP16, literal(-2)))
          CFI ?BRET_EXT load(1, XDATA, add(CFA_XSP16, literal(-3)))
          CFI ?RET_HIGH load(1, XDATA, add(CFA_XSP16, literal(-4)))
          CFI ?RET_LOW load(1, XDATA, add(CFA_XSP16, literal(-5)))
          CFI R7 load(1, XDATA, add(CFA_XSP16, literal(-6)))
          CFI V1 load(1, XDATA, add(CFA_XSP16, literal(-7)))
          CFI V0 load(1, XDATA, add(CFA_XSP16, literal(-8)))
          CFI VB load(1, XDATA, add(CFA_XSP16, literal(-9)))
          CFI R6 load(1, XDATA, add(CFA_XSP16, literal(-10)))
          CFI CFA_SP SP+0
          CFI CFA_XSP16 add(XSP16, 10)
        ; Saved register size: 10
        ; Auto size: 0
//  639   char *str = &pkt->cmd.Data[0];
        MOV     A,R2
        ADD     A,#0x22
        MOV     DPL,A
        CLR     A
        ADDC    A,R3
        MOV     DPH,A
        MOVX    A,@DPTR
        MOV     R6,A
        INC     DPTR
        MOVX    A,@DPTR
        MOV     R7,A
//  640   int len = pkt->cmd.DataLength;
        MOV     A,R2
        ADD     A,#0x20
        MOV     DPL,A
        CLR     A
        ADDC    A,R3
        MOV     DPH,A
        MOVX    A,@DPTR
        MOV     ?V0,A
        INC     DPTR
        MOVX    A,@DPTR
        MOV     ?V1,A
//  641   int sens_id = 0;
//  642   char temp[20];
//  643   int numbers;
//  644   
//  645   /* 无线接收数据打印 */
//  646   if(debug) //调试信息
        MOV     DPTR,#debug
        LCALL   ?Subroutine6 & 0xFFFF
??CrossCallReturnLabel_9:
        JZ      ??SampleApp_MessageMSGCB_0
//  647   {
//  648     HalUARTWrite(0, str,len);//打印收到数据
        ; Setup parameters for call to function HalUARTWrite
        MOV     R4,?V0
        MOV     R5,?V1
        MOV     A,R6
        MOV     R2,A
        MOV     A,R7
        MOV     R3,A
        MOV     R1,#0x0
        LCALL   ??HalUARTWrite?relay ; Banked call to: HalUARTWrite
//  649   }
//  650   
//  651   /* 无线接收数据解析 */
//  652   if(*(str+len-1)== '\n')
??SampleApp_MessageMSGCB_0:
        MOV     A,R6
        ADD     A,?V0
        MOV     R0,A
        MOV     A,R7
        ADDC    A,?V1
        LCALL   ?Subroutine5 & 0xFFFF
??CrossCallReturnLabel_6:
        JZ      $+5
        LJMP    ??SampleApp_MessageMSGCB_1 & 0xFFFF
//  653   {
//  654 #if defined (ZDO_COORDINATOR) || defined (RTR_NWK) //协调器
//  655     /* 协调器接收数据解析 */
//  656     sens_id = atoi(str+DATA_OFFSET_ID);
        ; Setup parameters for call to function atoi
        MOV     A,R6
        ADD     A,#0x5
        MOV     R2,A
        CLR     A
        ADDC    A,R7
        MOV     R3,A
        LCALL   ??atoi?relay         ; Banked call to: atoi
        MOV     ?V0,R2
        MOV     ?V1,R3
        MOV     R0,?V0
        MOV     R1,?V1
//  657     if(sens_id>=1&&sens_id<=3) //提取传感器数据
        MOV     A,R0
        ADD     A,#-0x1
        DEC     R2
        MOV     A,R1
        ADDC    A,#-0x1
        MOV     R3,A
        CLR     C
        MOV     A,R2
        SUBB    A,#0x3
        MOV     A,R3
        SUBB    A,#0x0
        JNC     ??SampleApp_MessageMSGCB_1
//  658     {
//  659       int i = 0;
//  660       i = sens_id - 1;
        MOV     A,R0
        ADD     A,#-0x1
        DEC     R0
        MOV     A,R1
        ADDC    A,#-0x1
        MOV     R1,A
//  661       coordi[i].temperature = atoi(str+DATA_OFFSET_T0);
        MOV     A,R0
        MOV     B,#0x6
        MUL     AB
        MOV     R0,A
        MOV     R2,B
        MOV     B,#0x6
        MOV     A,R1
        MUL     AB
        ADD     A,R2
        MOV     R1,A
        MOV     A,#coordi & 0xff
        ADD     A,R0
        MOV     R0,A
        MOV     A,#(coordi >> 8) & 0xff
        ADDC    A,R1
        MOV     R1,A
        MOV     ?V0,R0
        MOV     ?V1,R1
        ; Setup parameters for call to function atoi
        MOV     A,R6
        ADD     A,#0x9
        MOV     R2,A
        CLR     A
        ADDC    A,R7
        MOV     R3,A
        LCALL   ??atoi?relay         ; Banked call to: atoi
        MOV     DPL,?V0
        MOV     DPH,?V1
        MOV     A,R2
        MOVX    @DPTR,A
        INC     DPTR
        MOV     A,R3
        MOVX    @DPTR,A
//  662       coordi[i].humidity = atoi(str+DATA_OFFSET_U);
        ; Setup parameters for call to function atoi
        MOV     A,R6
        ADD     A,#0xe
        MOV     R2,A
        CLR     A
        ADDC    A,R7
        MOV     R3,A
        LCALL   ??atoi?relay         ; Banked call to: atoi
        MOV     DPL,?V0
        MOV     DPH,?V1
        INC     DPTR
        INC     DPTR
        MOV     A,R2
        MOVX    @DPTR,A
        INC     DPTR
        MOV     A,R3
        MOVX    @DPTR,A
//  663       coordi[i].photosyn = atoi(str+DATA_OFFSET_GH);
        ; Setup parameters for call to function atoi
        MOV     A,R6
        ADD     A,#0x12
        MOV     R2,A
        CLR     A
        ADDC    A,R7
        MOV     R3,A
        LCALL   ??atoi?relay         ; Banked call to: atoi
        MOV     DPL,?V0
        MOV     DPH,?V1
        INC     DPTR
        INC     DPTR
        INC     DPTR
        INC     DPTR
        MOV     A,R2
        MOVX    @DPTR,A
        INC     DPTR
        MOV     A,R3
        MOVX    @DPTR,A
//  664     }
//  665     
//  666 #else //终端
//  667     /* 终端接收数据解析 */
//  668     if(osal_memcmp(str,"#RS",3))//复位
//  669     {
//  670       if((len>5)&&(atoi(str+4)!=0))  //参数不为0清除掉网络信息
//  671       {
//  672         zgWriteStartupOptions(ZG_STARTUP_SET, ZCD_STARTOPT_DEFAULT_NETWORK_STATE);
//  673         printf("clear\r\n");
//  674       }
//  675       
//  676       printf("reset\r\n");
//  677       /* 复位 */     
//  678       rs_flag = 1;//置位停止喂狗标志     
//  679     }
//  680     else if(osal_memcmp(str,"#GH",3))
//  681     {
//  682       if(len == 5) //读取光合表系数
//  683       {
//  684         numbers = sprintf(temp,"<GH,%03u,%.2f>\r\n", sensor_id, gh_factor);
//  685         SampleApp_SendPointToPointMessage(temp, numbers);
//  686       }
//  687       else //设置光合表系数
//  688       {
//  689         float temp_gh;
//  690         int temp_id;
//  691         char *p = NULL;
//  692         
//  693         p = strchr(str, ','); //查找第一个","出现的位置
//  694         sscanf(p+1, "%d", &temp_id);
//  695         if(temp_id == sensor_id)
//  696         {
//  697           p = strchr(p+1, ','); //查找第二个","出现的位置
//  698           sscanf(p+1, "%f", &temp_gh);
//  699           if(temp_gh>=1.0)
//  700           {
//  701             gh_factor = temp_gh;
//  702             
//  703             /* 光合表系数存入flash */
//  704             sprintf(dev_gh, "%5.2f", gh_factor);
//  705             
//  706             if(SUCCESS == osal_nv_write(DEVICE_GH, 0, DEVICE_GH_LEN, dev_gh))
//  707               ReturnTorF(1,0); //存入成功
//  708             else
//  709               ReturnTorF(0,0); //存入失败
//  710           }
//  711           else
//  712           {
//  713             ReturnTorF(0,0); //错误
//  714           }
//  715         }
//  716       }
//  717     }
//  718 #endif
//  719   }
//  720 
//  721 }
??SampleApp_MessageMSGCB_1:
        SJMP    ??Subroutine9_0
          CFI EndBlock cfiBlock34

        RSEG BANKED_CODE:CODE:NOROOT(0)
?Subroutine6:
          CFI Block cfiCond35 Using cfiCommon0
          CFI Function SampleApp_ProcessEvent
          CFI Conditional ??CrossCallReturnLabel_8
          CFI R6 load(1, XDATA, add(CFA_XSP16, literal(-12)))
          CFI VB load(1, XDATA, add(CFA_XSP16, literal(-11)))
          CFI V0 load(1, XDATA, add(CFA_XSP16, literal(-10)))
          CFI V1 load(1, XDATA, add(CFA_XSP16, literal(-9)))
          CFI V2 load(1, XDATA, add(CFA_XSP16, literal(-8)))
          CFI V3 load(1, XDATA, add(CFA_XSP16, literal(-7)))
          CFI R7 load(1, XDATA, add(CFA_XSP16, literal(-6)))
          CFI ?RET_LOW load(1, XDATA, add(CFA_XSP16, literal(-5)))
          CFI ?RET_HIGH load(1, XDATA, add(CFA_XSP16, literal(-4)))
          CFI ?BRET_EXT load(1, XDATA, add(CFA_XSP16, literal(-3)))
          CFI DPL0 load(1, XDATA, add(CFA_XSP16, literal(-2)))
          CFI DPH0 load(1, XDATA, add(CFA_XSP16, literal(-1)))
          CFI CFA_SP SP+-2
          CFI CFA_XSP16 add(XSP16, 12)
          CFI Block cfiCond36 Using cfiCommon0
          CFI (cfiCond36) Function SampleApp_MessageMSGCB
          CFI (cfiCond36) Conditional ??CrossCallReturnLabel_9
          CFI (cfiCond36) R6 load(1, XDATA, add(CFA_XSP16, literal(-10)))
          CFI (cfiCond36) VB load(1, XDATA, add(CFA_XSP16, literal(-9)))
          CFI (cfiCond36) V0 load(1, XDATA, add(CFA_XSP16, literal(-8)))
          CFI (cfiCond36) V1 load(1, XDATA, add(CFA_XSP16, literal(-7)))
          CFI (cfiCond36) R7 load(1, XDATA, add(CFA_XSP16, literal(-6)))
          CFI (cfiCond36) ?RET_LOW load(1, XDATA, add(CFA_XSP16, literal(-5)))
          CFI (cfiCond36) ?RET_HIGH load(1, XDATA, add(CFA_XSP16, literal(-4)))
          CFI (cfiCond36) ?BRET_EXT load(1, XDATA, add(CFA_XSP16, literal(-3)))
          CFI (cfiCond36) DPL0 load(1, XDATA, add(CFA_XSP16, literal(-2)))
          CFI (cfiCond36) DPH0 load(1, XDATA, add(CFA_XSP16, literal(-1)))
          CFI (cfiCond36) CFA_SP SP+-2
          CFI (cfiCond36) CFA_XSP16 add(XSP16, 10)
          CFI Block cfiCond37 Using cfiCommon0
          CFI (cfiCond37) Function SampleApp_SerialCMD
          CFI (cfiCond37) Conditional ??CrossCallReturnLabel_10
          CFI (cfiCond37) R6 load(1, XDATA, add(CFA_XSP16, literal(-15)))
          CFI (cfiCond37) VB load(1, XDATA, add(CFA_XSP16, literal(-14)))
          CFI (cfiCond37) V0 load(1, XDATA, add(CFA_XSP16, literal(-13)))
          CFI (cfiCond37) V1 load(1, XDATA, add(CFA_XSP16, literal(-12)))
          CFI (cfiCond37) V2 load(1, XDATA, add(CFA_XSP16, literal(-11)))
          CFI (cfiCond37) V3 load(1, XDATA, add(CFA_XSP16, literal(-10)))
          CFI (cfiCond37) V4 load(1, XDATA, add(CFA_XSP16, literal(-9)))
          CFI (cfiCond37) V5 load(1, XDATA, add(CFA_XSP16, literal(-8)))
          CFI (cfiCond37) V6 load(1, XDATA, add(CFA_XSP16, literal(-7)))
          CFI (cfiCond37) R7 load(1, XDATA, add(CFA_XSP16, literal(-6)))
          CFI (cfiCond37) ?RET_LOW load(1, XDATA, add(CFA_XSP16, literal(-5)))
          CFI (cfiCond37) ?RET_HIGH load(1, XDATA, add(CFA_XSP16, literal(-4)))
          CFI (cfiCond37) ?BRET_EXT load(1, XDATA, add(CFA_XSP16, literal(-3)))
          CFI (cfiCond37) DPL0 load(1, XDATA, add(CFA_XSP16, literal(-2)))
          CFI (cfiCond37) DPH0 load(1, XDATA, add(CFA_XSP16, literal(-1)))
          CFI (cfiCond37) CFA_SP SP+-2
          CFI (cfiCond37) CFA_XSP16 add(XSP16, 17)
          CFI Block cfiPicker38 Using cfiCommon1
          CFI (cfiPicker38) NoFunction
          CFI (cfiPicker38) Picker
        MOVX    A,@DPTR
        MOV     R0,A
        INC     DPTR
        MOVX    A,@DPTR
        MOV     R1,A
        MOV     A,R0
        ORL     A,R1
        RET
          CFI EndBlock cfiCond35
          CFI EndBlock cfiCond36
          CFI EndBlock cfiCond37
          CFI EndBlock cfiPicker38
//  722 
//  723 /*********************************************************************
//  724  * @fn      SampleApp_SendPeriodicMessage
//  725  *
//  726  * @brief   Send the periodic message.
//  727  *          这个函数，是一个周期性数据发送函数，它是设备设置为周期性广播的时候
//  728  *          调用的，它是我们设置发送数据的地方
//  729  *   SAMPLEAPP_PERIODIC_CLUSTERID,  这是一个簇，定义的作用是和接收方建立联系，
//  730  *           协调器收到这个标号，如果是1，就是证明是由周期性广播方式发送过来的
//  731  *
//  732  * @param   none
//  733  *
//  734  * @return  none
//  735  */

        RSEG BANKED_CODE:CODE:NOROOT(0)
//  736 void SampleApp_SendPeriodicMessage(char *p, int len)
SampleApp_SendPeriodicMessage:
          CFI Block cfiBlock39 Using cfiCommon0
          CFI Function SampleApp_SendPeriodicMessage
        CODE
//  737 {
        FUNCALL SampleApp_SendPeriodicMessage, AF_DataRequest
        LOCFRAME ISTACK, 0, STACK
        LOCFRAME PSTACK, 0, STACK
        LOCFRAME XSTACK, 19, STACK
        LOCFRAME IOVERLAY, 0, STATIC
        LOCFRAME DOVERLAY, 0, STATIC
        ARGFRAME ISTACK, 0, STACK
        ARGFRAME PSTACK, 0, STACK
        ARGFRAME XSTACK, 19, STACK
        ARGFRAME IOVERLAY, 0, STATIC
        ARGFRAME DOVERLAY, 0, STATIC
        REQUIRE ?V0
        REQUIRE ?V1
        MOV     A,#-0xa
        LCALL   ?BANKED_ENTER_XDATA
          CFI DPH0 load(1, XDATA, add(CFA_XSP16, literal(-1)))
          CFI DPL0 load(1, XDATA, add(CFA_XSP16, literal(-2)))
          CFI ?BRET_EXT load(1, XDATA, add(CFA_XSP16, literal(-3)))
          CFI ?RET_HIGH load(1, XDATA, add(CFA_XSP16, literal(-4)))
          CFI ?RET_LOW load(1, XDATA, add(CFA_XSP16, literal(-5)))
          CFI R7 load(1, XDATA, add(CFA_XSP16, literal(-6)))
          CFI V1 load(1, XDATA, add(CFA_XSP16, literal(-7)))
          CFI V0 load(1, XDATA, add(CFA_XSP16, literal(-8)))
          CFI VB load(1, XDATA, add(CFA_XSP16, literal(-9)))
          CFI R6 load(1, XDATA, add(CFA_XSP16, literal(-10)))
          CFI CFA_SP SP+0
          CFI CFA_XSP16 add(XSP16, 10)
        ; Saved register size: 10
        ; Auto size: 0
//  738   if ( AF_DataRequest( &SampleApp_Periodic_DstAddr, &SampleApp_epDesc,
//  739                        SAMPLEAPP_PERIODIC_CLUSTERID,  
//  740                        len,//字节数
//  741                        p,//指针头
//  742                        &SampleApp_TransID,
//  743                        AF_DISCV_ROUTE,
//  744                        AF_DEFAULT_RADIUS ) == afStatus_SUCCESS )
        ; Setup parameters for call to function AF_DataRequest
        MOV     ?V0,#0x1e
        MOV     R0,#?V0
        LCALL   ?PUSH_XSTACK_I_ONE
          CFI CFA_XSP16 add(XSP16, 11)
        MOV     ?V0,#SampleApp_TransID & 0xff
        MOV     ?V1,#(SampleApp_TransID >> 8) & 0xff
        MOV     R0,#?V0
        LCALL   ?PUSH_XSTACK_I_TWO
          CFI CFA_XSP16 add(XSP16, 13)
        MOV     ?V0,R2
        MOV     ?V1,R3
        MOV     R0,#?V0
        LCALL   ?PUSH_XSTACK_I_TWO
          CFI CFA_XSP16 add(XSP16, 15)
        MOV     ?V0,R4
        MOV     ?V1,R5
        MOV     R0,#?V0
        LCALL   ?PUSH_XSTACK_I_TWO
          CFI CFA_XSP16 add(XSP16, 17)
        MOV     ?V0,#0x1
        MOV     ?V1,#0x0
        MOV     R0,#?V0
        LCALL   ?PUSH_XSTACK_I_TWO
          CFI CFA_XSP16 add(XSP16, 19)
        MOV     R1,#0x20
        MOV     R4,#SampleApp_epDesc & 0xff
        MOV     R5,#(SampleApp_epDesc >> 8) & 0xff
        MOV     R2,#SampleApp_Periodic_DstAddr & 0xff
        MOV     R3,#(SampleApp_Periodic_DstAddr >> 8) & 0xff
          CFI EndBlock cfiBlock39
        REQUIRE ?Subroutine0
        ; // Fall through to label ?Subroutine0
//  745   {
//  746   }
//  747   else
//  748   {
//  749     // Error occurred in request to send.
//  750   }
//  751 }

        RSEG BANKED_CODE:CODE:NOROOT(0)
?Subroutine0:
          CFI Block cfiBlock40 Using cfiCommon0
          CFI NoFunction
          CFI CFA_SP SP+0
          CFI CFA_XSP16 add(XSP16, 19)
          CFI VB load(1, XDATA, add(CFA_XSP16, literal(-9)))
          CFI DPL0 load(1, XDATA, add(CFA_XSP16, literal(-2)))
          CFI DPH0 load(1, XDATA, add(CFA_XSP16, literal(-1)))
          CFI R6 load(1, XDATA, add(CFA_XSP16, literal(-10)))
          CFI R7 load(1, XDATA, add(CFA_XSP16, literal(-6)))
          CFI V0 load(1, XDATA, add(CFA_XSP16, literal(-8)))
          CFI V1 load(1, XDATA, add(CFA_XSP16, literal(-7)))
          CFI ?BRET_EXT load(1, XDATA, add(CFA_XSP16, literal(-3)))
          CFI ?RET_HIGH load(1, XDATA, add(CFA_XSP16, literal(-4)))
          CFI ?RET_LOW load(1, XDATA, add(CFA_XSP16, literal(-5)))
        LCALL   ??AF_DataRequest?relay; Banked call to: AF_DataRequest
        MOV     A,#0x9
        LCALL   ?DEALLOC_XSTACK8
          CFI EndBlock cfiBlock40
        REQUIRE ??Subroutine9_0
        ; // Fall through to label ??Subroutine9_0

        RSEG BANKED_CODE:CODE:NOROOT(0)
??Subroutine9_0:
          CFI Block cfiBlock41 Using cfiCommon0
          CFI NoFunction
          CFI CFA_SP SP+0
          CFI CFA_XSP16 add(XSP16, 10)
          CFI VB load(1, XDATA, add(CFA_XSP16, literal(-9)))
          CFI DPL0 load(1, XDATA, add(CFA_XSP16, literal(-2)))
          CFI DPH0 load(1, XDATA, add(CFA_XSP16, literal(-1)))
          CFI R6 load(1, XDATA, add(CFA_XSP16, literal(-10)))
          CFI R7 load(1, XDATA, add(CFA_XSP16, literal(-6)))
          CFI V0 load(1, XDATA, add(CFA_XSP16, literal(-8)))
          CFI V1 load(1, XDATA, add(CFA_XSP16, literal(-7)))
          CFI ?BRET_EXT load(1, XDATA, add(CFA_XSP16, literal(-3)))
          CFI ?RET_HIGH load(1, XDATA, add(CFA_XSP16, literal(-4)))
          CFI ?RET_LOW load(1, XDATA, add(CFA_XSP16, literal(-5)))
        MOV     R7,#0x2
        LJMP    ?BANKED_LEAVE_XDATA
          CFI EndBlock cfiBlock41
//  752 
//  753 /*********************************************************************
//  754  * @fn      SampleApp_SendPointToPointMessage
//  755  *
//  756  * @brief   网蜂点对点发送函数
//  757  *
//  758  * @param   none
//  759  *
//  760  * @return  none
//  761  */

        RSEG BANKED_CODE:CODE:NOROOT(0)
//  762 void SampleApp_SendPointToPointMessage( char *p, int len )
SampleApp_SendPointToPointMessage:
          CFI Block cfiBlock42 Using cfiCommon0
          CFI Function SampleApp_SendPointToPointMessage
        CODE
//  763 { 
        FUNCALL SampleApp_SendPointToPointMessage, AF_DataRequest
        LOCFRAME ISTACK, 0, STACK
        LOCFRAME PSTACK, 0, STACK
        LOCFRAME XSTACK, 19, STACK
        LOCFRAME IOVERLAY, 0, STATIC
        LOCFRAME DOVERLAY, 0, STATIC
        ARGFRAME ISTACK, 0, STACK
        ARGFRAME PSTACK, 0, STACK
        ARGFRAME XSTACK, 19, STACK
        ARGFRAME IOVERLAY, 0, STATIC
        ARGFRAME DOVERLAY, 0, STATIC
        REQUIRE ?V0
        REQUIRE ?V1
        MOV     A,#-0xa
        LCALL   ?BANKED_ENTER_XDATA
          CFI DPH0 load(1, XDATA, add(CFA_XSP16, literal(-1)))
          CFI DPL0 load(1, XDATA, add(CFA_XSP16, literal(-2)))
          CFI ?BRET_EXT load(1, XDATA, add(CFA_XSP16, literal(-3)))
          CFI ?RET_HIGH load(1, XDATA, add(CFA_XSP16, literal(-4)))
          CFI ?RET_LOW load(1, XDATA, add(CFA_XSP16, literal(-5)))
          CFI R7 load(1, XDATA, add(CFA_XSP16, literal(-6)))
          CFI V1 load(1, XDATA, add(CFA_XSP16, literal(-7)))
          CFI V0 load(1, XDATA, add(CFA_XSP16, literal(-8)))
          CFI VB load(1, XDATA, add(CFA_XSP16, literal(-9)))
          CFI R6 load(1, XDATA, add(CFA_XSP16, literal(-10)))
          CFI CFA_SP SP+0
          CFI CFA_XSP16 add(XSP16, 10)
        ; Saved register size: 10
        ; Auto size: 0
//  764   if ( AF_DataRequest( &Point_To_Point_DstAddr,&SampleApp_epDesc,
//  765                          SAMPLEAPP_POINT_TO_POINT_CLUSTERID,
//  766                          len,//字节数
//  767                          p,//首地址  要发送数据的首地址
//  768                          &SampleApp_TransID,
//  769                          AF_DISCV_ROUTE,
//  770                          AF_DEFAULT_RADIUS ) == afStatus_SUCCESS )
        ; Setup parameters for call to function AF_DataRequest
        MOV     ?V0,#0x1e
        MOV     R0,#?V0
        LCALL   ?PUSH_XSTACK_I_ONE
          CFI CFA_XSP16 add(XSP16, 11)
        MOV     ?V0,#SampleApp_TransID & 0xff
        MOV     ?V1,#(SampleApp_TransID >> 8) & 0xff
        MOV     R0,#?V0
        LCALL   ?PUSH_XSTACK_I_TWO
          CFI CFA_XSP16 add(XSP16, 13)
        MOV     ?V0,R2
        MOV     ?V1,R3
        MOV     R0,#?V0
        LCALL   ?PUSH_XSTACK_I_TWO
          CFI CFA_XSP16 add(XSP16, 15)
        MOV     ?V0,R4
        MOV     ?V1,R5
        MOV     R0,#?V0
        LCALL   ?PUSH_XSTACK_I_TWO
          CFI CFA_XSP16 add(XSP16, 17)
        MOV     ?V0,#0x3
        MOV     ?V1,#0x0
        MOV     R0,#?V0
        LCALL   ?PUSH_XSTACK_I_TWO
          CFI CFA_XSP16 add(XSP16, 19)
        MOV     R1,#0x20
        MOV     R4,#SampleApp_epDesc & 0xff
        MOV     R5,#(SampleApp_epDesc >> 8) & 0xff
        MOV     R2,#Point_To_Point_DstAddr & 0xff
        MOV     R3,#(Point_To_Point_DstAddr >> 8) & 0xff
        SJMP    ?Subroutine0
          CFI EndBlock cfiBlock42
//  771   {
//  772   }
//  773   else
//  774   {
//  775     // Error occurred in request to send.
//  776   }
//  777 }
//  778 
//  779 /*********************************************************************
//  780  * @fn      SampleApp_SerialCMD
//  781  *
//  782  * @brief   通讯串口接收数据解析
//  783  *
//  784  * @param   none
//  785  *
//  786  * @return  none
//  787  */

        RSEG BANKED_CODE:CODE:NOROOT(0)
//  788 void SampleApp_SerialCMD(mtOSALSerialData_t *cmdMsg)
SampleApp_SerialCMD:
          CFI Block cfiBlock43 Using cfiCommon0
          CFI Function SampleApp_SerialCMD
        CODE
//  789 {
        FUNCALL SampleApp_SerialCMD, osal_memcmp
        LOCFRAME ISTACK, 0, STACK
        LOCFRAME PSTACK, 0, STACK
        LOCFRAME XSTACK, 20, STACK
        LOCFRAME IOVERLAY, 0, STATIC
        LOCFRAME DOVERLAY, 0, STATIC
        ARGFRAME ISTACK, 0, STACK
        ARGFRAME PSTACK, 0, STACK
        ARGFRAME XSTACK, 20, STACK
        ARGFRAME IOVERLAY, 0, STATIC
        ARGFRAME DOVERLAY, 0, STATIC
        FUNCALL SampleApp_SerialCMD, sprintf
        LOCFRAME ISTACK, 0, STACK
        LOCFRAME PSTACK, 0, STACK
        LOCFRAME XSTACK, 35, STACK
        LOCFRAME IOVERLAY, 0, STATIC
        LOCFRAME DOVERLAY, 0, STATIC
        ARGFRAME ISTACK, 0, STACK
        ARGFRAME PSTACK, 0, STACK
        ARGFRAME XSTACK, 35, STACK
        ARGFRAME IOVERLAY, 0, STATIC
        ARGFRAME DOVERLAY, 0, STATIC
        FUNCALL SampleApp_SerialCMD, SendDataToCollector
        LOCFRAME ISTACK, 0, STACK
        LOCFRAME PSTACK, 0, STACK
        LOCFRAME XSTACK, 17, STACK
        LOCFRAME IOVERLAY, 0, STATIC
        LOCFRAME DOVERLAY, 0, STATIC
        ARGFRAME ISTACK, 0, STACK
        ARGFRAME PSTACK, 0, STACK
        ARGFRAME XSTACK, 17, STACK
        ARGFRAME IOVERLAY, 0, STATIC
        ARGFRAME DOVERLAY, 0, STATIC
        FUNCALL SampleApp_SerialCMD, osal_memset
        LOCFRAME ISTACK, 0, STACK
        LOCFRAME PSTACK, 0, STACK
        LOCFRAME XSTACK, 17, STACK
        LOCFRAME IOVERLAY, 0, STATIC
        LOCFRAME DOVERLAY, 0, STATIC
        ARGFRAME ISTACK, 0, STACK
        ARGFRAME PSTACK, 0, STACK
        ARGFRAME XSTACK, 17, STACK
        ARGFRAME IOVERLAY, 0, STATIC
        ARGFRAME DOVERLAY, 0, STATIC
        FUNCALL SampleApp_SerialCMD, osal_memcmp
        LOCFRAME ISTACK, 0, STACK
        LOCFRAME PSTACK, 0, STACK
        LOCFRAME XSTACK, 20, STACK
        LOCFRAME IOVERLAY, 0, STATIC
        LOCFRAME DOVERLAY, 0, STATIC
        ARGFRAME ISTACK, 0, STACK
        ARGFRAME PSTACK, 0, STACK
        ARGFRAME XSTACK, 20, STACK
        ARGFRAME IOVERLAY, 0, STATIC
        ARGFRAME DOVERLAY, 0, STATIC
        FUNCALL SampleApp_SerialCMD, atoi
        LOCFRAME ISTACK, 0, STACK
        LOCFRAME PSTACK, 0, STACK
        LOCFRAME XSTACK, 17, STACK
        LOCFRAME IOVERLAY, 0, STATIC
        LOCFRAME DOVERLAY, 0, STATIC
        ARGFRAME ISTACK, 0, STACK
        ARGFRAME PSTACK, 0, STACK
        ARGFRAME XSTACK, 17, STACK
        ARGFRAME IOVERLAY, 0, STATIC
        ARGFRAME DOVERLAY, 0, STATIC
        FUNCALL SampleApp_SerialCMD, zgWriteStartupOptions
        LOCFRAME ISTACK, 0, STACK
        LOCFRAME PSTACK, 0, STACK
        LOCFRAME XSTACK, 17, STACK
        LOCFRAME IOVERLAY, 0, STATIC
        LOCFRAME DOVERLAY, 0, STATIC
        ARGFRAME ISTACK, 0, STACK
        ARGFRAME PSTACK, 0, STACK
        ARGFRAME XSTACK, 17, STACK
        ARGFRAME IOVERLAY, 0, STATIC
        ARGFRAME DOVERLAY, 0, STATIC
        FUNCALL SampleApp_SerialCMD, printf
        LOCFRAME ISTACK, 0, STACK
        LOCFRAME PSTACK, 0, STACK
        LOCFRAME XSTACK, 17, STACK
        LOCFRAME IOVERLAY, 0, STATIC
        LOCFRAME DOVERLAY, 0, STATIC
        ARGFRAME ISTACK, 0, STACK
        ARGFRAME PSTACK, 0, STACK
        ARGFRAME XSTACK, 17, STACK
        ARGFRAME IOVERLAY, 0, STATIC
        ARGFRAME DOVERLAY, 0, STATIC
        FUNCALL SampleApp_SerialCMD, ReturnTorF
        LOCFRAME ISTACK, 0, STACK
        LOCFRAME PSTACK, 0, STACK
        LOCFRAME XSTACK, 17, STACK
        LOCFRAME IOVERLAY, 0, STATIC
        LOCFRAME DOVERLAY, 0, STATIC
        ARGFRAME ISTACK, 0, STACK
        ARGFRAME PSTACK, 0, STACK
        ARGFRAME XSTACK, 17, STACK
        ARGFRAME IOVERLAY, 0, STATIC
        ARGFRAME DOVERLAY, 0, STATIC
        FUNCALL SampleApp_SerialCMD, SampleApp_SendPeriodicMessage
        LOCFRAME ISTACK, 0, STACK
        LOCFRAME PSTACK, 0, STACK
        LOCFRAME XSTACK, 17, STACK
        LOCFRAME IOVERLAY, 0, STATIC
        LOCFRAME DOVERLAY, 0, STATIC
        ARGFRAME ISTACK, 0, STACK
        ARGFRAME PSTACK, 0, STACK
        ARGFRAME XSTACK, 17, STACK
        ARGFRAME IOVERLAY, 0, STATIC
        ARGFRAME DOVERLAY, 0, STATIC
        FUNCALL SampleApp_SerialCMD, osal_memcmp
        LOCFRAME ISTACK, 0, STACK
        LOCFRAME PSTACK, 0, STACK
        LOCFRAME XSTACK, 20, STACK
        LOCFRAME IOVERLAY, 0, STATIC
        LOCFRAME DOVERLAY, 0, STATIC
        ARGFRAME ISTACK, 0, STACK
        ARGFRAME PSTACK, 0, STACK
        ARGFRAME XSTACK, 20, STACK
        ARGFRAME IOVERLAY, 0, STATIC
        ARGFRAME DOVERLAY, 0, STATIC
        FUNCALL SampleApp_SerialCMD, SampleApp_SendPeriodicMessage
        LOCFRAME ISTACK, 0, STACK
        LOCFRAME PSTACK, 0, STACK
        LOCFRAME XSTACK, 17, STACK
        LOCFRAME IOVERLAY, 0, STATIC
        LOCFRAME DOVERLAY, 0, STATIC
        ARGFRAME ISTACK, 0, STACK
        ARGFRAME PSTACK, 0, STACK
        ARGFRAME XSTACK, 17, STACK
        ARGFRAME IOVERLAY, 0, STATIC
        ARGFRAME DOVERLAY, 0, STATIC
        FUNCALL SampleApp_SerialCMD, osal_memcmp
        LOCFRAME ISTACK, 0, STACK
        LOCFRAME PSTACK, 0, STACK
        LOCFRAME XSTACK, 20, STACK
        LOCFRAME IOVERLAY, 0, STATIC
        LOCFRAME DOVERLAY, 0, STATIC
        ARGFRAME ISTACK, 0, STACK
        ARGFRAME PSTACK, 0, STACK
        ARGFRAME XSTACK, 20, STACK
        ARGFRAME IOVERLAY, 0, STATIC
        ARGFRAME DOVERLAY, 0, STATIC
        FUNCALL SampleApp_SerialCMD, printf
        LOCFRAME ISTACK, 0, STACK
        LOCFRAME PSTACK, 0, STACK
        LOCFRAME XSTACK, 19, STACK
        LOCFRAME IOVERLAY, 0, STATIC
        LOCFRAME DOVERLAY, 0, STATIC
        ARGFRAME ISTACK, 0, STACK
        ARGFRAME PSTACK, 0, STACK
        ARGFRAME XSTACK, 19, STACK
        ARGFRAME IOVERLAY, 0, STATIC
        ARGFRAME DOVERLAY, 0, STATIC
        FUNCALL SampleApp_SerialCMD, sscanf
        LOCFRAME ISTACK, 0, STACK
        LOCFRAME PSTACK, 0, STACK
        LOCFRAME XSTACK, 19, STACK
        LOCFRAME IOVERLAY, 0, STATIC
        LOCFRAME DOVERLAY, 0, STATIC
        ARGFRAME ISTACK, 0, STACK
        ARGFRAME PSTACK, 0, STACK
        ARGFRAME XSTACK, 19, STACK
        ARGFRAME IOVERLAY, 0, STATIC
        ARGFRAME DOVERLAY, 0, STATIC
        FUNCALL SampleApp_SerialCMD, osal_memset
        LOCFRAME ISTACK, 0, STACK
        LOCFRAME PSTACK, 0, STACK
        LOCFRAME XSTACK, 17, STACK
        LOCFRAME IOVERLAY, 0, STATIC
        LOCFRAME DOVERLAY, 0, STATIC
        ARGFRAME ISTACK, 0, STACK
        ARGFRAME PSTACK, 0, STACK
        ARGFRAME XSTACK, 17, STACK
        ARGFRAME IOVERLAY, 0, STATIC
        ARGFRAME DOVERLAY, 0, STATIC
        FUNCALL SampleApp_SerialCMD, NLME_UpdateNV
        LOCFRAME ISTACK, 0, STACK
        LOCFRAME PSTACK, 0, STACK
        LOCFRAME XSTACK, 17, STACK
        LOCFRAME IOVERLAY, 0, STATIC
        LOCFRAME DOVERLAY, 0, STATIC
        ARGFRAME ISTACK, 0, STACK
        ARGFRAME PSTACK, 0, STACK
        ARGFRAME XSTACK, 17, STACK
        ARGFRAME IOVERLAY, 0, STATIC
        ARGFRAME DOVERLAY, 0, STATIC
        FUNCALL SampleApp_SerialCMD, ReturnTorF
        LOCFRAME ISTACK, 0, STACK
        LOCFRAME PSTACK, 0, STACK
        LOCFRAME XSTACK, 17, STACK
        LOCFRAME IOVERLAY, 0, STATIC
        LOCFRAME DOVERLAY, 0, STATIC
        ARGFRAME ISTACK, 0, STACK
        ARGFRAME PSTACK, 0, STACK
        ARGFRAME XSTACK, 17, STACK
        ARGFRAME IOVERLAY, 0, STATIC
        ARGFRAME DOVERLAY, 0, STATIC
        FUNCALL SampleApp_SerialCMD, osal_memcmp
        LOCFRAME ISTACK, 0, STACK
        LOCFRAME PSTACK, 0, STACK
        LOCFRAME XSTACK, 20, STACK
        LOCFRAME IOVERLAY, 0, STATIC
        LOCFRAME DOVERLAY, 0, STATIC
        ARGFRAME ISTACK, 0, STACK
        ARGFRAME PSTACK, 0, STACK
        ARGFRAME XSTACK, 20, STACK
        ARGFRAME IOVERLAY, 0, STATIC
        ARGFRAME DOVERLAY, 0, STATIC
        FUNCALL SampleApp_SerialCMD, printf
        LOCFRAME ISTACK, 0, STACK
        LOCFRAME PSTACK, 0, STACK
        LOCFRAME XSTACK, 19, STACK
        LOCFRAME IOVERLAY, 0, STATIC
        LOCFRAME DOVERLAY, 0, STATIC
        ARGFRAME ISTACK, 0, STACK
        ARGFRAME PSTACK, 0, STACK
        ARGFRAME XSTACK, 19, STACK
        ARGFRAME IOVERLAY, 0, STATIC
        ARGFRAME DOVERLAY, 0, STATIC
        FUNCALL SampleApp_SerialCMD, sscanf
        LOCFRAME ISTACK, 0, STACK
        LOCFRAME PSTACK, 0, STACK
        LOCFRAME XSTACK, 19, STACK
        LOCFRAME IOVERLAY, 0, STATIC
        LOCFRAME DOVERLAY, 0, STATIC
        ARGFRAME ISTACK, 0, STACK
        ARGFRAME PSTACK, 0, STACK
        ARGFRAME XSTACK, 19, STACK
        ARGFRAME IOVERLAY, 0, STATIC
        ARGFRAME DOVERLAY, 0, STATIC
        FUNCALL SampleApp_SerialCMD, osal_memset
        LOCFRAME ISTACK, 0, STACK
        LOCFRAME PSTACK, 0, STACK
        LOCFRAME XSTACK, 17, STACK
        LOCFRAME IOVERLAY, 0, STATIC
        LOCFRAME DOVERLAY, 0, STATIC
        ARGFRAME ISTACK, 0, STACK
        ARGFRAME PSTACK, 0, STACK
        ARGFRAME XSTACK, 17, STACK
        ARGFRAME IOVERLAY, 0, STATIC
        ARGFRAME DOVERLAY, 0, STATIC
        FUNCALL SampleApp_SerialCMD, NLME_UpdateNV
        LOCFRAME ISTACK, 0, STACK
        LOCFRAME PSTACK, 0, STACK
        LOCFRAME XSTACK, 17, STACK
        LOCFRAME IOVERLAY, 0, STATIC
        LOCFRAME DOVERLAY, 0, STATIC
        ARGFRAME ISTACK, 0, STACK
        ARGFRAME PSTACK, 0, STACK
        ARGFRAME XSTACK, 17, STACK
        ARGFRAME IOVERLAY, 0, STATIC
        ARGFRAME DOVERLAY, 0, STATIC
        FUNCALL SampleApp_SerialCMD, ReturnTorF
        LOCFRAME ISTACK, 0, STACK
        LOCFRAME PSTACK, 0, STACK
        LOCFRAME XSTACK, 17, STACK
        LOCFRAME IOVERLAY, 0, STATIC
        LOCFRAME DOVERLAY, 0, STATIC
        ARGFRAME ISTACK, 0, STACK
        ARGFRAME PSTACK, 0, STACK
        ARGFRAME XSTACK, 17, STACK
        ARGFRAME IOVERLAY, 0, STATIC
        ARGFRAME DOVERLAY, 0, STATIC
        FUNCALL SampleApp_SerialCMD, osal_memcmp
        LOCFRAME ISTACK, 0, STACK
        LOCFRAME PSTACK, 0, STACK
        LOCFRAME XSTACK, 20, STACK
        LOCFRAME IOVERLAY, 0, STATIC
        LOCFRAME DOVERLAY, 0, STATIC
        ARGFRAME ISTACK, 0, STACK
        ARGFRAME PSTACK, 0, STACK
        ARGFRAME XSTACK, 20, STACK
        ARGFRAME IOVERLAY, 0, STATIC
        ARGFRAME DOVERLAY, 0, STATIC
        FUNCALL SampleApp_SerialCMD, printf
        LOCFRAME ISTACK, 0, STACK
        LOCFRAME PSTACK, 0, STACK
        LOCFRAME XSTACK, 19, STACK
        LOCFRAME IOVERLAY, 0, STATIC
        LOCFRAME DOVERLAY, 0, STATIC
        ARGFRAME ISTACK, 0, STACK
        ARGFRAME PSTACK, 0, STACK
        ARGFRAME XSTACK, 19, STACK
        ARGFRAME IOVERLAY, 0, STATIC
        ARGFRAME DOVERLAY, 0, STATIC
        FUNCALL SampleApp_SerialCMD, osal_memcmp
        LOCFRAME ISTACK, 0, STACK
        LOCFRAME PSTACK, 0, STACK
        LOCFRAME XSTACK, 20, STACK
        LOCFRAME IOVERLAY, 0, STATIC
        LOCFRAME DOVERLAY, 0, STATIC
        ARGFRAME ISTACK, 0, STACK
        ARGFRAME PSTACK, 0, STACK
        ARGFRAME XSTACK, 20, STACK
        ARGFRAME IOVERLAY, 0, STATIC
        ARGFRAME DOVERLAY, 0, STATIC
        FUNCALL SampleApp_SerialCMD, printf
        LOCFRAME ISTACK, 0, STACK
        LOCFRAME PSTACK, 0, STACK
        LOCFRAME XSTACK, 19, STACK
        LOCFRAME IOVERLAY, 0, STATIC
        LOCFRAME DOVERLAY, 0, STATIC
        ARGFRAME ISTACK, 0, STACK
        ARGFRAME PSTACK, 0, STACK
        ARGFRAME XSTACK, 19, STACK
        ARGFRAME IOVERLAY, 0, STATIC
        ARGFRAME DOVERLAY, 0, STATIC
        FUNCALL SampleApp_SerialCMD, sscanf
        LOCFRAME ISTACK, 0, STACK
        LOCFRAME PSTACK, 0, STACK
        LOCFRAME XSTACK, 19, STACK
        LOCFRAME IOVERLAY, 0, STATIC
        LOCFRAME DOVERLAY, 0, STATIC
        ARGFRAME ISTACK, 0, STACK
        ARGFRAME PSTACK, 0, STACK
        ARGFRAME XSTACK, 19, STACK
        ARGFRAME IOVERLAY, 0, STATIC
        ARGFRAME DOVERLAY, 0, STATIC
        FUNCALL SampleApp_SerialCMD, nvItemInit
        LOCFRAME ISTACK, 0, STACK
        LOCFRAME PSTACK, 0, STACK
        LOCFRAME XSTACK, 19, STACK
        LOCFRAME IOVERLAY, 0, STATIC
        LOCFRAME DOVERLAY, 0, STATIC
        ARGFRAME ISTACK, 0, STACK
        ARGFRAME PSTACK, 0, STACK
        ARGFRAME XSTACK, 19, STACK
        ARGFRAME IOVERLAY, 0, STATIC
        ARGFRAME DOVERLAY, 0, STATIC
        FUNCALL SampleApp_SerialCMD, printf
        LOCFRAME ISTACK, 0, STACK
        LOCFRAME PSTACK, 0, STACK
        LOCFRAME XSTACK, 17, STACK
        LOCFRAME IOVERLAY, 0, STATIC
        LOCFRAME DOVERLAY, 0, STATIC
        ARGFRAME ISTACK, 0, STACK
        ARGFRAME PSTACK, 0, STACK
        ARGFRAME XSTACK, 17, STACK
        ARGFRAME IOVERLAY, 0, STATIC
        ARGFRAME DOVERLAY, 0, STATIC
        FUNCALL SampleApp_SerialCMD, printf
        LOCFRAME ISTACK, 0, STACK
        LOCFRAME PSTACK, 0, STACK
        LOCFRAME XSTACK, 17, STACK
        LOCFRAME IOVERLAY, 0, STATIC
        LOCFRAME DOVERLAY, 0, STATIC
        ARGFRAME ISTACK, 0, STACK
        ARGFRAME PSTACK, 0, STACK
        ARGFRAME XSTACK, 17, STACK
        ARGFRAME IOVERLAY, 0, STATIC
        ARGFRAME DOVERLAY, 0, STATIC
        FUNCALL SampleApp_SerialCMD, osal_memcmp
        LOCFRAME ISTACK, 0, STACK
        LOCFRAME PSTACK, 0, STACK
        LOCFRAME XSTACK, 20, STACK
        LOCFRAME IOVERLAY, 0, STATIC
        LOCFRAME DOVERLAY, 0, STATIC
        ARGFRAME ISTACK, 0, STACK
        ARGFRAME PSTACK, 0, STACK
        ARGFRAME XSTACK, 20, STACK
        ARGFRAME IOVERLAY, 0, STATIC
        ARGFRAME DOVERLAY, 0, STATIC
        FUNCALL SampleApp_SerialCMD, printf
        LOCFRAME ISTACK, 0, STACK
        LOCFRAME PSTACK, 0, STACK
        LOCFRAME XSTACK, 17, STACK
        LOCFRAME IOVERLAY, 0, STATIC
        LOCFRAME DOVERLAY, 0, STATIC
        ARGFRAME ISTACK, 0, STACK
        ARGFRAME PSTACK, 0, STACK
        ARGFRAME XSTACK, 17, STACK
        ARGFRAME IOVERLAY, 0, STATIC
        ARGFRAME DOVERLAY, 0, STATIC
        FUNCALL SampleApp_SerialCMD, printf
        LOCFRAME ISTACK, 0, STACK
        LOCFRAME PSTACK, 0, STACK
        LOCFRAME XSTACK, 19, STACK
        LOCFRAME IOVERLAY, 0, STATIC
        LOCFRAME DOVERLAY, 0, STATIC
        ARGFRAME ISTACK, 0, STACK
        ARGFRAME PSTACK, 0, STACK
        ARGFRAME XSTACK, 19, STACK
        ARGFRAME IOVERLAY, 0, STATIC
        ARGFRAME DOVERLAY, 0, STATIC
        FUNCALL SampleApp_SerialCMD, sscanf
        LOCFRAME ISTACK, 0, STACK
        LOCFRAME PSTACK, 0, STACK
        LOCFRAME XSTACK, 19, STACK
        LOCFRAME IOVERLAY, 0, STATIC
        LOCFRAME DOVERLAY, 0, STATIC
        ARGFRAME ISTACK, 0, STACK
        ARGFRAME PSTACK, 0, STACK
        ARGFRAME XSTACK, 19, STACK
        ARGFRAME IOVERLAY, 0, STATIC
        ARGFRAME DOVERLAY, 0, STATIC
        FUNCALL SampleApp_SerialCMD, osal_memcmp
        LOCFRAME ISTACK, 0, STACK
        LOCFRAME PSTACK, 0, STACK
        LOCFRAME XSTACK, 20, STACK
        LOCFRAME IOVERLAY, 0, STATIC
        LOCFRAME DOVERLAY, 0, STATIC
        ARGFRAME ISTACK, 0, STACK
        ARGFRAME PSTACK, 0, STACK
        ARGFRAME XSTACK, 20, STACK
        ARGFRAME IOVERLAY, 0, STATIC
        ARGFRAME DOVERLAY, 0, STATIC
        FUNCALL SampleApp_SerialCMD, osal_memcmp
        LOCFRAME ISTACK, 0, STACK
        LOCFRAME PSTACK, 0, STACK
        LOCFRAME XSTACK, 20, STACK
        LOCFRAME IOVERLAY, 0, STATIC
        LOCFRAME DOVERLAY, 0, STATIC
        ARGFRAME ISTACK, 0, STACK
        ARGFRAME PSTACK, 0, STACK
        ARGFRAME XSTACK, 20, STACK
        ARGFRAME IOVERLAY, 0, STATIC
        ARGFRAME DOVERLAY, 0, STATIC
        FUNCALL SampleApp_SerialCMD, printf
        LOCFRAME ISTACK, 0, STACK
        LOCFRAME PSTACK, 0, STACK
        LOCFRAME XSTACK, 17, STACK
        LOCFRAME IOVERLAY, 0, STATIC
        LOCFRAME DOVERLAY, 0, STATIC
        ARGFRAME ISTACK, 0, STACK
        ARGFRAME PSTACK, 0, STACK
        ARGFRAME XSTACK, 17, STACK
        ARGFRAME IOVERLAY, 0, STATIC
        ARGFRAME DOVERLAY, 0, STATIC
        FUNCALL SampleApp_SerialCMD, printf
        LOCFRAME ISTACK, 0, STACK
        LOCFRAME PSTACK, 0, STACK
        LOCFRAME XSTACK, 23, STACK
        LOCFRAME IOVERLAY, 0, STATIC
        LOCFRAME DOVERLAY, 0, STATIC
        ARGFRAME ISTACK, 0, STACK
        ARGFRAME PSTACK, 0, STACK
        ARGFRAME XSTACK, 23, STACK
        ARGFRAME IOVERLAY, 0, STATIC
        ARGFRAME DOVERLAY, 0, STATIC
        FUNCALL SampleApp_SerialCMD, nvItemInit
        LOCFRAME ISTACK, 0, STACK
        LOCFRAME PSTACK, 0, STACK
        LOCFRAME XSTACK, 19, STACK
        LOCFRAME IOVERLAY, 0, STATIC
        LOCFRAME DOVERLAY, 0, STATIC
        ARGFRAME ISTACK, 0, STACK
        ARGFRAME PSTACK, 0, STACK
        ARGFRAME XSTACK, 19, STACK
        ARGFRAME IOVERLAY, 0, STATIC
        ARGFRAME DOVERLAY, 0, STATIC
        FUNCALL SampleApp_SerialCMD, printf
        LOCFRAME ISTACK, 0, STACK
        LOCFRAME PSTACK, 0, STACK
        LOCFRAME XSTACK, 17, STACK
        LOCFRAME IOVERLAY, 0, STATIC
        LOCFRAME DOVERLAY, 0, STATIC
        ARGFRAME ISTACK, 0, STACK
        ARGFRAME PSTACK, 0, STACK
        ARGFRAME XSTACK, 17, STACK
        ARGFRAME IOVERLAY, 0, STATIC
        ARGFRAME DOVERLAY, 0, STATIC
        FUNCALL SampleApp_SerialCMD, printf
        LOCFRAME ISTACK, 0, STACK
        LOCFRAME PSTACK, 0, STACK
        LOCFRAME XSTACK, 17, STACK
        LOCFRAME IOVERLAY, 0, STATIC
        LOCFRAME DOVERLAY, 0, STATIC
        ARGFRAME ISTACK, 0, STACK
        ARGFRAME PSTACK, 0, STACK
        ARGFRAME XSTACK, 17, STACK
        ARGFRAME IOVERLAY, 0, STATIC
        ARGFRAME DOVERLAY, 0, STATIC
        FUNCALL SampleApp_SerialCMD, osal_memcmp
        LOCFRAME ISTACK, 0, STACK
        LOCFRAME PSTACK, 0, STACK
        LOCFRAME XSTACK, 20, STACK
        LOCFRAME IOVERLAY, 0, STATIC
        LOCFRAME DOVERLAY, 0, STATIC
        ARGFRAME ISTACK, 0, STACK
        ARGFRAME PSTACK, 0, STACK
        ARGFRAME XSTACK, 20, STACK
        ARGFRAME IOVERLAY, 0, STATIC
        ARGFRAME DOVERLAY, 0, STATIC
        FUNCALL SampleApp_SerialCMD, atoi
        LOCFRAME ISTACK, 0, STACK
        LOCFRAME PSTACK, 0, STACK
        LOCFRAME XSTACK, 17, STACK
        LOCFRAME IOVERLAY, 0, STATIC
        LOCFRAME DOVERLAY, 0, STATIC
        ARGFRAME ISTACK, 0, STACK
        ARGFRAME PSTACK, 0, STACK
        ARGFRAME XSTACK, 17, STACK
        ARGFRAME IOVERLAY, 0, STATIC
        ARGFRAME DOVERLAY, 0, STATIC
        FUNCALL SampleApp_SerialCMD, ReturnTorF
        LOCFRAME ISTACK, 0, STACK
        LOCFRAME PSTACK, 0, STACK
        LOCFRAME XSTACK, 17, STACK
        LOCFRAME IOVERLAY, 0, STATIC
        LOCFRAME DOVERLAY, 0, STATIC
        ARGFRAME ISTACK, 0, STACK
        ARGFRAME PSTACK, 0, STACK
        ARGFRAME XSTACK, 17, STACK
        ARGFRAME IOVERLAY, 0, STATIC
        ARGFRAME DOVERLAY, 0, STATIC
        FUNCALL SampleApp_SerialCMD, ReturnTorF
        LOCFRAME ISTACK, 0, STACK
        LOCFRAME PSTACK, 0, STACK
        LOCFRAME XSTACK, 17, STACK
        LOCFRAME IOVERLAY, 0, STATIC
        LOCFRAME DOVERLAY, 0, STATIC
        ARGFRAME ISTACK, 0, STACK
        ARGFRAME PSTACK, 0, STACK
        ARGFRAME XSTACK, 17, STACK
        ARGFRAME IOVERLAY, 0, STATIC
        ARGFRAME DOVERLAY, 0, STATIC
        REQUIRE ?V0
        REQUIRE ?V1
        REQUIRE ?V2
        REQUIRE ?V3
        REQUIRE ?V4
        REQUIRE ?V5
        REQUIRE ?V6
        MOV     A,#-0xf
        LCALL   ?BANKED_ENTER_XDATA
          CFI DPH0 load(1, XDATA, add(CFA_XSP16, literal(-1)))
          CFI DPL0 load(1, XDATA, add(CFA_XSP16, literal(-2)))
          CFI ?BRET_EXT load(1, XDATA, add(CFA_XSP16, literal(-3)))
          CFI ?RET_HIGH load(1, XDATA, add(CFA_XSP16, literal(-4)))
          CFI ?RET_LOW load(1, XDATA, add(CFA_XSP16, literal(-5)))
          CFI R7 load(1, XDATA, add(CFA_XSP16, literal(-6)))
          CFI V6 load(1, XDATA, add(CFA_XSP16, literal(-7)))
          CFI V5 load(1, XDATA, add(CFA_XSP16, literal(-8)))
          CFI V4 load(1, XDATA, add(CFA_XSP16, literal(-9)))
          CFI V3 load(1, XDATA, add(CFA_XSP16, literal(-10)))
          CFI V2 load(1, XDATA, add(CFA_XSP16, literal(-11)))
          CFI V1 load(1, XDATA, add(CFA_XSP16, literal(-12)))
          CFI V0 load(1, XDATA, add(CFA_XSP16, literal(-13)))
          CFI VB load(1, XDATA, add(CFA_XSP16, literal(-14)))
          CFI R6 load(1, XDATA, add(CFA_XSP16, literal(-15)))
          CFI CFA_SP SP+0
          CFI CFA_XSP16 add(XSP16, 15)
        ; Saved register size: 15
        ; Auto size: 2
        MOV     A,#-0x2
        LCALL   ?ALLOC_XSTACK8
          CFI CFA_XSP16 add(XSP16, 17)
//  790    uint8 i,len,*str=NULL; //len 有用数据长度
//  791    int numbers;
//  792    str=cmdMsg->msg; //指向数据开头
        MOV     DPL,R2
        MOV     DPH,R3
        INC     DPTR
        INC     DPTR
        MOVX    A,@DPTR
        MOV     R6,A
        INC     DPTR
        MOVX    A,@DPTR
        MOV     R7,A
//  793    len=*str; //msg 里的第 1 个字节代表后面的数据长度
        MOV     DPL,R6
        MOV     DPH,R7
        MOVX    A,@DPTR
        MOV     ?V0,A
//  794    str++; //令指针指向第一个字符
        INC     DPTR
        MOV     R6,DPL
        MOV     R7,DPH
//  795    
//  796    /********打印出串口接收到的数据，用于提示*********/
//  797    //HalUARTWrite(0,str,len);
//  798    
//  799    /* 上位机指令解析 */
//  800    if(*(str+len-1)== '\n')
        MOV     ?V2,A
        MOV     A,R6
        ADD     A,?V2
        MOV     R0,A
        CLR     A
        ADDC    A,R7
        LCALL   ?Subroutine5 & 0xFFFF
??CrossCallReturnLabel_7:
        JZ      $+5
        LJMP    ??SampleApp_SerialCMD_0 & 0xFFFF
//  801    {
//  802 #if defined (ZDO_COORDINATOR) || defined (RTR_NWK) //协调器
//  803      
//  804       //数据读取（DM）
//  805       if(osal_memcmp(str,"#DM",3)) //主采读取数据
        ; Setup parameters for call to function osal_memcmp
        MOV     ?V4,#`?<Constant "#DM">` & 0xff
        MOV     ?V5,#(`?<Constant "#DM">` >> 8) & 0xff
        MOV     ?V6,#0x0
        MOV     R0,#?V4
        LCALL   ?PUSH_XSTACK_I_THREE
          CFI CFA_XSP16 add(XSP16, 20)
        MOV     R4,#0x3
        MOV     R5,#0x0
        MOV     DPL,R6
        MOV     DPH,R7
        MOV     R1,DPL
        MOV     R2,DPH
        MOV     R3,#0x0
        LCALL   ??osal_memcmp?relay  ; Banked call to: osal_memcmp
        MOV     A,#0x3
        LCALL   ?DEALLOC_XSTACK8
          CFI CFA_XSP16 add(XSP16, 17)
        MOV     A,R1
        JZ      ??SampleApp_SerialCMD_1
//  806       {
//  807         /* 主采读取数据 */
//  808         numbers = sprintf(data_coor, "BG,ID001,%04d,%03d,%04d,ID002,%04d,%03d,%04d,ID003,%04d,%03d,%04d,ED\r\n",coordi[0].temperature,
//  809                           coordi[0].humidity,coordi[0].photosyn,coordi[1].temperature,coordi[1].humidity,coordi[1].photosyn,
//  810                           coordi[2].temperature,coordi[2].humidity,coordi[2].photosyn); //数据填充
//  811         
//  812         SendDataToCollector(data_coor, numbers); //数据发往主采
        ; Setup parameters for call to function SendDataToCollector
        ; Setup parameters for call to function sprintf
        MOV     DPTR,#coordi + 16
        LCALL   ?PUSH_XSTACK8_X_TWO
          CFI CFA_XSP16 add(XSP16, 19)
        MOV     DPTR,#coordi + 14
        LCALL   ?PUSH_XSTACK8_X_TWO
          CFI CFA_XSP16 add(XSP16, 21)
        MOV     DPTR,#coordi + 12
        LCALL   ?PUSH_XSTACK8_X_TWO
          CFI CFA_XSP16 add(XSP16, 23)
        MOV     DPTR,#coordi + 10
        LCALL   ?PUSH_XSTACK8_X_TWO
          CFI CFA_XSP16 add(XSP16, 25)
        MOV     DPTR,#coordi + 8
        LCALL   ?PUSH_XSTACK8_X_TWO
          CFI CFA_XSP16 add(XSP16, 27)
        MOV     DPTR,#coordi + 6
        LCALL   ?PUSH_XSTACK8_X_TWO
          CFI CFA_XSP16 add(XSP16, 29)
        MOV     DPTR,#coordi + 4
        LCALL   ?PUSH_XSTACK8_X_TWO
          CFI CFA_XSP16 add(XSP16, 31)
        MOV     DPTR,#coordi + 2
        LCALL   ?PUSH_XSTACK8_X_TWO
          CFI CFA_XSP16 add(XSP16, 33)
        MOV     DPTR,#coordi
        LCALL   ?PUSH_XSTACK8_X_TWO
          CFI CFA_XSP16 add(XSP16, 35)
        MOV     R4,#`?<Constant "BG,ID001,%04d,%03d,%0...">` & 0xff
        MOV     R5,#(`?<Constant "BG,ID001,%04d,%03d,%0...">` >> 8) & 0xff
        MOV     R2,#data_coor & 0xff
        MOV     R3,#(data_coor >> 8) & 0xff
        LCALL   ??sprintf?relay      ; Banked call to: sprintf
        MOV     A,#0x12
        LCALL   ?DEALLOC_XSTACK8
          CFI CFA_XSP16 add(XSP16, 17)
        MOV     A,R2
        MOV     R4,A
        MOV     A,R3
        MOV     R5,A
        MOV     R2,#data_coor & 0xff
        MOV     R3,#(data_coor >> 8) & 0xff
        LCALL   ??SendDataToCollector?relay; Banked call to: SendDataToCollector
//  813         
//  814         osal_memset(coordi, 0, sizeof(dataType_t)*3); //发送后数据清零
        ; Setup parameters for call to function osal_memset
        MOV     R4,#0x12
        MOV     R5,#0x0
        MOV     R1,#0x0
        MOV     R2,#coordi & 0xff
        MOV     R3,#(coordi >> 8) & 0xff
        LCALL   ??osal_memset?relay  ; Banked call to: osal_memset
        LJMP    ??SampleApp_SerialCMD_2 & 0xFFFF
//  815       }
//  816       
//  817       //复位指令（RS）
//  818       else if(osal_memcmp(str,"#RS",3))
??SampleApp_SerialCMD_1:
        ; Setup parameters for call to function osal_memcmp
        MOV     ?V4,#`?<Constant "#RS">` & 0xff
        MOV     ?V5,#(`?<Constant "#RS">` >> 8) & 0xff
        MOV     R0,#?V4
        LCALL   ?PUSH_XSTACK_I_THREE
          CFI CFA_XSP16 add(XSP16, 20)
        MOV     R4,#0x3
        MOV     R5,#0x0
        MOV     DPL,R6
        MOV     DPH,R7
        MOV     R1,DPL
        MOV     R2,DPH
        MOV     R3,#0x0
        LCALL   ??osal_memcmp?relay  ; Banked call to: osal_memcmp
        MOV     A,#0x3
        LCALL   ?DEALLOC_XSTACK8
          CFI CFA_XSP16 add(XSP16, 17)
        MOV     A,R1
        JZ      ??SampleApp_SerialCMD_3
//  819       {
//  820         /* 复位 */
//  821         if((len>5)&&(atoi(str+4)!=0))  //参数不为0清除掉网络信息
        MOV     A,?V0
        CLR     C
        SUBB    A,#0x6
        JC      ??SampleApp_SerialCMD_4
        ; Setup parameters for call to function atoi
        LCALL   ??Subroutine10_0 & 0xFFFF
??CrossCallReturnLabel_35:
        LCALL   ??atoi?relay         ; Banked call to: atoi
        MOV     ?V3,R3
        MOV     A,R2
        ORL     A,?V3
        JZ      ??SampleApp_SerialCMD_4
//  822         {
//  823           zgWriteStartupOptions(ZG_STARTUP_SET, ZCD_STARTOPT_DEFAULT_NETWORK_STATE);
        ; Setup parameters for call to function zgWriteStartupOptions
        MOV     R2,#0x2
        MOV     R1,#-0x1
        LCALL   ??zgWriteStartupOptions?relay; Banked call to: zgWriteStartupOptions
//  824           printf("clear\r\n");
        ; Setup parameters for call to function printf
        MOV     R2,#`?<Constant "clear\\r\\n">` & 0xff
        MOV     R3,#(`?<Constant "clear\\r\\n">` >> 8) & 0xff
        LCALL   ??printf?relay       ; Banked call to: printf
//  825         }
//  826         
//  827         ReturnTorF( 1, 1 ); //正确
??SampleApp_SerialCMD_4:
        ; Setup parameters for call to function ReturnTorF
        MOV     R4,#0x1
        MOV     R5,#0x0
        MOV     R2,#0x1
        MOV     R3,#0x0
        LCALL   ??ReturnTorF?relay   ; Banked call to: ReturnTorF
//  828         SampleApp_SendPeriodicMessage(str, len); //转发复位指令给终端传感器
        ; Setup parameters for call to function SampleApp_SendPeriodicMessage
        MOV     R4,?V0
        MOV     R5,#0x0
        MOV     A,R6
        MOV     R2,A
        MOV     A,R7
        MOV     R3,A
        LCALL   ??SampleApp_SendPeriodicMessage?relay; Banked call to: SampleApp_SendPeriodicMessage
//  829         
//  830         rs_flag = 1;//置位停止喂狗标志
        MOV     DPTR,#rs_flag
        MOV     A,#0x1
        MOVX    @DPTR,A
        INC     DPTR
        CLR     A
        MOVX    @DPTR,A
        LJMP    ??SampleApp_SerialCMD_2 & 0xFFFF
//  831         
//  832       }
//  833       else if(osal_memcmp(str,"#GH",3)) //协调器使用GH指令给传感器设置光合表系数
??SampleApp_SerialCMD_3:
        ; Setup parameters for call to function osal_memcmp
        MOV     ?V4,#`?<Constant "#GH">` & 0xff
        MOV     ?V5,#(`?<Constant "#GH">` >> 8) & 0xff
        MOV     R0,#?V4
        LCALL   ?PUSH_XSTACK_I_THREE
          CFI CFA_XSP16 add(XSP16, 20)
        MOV     R4,#0x3
        MOV     R5,#0x0
        MOV     DPL,R6
        MOV     DPH,R7
        MOV     R1,DPL
        MOV     R2,DPH
        MOV     R3,#0x0
        LCALL   ??osal_memcmp?relay  ; Banked call to: osal_memcmp
        MOV     A,#0x3
        LCALL   ?DEALLOC_XSTACK8
          CFI CFA_XSP16 add(XSP16, 17)
        MOV     A,R1
        JZ      ??SampleApp_SerialCMD_5
//  834       {
//  835         SampleApp_SendPeriodicMessage(str, len);
        ; Setup parameters for call to function SampleApp_SendPeriodicMessage
        MOV     R4,?V0
        MOV     R5,#0x0
        MOV     A,R6
        MOV     R2,A
        MOV     A,R7
        MOV     R3,A
        LCALL   ??SampleApp_SendPeriodicMessage?relay; Banked call to: SampleApp_SendPeriodicMessage
        LJMP    ??SampleApp_SerialCMD_2 & 0xFFFF
//  836       }
//  837 #else //终端节点
//  838       
//  839       //设备ID读取和设置（ID）
//  840       if(osal_memcmp(str,"#ID",3))
//  841       {
//  842         if(len == 5) //读取设备ID
//  843         {          
//  844           printf("<ID,%03u>\r\n", sensor_id);
//  845         }
//  846         else //设置设备ID
//  847         {
//  848           int temp_id;
//  849           
//  850           sscanf(str+4, "%d", &temp_id);                           
//  851           if(temp_id>=1 && temp_id<=3)
//  852           {
//  853             sensor_id = temp_id;
//  854             
//  855             /* 设备ID存入flash */
//  856             sprintf(dev_id, "%03u", sensor_id);
//  857             
//  858             if(SUCCESS == osal_nv_write(DEVICE_ID, 0, DEVICE_ID_LEN, dev_id))
//  859               ReturnTorF( 1, 1 ); //存入成功
//  860             else
//  861               ReturnTorF( 0, 1 ); //存入失败
//  862           }
//  863           else
//  864           {
//  865             ReturnTorF( 0, 1 ); //错误
//  866           }
//  867         }
//  868       }
//  869       
//  870       //光合表读取和设置（GH）
//  871       else if(osal_memcmp(str,"#GH",3))
//  872       {
//  873         if(len == 5) //读取光合表系数
//  874         {
//  875           printf("<GH,%03u,%.2f>\r\n", sensor_id, gh_factor);
//  876         }
//  877         else //设置光合表系数
//  878         {
//  879           float temp_gh;
//  880           char *p = NULL;
//  881           
//  882           p = strchr(str, ','); //查找第一个","出现的位置
//  883           p = strchr(p+1, ','); //查找第二个","出现的位置
//  884           sscanf(p+1, "%f", &temp_gh);
//  885           if(temp_gh>=1.0)
//  886           {
//  887             gh_factor = temp_gh;
//  888             
//  889             /* 光合表系数存入flash */
//  890             sprintf(dev_gh, "%5.2f", gh_factor);
//  891             
//  892             if(SUCCESS == osal_nv_write(DEVICE_GH, 0, DEVICE_GH_LEN, dev_gh))
//  893               ReturnTorF( 1, 1 ); //存入成功
//  894             else
//  895               ReturnTorF( 0, 1 ); //存入失败
//  896           }
//  897           else
//  898           {
//  899             ReturnTorF( 0, 1 ); //错误
//  900           }
//  901         }
//  902       }
//  903       
//  904       //复位指令（RS）
//  905       else if(osal_memcmp(str,"#RS",3)) 
//  906       {
//  907         /* 复位 */
//  908         if((len>5)&&(atoi(str+4)!=0))  //参数不为0清除掉网络信息
//  909         {
//  910           zgWriteStartupOptions(ZG_STARTUP_SET, ZCD_STARTOPT_DEFAULT_NETWORK_STATE);
//  911           printf("clear\r\n");
//  912         }
//  913         ReturnTorF( 1, 1 );//复位成功
//  914         rs_flag = 1;//置位停止喂狗标志
//  915       }
//  916       
//  917       //温度订正（CR）
//  918       else if(osal_memcmp(str,"#CR",3)) //温度订正
//  919       {
//  920         if( len == 5 ) //读取温度订正值
//  921         {
//  922           printf("<CR,%.2f>\r\n", cal_t0);
//  923         }
//  924         else if( len > 5 )
//  925         {
//  926           float temp_wddt;
//  927           char *p = NULL;
//  928             
//  929           p = strchr(str, ','); //查找第一个","出现的位置
//  930           sscanf( p+1, "%f", &temp_wddt);
//  931           if( temp_wddt>-10.0 && temp_wddt<10.00 )
//  932           {
//  933             cal_t0 = temp_wddt;
//  934              /* 温度订正存入flash */
//  935             sprintf(dev_wddt, "%5.2f", cal_t0);
//  936             
//  937             if(SUCCESS == osal_nv_write(DEVICE_WDDT, 0, DEVICE_WDDT_LEN, dev_wddt))
//  938               ReturnTorF( 1, 1 ); //存入成功
//  939             else
//  940               ReturnTorF( 0, 1 ); //存入失败
//  941             
//  942           }
//  943           else
//  944           {
//  945             ReturnTorF( 0, 1 );
//  946           }
//  947            
//  948         }
//  949         else
//  950         {
//  951           ReturnTorF( 0, 1 );
//  952         }
//  953       }
//  954 #endif
//  955       //查询或设置PANID（PD）
//  956       else if(osal_memcmp(str,"#PD",3))
??SampleApp_SerialCMD_5:
        ; Setup parameters for call to function osal_memcmp
        MOV     ?V4,#`?<Constant "#PD">` & 0xff
        MOV     ?V5,#(`?<Constant "#PD">` >> 8) & 0xff
        MOV     R0,#?V4
        LCALL   ?PUSH_XSTACK_I_THREE
          CFI CFA_XSP16 add(XSP16, 20)
        MOV     R4,#0x3
        MOV     R5,#0x0
        MOV     DPL,R6
        MOV     DPH,R7
        MOV     R1,DPL
        MOV     R2,DPH
        MOV     R3,#0x0
        LCALL   ??osal_memcmp?relay  ; Banked call to: osal_memcmp
        MOV     A,#0x3
        LCALL   ?DEALLOC_XSTACK8
          CFI CFA_XSP16 add(XSP16, 17)
        MOV     A,R1
        JZ      ??SampleApp_SerialCMD_6
//  957       {
//  958         if(len==5)  //读取
        MOV     A,#0x5
        XRL     A,?V0
        JNZ     ??SampleApp_SerialCMD_7
//  959         {
//  960           printf("<PD,0x%04X>\r\n", _NIB.nwkPanId);
        ; Setup parameters for call to function printf
        MOV     DPTR,#_NIB + 33
        LCALL   ?PUSH_XSTACK8_X_TWO
          CFI CFA_XSP16 add(XSP16, 19)
        MOV     R2,#`?<Constant "<PD,0x%04X>\\r\\n">` & 0xff
        MOV     R3,#(`?<Constant "<PD,0x%04X>\\r\\n">` >> 8) & 0xff
        LJMP    ??SampleApp_SerialCMD_8 & 0xFFFF
          CFI CFA_XSP16 add(XSP16, 17)
//  961         }
//  962         else if(len>5)  //设置
??SampleApp_SerialCMD_7:
        MOV     A,?V0
        CLR     C
        SUBB    A,#0x6
        JNC     $+5
        LJMP    ??SampleApp_SerialCMD_0 & 0xFFFF
//  963         {
//  964           uint16 panid=0;
        LCALL   ?Subroutine2 & 0xFFFF
//  965           
//  966           sscanf(str+4,"%x",&panid);  //得到新的PanID
??CrossCallReturnLabel_0:
        LCALL   ?PUSH_XSTACK_I_TWO
          CFI CFA_XSP16 add(XSP16, 19)
        LCALL   ?Subroutine7 & 0xFFFF
??CrossCallReturnLabel_37:
        LCALL   ??sscanf?relay       ; Banked call to: sscanf
        MOV     A,#0x2
        LCALL   ?DEALLOC_XSTACK8
          CFI CFA_XSP16 add(XSP16, 17)
//  967           _NIB.nwkPanId=panid;  //更新PanID
        MOV     DPL,?XSP + 0
        MOV     DPH,?XSP + 1
        MOVX    A,@DPTR
        MOV     R0,A
        INC     DPTR
        MOVX    A,@DPTR
        MOV     R1,A
        MOV     DPTR,#_NIB + 33
        MOV     A,R0
        MOVX    @DPTR,A
        INC     DPTR
        MOV     A,R1
        MOVX    @DPTR,A
//  968           
//  969           /* 2017.4.10添加使能NV_INIT和NV_RESTORE时设置channel和panid时同时清除掉节点保存的协调器网络信息，
//  970              这样便可以在更改channel或panid后加入有相同channel和panid的任意协调器的网络而不会更换协调器后无法入网，
//  971              但还是需要重启节点才能加入新网络，而且PANID编译时需要设为0xFFFF，channel要选则全部11-26通道 */
//  972           _NIB.nwkCoordAddress = INVALID_NODE_ADDR;
        MOV     DPTR,#_NIB + 23
        SJMP    ??SampleApp_SerialCMD_9
//  973           osal_memset( _NIB.nwkCoordExtAddress, 0, Z_EXTADDR_LEN );
//  974           /* */
//  975           
//  976           NLME_UpdateNV(0x01);  //将 NIB 信息存入 NV 中，重启后使用新的PanID
//  977           
//  978           ReturnTorF( 1, 1 );
//  979         }
//  980         else
//  981         {
//  982           ReturnTorF( 0, 1 );
//  983         }
//  984       }
//  985       
//  986       //查询设置信道号（CH）
//  987       else if(osal_memcmp(str,"#CH",3))
??SampleApp_SerialCMD_6:
        ; Setup parameters for call to function osal_memcmp
        MOV     ?V4,#`?<Constant "#CH">` & 0xff
        MOV     ?V5,#(`?<Constant "#CH">` >> 8) & 0xff
        MOV     R0,#?V4
        LCALL   ?PUSH_XSTACK_I_THREE
          CFI CFA_XSP16 add(XSP16, 20)
        MOV     R4,#0x3
        MOV     R5,#0x0
        MOV     DPL,R6
        MOV     DPH,R7
        MOV     R1,DPL
        MOV     R2,DPH
        MOV     R3,#0x0
        LCALL   ??osal_memcmp?relay  ; Banked call to: osal_memcmp
        MOV     A,#0x3
        LCALL   ?DEALLOC_XSTACK8
          CFI CFA_XSP16 add(XSP16, 17)
        MOV     A,R1
        JZ      ??SampleApp_SerialCMD_10
//  988       {
//  989         if(len==5)  //读取
        MOV     A,#0x5
        XRL     A,?V0
        JNZ     ??SampleApp_SerialCMD_11
//  990         {
//  991           printf("<CH,0x%02X>\r\n", _NIB.nwkLogicalChannel);
        ; Setup parameters for call to function printf
        MOV     DPTR,#_NIB + 22
        MOVX    A,@DPTR
        MOV     ?V0,A
        MOV     ?V1,#0x0
        MOV     R0,#?V0
        LCALL   ?PUSH_XSTACK_I_TWO
          CFI CFA_XSP16 add(XSP16, 19)
        MOV     R2,#`?<Constant "<CH,0x%02X>\\r\\n">` & 0xff
        MOV     R3,#(`?<Constant "<CH,0x%02X>\\r\\n">` >> 8) & 0xff
        LJMP    ??SampleApp_SerialCMD_8 & 0xFFFF
          CFI CFA_XSP16 add(XSP16, 17)
//  992         }
//  993         else if(len>5)  //设置
??SampleApp_SerialCMD_11:
        MOV     A,?V0
        CLR     C
        SUBB    A,#0x6
        JNC     $+5
        LJMP    ??SampleApp_SerialCMD_0 & 0xFFFF
//  994         {
//  995           uint16 channel=0;
        LCALL   ?Subroutine2 & 0xFFFF
//  996           
//  997           sscanf(str+4,"%x",&channel);  //得到新的channel
??CrossCallReturnLabel_1:
        LCALL   ?PUSH_XSTACK_I_TWO
          CFI CFA_XSP16 add(XSP16, 19)
        LCALL   ?Subroutine7 & 0xFFFF
??CrossCallReturnLabel_38:
        LCALL   ??sscanf?relay       ; Banked call to: sscanf
        MOV     A,#0x2
        LCALL   ?DEALLOC_XSTACK8
          CFI CFA_XSP16 add(XSP16, 17)
//  998           _NIB.nwkLogicalChannel=channel;  //更新channel
        MOV     DPL,?XSP + 0
        MOV     DPH,?XSP + 1
        MOVX    A,@DPTR
        MOV     DPTR,#_NIB + 22
        MOVX    @DPTR,A
//  999           
// 1000           /* 2017.4.10添加使能NV_INIT和NV_RESTORE时设置channel和panid时同时清除掉节点保存的协调器网络信息，
// 1001              这样便可以在更改channel或panid后加入有相同channel和panid的任意协调器的网络而不会更换协调器后无法入网，
// 1002              但还是需要重启节点才能加入新网络，而且PANID编译时需要设为0xFFFF，channel要选则全部11-26通道 */
// 1003           _NIB.nwkCoordAddress = INVALID_NODE_ADDR;
        INC     DPTR
??SampleApp_SerialCMD_9:
        MOV     A,#-0x2
        MOVX    @DPTR,A
        INC     DPTR
        INC     A
        MOVX    @DPTR,A
// 1004           osal_memset( _NIB.nwkCoordExtAddress, 0, Z_EXTADDR_LEN );
        ; Setup parameters for call to function osal_memset
        MOV     R4,#0x8
        MOV     R5,#0x0
        MOV     R1,#0x0
        MOV     R2,#(_NIB + 25) & 0xff
        MOV     R3,#((_NIB + 25) >> 8) & 0xff
        LCALL   ??osal_memset?relay  ; Banked call to: osal_memset
// 1005           /* */
// 1006           
// 1007           NLME_UpdateNV(0x01);  //将 NIB 信息存入 NV 中，重启后应用
        ; Setup parameters for call to function NLME_UpdateNV
        MOV     R1,#0x1
        LCALL   ??NLME_UpdateNV?relay; Banked call to: NLME_UpdateNV
// 1008           
// 1009           ReturnTorF( 1, 1 );
        ; Setup parameters for call to function ReturnTorF
        LJMP    ??SampleApp_SerialCMD_12 & 0xFFFF
// 1010         }
// 1011         else
// 1012         {
// 1013           ReturnTorF( 0, 1 );
// 1014         }
// 1015       }
// 1016       
// 1017       //查询短地址（SA）
// 1018       else if(osal_memcmp(str,"#SA",3))
??SampleApp_SerialCMD_10:
        ; Setup parameters for call to function osal_memcmp
        MOV     ?V4,#`?<Constant "#SA">` & 0xff
        MOV     ?V5,#(`?<Constant "#SA">` >> 8) & 0xff
        MOV     R0,#?V4
        LCALL   ?PUSH_XSTACK_I_THREE
          CFI CFA_XSP16 add(XSP16, 20)
        MOV     R4,#0x3
        MOV     R5,#0x0
        MOV     DPL,R6
        MOV     DPH,R7
        MOV     R1,DPL
        MOV     R2,DPH
        MOV     R3,#0x0
        LCALL   ??osal_memcmp?relay  ; Banked call to: osal_memcmp
        MOV     A,#0x3
        LCALL   ?DEALLOC_XSTACK8
          CFI CFA_XSP16 add(XSP16, 17)
        MOV     A,R1
        JZ      ??SampleApp_SerialCMD_13
// 1019       {
// 1020         printf("<SA,0x%04X>\r\n", _NIB.nwkDevAddress);
        ; Setup parameters for call to function printf
        MOV     DPTR,#_NIB + 20
        LCALL   ?PUSH_XSTACK8_X_TWO
          CFI CFA_XSP16 add(XSP16, 19)
        MOV     R2,#`?<Constant "<SA,0x%04X>\\r\\n">` & 0xff
        MOV     R3,#(`?<Constant "<SA,0x%04X>\\r\\n">` >> 8) & 0xff
        LJMP    ??SampleApp_SerialCMD_8 & 0xFFFF
          CFI CFA_XSP16 add(XSP16, 17)
// 1021       }
// 1022       
// 1023       /* 2017.4.10添加修改入网时默认的chennel和panid，不打开NV_INIT和NV_RESTORE；
// 1024          仅终端节点添加，协调器还是使用NV_INIT和NV_RESTORE保持不变，因为协调器需要保存网络信息如邻居表等，
// 1025          这样终端节点重新入网后地址等信息不会改变 */
// 1026       /* 16.8.5添加DCH和CPD命令读取和设置默认入网信道和PANID，这样原来的CH和PD命令用来查看当前网络的信道和PANID */
// 1027       //查询或设置默认入网PANID（DPD）
// 1028       else if(osal_memcmp(str,"#DPD",3))
??SampleApp_SerialCMD_13:
        ; Setup parameters for call to function osal_memcmp
        MOV     ?V4,#`?<Constant "#DPD">` & 0xff
        MOV     ?V5,#(`?<Constant "#DPD">` >> 8) & 0xff
        MOV     R0,#?V4
        LCALL   ?PUSH_XSTACK_I_THREE
          CFI CFA_XSP16 add(XSP16, 20)
        MOV     R4,#0x3
        MOV     R5,#0x0
        MOV     DPL,R6
        MOV     DPH,R7
        MOV     R1,DPL
        MOV     R2,DPH
        MOV     R3,#0x0
        LCALL   ??osal_memcmp?relay  ; Banked call to: osal_memcmp
        MOV     A,#0x3
        LCALL   ?DEALLOC_XSTACK8
          CFI CFA_XSP16 add(XSP16, 17)
        MOV     A,R1
        JZ      ??SampleApp_SerialCMD_14
// 1029       {
// 1030         if(len==6)  //读取
        MOV     A,#0x6
        XRL     A,?V0
        JNZ     ??SampleApp_SerialCMD_15
// 1031         {
// 1032           printf("<DPD,0x%04X>\r\n", zgConfigPANID);   /* 默认PANID */
        ; Setup parameters for call to function printf
        MOV     DPTR,#zgConfigPANID
        LCALL   ?PUSH_XSTACK8_X_TWO
          CFI CFA_XSP16 add(XSP16, 19)
        MOV     R2,#`?<Constant "<DPD,0x%04X>\\r\\n">` & 0xff
        MOV     R3,#(`?<Constant "<DPD,0x%04X>\\r\\n">` >> 8) & 0xff
        LJMP    ??SampleApp_SerialCMD_8 & 0xFFFF
          CFI CFA_XSP16 add(XSP16, 17)
// 1033         }
// 1034         else if(len>6)  //设置
??SampleApp_SerialCMD_15:
        MOV     A,?V0
        CLR     C
        SUBB    A,#0x7
        JC      ??SampleApp_SerialCMD_16
// 1035         {
// 1036           uint16 panid=0;
        LCALL   ?Subroutine2 & 0xFFFF
// 1037           
// 1038           sscanf(str+5,"%x",&panid);  //得到新的PanID
??CrossCallReturnLabel_2:
        LCALL   ?PUSH_XSTACK_I_TWO
          CFI CFA_XSP16 add(XSP16, 19)
        MOV     R4,#`?<Constant "%x">` & 0xff
        MOV     R5,#(`?<Constant "%x">` >> 8) & 0xff
        MOV     A,R6
        ADD     A,#0x5
        MOV     R2,A
        CLR     A
        ADDC    A,R7
        MOV     R3,A
        LCALL   ??sscanf?relay       ; Banked call to: sscanf
        MOV     A,#0x2
        LCALL   ?DEALLOC_XSTACK8
          CFI CFA_XSP16 add(XSP16, 17)
// 1039           
// 1040           extern uint8 nvItemInit( uint16 id, uint16 len, void *buf, uint8 set );
// 1041           zgConfigPANID = panid;   /* 修改默认panid */
        MOV     DPL,?XSP + 0
        MOV     DPH,?XSP + 1
        MOVX    A,@DPTR
        MOV     R0,A
        INC     DPTR
        MOVX    A,@DPTR
        MOV     R1,A
        MOV     DPTR,#zgConfigPANID
        MOV     A,R0
        MOVX    @DPTR,A
        INC     DPTR
        MOV     A,R1
        MOVX    @DPTR,A
// 1042           //保存到NV
// 1043           if(nvItemInit(ZCD_NV_PANID,sizeof(zgConfigPANID), &zgConfigPANID,TRUE) != ZSUCCESS)
        ; Setup parameters for call to function nvItemInit
        MOV     ?V0,#zgConfigPANID & 0xff
        MOV     ?V1,#(zgConfigPANID >> 8) & 0xff
        MOV     R0,#?V0
        LCALL   ?PUSH_XSTACK_I_TWO
          CFI CFA_XSP16 add(XSP16, 19)
        MOV     R1,#0x1
        MOV     R4,#0x2
        MOV     R5,#0x0
        MOV     R2,#-0x7d
        MOV     R3,#0x0
        LCALL   ??nvItemInit?relay   ; Banked call to: nvItemInit
        MOV     A,#0x2
        LCALL   ?DEALLOC_XSTACK8
          CFI CFA_XSP16 add(XSP16, 17)
        MOV     A,R1
        JNZ     ??SampleApp_SerialCMD_16
// 1044           {
// 1045             printf("<DPD,F>\r\n");
// 1046           }
// 1047           else
// 1048           {
// 1049             printf("<DPD,T>\r\n");
        ; Setup parameters for call to function printf
        MOV     R2,#`?<Constant "<DPD,T>\\r\\n">` & 0xff
        MOV     R3,#(`?<Constant "<DPD,T>\\r\\n">` >> 8) & 0xff
        LJMP    ??SampleApp_SerialCMD_17 & 0xFFFF
// 1050           }
// 1051           
// 1052         }
// 1053         else
// 1054         {
// 1055           printf("<DPD,F>\r\n");
??SampleApp_SerialCMD_16:
        ; Setup parameters for call to function printf
        MOV     R2,#`?<Constant "<DPD,F>\\r\\n">` & 0xff
        MOV     R3,#(`?<Constant "<DPD,F>\\r\\n">` >> 8) & 0xff
        LJMP    ??SampleApp_SerialCMD_17 & 0xFFFF
// 1056         }
// 1057       }
// 1058       
// 1059       
// 1060       //查询设置默认入网信道号（DCH）
// 1061       else if(osal_memcmp(str,"#DCH",4))
??SampleApp_SerialCMD_14:
        ; Setup parameters for call to function osal_memcmp
        MOV     ?V4,#`?<Constant "#DCH">` & 0xff
        MOV     ?V5,#(`?<Constant "#DCH">` >> 8) & 0xff
        MOV     R0,#?V4
        LCALL   ?PUSH_XSTACK_I_THREE
          CFI CFA_XSP16 add(XSP16, 20)
        MOV     R4,#0x4
        MOV     R5,#0x0
        MOV     DPL,R6
        MOV     DPH,R7
        MOV     R1,DPL
        MOV     R2,DPH
        MOV     R3,#0x0
        LCALL   ??osal_memcmp?relay  ; Banked call to: osal_memcmp
        MOV     A,#0x3
        LCALL   ?DEALLOC_XSTACK8
          CFI CFA_XSP16 add(XSP16, 17)
        MOV     A,R1
        JNZ     $+5
        LJMP    ??SampleApp_SerialCMD_18 & 0xFFFF
// 1062       {
// 1063         if(len==6)  //读取
        MOV     A,#0x6
        XRL     A,?V0
        JNZ     ??SampleApp_SerialCMD_19
// 1064         {
// 1065           if(zgDefaultChannelList == MAX_CHANNELS_24GHZ)  //通道全选
        MOV     DPTR,#__Constant_7fff800
        MOV     R0,#?V0
        LCALL   ?L_MOV_X
        MOV     DPTR,#zgDefaultChannelList
        MOV     R0,#?V0
        LCALL   ?L_EQ_X
        JNZ     ??SampleApp_SerialCMD_20
// 1066           {
// 1067             printf("<DCH,ALL>\r\n");
        ; Setup parameters for call to function printf
        MOV     R2,#`?<Constant "<DCH,ALL>\\r\\n">` & 0xff
        MOV     R3,#(`?<Constant "<DCH,ALL>\\r\\n">` >> 8) & 0xff
        LJMP    ??SampleApp_SerialCMD_17 & 0xFFFF
// 1068           }
// 1069           else
// 1070           {
// 1071             for(i=11;i<=26;i++)  //根据channel list得到信道，信道设置时只选一个或者全选
??SampleApp_SerialCMD_20:
        MOV     ?V4,#0xb
// 1072             {
// 1073               if(zgDefaultChannelList&((uint32)1<<i)) break;
??SampleApp_SerialCMD_21:
        MOV     DPTR,#zgDefaultChannelList
        MOV     R0,#?V0
        LCALL   ?L_MOV_X
        MOV     A,?V4
        MOV     R0,#?V0
        LCALL   ?UL_SHR
        MOV     A,?V0
        MOV     C,0xE0 /* A   */.0
        JC      ??SampleApp_SerialCMD_22
// 1074             }
        INC     ?V4
        MOV     A,?V4
        CLR     C
        SUBB    A,#0x1b
        JC      ??SampleApp_SerialCMD_21
// 1075             printf("<DCH,0x%02X>\r\n", i);
??SampleApp_SerialCMD_22:
        ; Setup parameters for call to function printf
        MOV     ?V5,#0x0
        MOV     R0,#?V4
        LCALL   ?PUSH_XSTACK_I_TWO
          CFI CFA_XSP16 add(XSP16, 19)
        MOV     R2,#`?<Constant "<DCH,0x%02X>\\r\\n">` & 0xff
        MOV     R3,#(`?<Constant "<DCH,0x%02X>\\r\\n">` >> 8) & 0xff
??SampleApp_SerialCMD_8:
        LCALL   ??printf?relay       ; Banked call to: printf
        MOV     A,#0x2
        LCALL   ?DEALLOC_XSTACK8
          CFI CFA_XSP16 add(XSP16, 17)
        LJMP    ??SampleApp_SerialCMD_2 & 0xFFFF
// 1076           }
// 1077         }
// 1078         else if(len>6)  //设置
??SampleApp_SerialCMD_19:
        MOV     A,?V0
        CLR     C
        SUBB    A,#0x7
        JNC     $+5
        LJMP    ??SampleApp_SerialCMD_23 & 0xFFFF
// 1079         {
// 1080           uint16 channel=0;
        MOV     DPL,?XSP + 0
        MOV     DPH,?XSP + 1
        CLR     A
        MOVX    @DPTR,A
        INC     DPTR
        MOVX    @DPTR,A
// 1081           
// 1082           sscanf(str+5,"%x",&channel);  //得到新的channel
        MOV     A,R6
        ADD     A,#0x5
        MOV     ?V0,A
        CLR     A
        ADDC    A,R7
        MOV     ?V1,A
        ; Setup parameters for call to function sscanf
        MOV     R0,?XSP + 0
        MOV     R1,?XSP + 1
        MOV     ?V2,R0
        MOV     ?V3,R1
        MOV     R0,#?V2
        LCALL   ?PUSH_XSTACK_I_TWO
          CFI CFA_XSP16 add(XSP16, 19)
        MOV     R4,#`?<Constant "%x">` & 0xff
        MOV     R5,#(`?<Constant "%x">` >> 8) & 0xff
        MOV     R2,?V0
        MOV     R3,?V1
        LCALL   ??sscanf?relay       ; Banked call to: sscanf
        MOV     A,#0x2
        LCALL   ?DEALLOC_XSTACK8
          CFI CFA_XSP16 add(XSP16, 17)
// 1083           
// 1084           /* 2017.4.10如果信道设置为"ALL"或"all"时表示通道全选，此时将channel设为0表示通道全选 */
// 1085           if(osal_memcmp(str+5,"ALL",3) || osal_memcmp(str+5,"all",3))  //11-26通道全选
        ; Setup parameters for call to function osal_memcmp
        MOV     ?V4,#`?<Constant "ALL">` & 0xff
        MOV     ?V5,#(`?<Constant "ALL">` >> 8) & 0xff
        MOV     R0,#?V4
        LCALL   ?PUSH_XSTACK_I_THREE
          CFI CFA_XSP16 add(XSP16, 20)
        MOV     R4,#0x3
        MOV     R5,#0x0
        MOV     DPL,?V0
        MOV     DPH,?V1
        MOV     R1,DPL
        MOV     R2,DPH
        MOV     R3,#0x0
        LCALL   ??osal_memcmp?relay  ; Banked call to: osal_memcmp
        MOV     A,#0x3
        LCALL   ?DEALLOC_XSTACK8
          CFI CFA_XSP16 add(XSP16, 17)
        MOV     A,R1
        JNZ     ??SampleApp_SerialCMD_24
        ; Setup parameters for call to function osal_memcmp
        MOV     ?V0,#`?<Constant "all">` & 0xff
        MOV     ?V1,#(`?<Constant "all">` >> 8) & 0xff
        MOV     ?V2,#0x0
        MOV     R0,#?V0
        LCALL   ?PUSH_XSTACK_I_THREE
          CFI CFA_XSP16 add(XSP16, 20)
        MOV     R4,#0x3
        MOV     R5,#0x0
        MOV     DPL,R6
        MOV     DPH,R7
        INC     DPTR
        INC     DPTR
        INC     DPTR
        INC     DPTR
        INC     DPTR
        MOV     R1,DPL
        MOV     R2,DPH
        MOV     R3,#0x0
        LCALL   ??osal_memcmp?relay  ; Banked call to: osal_memcmp
        MOV     A,#0x3
        LCALL   ?DEALLOC_XSTACK8
          CFI CFA_XSP16 add(XSP16, 17)
        MOV     A,R1
        JZ      ??SampleApp_SerialCMD_25
// 1086           {
// 1087             channel=0;
??SampleApp_SerialCMD_24:
        MOV     DPL,?XSP + 0
        MOV     DPH,?XSP + 1
        CLR     A
        MOVX    @DPTR,A
        INC     DPTR
        MOVX    @DPTR,A
        SJMP    ??SampleApp_SerialCMD_26
// 1088           }
// 1089           
// 1090           extern uint8 nvItemInit( uint16 id, uint16 len, void *buf, uint8 set );
// 1091           if(((channel<11) || (channel>26)) && (channel!=0))  //无效信道且不为0
??SampleApp_SerialCMD_25:
        MOV     DPL,?XSP + 0
        MOV     DPH,?XSP + 1
        MOVX    A,@DPTR
        ADD     A,#-0xb
        MOV     R0,A
        INC     DPTR
        MOVX    A,@DPTR
        ADDC    A,#-0x1
        MOV     R1,A
        CLR     C
        MOV     A,R0
        SUBB    A,#0x10
        MOV     A,R1
        SUBB    A,#0x0
        MOV     DPL,?XSP + 0
        MOV     DPH,?XSP + 1
        LCALL   ?Subroutine6 & 0xFFFF
??CrossCallReturnLabel_10:
        JC      ??SampleApp_SerialCMD_27
        JZ      ??SampleApp_SerialCMD_26
// 1092           {
// 1093             printf("<CH,F>\r\n");
        ; Setup parameters for call to function printf
        MOV     R2,#`?<Constant "<CH,F>\\r\\n">` & 0xff
        MOV     R3,#(`?<Constant "<CH,F>\\r\\n">` >> 8) & 0xff
        SJMP    ??SampleApp_SerialCMD_17
// 1094           }
// 1095           else
// 1096           {
// 1097             //根据channel得到channel list，注意强制类型转换
// 1098             if(channel==0)  //为0时将信道全选
??SampleApp_SerialCMD_27:
        JNZ     ??SampleApp_SerialCMD_28
// 1099             {
// 1100               zgDefaultChannelList=MAX_CHANNELS_24GHZ;
??SampleApp_SerialCMD_26:
        MOV     DPTR,#zgDefaultChannelList
        CLR     A
        MOVX    @DPTR,A
        INC     DPTR
        MOV     A,#-0x8
        MOVX    @DPTR,A
        INC     DPTR
        MOV     A,#-0x1
        MOVX    @DPTR,A
        INC     DPTR
        MOV     A,#0x7
        MOVX    @DPTR,A
        SJMP    ??SampleApp_SerialCMD_29
// 1101             }
// 1102             else
// 1103             {
// 1104               zgDefaultChannelList=(uint32)((uint32)1<<channel);
??SampleApp_SerialCMD_28:
        MOV     ?V0,#0x1
        MOV     ?V1,#0x0
        MOV     ?V3,#0x0
        MOV     DPL,?XSP + 0
        MOV     DPH,?XSP + 1
        MOVX    A,@DPTR
        MOV     R0,#?V0
        LCALL   ?L_SHL
        MOV     DPTR,#zgDefaultChannelList
        MOV     R0,#?V0
        LCALL   ?L_MOV_TO_X
// 1105             }
// 1106             printf("<CH,0x%02X,0x%08lX>\r\n", channel, zgDefaultChannelList);
??SampleApp_SerialCMD_29:
        ; Setup parameters for call to function printf
        MOV     DPTR,#zgDefaultChannelList
        LCALL   ?PUSH_XSTACK8_X_FOUR
          CFI CFA_XSP16 add(XSP16, 21)
        MOV     A,#0x4
        LCALL   ?XSTACK_DISP0_8
        LCALL   ?PUSH_XSTACK8_X_TWO
          CFI CFA_XSP16 add(XSP16, 23)
        MOV     R2,#`?<Constant "<CH,0x%02X,0x%08lX>\\r\\n">` & 0xff
        MOV     R3,#(`?<Constant "<CH,0x%02X,0x%08lX>\\r\\n">` >> 8) & 0xff
        LCALL   ??printf?relay       ; Banked call to: printf
        MOV     A,#0x6
        LCALL   ?DEALLOC_XSTACK8
          CFI CFA_XSP16 add(XSP16, 17)
// 1107             //保存到NV
// 1108             if(nvItemInit(ZCD_NV_CHANLIST,sizeof(zgDefaultChannelList), &zgDefaultChannelList,TRUE) != ZSUCCESS)
        ; Setup parameters for call to function nvItemInit
        MOV     ?V0,#zgDefaultChannelList & 0xff
        MOV     ?V1,#(zgDefaultChannelList >> 8) & 0xff
        MOV     R0,#?V0
        LCALL   ?PUSH_XSTACK_I_TWO
          CFI CFA_XSP16 add(XSP16, 19)
        MOV     R1,#0x1
        MOV     R4,#0x4
        MOV     R5,#0x0
        MOV     R2,#-0x7c
        MOV     R3,#0x0
        LCALL   ??nvItemInit?relay   ; Banked call to: nvItemInit
        MOV     A,#0x2
        LCALL   ?DEALLOC_XSTACK8
          CFI CFA_XSP16 add(XSP16, 17)
        MOV     A,R1
        JNZ     ??SampleApp_SerialCMD_23
// 1109             {
// 1110               printf("<DCH,F>\r\n");
// 1111             }
// 1112             else
// 1113             {
// 1114               printf("<DCH,T>\r\n");
        ; Setup parameters for call to function printf
        MOV     R2,#`?<Constant "<DCH,T>\\r\\n">` & 0xff
        MOV     R3,#(`?<Constant "<DCH,T>\\r\\n">` >> 8) & 0xff
        SJMP    ??SampleApp_SerialCMD_17
// 1115             }
// 1116           }
// 1117         }
// 1118         else
// 1119         {
// 1120           printf("<DCH,F>\r\n");
??SampleApp_SerialCMD_23:
        ; Setup parameters for call to function printf
        MOV     R2,#`?<Constant "<DCH,F>\\r\\n">` & 0xff
        MOV     R3,#(`?<Constant "<DCH,F>\\r\\n">` >> 8) & 0xff
??SampleApp_SerialCMD_17:
        LCALL   ??printf?relay       ; Banked call to: printf
        SJMP    ??SampleApp_SerialCMD_2
// 1121         }
// 1122       }
// 1123       
// 1124       //调试信息开关（DG）
// 1125       else if(osal_memcmp(str,"#DG",3)) 
??SampleApp_SerialCMD_18:
        ; Setup parameters for call to function osal_memcmp
        MOV     ?V0,#`?<Constant "#DG">` & 0xff
        MOV     ?V1,#(`?<Constant "#DG">` >> 8) & 0xff
        MOV     ?V2,#0x0
        MOV     R0,#?V0
        LCALL   ?PUSH_XSTACK_I_THREE
          CFI CFA_XSP16 add(XSP16, 20)
        MOV     R4,#0x3
        MOV     R5,#0x0
        MOV     DPL,R6
        MOV     DPH,R7
        MOV     R1,DPL
        MOV     R2,DPH
        MOV     R3,#0x0
        LCALL   ??osal_memcmp?relay  ; Banked call to: osal_memcmp
        MOV     A,#0x3
        LCALL   ?DEALLOC_XSTACK8
          CFI CFA_XSP16 add(XSP16, 17)
        MOV     A,R1
        JZ      ??SampleApp_SerialCMD_0
// 1126       {
// 1127         int temp;
// 1128         
// 1129         temp = atoi(str+4);
        ; Setup parameters for call to function atoi
        LCALL   ??Subroutine10_0 & 0xFFFF
??CrossCallReturnLabel_36:
        LCALL   ??atoi?relay         ; Banked call to: atoi
        MOV     ?V0,R2
        MOV     ?V1,R3
        MOV     R0,?V0
        MOV     R1,?V1
// 1130         if(temp==0||temp==1)
        MOV     A,R0
        ORL     A,R1
        JZ      ??SampleApp_SerialCMD_30
        MOV     A,#0x1
        XRL     A,R0
        ORL     A,R1
        JNZ     ??SampleApp_SerialCMD_0
// 1131         {
// 1132           debug = temp;
??SampleApp_SerialCMD_30:
        MOV     DPTR,#debug
        MOV     A,R0
        MOVX    @DPTR,A
        INC     DPTR
        MOV     A,R1
        MOVX    @DPTR,A
// 1133           ReturnTorF( 1, 1 ); //正确
        ; Setup parameters for call to function ReturnTorF
??SampleApp_SerialCMD_12:
        MOV     R4,#0x1
        MOV     R5,#0x0
        MOV     R2,#0x1
        SJMP    ??SampleApp_SerialCMD_31
// 1134         }
// 1135         else
// 1136         {
// 1137           ReturnTorF( 0, 1 ); //错误
// 1138         }
// 1139         
// 1140       }
// 1141       else
// 1142       {
// 1143         ReturnTorF( 0, 1 ); //错误
// 1144       }
// 1145    }
// 1146    else
// 1147    {
// 1148       ReturnTorF( 0, 1 ); //错误
??SampleApp_SerialCMD_0:
        ; Setup parameters for call to function ReturnTorF
        MOV     R4,#0x1
        MOV     R5,#0x0
        MOV     R2,#0x0
??SampleApp_SerialCMD_31:
        MOV     R3,#0x0
        LCALL   ??ReturnTorF?relay   ; Banked call to: ReturnTorF
// 1149    }
// 1150    
// 1151 }
??SampleApp_SerialCMD_2:
        MOV     A,#0x2
        LCALL   ?DEALLOC_XSTACK8
          CFI CFA_XSP16 add(XSP16, 15)
        MOV     R7,#0x7
        LJMP    ?BANKED_LEAVE_XDATA
          CFI EndBlock cfiBlock43

        RSEG BANKED_CODE:CODE:NOROOT(0)
?Subroutine7:
          CFI Block cfiCond44 Using cfiCommon0
          CFI Function SampleApp_SerialCMD
          CFI Conditional ??CrossCallReturnLabel_37
          CFI R6 load(1, XDATA, add(CFA_XSP16, literal(-15)))
          CFI VB load(1, XDATA, add(CFA_XSP16, literal(-14)))
          CFI V0 load(1, XDATA, add(CFA_XSP16, literal(-13)))
          CFI V1 load(1, XDATA, add(CFA_XSP16, literal(-12)))
          CFI V2 load(1, XDATA, add(CFA_XSP16, literal(-11)))
          CFI V3 load(1, XDATA, add(CFA_XSP16, literal(-10)))
          CFI V4 load(1, XDATA, add(CFA_XSP16, literal(-9)))
          CFI V5 load(1, XDATA, add(CFA_XSP16, literal(-8)))
          CFI V6 load(1, XDATA, add(CFA_XSP16, literal(-7)))
          CFI R7 load(1, XDATA, add(CFA_XSP16, literal(-6)))
          CFI ?RET_LOW load(1, XDATA, add(CFA_XSP16, literal(-5)))
          CFI ?RET_HIGH load(1, XDATA, add(CFA_XSP16, literal(-4)))
          CFI ?BRET_EXT load(1, XDATA, add(CFA_XSP16, literal(-3)))
          CFI DPL0 load(1, XDATA, add(CFA_XSP16, literal(-2)))
          CFI DPH0 load(1, XDATA, add(CFA_XSP16, literal(-1)))
          CFI CFA_SP SP+-2
          CFI CFA_XSP16 add(XSP16, 19)
          CFI Block cfiCond45 Using cfiCommon0
          CFI (cfiCond45) Function SampleApp_SerialCMD
          CFI (cfiCond45) Conditional ??CrossCallReturnLabel_38
          CFI (cfiCond45) R6 load(1, XDATA, add(CFA_XSP16, literal(-15)))
          CFI (cfiCond45) VB load(1, XDATA, add(CFA_XSP16, literal(-14)))
          CFI (cfiCond45) V0 load(1, XDATA, add(CFA_XSP16, literal(-13)))
          CFI (cfiCond45) V1 load(1, XDATA, add(CFA_XSP16, literal(-12)))
          CFI (cfiCond45) V2 load(1, XDATA, add(CFA_XSP16, literal(-11)))
          CFI (cfiCond45) V3 load(1, XDATA, add(CFA_XSP16, literal(-10)))
          CFI (cfiCond45) V4 load(1, XDATA, add(CFA_XSP16, literal(-9)))
          CFI (cfiCond45) V5 load(1, XDATA, add(CFA_XSP16, literal(-8)))
          CFI (cfiCond45) V6 load(1, XDATA, add(CFA_XSP16, literal(-7)))
          CFI (cfiCond45) R7 load(1, XDATA, add(CFA_XSP16, literal(-6)))
          CFI (cfiCond45) ?RET_LOW load(1, XDATA, add(CFA_XSP16, literal(-5)))
          CFI (cfiCond45) ?RET_HIGH load(1, XDATA, add(CFA_XSP16, literal(-4)))
          CFI (cfiCond45) ?BRET_EXT load(1, XDATA, add(CFA_XSP16, literal(-3)))
          CFI (cfiCond45) DPL0 load(1, XDATA, add(CFA_XSP16, literal(-2)))
          CFI (cfiCond45) DPH0 load(1, XDATA, add(CFA_XSP16, literal(-1)))
          CFI (cfiCond45) CFA_SP SP+-2
          CFI (cfiCond45) CFA_XSP16 add(XSP16, 19)
          CFI Block cfiPicker46 Using cfiCommon1
          CFI (cfiPicker46) NoFunction
          CFI (cfiPicker46) Picker
        MOV     R4,#`?<Constant "%x">` & 0xff
        MOV     R5,#(`?<Constant "%x">` >> 8) & 0xff
          CFI EndBlock cfiCond44
          CFI EndBlock cfiCond45
          CFI EndBlock cfiPicker46
        REQUIRE ??Subroutine10_0
        ; // Fall through to label ??Subroutine10_0

        RSEG BANKED_CODE:CODE:NOROOT(0)
??Subroutine10_0:
          CFI Block cfiCond47 Using cfiCommon0
          CFI Function SampleApp_SerialCMD
          CFI Conditional ??CrossCallReturnLabel_35
          CFI R6 load(1, XDATA, add(CFA_XSP16, literal(-15)))
          CFI VB load(1, XDATA, add(CFA_XSP16, literal(-14)))
          CFI V0 load(1, XDATA, add(CFA_XSP16, literal(-13)))
          CFI V1 load(1, XDATA, add(CFA_XSP16, literal(-12)))
          CFI V2 load(1, XDATA, add(CFA_XSP16, literal(-11)))
          CFI V3 load(1, XDATA, add(CFA_XSP16, literal(-10)))
          CFI V4 load(1, XDATA, add(CFA_XSP16, literal(-9)))
          CFI V5 load(1, XDATA, add(CFA_XSP16, literal(-8)))
          CFI V6 load(1, XDATA, add(CFA_XSP16, literal(-7)))
          CFI R7 load(1, XDATA, add(CFA_XSP16, literal(-6)))
          CFI ?RET_LOW load(1, XDATA, add(CFA_XSP16, literal(-5)))
          CFI ?RET_HIGH load(1, XDATA, add(CFA_XSP16, literal(-4)))
          CFI ?BRET_EXT load(1, XDATA, add(CFA_XSP16, literal(-3)))
          CFI DPL0 load(1, XDATA, add(CFA_XSP16, literal(-2)))
          CFI DPH0 load(1, XDATA, add(CFA_XSP16, literal(-1)))
          CFI CFA_SP SP+-2
          CFI CFA_XSP16 add(XSP16, 17)
          CFI Block cfiCond48 Using cfiCommon0
          CFI (cfiCond48) Function SampleApp_SerialCMD
          CFI (cfiCond48) Conditional ??CrossCallReturnLabel_36
          CFI (cfiCond48) R6 load(1, XDATA, add(CFA_XSP16, literal(-15)))
          CFI (cfiCond48) VB load(1, XDATA, add(CFA_XSP16, literal(-14)))
          CFI (cfiCond48) V0 load(1, XDATA, add(CFA_XSP16, literal(-13)))
          CFI (cfiCond48) V1 load(1, XDATA, add(CFA_XSP16, literal(-12)))
          CFI (cfiCond48) V2 load(1, XDATA, add(CFA_XSP16, literal(-11)))
          CFI (cfiCond48) V3 load(1, XDATA, add(CFA_XSP16, literal(-10)))
          CFI (cfiCond48) V4 load(1, XDATA, add(CFA_XSP16, literal(-9)))
          CFI (cfiCond48) V5 load(1, XDATA, add(CFA_XSP16, literal(-8)))
          CFI (cfiCond48) V6 load(1, XDATA, add(CFA_XSP16, literal(-7)))
          CFI (cfiCond48) R7 load(1, XDATA, add(CFA_XSP16, literal(-6)))
          CFI (cfiCond48) ?RET_LOW load(1, XDATA, add(CFA_XSP16, literal(-5)))
          CFI (cfiCond48) ?RET_HIGH load(1, XDATA, add(CFA_XSP16, literal(-4)))
          CFI (cfiCond48) ?BRET_EXT load(1, XDATA, add(CFA_XSP16, literal(-3)))
          CFI (cfiCond48) DPL0 load(1, XDATA, add(CFA_XSP16, literal(-2)))
          CFI (cfiCond48) DPH0 load(1, XDATA, add(CFA_XSP16, literal(-1)))
          CFI (cfiCond48) CFA_SP SP+-2
          CFI (cfiCond48) CFA_XSP16 add(XSP16, 17)
          CFI Block cfiCond49 Using cfiCommon0
          CFI (cfiCond49) Function SampleApp_SerialCMD
          CFI (cfiCond49) Conditional ??CrossCallReturnLabel_37
          CFI (cfiCond49) R6 load(1, XDATA, add(CFA_XSP16, literal(-15)))
          CFI (cfiCond49) VB load(1, XDATA, add(CFA_XSP16, literal(-14)))
          CFI (cfiCond49) V0 load(1, XDATA, add(CFA_XSP16, literal(-13)))
          CFI (cfiCond49) V1 load(1, XDATA, add(CFA_XSP16, literal(-12)))
          CFI (cfiCond49) V2 load(1, XDATA, add(CFA_XSP16, literal(-11)))
          CFI (cfiCond49) V3 load(1, XDATA, add(CFA_XSP16, literal(-10)))
          CFI (cfiCond49) V4 load(1, XDATA, add(CFA_XSP16, literal(-9)))
          CFI (cfiCond49) V5 load(1, XDATA, add(CFA_XSP16, literal(-8)))
          CFI (cfiCond49) V6 load(1, XDATA, add(CFA_XSP16, literal(-7)))
          CFI (cfiCond49) R7 load(1, XDATA, add(CFA_XSP16, literal(-6)))
          CFI (cfiCond49) ?RET_LOW load(1, XDATA, add(CFA_XSP16, literal(-5)))
          CFI (cfiCond49) ?RET_HIGH load(1, XDATA, add(CFA_XSP16, literal(-4)))
          CFI (cfiCond49) ?BRET_EXT load(1, XDATA, add(CFA_XSP16, literal(-3)))
          CFI (cfiCond49) DPL0 load(1, XDATA, add(CFA_XSP16, literal(-2)))
          CFI (cfiCond49) DPH0 load(1, XDATA, add(CFA_XSP16, literal(-1)))
          CFI (cfiCond49) CFA_SP SP+-2
          CFI (cfiCond49) CFA_XSP16 add(XSP16, 19)
          CFI Block cfiCond50 Using cfiCommon0
          CFI (cfiCond50) Function SampleApp_SerialCMD
          CFI (cfiCond50) Conditional ??CrossCallReturnLabel_38
          CFI (cfiCond50) R6 load(1, XDATA, add(CFA_XSP16, literal(-15)))
          CFI (cfiCond50) VB load(1, XDATA, add(CFA_XSP16, literal(-14)))
          CFI (cfiCond50) V0 load(1, XDATA, add(CFA_XSP16, literal(-13)))
          CFI (cfiCond50) V1 load(1, XDATA, add(CFA_XSP16, literal(-12)))
          CFI (cfiCond50) V2 load(1, XDATA, add(CFA_XSP16, literal(-11)))
          CFI (cfiCond50) V3 load(1, XDATA, add(CFA_XSP16, literal(-10)))
          CFI (cfiCond50) V4 load(1, XDATA, add(CFA_XSP16, literal(-9)))
          CFI (cfiCond50) V5 load(1, XDATA, add(CFA_XSP16, literal(-8)))
          CFI (cfiCond50) V6 load(1, XDATA, add(CFA_XSP16, literal(-7)))
          CFI (cfiCond50) R7 load(1, XDATA, add(CFA_XSP16, literal(-6)))
          CFI (cfiCond50) ?RET_LOW load(1, XDATA, add(CFA_XSP16, literal(-5)))
          CFI (cfiCond50) ?RET_HIGH load(1, XDATA, add(CFA_XSP16, literal(-4)))
          CFI (cfiCond50) ?BRET_EXT load(1, XDATA, add(CFA_XSP16, literal(-3)))
          CFI (cfiCond50) DPL0 load(1, XDATA, add(CFA_XSP16, literal(-2)))
          CFI (cfiCond50) DPH0 load(1, XDATA, add(CFA_XSP16, literal(-1)))
          CFI (cfiCond50) CFA_SP SP+-2
          CFI (cfiCond50) CFA_XSP16 add(XSP16, 19)
          CFI Block cfiPicker51 Using cfiCommon1
          CFI (cfiPicker51) NoFunction
          CFI (cfiPicker51) Picker
        MOV     A,R6
        ADD     A,#0x4
        MOV     R2,A
        CLR     A
        ADDC    A,R7
        MOV     R3,A
        RET
          CFI EndBlock cfiCond47
          CFI EndBlock cfiCond48
          CFI EndBlock cfiCond49
          CFI EndBlock cfiCond50
          CFI EndBlock cfiPicker51

        RSEG BANKED_CODE:CODE:NOROOT(0)
?Subroutine5:
          CFI Block cfiCond52 Using cfiCommon0
          CFI Function SampleApp_MessageMSGCB
          CFI Conditional ??CrossCallReturnLabel_6
          CFI R6 load(1, XDATA, add(CFA_XSP16, literal(-10)))
          CFI VB load(1, XDATA, add(CFA_XSP16, literal(-9)))
          CFI V0 load(1, XDATA, add(CFA_XSP16, literal(-8)))
          CFI V1 load(1, XDATA, add(CFA_XSP16, literal(-7)))
          CFI R7 load(1, XDATA, add(CFA_XSP16, literal(-6)))
          CFI ?RET_LOW load(1, XDATA, add(CFA_XSP16, literal(-5)))
          CFI ?RET_HIGH load(1, XDATA, add(CFA_XSP16, literal(-4)))
          CFI ?BRET_EXT load(1, XDATA, add(CFA_XSP16, literal(-3)))
          CFI DPL0 load(1, XDATA, add(CFA_XSP16, literal(-2)))
          CFI DPH0 load(1, XDATA, add(CFA_XSP16, literal(-1)))
          CFI CFA_SP SP+-2
          CFI CFA_XSP16 add(XSP16, 10)
          CFI Block cfiCond53 Using cfiCommon0
          CFI (cfiCond53) Function SampleApp_SerialCMD
          CFI (cfiCond53) Conditional ??CrossCallReturnLabel_7
          CFI (cfiCond53) R6 load(1, XDATA, add(CFA_XSP16, literal(-15)))
          CFI (cfiCond53) VB load(1, XDATA, add(CFA_XSP16, literal(-14)))
          CFI (cfiCond53) V0 load(1, XDATA, add(CFA_XSP16, literal(-13)))
          CFI (cfiCond53) V1 load(1, XDATA, add(CFA_XSP16, literal(-12)))
          CFI (cfiCond53) V2 load(1, XDATA, add(CFA_XSP16, literal(-11)))
          CFI (cfiCond53) V3 load(1, XDATA, add(CFA_XSP16, literal(-10)))
          CFI (cfiCond53) V4 load(1, XDATA, add(CFA_XSP16, literal(-9)))
          CFI (cfiCond53) V5 load(1, XDATA, add(CFA_XSP16, literal(-8)))
          CFI (cfiCond53) V6 load(1, XDATA, add(CFA_XSP16, literal(-7)))
          CFI (cfiCond53) R7 load(1, XDATA, add(CFA_XSP16, literal(-6)))
          CFI (cfiCond53) ?RET_LOW load(1, XDATA, add(CFA_XSP16, literal(-5)))
          CFI (cfiCond53) ?RET_HIGH load(1, XDATA, add(CFA_XSP16, literal(-4)))
          CFI (cfiCond53) ?BRET_EXT load(1, XDATA, add(CFA_XSP16, literal(-3)))
          CFI (cfiCond53) DPL0 load(1, XDATA, add(CFA_XSP16, literal(-2)))
          CFI (cfiCond53) DPH0 load(1, XDATA, add(CFA_XSP16, literal(-1)))
          CFI (cfiCond53) CFA_SP SP+-2
          CFI (cfiCond53) CFA_XSP16 add(XSP16, 17)
          CFI Block cfiPicker54 Using cfiCommon1
          CFI (cfiPicker54) NoFunction
          CFI (cfiPicker54) Picker
        MOV     R1,A
        MOV     A,R0
        ADD     A,#-0x1
        MOV     DPL,A
        MOV     A,R1
        ADDC    A,#-0x1
        MOV     DPH,A
        MOVX    A,@DPTR
        XRL     A,#0xa
        RET
          CFI EndBlock cfiCond52
          CFI EndBlock cfiCond53
          CFI EndBlock cfiPicker54

        RSEG BANKED_CODE:CODE:NOROOT(0)
?Subroutine2:
          CFI Block cfiCond55 Using cfiCommon0
          CFI Function SampleApp_SerialCMD
          CFI Conditional ??CrossCallReturnLabel_0
          CFI R6 load(1, XDATA, add(CFA_XSP16, literal(-15)))
          CFI VB load(1, XDATA, add(CFA_XSP16, literal(-14)))
          CFI V0 load(1, XDATA, add(CFA_XSP16, literal(-13)))
          CFI V1 load(1, XDATA, add(CFA_XSP16, literal(-12)))
          CFI V2 load(1, XDATA, add(CFA_XSP16, literal(-11)))
          CFI V3 load(1, XDATA, add(CFA_XSP16, literal(-10)))
          CFI V4 load(1, XDATA, add(CFA_XSP16, literal(-9)))
          CFI V5 load(1, XDATA, add(CFA_XSP16, literal(-8)))
          CFI V6 load(1, XDATA, add(CFA_XSP16, literal(-7)))
          CFI R7 load(1, XDATA, add(CFA_XSP16, literal(-6)))
          CFI ?RET_LOW load(1, XDATA, add(CFA_XSP16, literal(-5)))
          CFI ?RET_HIGH load(1, XDATA, add(CFA_XSP16, literal(-4)))
          CFI ?BRET_EXT load(1, XDATA, add(CFA_XSP16, literal(-3)))
          CFI DPL0 load(1, XDATA, add(CFA_XSP16, literal(-2)))
          CFI DPH0 load(1, XDATA, add(CFA_XSP16, literal(-1)))
          CFI CFA_SP SP+-2
          CFI CFA_XSP16 add(XSP16, 17)
          CFI Block cfiCond56 Using cfiCommon0
          CFI (cfiCond56) Function SampleApp_SerialCMD
          CFI (cfiCond56) Conditional ??CrossCallReturnLabel_1
          CFI (cfiCond56) R6 load(1, XDATA, add(CFA_XSP16, literal(-15)))
          CFI (cfiCond56) VB load(1, XDATA, add(CFA_XSP16, literal(-14)))
          CFI (cfiCond56) V0 load(1, XDATA, add(CFA_XSP16, literal(-13)))
          CFI (cfiCond56) V1 load(1, XDATA, add(CFA_XSP16, literal(-12)))
          CFI (cfiCond56) V2 load(1, XDATA, add(CFA_XSP16, literal(-11)))
          CFI (cfiCond56) V3 load(1, XDATA, add(CFA_XSP16, literal(-10)))
          CFI (cfiCond56) V4 load(1, XDATA, add(CFA_XSP16, literal(-9)))
          CFI (cfiCond56) V5 load(1, XDATA, add(CFA_XSP16, literal(-8)))
          CFI (cfiCond56) V6 load(1, XDATA, add(CFA_XSP16, literal(-7)))
          CFI (cfiCond56) R7 load(1, XDATA, add(CFA_XSP16, literal(-6)))
          CFI (cfiCond56) ?RET_LOW load(1, XDATA, add(CFA_XSP16, literal(-5)))
          CFI (cfiCond56) ?RET_HIGH load(1, XDATA, add(CFA_XSP16, literal(-4)))
          CFI (cfiCond56) ?BRET_EXT load(1, XDATA, add(CFA_XSP16, literal(-3)))
          CFI (cfiCond56) DPL0 load(1, XDATA, add(CFA_XSP16, literal(-2)))
          CFI (cfiCond56) DPH0 load(1, XDATA, add(CFA_XSP16, literal(-1)))
          CFI (cfiCond56) CFA_SP SP+-2
          CFI (cfiCond56) CFA_XSP16 add(XSP16, 17)
          CFI Block cfiCond57 Using cfiCommon0
          CFI (cfiCond57) Function SampleApp_SerialCMD
          CFI (cfiCond57) Conditional ??CrossCallReturnLabel_2
          CFI (cfiCond57) R6 load(1, XDATA, add(CFA_XSP16, literal(-15)))
          CFI (cfiCond57) VB load(1, XDATA, add(CFA_XSP16, literal(-14)))
          CFI (cfiCond57) V0 load(1, XDATA, add(CFA_XSP16, literal(-13)))
          CFI (cfiCond57) V1 load(1, XDATA, add(CFA_XSP16, literal(-12)))
          CFI (cfiCond57) V2 load(1, XDATA, add(CFA_XSP16, literal(-11)))
          CFI (cfiCond57) V3 load(1, XDATA, add(CFA_XSP16, literal(-10)))
          CFI (cfiCond57) V4 load(1, XDATA, add(CFA_XSP16, literal(-9)))
          CFI (cfiCond57) V5 load(1, XDATA, add(CFA_XSP16, literal(-8)))
          CFI (cfiCond57) V6 load(1, XDATA, add(CFA_XSP16, literal(-7)))
          CFI (cfiCond57) R7 load(1, XDATA, add(CFA_XSP16, literal(-6)))
          CFI (cfiCond57) ?RET_LOW load(1, XDATA, add(CFA_XSP16, literal(-5)))
          CFI (cfiCond57) ?RET_HIGH load(1, XDATA, add(CFA_XSP16, literal(-4)))
          CFI (cfiCond57) ?BRET_EXT load(1, XDATA, add(CFA_XSP16, literal(-3)))
          CFI (cfiCond57) DPL0 load(1, XDATA, add(CFA_XSP16, literal(-2)))
          CFI (cfiCond57) DPH0 load(1, XDATA, add(CFA_XSP16, literal(-1)))
          CFI (cfiCond57) CFA_SP SP+-2
          CFI (cfiCond57) CFA_XSP16 add(XSP16, 17)
          CFI Block cfiPicker58 Using cfiCommon1
          CFI (cfiPicker58) NoFunction
          CFI (cfiPicker58) Picker
        MOV     DPL,?XSP + 0
        MOV     DPH,?XSP + 1
        CLR     A
        MOVX    @DPTR,A
        INC     DPTR
        MOVX    @DPTR,A
        ; Setup parameters for call to function sscanf
        ; Setup parameters for call to function sscanf
        ; Setup parameters for call to function sscanf
        MOV     R0,?XSP + 0
        MOV     R1,?XSP + 1
        MOV     ?V0,R0
        MOV     ?V1,R1
        MOV     R0,#?V0
        RET
          CFI EndBlock cfiCond55
          CFI EndBlock cfiCond56
          CFI EndBlock cfiCond57
          CFI EndBlock cfiPicker58
// 1152 
// 1153 /*********************************************************************
// 1154  * @fn      sendData
// 1155  *
// 1156  * @brief   串口向采集器发送数据
// 1157  *
// 1158  * @param   none
// 1159  *
// 1160  * @return  none
// 1161  */

        RSEG BANKED_CODE:CODE:NOROOT(0)
// 1162 void SendDataToCollector(char *ptr, int len)
SendDataToCollector:
          CFI Block cfiBlock59 Using cfiCommon0
          CFI Function SendDataToCollector
        CODE
// 1163 {
        FUNCALL SendDataToCollector, HalUARTWrite
        LOCFRAME ISTACK, 2, STACK
        LOCFRAME PSTACK, 0, STACK
        LOCFRAME XSTACK, 0, STACK
        LOCFRAME IOVERLAY, 0, STATIC
        LOCFRAME DOVERLAY, 0, STATIC
        ARGFRAME ISTACK, 2, STACK
        ARGFRAME PSTACK, 0, STACK
        ARGFRAME XSTACK, 0, STACK
        ARGFRAME IOVERLAY, 0, STATIC
        ARGFRAME DOVERLAY, 0, STATIC
        PUSH    DPL
          CFI DPL0 Frame(CFA_SP, 4)
          CFI CFA_SP SP+-4
        PUSH    DPH
          CFI DPH0 Frame(CFA_SP, 5)
          CFI CFA_SP SP+-5
        ; Saved register size: 2
        ; Auto size: 0
// 1164     HalUARTWrite(0,ptr,len);
        ; Setup parameters for call to function HalUARTWrite
        MOV     R1,#0x0
        LCALL   ??HalUARTWrite?relay ; Banked call to: HalUARTWrite
          CFI EndBlock cfiBlock59
// 1165 }
        REQUIRE ?Subroutine1
        ; // Fall through to label ?Subroutine1

        RSEG BANKED_CODE:CODE:NOROOT(0)
?Subroutine1:
          CFI Block cfiBlock60 Using cfiCommon0
          CFI NoFunction
          CFI CFA_SP SP+-5
          CFI DPL0 Frame(CFA_SP, 4)
          CFI DPH0 Frame(CFA_SP, 5)
        POP     DPH
          CFI CFA_SP SP+-4
          CFI DPH0 SameValue
        POP     DPL
          CFI CFA_SP SP+-3
          CFI DPL0 SameValue
        LJMP    ?BRET
          CFI EndBlock cfiBlock60
// 1166 
// 1167 /*********************************************************************
// 1168  * @fn      Order_Parse
// 1169  *
// 1170  * @brief   协调器或串口指令解析,flag：1 指示终端设备，0 指示协调器设备
// 1171  *
// 1172  * @param   none
// 1173  *
// 1174  * @return  none
// 1175  */
// 1176 //void Order_Parse(char *str, int len, int flag)
// 1177 //{
// 1178 //   uint8 i;
// 1179 //   int numbers;
// 1180 //     /* 上位机指令解析 */
// 1181 //   if(*(str+len-1)== '\n')
// 1182 //   {
// 1183 //#if defined (ZDO_COORDINATOR) || defined (RTR_NWK) //协调器
// 1184 //      if(osal_memcmp(str,"#DM",3)) //主采读取数据
// 1185 //      {
// 1186 //        /* 主采读取数据 */
// 1187 //        numbers = sprintf(data_coor, "BG,ID001,%04d,%03d,%04d,ID002,%04d,%03d,%04d,ID003,%04d,%03d,%04d,ED\r\n",coordi[0].temperature,
// 1188 //                          coordi[0].humidity,coordi[0].photosyn,coordi[1].temperature,coordi[1].humidity,coordi[1].photosyn,
// 1189 //                          coordi[2].temperature,coordi[2].humidity,coordi[2].photosyn); //数据填充
// 1190 //        
// 1191 //        SendDataToCollector(data_coor, COOR_DATA_LEN); //数据发往主采集器
// 1192 //        
// 1193 //        osal_memset(coordi, 0, sizeof(dataType_t)*3); //发送后数据清零
// 1194 //      }
// 1195 //      else if(osal_memcmp(str,"#RS",3))
// 1196 //      {
// 1197 //        /* 复位 */
// 1198 //        ReturnTorF(1, 1); //正确
// 1199 //        SampleApp_SendPeriodicMessage(str, len); //转发复位指令给终端传感器
// 1200 //        
// 1201 //        rs_flag = 1;//置位停止喂狗标志
// 1202 //        
// 1203 //      }
// 1204 //      else if(osal_memcmp(str,"#GH",3)) //协调器使用GH指令给传感器设置光合表系数
// 1205 //      {
// 1206 //        SampleApp_SendPeriodicMessage(str, len);
// 1207 //      }
// 1208 //#else //终端节点
// 1209 //      if(osal_memcmp(str,"#ID",3))
// 1210 //      {
// 1211 //        if(len == 5) //读取设备ID
// 1212 //        {          
// 1213 //          printf("<ID,%03u>\r\n", sensor_id);
// 1214 //        }
// 1215 //        else //设置设备ID
// 1216 //        {
// 1217 //          int temp_id;
// 1218 //          
// 1219 //          sscanf(str+4, "%d", &temp_id);                           
// 1220 //          if(temp_id>=1 && temp_id<=3)
// 1221 //          {
// 1222 //            sensor_id = temp_id;
// 1223 //            
// 1224 //            /* 设备ID存入flash */
// 1225 //            sprintf(dev_id, "%03u", sensor_id);
// 1226 //            
// 1227 //            if(SUCCESS == osal_nv_write(DEVICE_ID, 0, DEVICE_ID_LEN, dev_id))
// 1228 //              HalUARTWrite(0,"T\n",2 ); //存入成功
// 1229 //            else
// 1230 //              HalUARTWrite(0,"F\n",2 ); //存入失败
// 1231 //          }
// 1232 //          else
// 1233 //          {
// 1234 //            HalUARTWrite(0,"F\n",2 ); //错误
// 1235 //          }
// 1236 //        }
// 1237 //      }
// 1238 //      else if(osal_memcmp(str,"#GH",3))
// 1239 //      {
// 1240 //        if(len == 5) //读取光合表系数
// 1241 //        {
// 1242 //          printf("<GH,%05.2f>\r\n", gh_factor);
// 1243 //        }
// 1244 //        else //设置光合表系数
// 1245 //        {
// 1246 //          float temp_gh;
// 1247 //          
// 1248 //          sscanf(str+4, "%f", &temp_gh);
// 1249 //          if(temp_gh>=1.0)
// 1250 //          {
// 1251 //            gh_factor = temp_gh;
// 1252 //            
// 1253 //            /* 光合表系数存入flash */
// 1254 //            sprintf(dev_gh, "%5.2f", gh_factor);
// 1255 //            
// 1256 //            if(SUCCESS == osal_nv_write(DEVICE_GH, 0, DEVICE_GH_LEN, dev_gh))
// 1257 //              HalUARTWrite(0,"T\n",2 ); //存入成功
// 1258 //            else
// 1259 //              HalUARTWrite(0,"F\n",2 ); //存入失败
// 1260 //          }
// 1261 //          else
// 1262 //          {
// 1263 //            HalUARTWrite(0,"F\n",2 ); //错误
// 1264 //          }
// 1265 //        }
// 1266 //      }
// 1267 //      else if(osal_memcmp(str,"#RS",3))//复位
// 1268 //      {
// 1269 //        /* 复位 */     
// 1270 //        rs_flag = 1;//置位停止喂狗标志     
// 1271 //      }
// 1272 //#endif
// 1273 //      else if(osal_memcmp(str,"#DG",3)) //调试信息开关
// 1274 //      {
// 1275 //        int temp;
// 1276 //        
// 1277 //        temp = atoi(str+4);
// 1278 //        if(temp==0||temp==1)
// 1279 //        {
// 1280 //          debug = temp;
// 1281 //          HalUARTWrite(0,"T\n",2 ); //正确
// 1282 //        }
// 1283 //        else
// 1284 //        {
// 1285 //          HalUARTWrite(0,"F\n",2 ); //错误
// 1286 //        }
// 1287 //        
// 1288 //      }
// 1289 //      else
// 1290 //      {
// 1291 //        HalUARTWrite(0,"F\n",2 ); //错误
// 1292 //      }
// 1293 //   }
// 1294 //   else
// 1295 //   {
// 1296 //      HalUARTWrite(0,"F\n",2 ); //错误
// 1297 //   }
// 1298 //}
// 1299 
// 1300 /*********************************************************************
// 1301  * @fn      ReturnTorF
// 1302  *
// 1303  * @brief   指令返回'T'或'F'，参数a:1 回复'T',0 回复'F'；参数b:1 发往串口，0 发往协调器
// 1304  *
// 1305  * @param   none
// 1306  *
// 1307  * @return  none
// 1308  */

        RSEG BANKED_CODE:CODE:NOROOT(0)
// 1309 void ReturnTorF(int a, int b)
ReturnTorF:
          CFI Block cfiBlock61 Using cfiCommon0
          CFI Function ReturnTorF
        CODE
// 1310 {
        FUNCALL ReturnTorF, printf
        LOCFRAME ISTACK, 2, STACK
        LOCFRAME PSTACK, 0, STACK
        LOCFRAME XSTACK, 0, STACK
        LOCFRAME IOVERLAY, 0, STATIC
        LOCFRAME DOVERLAY, 0, STATIC
        ARGFRAME ISTACK, 2, STACK
        ARGFRAME PSTACK, 0, STACK
        ARGFRAME XSTACK, 0, STACK
        ARGFRAME IOVERLAY, 0, STATIC
        ARGFRAME DOVERLAY, 0, STATIC
        FUNCALL ReturnTorF, SampleApp_SendPointToPointMessage
        LOCFRAME ISTACK, 2, STACK
        LOCFRAME PSTACK, 0, STACK
        LOCFRAME XSTACK, 0, STACK
        LOCFRAME IOVERLAY, 0, STATIC
        LOCFRAME DOVERLAY, 0, STATIC
        ARGFRAME ISTACK, 2, STACK
        ARGFRAME PSTACK, 0, STACK
        ARGFRAME XSTACK, 0, STACK
        ARGFRAME IOVERLAY, 0, STATIC
        ARGFRAME DOVERLAY, 0, STATIC
        FUNCALL ReturnTorF, printf
        LOCFRAME ISTACK, 2, STACK
        LOCFRAME PSTACK, 0, STACK
        LOCFRAME XSTACK, 0, STACK
        LOCFRAME IOVERLAY, 0, STATIC
        LOCFRAME DOVERLAY, 0, STATIC
        ARGFRAME ISTACK, 2, STACK
        ARGFRAME PSTACK, 0, STACK
        ARGFRAME XSTACK, 0, STACK
        ARGFRAME IOVERLAY, 0, STATIC
        ARGFRAME DOVERLAY, 0, STATIC
        FUNCALL ReturnTorF, SampleApp_SendPointToPointMessage
        LOCFRAME ISTACK, 2, STACK
        LOCFRAME PSTACK, 0, STACK
        LOCFRAME XSTACK, 0, STACK
        LOCFRAME IOVERLAY, 0, STATIC
        LOCFRAME DOVERLAY, 0, STATIC
        ARGFRAME ISTACK, 2, STACK
        ARGFRAME PSTACK, 0, STACK
        ARGFRAME XSTACK, 0, STACK
        ARGFRAME IOVERLAY, 0, STATIC
        ARGFRAME DOVERLAY, 0, STATIC
        PUSH    DPL
          CFI DPL0 Frame(CFA_SP, 4)
          CFI CFA_SP SP+-4
        PUSH    DPH
          CFI DPH0 Frame(CFA_SP, 5)
          CFI CFA_SP SP+-5
        ; Saved register size: 2
        ; Auto size: 0
// 1311   if(a)
        MOV     A,R2
        ORL     A,R3
        JZ      ??ReturnTorF_0
// 1312   {
// 1313     if(b)
        MOV     A,R4
        ORL     A,R5
        JZ      ??ReturnTorF_1
// 1314     {
// 1315       printf("T\r\n");
        ; Setup parameters for call to function printf
        MOV     R2,#`?<Constant "T\\r\\n">` & 0xff
        MOV     R3,#(`?<Constant "T\\r\\n">` >> 8) & 0xff
        SJMP    ??ReturnTorF_2
// 1316     }
// 1317     else
// 1318     {
// 1319       SampleApp_SendPointToPointMessage("T\r\n", sizeof("T\r\n"));
??ReturnTorF_1:
        ; Setup parameters for call to function SampleApp_SendPointToPointMessage
        MOV     R4,#0x4
        MOV     R5,#0x0
        MOV     R2,#`?<Constant "T\\r\\n">` & 0xff
        MOV     R3,#(`?<Constant "T\\r\\n">` >> 8) & 0xff
        SJMP    ??ReturnTorF_3
// 1320     }
// 1321   }
// 1322   else
// 1323   {
// 1324     if(b)
??ReturnTorF_0:
        MOV     A,R4
        ORL     A,R5
        JZ      ??ReturnTorF_4
// 1325     {
// 1326       printf("F\r\n");
        ; Setup parameters for call to function printf
        MOV     R2,#`?<Constant "F\\r\\n">` & 0xff
        MOV     R3,#(`?<Constant "F\\r\\n">` >> 8) & 0xff
??ReturnTorF_2:
        LCALL   ??printf?relay       ; Banked call to: printf
        SJMP    ??ReturnTorF_5
// 1327     }
// 1328     else
// 1329     {
// 1330       SampleApp_SendPointToPointMessage("F\r\n", sizeof("F\r\n"));
??ReturnTorF_4:
        ; Setup parameters for call to function SampleApp_SendPointToPointMessage
        MOV     R4,#0x4
        MOV     R5,#0x0
        MOV     R2,#`?<Constant "F\\r\\n">` & 0xff
        MOV     R3,#(`?<Constant "F\\r\\n">` >> 8) & 0xff
??ReturnTorF_3:
        LCALL   ??SampleApp_SendPointToPointMessage?relay; Banked call to: SampleApp_SendPointToPointMessage
// 1331     }
// 1332     
// 1333   }
// 1334   
// 1335 }
??ReturnTorF_5:
        SJMP    ?Subroutine1
          CFI EndBlock cfiBlock61

        RSEG XDATA_ID:CODE:NOROOT(0)
`?<Initializer for data_coor>`:
        DB 42H, 47H, 2CH, 49H, 44H, 30H, 30H, 31H
        DB 2CH, 2DH, 36H, 30H, 30H, 2CH, 30H, 39H
        DB 39H, 2CH, 31H, 32H, 33H, 34H, 2CH, 49H
        DB 44H, 30H, 30H, 32H, 2CH, 2DH, 36H, 30H
        DB 30H, 2CH, 30H, 39H, 39H, 2CH, 31H, 32H
        DB 33H, 34H, 2CH, 49H, 44H, 30H, 30H, 33H
        DB 2CH, 2DH, 36H, 30H, 30H, 2CH, 30H, 39H
        DB 39H, 2CH, 31H, 32H, 33H, 34H, 2CH, 45H
        DB 44H, 0DH, 0AH, 0
        DB 0, 0, 0, 0, 0, 0, 0, 0
        DB 0, 0, 0, 0, 0, 0, 0, 0
        DB 0, 0, 0, 0, 0, 0, 0, 0
        DB 0, 0, 0, 0, 0, 0, 0, 0
        DB 0, 0, 0, 0, 0, 0, 0, 0
        DB 0, 0, 0, 0, 0, 0, 0, 0
        DB 0, 0, 0, 0, 0, 0, 0, 0
        DB 0, 0, 0, 0

        RSEG BANK_RELAYS:CODE:REORDER:NOROOT(0)
??SampleApp_Init?relay:
        CODE
        LCALL   ?BDISPATCH
        DATA24
        DC24    SampleApp_Init

        RSEG BANK_RELAYS:CODE:REORDER:NOROOT(0)
??SampleApp_ProcessEvent?relay:
        CODE
        LCALL   ?BDISPATCH
        DATA24
        DC24    SampleApp_ProcessEvent

        RSEG BANK_RELAYS:CODE:REORDER:NOROOT(0)
??SampleApp_MessageMSGCB?relay:
        CODE
        LCALL   ?BDISPATCH
        DATA24
        DC24    SampleApp_MessageMSGCB

        RSEG BANK_RELAYS:CODE:REORDER:NOROOT(0)
??SampleApp_SendPeriodicMessage?relay:
        CODE
        LCALL   ?BDISPATCH
        DATA24
        DC24    SampleApp_SendPeriodicMessage

        RSEG BANK_RELAYS:CODE:REORDER:NOROOT(0)
??SampleApp_SendPointToPointMessage?relay:
        CODE
        LCALL   ?BDISPATCH
        DATA24
        DC24    SampleApp_SendPointToPointMessage

        RSEG BANK_RELAYS:CODE:REORDER:NOROOT(0)
??SampleApp_SerialCMD?relay:
        CODE
        LCALL   ?BDISPATCH
        DATA24
        DC24    SampleApp_SerialCMD

        RSEG BANK_RELAYS:CODE:REORDER:NOROOT(0)
??SendDataToCollector?relay:
        CODE
        LCALL   ?BDISPATCH
        DATA24
        DC24    SendDataToCollector

        RSEG BANK_RELAYS:CODE:REORDER:NOROOT(0)
??ReturnTorF?relay:
        CODE
        LCALL   ?BDISPATCH
        DATA24
        DC24    ReturnTorF

        RSEG XDATA_ROM_C:CONST:REORDER:NOROOT(0)
        DATA8
`?<Constant "System init!\\n">`:
        DB "System init!\012"

        RSEG XDATA_ROM_C:CONST:REORDER:NOROOT(0)
        DATA8
`?<Constant "Group 1">`:
        DB "Group 1"

        RSEG XDATA_ROM_C:CONST:REORDER:NOROOT(0)
        DATA8
`?<Constant "SampleApp">`:
        DB "SampleApp"

        RSEG XDATA_ROM_C:CONST:REORDER:NOROOT(0)
        DATA8
`?<Constant "NET SUCCESS!\\r\\n">`:
        DB "NET SUCCESS!\015\012"

        RSEG XDATA_ROM_C:CONST:REORDER:NOROOT(0)
        DATA8
`?<Constant "Router:0x%04X\\r\\nParent...">`:
        DB 52H, 6FH, 75H, 74H, 65H, 72H, 3AH, 30H
        DB 78H, 25H, 30H, 34H, 58H, 0DH, 0AH, 50H
        DB 61H, 72H, 65H, 6EH, 74H, 3AH, 30H, 78H
        DB 25H, 30H, 34H, 58H, 0DH, 0AH, 43H, 68H
        DB 61H, 6EH, 6EH, 65H, 6CH, 3AH, 25H, 64H
        DB 0DH, 0AH, 50H, 61H, 6EH, 49H, 44H, 3AH
        DB 30H, 78H, 25H, 30H, 34H, 58H, 0DH, 0AH
        DB 0

        RSEG XDATA_ROM_C:CONST:REORDER:NOROOT(0)
        DATA8
`?<Constant "IEEE:%02X%02X%02X%02X...">`:
        DB "IEEE:%02X%02X%02X%02X%02X%02X%02X%02X\015\012"

        RSEG XDATA_ROM_C:CONST:REORDER:NOROOT(0)
        DATA8
`?<Constant "Parent IEEE:%02X%02X%...">`:
        DB "Parent IEEE:%02X%02X%02X%02X%02X%02X%02X%02X\015\012"

        RSEG XDATA_ROM_C:CONST:REORDER:NOROOT(0)
        DATA8
`?<Constant "EndDevice:0x%04X\\r\\nPar...">`:
        DB 45H, 6EH, 64H, 44H, 65H, 76H, 69H, 63H
        DB 65H, 3AH, 30H, 78H, 25H, 30H, 34H, 58H
        DB 0DH, 0AH, 50H, 61H, 72H, 65H, 6EH, 74H
        DB 3AH, 30H, 78H, 25H, 30H, 34H, 58H, 0DH
        DB 0AH, 43H, 68H, 61H, 6EH, 6EH, 65H, 6CH
        DB 3AH, 25H, 64H, 0DH, 0AH, 50H, 61H, 6EH
        DB 49H, 44H, 3AH, 30H, 78H, 25H, 30H, 34H
        DB 58H, 0DH, 0AH, 0

        RSEG XDATA_ROM_C:CONST:REORDER:NOROOT(0)
        DATA8
`?<Constant "Coordinator:0x%04X\\r\\nC...">`:
        DB "Coordinator:0x%04X\015\012Channel:%d\015\012PanID:0x%04X\015\012"

        RSEG XDATA_ROM_C:CONST:REORDER:NOROOT(0)
        DATA8
`?<Constant "NO NET\\r\\n">`:
        DB "NO NET\015\012"

        RSEG XDATA_ROM_C:CONST:REORDER:NOROOT(0)
        DATA32
`?<Constant "#DM">`:
        DB "#DM"

        RSEG XDATA_ROM_C:CONST:REORDER:NOROOT(0)
        DATA8
`?<Constant "BG,ID001,%04d,%03d,%0...">`:
        DB 42H, 47H, 2CH, 49H, 44H, 30H, 30H, 31H
        DB 2CH, 25H, 30H, 34H, 64H, 2CH, 25H, 30H
        DB 33H, 64H, 2CH, 25H, 30H, 34H, 64H, 2CH
        DB 49H, 44H, 30H, 30H, 32H, 2CH, 25H, 30H
        DB 34H, 64H, 2CH, 25H, 30H, 33H, 64H, 2CH
        DB 25H, 30H, 34H, 64H, 2CH, 49H, 44H, 30H
        DB 30H, 33H, 2CH, 25H, 30H, 34H, 64H, 2CH
        DB 25H, 30H, 33H, 64H, 2CH, 25H, 30H, 34H
        DB 64H, 2CH, 45H, 44H, 0DH, 0AH, 0

        RSEG XDATA_ROM_C:CONST:REORDER:NOROOT(0)
        DATA32
`?<Constant "#RS">`:
        DB "#RS"

        RSEG XDATA_ROM_C:CONST:REORDER:NOROOT(0)
        DATA8
`?<Constant "clear\\r\\n">`:
        DB "clear\015\012"

        RSEG XDATA_ROM_C:CONST:REORDER:NOROOT(0)
        DATA32
`?<Constant "#GH">`:
        DB "#GH"

        RSEG XDATA_ROM_C:CONST:REORDER:NOROOT(0)
        DATA32
`?<Constant "#PD">`:
        DB "#PD"

        RSEG XDATA_ROM_C:CONST:REORDER:NOROOT(0)
        DATA8
`?<Constant "<PD,0x%04X>\\r\\n">`:
        DB "<PD,0x%04X>\015\012"

        RSEG XDATA_ROM_C:CONST:REORDER:NOROOT(0)
        DATA8
`?<Constant "%x">`:
        DB "%x"

        RSEG XDATA_ROM_C:CONST:REORDER:NOROOT(0)
        DATA32
`?<Constant "#CH">`:
        DB "#CH"

        RSEG XDATA_ROM_C:CONST:REORDER:NOROOT(0)
        DATA8
`?<Constant "<CH,0x%02X>\\r\\n">`:
        DB "<CH,0x%02X>\015\012"

        RSEG XDATA_ROM_C:CONST:REORDER:NOROOT(0)
        DATA32
`?<Constant "#SA">`:
        DB "#SA"

        RSEG XDATA_ROM_C:CONST:REORDER:NOROOT(0)
        DATA8
`?<Constant "<SA,0x%04X>\\r\\n">`:
        DB "<SA,0x%04X>\015\012"

        RSEG XDATA_ROM_C:CONST:REORDER:NOROOT(0)
        DATA8
`?<Constant "#DPD">`:
        DB "#DPD"

        RSEG XDATA_ROM_C:CONST:REORDER:NOROOT(0)
        DATA8
`?<Constant "<DPD,0x%04X>\\r\\n">`:
        DB "<DPD,0x%04X>\015\012"

        RSEG XDATA_ROM_C:CONST:REORDER:NOROOT(0)
        DATA8
`?<Constant "<DPD,F>\\r\\n">`:
        DB "<DPD,F>\015\012"

        RSEG XDATA_ROM_C:CONST:REORDER:NOROOT(0)
        DATA8
`?<Constant "<DPD,T>\\r\\n">`:
        DB "<DPD,T>\015\012"

        RSEG XDATA_ROM_C:CONST:REORDER:NOROOT(0)
        DATA8
`?<Constant "#DCH">`:
        DB "#DCH"

        RSEG XDATA_ROM_C:CONST:REORDER:NOROOT(0)
        DATA8
`?<Constant "<DCH,ALL>\\r\\n">`:
        DB "<DCH,ALL>\015\012"

        RSEG XDATA_ROM_C:CONST:REORDER:NOROOT(0)
        DATA8
`?<Constant "<DCH,0x%02X>\\r\\n">`:
        DB "<DCH,0x%02X>\015\012"

        RSEG XDATA_ROM_C:CONST:REORDER:NOROOT(0)
        DATA32
`?<Constant "ALL">`:
        DB "ALL"

        RSEG XDATA_ROM_C:CONST:REORDER:NOROOT(0)
        DATA32
`?<Constant "all">`:
        DB "all"

        RSEG XDATA_ROM_C:CONST:REORDER:NOROOT(0)
        DATA8
`?<Constant "<CH,F>\\r\\n">`:
        DB "<CH,F>\015\012"

        RSEG XDATA_ROM_C:CONST:REORDER:NOROOT(0)
        DATA8
`?<Constant "<CH,0x%02X,0x%08lX>\\r\\n">`:
        DB "<CH,0x%02X,0x%08lX>\015\012"

        RSEG XDATA_ROM_C:CONST:REORDER:NOROOT(0)
        DATA8
`?<Constant "<DCH,F>\\r\\n">`:
        DB "<DCH,F>\015\012"

        RSEG XDATA_ROM_C:CONST:REORDER:NOROOT(0)
        DATA8
`?<Constant "<DCH,T>\\r\\n">`:
        DB "<DCH,T>\015\012"

        RSEG XDATA_ROM_C:CONST:REORDER:NOROOT(0)
        DATA32
`?<Constant "#DG">`:
        DB "#DG"

        RSEG XDATA_ROM_C:CONST:REORDER:NOROOT(0)
        DATA32
`?<Constant "T\\r\\n">`:
        DB "T\015\012"

        RSEG XDATA_ROM_C:CONST:REORDER:NOROOT(0)
        DATA32
`?<Constant "F\\r\\n">`:
        DB "F\015\012"

        RSEG XDATA_ROM_C:CONST:REORDER:NOROOT(0)
        DATA32
__Constant_7fff800:
        DD 134215680

        END
// 1336 
// 1337 /*********************************************************************
// 1338 *********************************************************************/
// 
// 2 616 bytes in segment BANKED_CODE
//    48 bytes in segment BANK_RELAYS
//   128 bytes in segment XDATA_I
//   128 bytes in segment XDATA_ID
//   622 bytes in segment XDATA_ROM_C
//   127 bytes in segment XDATA_Z
// 
// 2 792 bytes of CODE  memory
//   618 bytes of CONST memory (+ 4 bytes shared)
//   255 bytes of XDATA memory
//
//Errors: none
//Warnings: 21
