###############################################################################
#                                                                             #
# IAR C/C++ Compiler V8.30.1.41636 for 8051             19/Oct/2017  13:11:47 #
# Copyright 2004-2013 IAR Systems AB.                                         #
#                                                                             #
#    Core               =  plain                                              #
#    Code model         =  banked                                             #
#    Data model         =  large                                              #
#    Calling convention =  xdata reentrant                                    #
#    Constant location  =  data_rom                                           #
#    Dptr setup         =  1,16                                               #
#                                                                             #
#    Source file        =  D:\¼ò±¦É½\ÊÙÏØ17-09-01 25\³ÌÐò\ÎÞÏß½Úµã³ÌÐò\code\C #
#                          omponents\stack\zdo\ZDProfile.c                    #
#    Command line       =  -f "D:\¼ò±¦É½\ÊÙÏØ17-09-01                         #
#                          25\³ÌÐò\ÎÞÏß½Úµã³ÌÐò\code\Projects\zstack\Samples\ #
#                          SampleApp\CC2530DB\..\..\..\Tools\CC2530DB\f8wCoor #
#                          d.cfg" (-DCPU32MHZ -DROOT=__near_func              #
#                          -DMAC_CFG_APP_PENDING_QUEUE=TRUE                   #
#                          -DMAC_CFG_TX_DATA_MAX=5 -DMAC_CFG_TX_MAX=8         #
#                          -DMAC_CFG_RX_MAX=5 -DZDO_COORDINATOR -DRTR_NWK)    #
#                          -f "D:\¼ò±¦É½\ÊÙÏØ17-09-01                         #
#                          25\³ÌÐò\ÎÞÏß½Úµã³ÌÐò\code\Projects\zstack\Samples\ #
#                          SampleApp\CC2530DB\..\..\..\Tools\CC2530DB\f8wConf #
#                          ig.cfg" (-DZIGBEEPRO -DSECURE=0                    #
#                          -DZG_SECURE_DYNAMIC=0 -DREFLECTOR                  #
#                          -DDEFAULT_CHANLIST=0x00000800                      #
#                          -DZDAPP_CONFIG_PAN_ID=0xFFF1                       #
#                          -DNWK_START_DELAY=100 -DEXTENDED_JOINING_RANDOM_MA #
#                          SK=0x007F -DBEACON_REQUEST_DELAY=100               #
#                          -DBEACON_REQ_DELAY_MASK=0x00FF                     #
#                          -DLINK_STATUS_JITTER_MASK=0x007F                   #
#                          -DROUTE_EXPIRY_TIME=30 -DAPSC_ACK_WAIT_DURATION_PO #
#                          LLED=3000 -DNWK_INDIRECT_MSG_TIMEOUT=7             #
#                          -DMAX_RREQ_ENTRIES=8 -DAPSC_MAX_FRAME_RETRIES=3    #
#                          -DNWK_MAX_DATA_RETRIES=2                           #
#                          -DMAX_POLL_FAILURE_RETRIES=2 -DMAX_BCAST=9         #
#                          -DAPS_MAX_GROUPS=16 -DMAX_RTG_ENTRIES=40           #
#                          -DNWK_MAX_BINDING_ENTRIES=4                        #
#                          -DMAX_BINDING_CLUSTER_IDS=4 "-DDEFAULT_KEY={0x01,  #
#                          0x03, 0x05, 0x07, 0x09, 0x0B, 0x0D, 0x0F, 0x00,    #
#                          0x02, 0x04, 0x06, 0x08, 0x0A, 0x0C, 0x0D}"         #
#                          -DMAC_MAX_FRAME_SIZE=116                           #
#                          -DZDNWKMGR_MIN_TRANSMISSIONS=20 "-DCONST=const     #
#                          __code" -DGENERIC=__generic                        #
#                          -DRFD_RCVC_ALWAYS_ON=FALSE -DPOLL_RATE=1000        #
#                          -DQUEUED_POLL_RATE=100 -DRESPONSE_POLL_RATE=100)   #
#                          -DREJOIN_POLL_RATE=440 "D:\¼ò±¦É½\ÊÙÏØ17-09-01     #
#                          25\³ÌÐò\ÎÞÏß½Úµã³ÌÐò\code\Components\stack\zdo\ZDP #
#                          rofile.c" -D BUILD_ALL_DEVICES -D HOLD_AUTO_START  #
#                          -D LCD_SUPPORTED -D HAL_UART=FALSE -lC             #
#                          "D:\¼ò±¦É½\ÊÙÏØ17-09-01 25\³ÌÐò\ÎÞÏß½Úµã³ÌÐò\code\ #
#                          Projects\zstack\Samples\SampleApp\CC2530DB\DemoEB\ #
#                          List\" -lA "D:\¼ò±¦É½\ÊÙÏØ17-09-01                 #
#                          25\³ÌÐò\ÎÞÏß½Úµã³ÌÐò\code\Projects\zstack\Samples\ #
#                          SampleApp\CC2530DB\DemoEB\List\" --diag_suppress   #
#                          Pe001,Pa010 -o "D:\¼ò±¦É½\ÊÙÏØ17-09-01             #
#                          25\³ÌÐò\ÎÞÏß½Úµã³ÌÐò\code\Projects\zstack\Samples\ #
#                          SampleApp\CC2530DB\DemoEB\Obj\" -e                 #
#                          --no_code_motion --debug --core=plain --dptr=16,1  #
#                          --data_model=large --code_model=banked             #
#                          --calling_convention=xdata_reentrant               #
#                          --place_constants=data_rom --nr_virtual_regs 16    #
#                          -I "D:\¼ò±¦É½\ÊÙÏØ17-09-01                         #
#                          25\³ÌÐò\ÎÞÏß½Úµã³ÌÐò\code\Projects\zstack\Samples\ #
#                          SampleApp\CC2530DB\" -I "D:\¼ò±¦É½\ÊÙÏØ17-09-01    #
#                          25\³ÌÐò\ÎÞÏß½Úµã³ÌÐò\code\Projects\zstack\Samples\ #
#                          SampleApp\CC2530DB\..\Source\" -I                  #
#                          "D:\¼ò±¦É½\ÊÙÏØ17-09-01 25\³ÌÐò\ÎÞÏß½Úµã³ÌÐò\code\ #
#                          Projects\zstack\Samples\SampleApp\CC2530DB\..\Sour #
#                          ce\hardware\" -I "D:\¼ò±¦É½\ÊÙÏØ17-09-01           #
#                          25\³ÌÐò\ÎÞÏß½Úµã³ÌÐò\code\Projects\zstack\Samples\ #
#                          SampleApp\CC2530DB\..\..\..\ZMain\TI2530DB\" -I    #
#                          "D:\¼ò±¦É½\ÊÙÏØ17-09-01 25\³ÌÐò\ÎÞÏß½Úµã³ÌÐò\code\ #
#                          Projects\zstack\Samples\SampleApp\CC2530DB\..\..\. #
#                          .\..\..\Components\hal\include\" -I                #
#                          "D:\¼ò±¦É½\ÊÙÏØ17-09-01 25\³ÌÐò\ÎÞÏß½Úµã³ÌÐò\code\ #
#                          Projects\zstack\Samples\SampleApp\CC2530DB\..\..\. #
#                          .\..\..\Components\hal\target\CC2530EB\" -I        #
#                          "D:\¼ò±¦É½\ÊÙÏØ17-09-01 25\³ÌÐò\ÎÞÏß½Úµã³ÌÐò\code\ #
#                          Projects\zstack\Samples\SampleApp\CC2530DB\..\..\. #
#                          .\..\..\Components\mac\include\" -I                #
#                          "D:\¼ò±¦É½\ÊÙÏØ17-09-01 25\³ÌÐò\ÎÞÏß½Úµã³ÌÐò\code\ #
#                          Projects\zstack\Samples\SampleApp\CC2530DB\..\..\. #
#                          .\..\..\Components\mac\high_level\" -I             #
#                          "D:\¼ò±¦É½\ÊÙÏØ17-09-01 25\³ÌÐò\ÎÞÏß½Úµã³ÌÐò\code\ #
#                          Projects\zstack\Samples\SampleApp\CC2530DB\..\..\. #
#                          .\..\..\Components\mac\low_level\srf04\" -I        #
#                          "D:\¼ò±¦É½\ÊÙÏØ17-09-01 25\³ÌÐò\ÎÞÏß½Úµã³ÌÐò\code\ #
#                          Projects\zstack\Samples\SampleApp\CC2530DB\..\..\. #
#                          .\..\..\Components\mac\low_level\srf04\single_chip #
#                          \" -I "D:\¼ò±¦É½\ÊÙÏØ17-09-01                      #
#                          25\³ÌÐò\ÎÞÏß½Úµã³ÌÐò\code\Projects\zstack\Samples\ #
#                          SampleApp\CC2530DB\..\..\..\..\..\Components\mt\"  #
#                          -I "D:\¼ò±¦É½\ÊÙÏØ17-09-01                         #
#                          25\³ÌÐò\ÎÞÏß½Úµã³ÌÐò\code\Projects\zstack\Samples\ #
#                          SampleApp\CC2530DB\..\..\..\..\..\Components\osal\ #
#                          include\" -I "D:\¼ò±¦É½\ÊÙÏØ17-09-01               #
#                          25\³ÌÐò\ÎÞÏß½Úµã³ÌÐò\code\Projects\zstack\Samples\ #
#                          SampleApp\CC2530DB\..\..\..\..\..\Components\servi #
#                          ces\saddr\" -I "D:\¼ò±¦É½\ÊÙÏØ17-09-01             #
#                          25\³ÌÐò\ÎÞÏß½Úµã³ÌÐò\code\Projects\zstack\Samples\ #
#                          SampleApp\CC2530DB\..\..\..\..\..\Components\servi #
#                          ces\sdata\" -I "D:\¼ò±¦É½\ÊÙÏØ17-09-01             #
#                          25\³ÌÐò\ÎÞÏß½Úµã³ÌÐò\code\Projects\zstack\Samples\ #
#                          SampleApp\CC2530DB\..\..\..\..\..\Components\stack #
#                          \af\" -I "D:\¼ò±¦É½\ÊÙÏØ17-09-01                   #
#                          25\³ÌÐò\ÎÞÏß½Úµã³ÌÐò\code\Projects\zstack\Samples\ #
#                          SampleApp\CC2530DB\..\..\..\..\..\Components\stack #
#                          \nwk\" -I "D:\¼ò±¦É½\ÊÙÏØ17-09-01                  #
#                          25\³ÌÐò\ÎÞÏß½Úµã³ÌÐò\code\Projects\zstack\Samples\ #
#                          SampleApp\CC2530DB\..\..\..\..\..\Components\stack #
#                          \sapi\" -I "D:\¼ò±¦É½\ÊÙÏØ17-09-01                 #
#                          25\³ÌÐò\ÎÞÏß½Úµã³ÌÐò\code\Projects\zstack\Samples\ #
#                          SampleApp\CC2530DB\..\..\..\..\..\Components\stack #
#                          \sec\" -I "D:\¼ò±¦É½\ÊÙÏØ17-09-01                  #
#                          25\³ÌÐò\ÎÞÏß½Úµã³ÌÐò\code\Projects\zstack\Samples\ #
#                          SampleApp\CC2530DB\..\..\..\..\..\Components\stack #
#                          \sys\" -I "D:\¼ò±¦É½\ÊÙÏØ17-09-01                  #
#                          25\³ÌÐò\ÎÞÏß½Úµã³ÌÐò\code\Projects\zstack\Samples\ #
#                          SampleApp\CC2530DB\..\..\..\..\..\Components\stack #
#                          \zdo\" -I "D:\¼ò±¦É½\ÊÙÏØ17-09-01                  #
#                          25\³ÌÐò\ÎÞÏß½Úµã³ÌÐò\code\Projects\zstack\Samples\ #
#                          SampleApp\CC2530DB\..\..\..\..\..\Components\zmac\ #
#                          " -I "D:\¼ò±¦É½\ÊÙÏØ17-09-01                       #
#                          25\³ÌÐò\ÎÞÏß½Úµã³ÌÐò\code\Projects\zstack\Samples\ #
#                          SampleApp\CC2530DB\..\..\..\..\..\Components\zmac\ #
#                          f8w\" -Ohz --require_prototypes                    #
#    List file          =  D:\¼ò±¦É½\ÊÙÏØ17-09-01 25\³ÌÐò\ÎÞÏß½Úµã³ÌÐò\code\P #
#                          rojects\zstack\Samples\SampleApp\CC2530DB\DemoEB\L #
#                          ist\ZDProfile.lst                                  #
#    Object file        =  D:\¼ò±¦É½\ÊÙÏØ17-09-01 25\³ÌÐò\ÎÞÏß½Úµã³ÌÐò\code\P #
#                          rojects\zstack\Samples\SampleApp\CC2530DB\DemoEB\O #
#                          bj\ZDProfile.r51                                   #
#                                                                             #
#                                                                             #
###############################################################################

D:\¼ò±¦É½\ÊÙÏØ17-09-01 25\³ÌÐò\ÎÞÏß½Úµã³ÌÐò\code\Components\stack\zdo\ZDProfile.c
      1          /**************************************************************************************************
      2            Filename:       ZDProfile.c
      3            Revised:        $Date: 2010-10-13 10:54:13 -0700 (Wed, 13 Oct 2010) $
      4            Revision:       $Revision: 24112 $
      5          
      6            Description:    This is the Zigbee Device Profile.
      7          
      8          
      9            Copyright 2004-2010 Texas Instruments Incorporated. All rights reserved.
     10          
     11            IMPORTANT: Your use of this Software is limited to those specific rights
     12            granted under the terms of a software license agreement between the user
     13            who downloaded the software, his/her employer (which must be your employer)
     14            and Texas Instruments Incorporated (the "License").  You may not use this
     15            Software unless you agree to abide by the terms of the License. The License
     16            limits your use, and you acknowledge, that the Software may not be modified,
     17            copied or distributed unless embedded on a Texas Instruments microcontroller
     18            or used solely and exclusively in conjunction with a Texas Instruments radio
     19            frequency transceiver, which is integrated into your product.  Other than for
     20            the foregoing purpose, you may not use, reproduce, copy, prepare derivative
     21            works of, modify, distribute, perform, display or sell this Software and/or
     22            its documentation for any purpose.
     23          
     24            YOU FURTHER ACKNOWLEDGE AND AGREE THAT THE SOFTWARE AND DOCUMENTATION ARE
     25            PROVIDED “AS IS” WITHOUT WARRANTY OF ANY KIND, EITHER EXPRESS OR IMPLIED,
     26            INCLUDING WITHOUT LIMITATION, ANY WARRANTY OF MERCHANTABILITY, TITLE,
     27            NON-INFRINGEMENT AND FITNESS FOR A PARTICULAR PURPOSE. IN NO EVENT SHALL
     28            TEXAS INSTRUMENTS OR ITS LICENSORS BE LIABLE OR OBLIGATED UNDER CONTRACT,
     29            NEGLIGENCE, STRICT LIABILITY, CONTRIBUTION, BREACH OF WARRANTY, OR OTHER
     30            LEGAL EQUITABLE THEORY ANY DIRECT OR INDIRECT DAMAGES OR EXPENSES
     31            INCLUDING BUT NOT LIMITED TO ANY INCIDENTAL, SPECIAL, INDIRECT, PUNITIVE
     32            OR CONSEQUENTIAL DAMAGES, LOST PROFITS OR LOST DATA, COST OF PROCUREMENT
     33            OF SUBSTITUTE GOODS, TECHNOLOGY, SERVICES, OR ANY CLAIMS BY THIRD PARTIES
     34            (INCLUDING BUT NOT LIMITED TO ANY DEFENSE THEREOF), OR OTHER SIMILAR COSTS.
     35          
     36            Should you have any questions regarding your right to use this Software,
     37            contact Texas Instruments Incorporated at www.TI.com.
     38          **************************************************************************************************/
     39          
     40          /*********************************************************************
     41           * INCLUDES
     42           */
     43          #include "ZComdef.h"
     44          #include "OSAL.h"
     45          #include "AF.h"
     46          #include "NLMEDE.h"
     47          #include "nwk_util.h"
     48          #include "APS.h"
     49          
     50          #include "AddrMgr.h"
     51          #include "ZDConfig.h"
     52          #include "ZDProfile.h"
     53          #include "ZDObject.h"
     54          #include "ZDNwkMgr.h"
     55          
     56          #if defined( LCD_SUPPORTED )
     57            #include "OnBoard.h"
     58          #endif
     59          
     60          #include "nwk_util.h"
     61          
     62          #if defined( MT_ZDO_FUNC )
     63            #include "MT_ZDO.h"
     64          #endif
     65          
     66          /*********************************************************************
     67           * MACROS
     68           */
     69          
     70          #define ZADDR_TO_AFADDR( pZADDR, AFADDR ) {                            \
     71            (AFADDR).endPoint = ZDP_AF_ENDPOINT;                                 \
     72            (AFADDR).addrMode = (afAddrMode_t)(pZADDR)->addrMode;                \
     73            (AFADDR).addr.shortAddr = (pZADDR)->addr.shortAddr;                  \
     74          }
     75          
     76          #define FillAndSendBuffer( TRANSSEQ, ADDR, ID, LEN, BUF ) {     \
     77            afStatus_t stat;                                    \
     78            ZDP_TmpBuf = (BUF)+1;                               \
     79            stat = fillAndSend( (TRANSSEQ), (ADDR), (ID), (LEN) );          \
     80            osal_mem_free( (BUF) );                             \
     81            ZDP_TmpBuf = ZDP_Buf+1;                             \
     82            return stat;                                        \
     83          }
     84          
     85          #define FillAndSendTxOptions( TRANSSEQ, ADDR, ID, LEN, TxO ) {  \
     86            afStatus_t stat;                                    \
     87            ZDP_TxOptions = (TxO);                              \
     88            stat = fillAndSend( (TRANSSEQ), (ADDR), (ID), (LEN) );          \
     89            ZDP_TxOptions = AF_TX_OPTIONS_NONE;                 \
     90            return stat;                                        \
     91          }
     92          
     93          #define FillAndSendBufferTxOptions( TRANSSEQ, ADDR, ID, LEN, BUF, TxO ) { \
     94            afStatus_t stat;                                    \
     95            ZDP_TmpBuf = (BUF)+1;                               \
     96            ZDP_TxOptions = (TxO);                              \
     97            stat = fillAndSend( (TRANSSEQ), (ADDR), (ID), (LEN) );          \
     98            osal_mem_free( (BUF) );                             \
     99            ZDP_TmpBuf = ZDP_Buf+1;                             \
    100            ZDP_TxOptions = AF_TX_OPTIONS_NONE;                 \
    101            return stat;                                        \
    102          }
    103          
    104          /*********************************************************************
    105           * CONSTANTS
    106           */
    107          
    108          #define ZDP_BUF_SZ          80
    109          

   \                                 In  segment CODE_C, align 1
    110          CONST byte ZDP_AF_ENDPOINT = 0;
   \                     ZDP_AF_ENDPOINT:
   \   000000   00           DB 0
    111          
    112          /*********************************************************************
    113           * TYPEDEFS
    114           */
    115          typedef struct
    116          {
    117            void *next;
    118            uint8 taskID;
    119            uint16 clusterID;
    120          } ZDO_MsgCB_t;
    121          
    122          
    123          /*********************************************************************
    124           * GLOBAL VARIABLES
    125           */
    126          

   \                                 In  segment XDATA_Z, align 1, keep-with-next
    127          byte ZDP_TransID = 0;
   \                     ZDP_TransID:
   \   000000                DS 1
   \   000001                REQUIRE __INIT_XDATA_Z
    128          
    129          /*********************************************************************
    130           * EXTERNAL VARIABLES
    131           */
    132          
    133          extern endPointDesc_t ZDApp_epDesc;
    134          
    135          /*********************************************************************
    136           * EXTERNAL FUNCTIONS
    137           */
    138          
    139          /*********************************************************************
    140           * LOCAL FUNCTIONS
    141           */
    142          
    143          static afStatus_t fillAndSend( uint8 *transSeq, zAddrType_t *addr, cId_t clusterID, byte len );
    144          uint8 ZDO_SendMsgCBs( zdoIncomingMsg_t *inMsg );
    145          void zdpProcessAddrReq( zdoIncomingMsg_t *inMsg );
    146          
    147          /*********************************************************************
    148           * LOCAL VARIABLES
    149           */
    150          

   \                                 In  segment XDATA_Z, align 1, keep-with-next
    151          static uint8  ZDP_Buf[ ZDP_BUF_SZ ];
   \                     ZDP_Buf:
   \   000000                DS 80
   \   000050                REQUIRE __INIT_XDATA_Z

   \                                 In  segment XDATA_I, align 1, keep-with-next
    152          static uint8 *ZDP_TmpBuf = ZDP_Buf+1;
   \                     ZDP_TmpBuf:
   \   000000                DS 2
   \   000002                REQUIRE `?<Initializer for ZDP_TmpBuf>`
   \   000002                REQUIRE __INIT_XDATA_I
    153          

   \                                 In  segment XDATA_Z, align 1, keep-with-next
    154          byte ZDP_TxOptions = AF_TX_OPTIONS_NONE;
   \                     ZDP_TxOptions:
   \   000000                DS 1
   \   000001                REQUIRE __INIT_XDATA_Z

   \                                 In  segment XDATA_Z, align 1, keep-with-next
    155          ZDO_MsgCB_t *zdoMsgCBs = (ZDO_MsgCB_t *)NULL;
   \                     zdoMsgCBs:
   \   000000                DS 2
   \   000002                REQUIRE __INIT_XDATA_Z
    156          
    157          /*********************************************************************
    158           * ZDO Message Processing table
    159           */
    160          
    161          typedef void (*pfnZDPMsgProcessor)( zdoIncomingMsg_t *inMsg );
    162          
    163          typedef struct
    164          {
    165            uint16                clusterID;
    166            pfnZDPMsgProcessor    pFn;
    167          } zdpMsgProcItem_t;
    168          

   \                                 In  segment CODE_C, align 1
    169          CONST zdpMsgProcItem_t zdpMsgProcs[] =
   \                     zdpMsgProcs:
   \   000000   0000         DW 0
   \   000002   ....         DW ??zdpProcessAddrReq?relay
   \   000004   1300         DW 19
   \   000006   ....         DW ??ZDO_ProcessDeviceAnnce?relay
   \   000008   0100         DW 1
   \   00000A   ....         DW ??zdpProcessAddrReq?relay
   \   00000C   0200         DW 2
   \   00000E   ....         DW ??ZDO_ProcessNodeDescReq?relay
   \   000010   0300         DW 3
   \   000012   ....         DW ??ZDO_ProcessPowerDescReq?relay
   \   000014   0400         DW 4
   \   000016   ....         DW ??ZDO_ProcessSimpleDescReq?relay
   \   000018   0500         DW 5
   \   00001A   ....         DW ??ZDO_ProcessActiveEPReq?relay
   \   00001C   0600         DW 6
   \   00001E   ....         DW ??ZDO_ProcessMatchDescReq?relay
   \   000020   FFFF         DW 65535
   \   000022   0000         DW 0H
    170          {
    171          #if ( RFD_RCVC_ALWAYS_ON==TRUE ) || ( ZG_BUILD_RTR_TYPE )
    172            // These aren't processed by sleeping end devices.
    173            { NWK_addr_req,           zdpProcessAddrReq },
    174            { Device_annce,           ZDO_ProcessDeviceAnnce },
    175          #endif
    176            { IEEE_addr_req,          zdpProcessAddrReq },
    177            { Node_Desc_req,          ZDO_ProcessNodeDescReq },
    178            { Power_Desc_req,         ZDO_ProcessPowerDescReq },
    179            { Simple_Desc_req,        ZDO_ProcessSimpleDescReq },
    180            { Active_EP_req,          ZDO_ProcessActiveEPReq },
    181            { Match_Desc_req,         ZDO_ProcessMatchDescReq },
    182          #if defined ( ZDO_MGMT_NWKDISC_RESPONSE )
    183            { Mgmt_NWK_Disc_req,      ZDO_ProcessMgmtNwkDiscReq },
    184          #endif
    185          #if defined ( ZDO_MGMT_LQI_RESPONSE ) && ( ZG_BUILD_RTR_TYPE )
    186            { Mgmt_Lqi_req,           ZDO_ProcessMgmtLqiReq },
    187          #endif
    188          #if defined ( ZDO_MGMT_RTG_RESPONSE ) && ( ZG_BUILD_RTR_TYPE )
    189            { Mgmt_Rtg_req,           ZDO_ProcessMgmtRtgReq },
    190          #endif
    191          #if defined ( ZDO_MGMT_BIND_RESPONSE ) && defined ( REFLECTOR )
    192            { Mgmt_Bind_req,          ZDO_ProcessMgmtBindReq },
    193          #endif
    194          #if defined ( ZDO_MGMT_JOINDIRECT_RESPONSE ) && ( ZG_BUILD_RTR_TYPE )
    195            { Mgmt_Direct_Join_req,   ZDO_ProcessMgmtDirectJoinReq },
    196          #endif
    197          #if defined ( ZDO_MGMT_LEAVE_RESPONSE )
    198            { Mgmt_Leave_req,         ZDO_ProcessMgmtLeaveReq },
    199          #endif
    200          #if defined ( ZDO_MGMT_PERMIT_JOIN_RESPONSE )  && ( ZG_BUILD_RTR_TYPE )
    201            { Mgmt_Permit_Join_req,   ZDO_ProcessMgmtPermitJoinReq },
    202          #endif
    203          #if defined ( ZDO_USERDESC_RESPONSE )
    204            { User_Desc_req,          ZDO_ProcessUserDescReq },
    205          #endif
    206          #if defined ( ZDO_USERDESCSET_RESPONSE )
    207            { User_Desc_set,          ZDO_ProcessUserDescSet },
    208          #endif
    209          #if defined ( ZDO_SERVERDISC_RESPONSE )
    210            { Server_Discovery_req,   ZDO_ProcessServerDiscReq },
    211          #endif
    212            {0xFFFF, NULL} // Last
    213          };
    214          
    215          /*********************************************************************
    216           * @fn          fillAndSend
    217           *
    218           * @brief       Combined to reduce space
    219           *
    220           * @param
    221           * @param
    222           *
    223           * @return      afStatus_t
    224           */

   \                                 In  segment BANKED_CODE, align 1, keep-with-next
    225          static afStatus_t fillAndSend( uint8 *transSeq, zAddrType_t *addr, cId_t clusterID, byte len )
   \                     fillAndSend:
    226          {
   \   000000                REQUIRE ?V0
   \   000000                REQUIRE ?V1
   \   000000                REQUIRE ?V2
   \   000000                REQUIRE ?V3
   \   000000                REQUIRE ?V4
   \   000000                REQUIRE ?V5
   \   000000   74F2         MOV     A,#-0xe
   \   000002   12....       LCALL   ?BANKED_ENTER_XDATA
   \   000005                ; Saved register size: 14
   \   000005                ; Auto size: 12
   \   000005   74F4         MOV     A,#-0xc
   \   000007   12....       LCALL   ?ALLOC_XSTACK8
   \   00000A   8A..         MOV     ?V0,R2
   \   00000C   8B..         MOV     ?V1,R3
   \   00000E   EC           MOV     A,R4
   \   00000F   FE           MOV     R6,A
   \   000010   ED           MOV     A,R5
   \   000011   FF           MOV     R7,A
   \   000012   89..         MOV     ?V4,R1
    227            afAddrType_t afAddr;
    228          
    229            osal_memset( &afAddr, 0, sizeof(afAddrType_t) );
   \   000014                ; Setup parameters for call to function osal_memset
   \   000014   7C0C         MOV     R4,#0xc
   \   000016   7D00         MOV     R5,#0x0
   \   000018   7900         MOV     R1,#0x0
   \   00001A   AA..         MOV     R2,?XSP + 0
   \   00001C   AB..         MOV     R3,?XSP + 1
   \   00001E   12....       LCALL   ??osal_memset?relay  ; Banked call to: osal_memset
    230            ZADDR_TO_AFADDR( addr, afAddr );
   \   000021   7409         MOV     A,#0x9
   \   000023   12....       LCALL   ?XSTACK_DISP0_8
   \   000026   E4           CLR     A
   \   000027   F0           MOVX    @DPTR,A
   \   000028   8E82         MOV     DPL,R6
   \   00002A   8F83         MOV     DPH,R7
   \   00002C   A3           INC     DPTR
   \   00002D   A3           INC     DPTR
   \   00002E   A3           INC     DPTR
   \   00002F   A3           INC     DPTR
   \   000030   A3           INC     DPTR
   \   000031   A3           INC     DPTR
   \   000032   A3           INC     DPTR
   \   000033   A3           INC     DPTR
   \   000034   E0           MOVX    A,@DPTR
   \   000035   C0E0         PUSH    A
   \   000037   7408         MOV     A,#0x8
   \   000039   12....       LCALL   ?XSTACK_DISP0_8
   \   00003C   D0E0         POP     A
   \   00003E   F0           MOVX    @DPTR,A
   \   00003F   8E82         MOV     DPL,R6
   \   000041   8F83         MOV     DPH,R7
   \   000043   12....       LCALL   ?Subroutine46 & 0xFFFF
   \                     ??CrossCallReturnLabel_63:
   \   000046   12....       LCALL   ??Subroutine128_0 & 0xFFFF
    231          
    232            *(ZDP_TmpBuf-1) = *transSeq;
   \                     ??CrossCallReturnLabel_265:
   \   000049   90....       MOV     DPTR,#ZDP_TmpBuf
   \   00004C   E0           MOVX    A,@DPTR
   \   00004D   24FF         ADD     A,#-0x1
   \   00004F   F5..         MOV     ?V2,A
   \   000051   A3           INC     DPTR
   \   000052   E0           MOVX    A,@DPTR
   \   000053   34FF         ADDC    A,#-0x1
   \   000055   F5..         MOV     ?V3,A
   \   000057   85..82       MOV     DPL,?V0
   \   00005A   85..83       MOV     DPH,?V1
   \   00005D   E0           MOVX    A,@DPTR
   \   00005E   85..82       MOV     DPL,?V2
   \   000061   85..83       MOV     DPH,?V3
   \   000064   F0           MOVX    @DPTR,A
    233          
    234            return AF_DataRequest( &afAddr, &ZDApp_epDesc, clusterID,
    235                                     (uint16)(len+1), (uint8*)(ZDP_TmpBuf-1),
    236                                     transSeq, ZDP_TxOptions,  AF_DEFAULT_RADIUS );
   \   000065                ; Setup parameters for call to function AF_DataRequest
   \   000065   75..1E       MOV     ?V5,#0x1e
   \   000068   78..         MOV     R0,#?V5
   \   00006A   12....       LCALL   ?PUSH_XSTACK_I_ONE
   \   00006D   78..         MOV     R0,#?V0
   \   00006F   12....       LCALL   ?PUSH_XSTACK_I_TWO
   \   000072   78..         MOV     R0,#?V2
   \   000074   12....       LCALL   ?PUSH_XSTACK_I_TWO
   \   000077   85....       MOV     ?V0,?V4
   \   00007A   75..00       MOV     ?V1,#0x0
   \   00007D   E5..         MOV     A,?V0
   \   00007F   2401         ADD     A,#0x1
   \   000081   F5..         MOV     ?V0,A
   \   000083   5002         JNC     ??fillAndSend_0
   \   000085   05..         INC     ?V1
   \                     ??fillAndSend_0:
   \   000087   78..         MOV     R0,#?V0
   \   000089   12....       LCALL   ?PUSH_XSTACK_I_TWO
   \   00008C   7421         MOV     A,#0x21
   \   00008E   12....       LCALL   ?XSTACK_DISP0_8
   \   000091   12....       LCALL   ?PUSH_XSTACK8_X_TWO
   \   000094   90....       MOV     DPTR,#ZDP_TxOptions
   \   000097   E0           MOVX    A,@DPTR
   \   000098   F9           MOV     R1,A
   \   000099   7C..         MOV     R4,#ZDApp_epDesc & 0xff
   \   00009B   7D..         MOV     R5,#(ZDApp_epDesc >> 8) & 0xff
   \   00009D   7409         MOV     A,#0x9
   \   00009F   12....       LCALL   ?XSTACK_DISP101_8
   \   0000A2   12....       LCALL   ??AF_DataRequest?relay; Banked call to: AF_DataRequest
   \   0000A5   7409         MOV     A,#0x9
   \   0000A7   12....       LCALL   ?DEALLOC_XSTACK8
   \   0000AA   740C         MOV     A,#0xc
   \   0000AC   02....       LJMP    ?Subroutine0 & 0xFFFF
    237          
    238          }

   \                                 In  segment BANKED_CODE, align 1, keep-with-next
   \                     ?Subroutine46:
   \   000000   12....       LCALL   ?Subroutine76 & 0xFFFF
   \                     ??CrossCallReturnLabel_253:
   \   000003   85..82       MOV     DPL,?XSP + 0
   \   000006   85..83       MOV     DPH,?XSP + 1
   \   000009   22           RET

   \                                 In  segment BANKED_CODE, align 1, keep-with-next
   \                     ?Subroutine0:
   \   000000   12....       LCALL   ?DEALLOC_XSTACK8
   \   000003                REQUIRE ??Subroutine107_0
   \   000003                ; // Fall through to label ??Subroutine107_0

   \                                 In  segment BANKED_CODE, align 1, keep-with-next
   \                     ??Subroutine107_0:
   \   000000   7F06         MOV     R7,#0x6
   \   000002   02....       LJMP    ?BANKED_LEAVE_XDATA

   \                                 In  segment BANKED_CODE, align 1, keep-with-next
   \                     ?Subroutine76:
   \   000000   12....       LCALL   ??Subroutine126_0 & 0xFFFF
   \                     ??CrossCallReturnLabel_262:
   \   000003   F9           MOV     R1,A
   \   000004   22           RET

   \                                 In  segment BANKED_CODE, align 1, keep-with-next
   \                     ??Subroutine126_0:
   \   000000   E0           MOVX    A,@DPTR
   \   000001   F8           MOV     R0,A
   \   000002   A3           INC     DPTR
   \   000003   E0           MOVX    A,@DPTR
   \   000004   22           RET

   \                                 In  segment BANKED_CODE, align 1, keep-with-next
   \                     ??Subroutine128_0:
   \   000000   E8           MOV     A,R0
   \   000001                REQUIRE ??Subroutine129_0
   \   000001                ; // Fall through to label ??Subroutine129_0

   \                                 In  segment BANKED_CODE, align 1, keep-with-next
   \                     ??Subroutine129_0:
   \   000000   F0           MOVX    @DPTR,A
   \   000001   A3           INC     DPTR
   \   000002   E9           MOV     A,R1
   \   000003   F0           MOVX    @DPTR,A
   \   000004   22           RET
    239          
    240          /*********************************************************************
    241           * @fn          ZDP_SendData
    242           *
    243           * @brief       This builds and send a request message that has
    244           *              NWKAddrOfInterest as its only parameter.
    245           *
    246           * @param       dstAddr - destination address
    247           * @param       cmd - clusterID
    248           * @param       dataLen - number of bytes of data
    249           * @param       data - pointer to the data
    250           * @param       SecurityEnable - Security Options
    251           *
    252           * @return      afStatus_t
    253           */

   \                                 In  segment BANKED_CODE, align 1, keep-with-next
    254          afStatus_t ZDP_SendData( uint8 *TransSeq, zAddrType_t *dstAddr, uint16 cmd,
   \                     ZDP_SendData:
    255                                  byte len, uint8 *buf, byte SecurityEnable )
    256          {
   \   000000                REQUIRE ?V0
   \   000000                REQUIRE ?V2
   \   000000                REQUIRE ?V3
   \   000000   74F4         MOV     A,#-0xc
   \   000002   12....       LCALL   ?BANKED_ENTER_XDATA
   \   000005                ; Saved register size: 12
   \   000005                ; Auto size: 0
   \   000005   E9           MOV     A,R1
   \   000006   FE           MOV     R6,A
    257            uint8 *pBuf = ZDP_TmpBuf;
   \   000007   12....       LCALL   ?Subroutine39 & 0xFFFF
    258            byte cnt = len;
   \                     ??CrossCallReturnLabel_121:
   \   00000A   EE           MOV     A,R6
   \   00000B   FF           MOV     R7,A
   \   00000C   740E         MOV     A,#0xe
   \   00000E   12....       LCALL   ?XSTACK_DISP0_8
   \   000011   12....       LCALL   ??Subroutine125_0 & 0xFFFF
   \                     ??CrossCallReturnLabel_239:
   \   000014   801F         SJMP    ??ZDP_SendData_0
    259          
    260            while ( cnt-- )
    261            {
    262              *pBuf++ = *buf++;
   \                     ??ZDP_SendData_1:
   \   000016   8882         MOV     DPL,R0
   \   000018   8983         MOV     DPH,R1
   \   00001A   E0           MOVX    A,@DPTR
   \   00001B   85..82       MOV     DPL,?V2
   \   00001E   85..83       MOV     DPH,?V3
   \   000021   12....       LCALL   ?Subroutine33 & 0xFFFF
    263            }
   \                     ??CrossCallReturnLabel_42:
   \   000024   A882         MOV     R0,DPL
   \   000026   A983         MOV     R1,DPH
   \   000028   85..82       MOV     DPL,?V2
   \   00002B   85..83       MOV     DPH,?V3
   \   00002E   A3           INC     DPTR
   \   00002F   8582..       MOV     ?V2,DPL
   \   000032   8583..       MOV     ?V3,DPH
   \                     ??ZDP_SendData_0:
   \   000035   74FF         MOV     A,#-0x1
   \   000037   2F           ADD     A,R7
   \   000038   1F           DEC     R7
   \   000039   04           INC     A
   \   00003A   70DA         JNZ     ??ZDP_SendData_1
    264          
    265            FillAndSendTxOptions( TransSeq, dstAddr, cmd, len, ((SecurityEnable) ? AF_EN_SECURITY : 0) );
   \   00003C   7410         MOV     A,#0x10
   \   00003E   12....       LCALL   ?XSTACK_DISP0_8
   \   000041   E0           MOVX    A,@DPTR
   \   000042   90....       MOV     DPTR,#ZDP_TxOptions
   \   000045   6004         JZ      ??ZDP_SendData_2
   \   000047   7440         MOV     A,#0x40
   \   000049   8001         SJMP    ??ZDP_SendData_3
   \                     ??ZDP_SendData_2:
   \   00004B   E4           CLR     A
   \                     ??ZDP_SendData_3:
   \   00004C   F0           MOVX    @DPTR,A
   \   00004D                ; Setup parameters for call to function fillAndSend
   \   00004D   740C         MOV     A,#0xc
   \   00004F   12....       LCALL   ?XSTACK_DISP0_8
   \   000052   12....       LCALL   ?PUSH_XSTACK8_X_TWO
   \   000055   EE           MOV     A,R6
   \   000056   F9           MOV     R1,A
   \   000057   12....       LCALL   ??fillAndSend?relay  ; Banked call to: fillAndSend
   \   00005A   7402         MOV     A,#0x2
   \   00005C   12....       LCALL   ?DEALLOC_XSTACK8
   \   00005F   90....       MOV     DPTR,#ZDP_TxOptions
   \   000062   E4           CLR     A
   \   000063   F0           MOVX    @DPTR,A
   \   000064   02....       LJMP    ??Subroutine106_0 & 0xFFFF
    266          }

   \                                 In  segment BANKED_CODE, align 1, keep-with-next
   \                     ?Subroutine39:
   \   000000   90....       MOV     DPTR,#ZDP_TmpBuf
   \   000003                REQUIRE ??Subroutine86_0
   \   000003                ; // Fall through to label ??Subroutine86_0

   \                                 In  segment BANKED_CODE, align 1, keep-with-next
   \                     ??Subroutine86_0:
   \   000000   E0           MOVX    A,@DPTR
   \   000001   F5..         MOV     ?V2,A
   \   000003   A3           INC     DPTR
   \   000004   E0           MOVX    A,@DPTR
   \   000005   F5..         MOV     ?V3,A
   \   000007   22           RET

   \                                 In  segment BANKED_CODE, align 1, keep-with-next
   \                     ?Subroutine33:
   \   000000   F0           MOVX    @DPTR,A
   \   000001   8882         MOV     DPL,R0
   \   000003   8983         MOV     DPH,R1
   \   000005   A3           INC     DPTR
   \   000006   22           RET

   \                                 In  segment BANKED_CODE, align 1, keep-with-next
   \                     ??Subroutine106_0:
   \   000000   7F04         MOV     R7,#0x4
   \   000002   02....       LJMP    ?BANKED_LEAVE_XDATA

   \                                 In  segment BANKED_CODE, align 1, keep-with-next
   \                     ??Subroutine125_0:
   \   000000   12....       LCALL   ?Subroutine76 & 0xFFFF
   \                     ??CrossCallReturnLabel_256:
   \   000003   22           RET
    267          
    268          /*********************************************************************
    269           * @fn          ZDP_NWKAddrOfInterestReq
    270           *
    271           * @brief       This builds and send a request message that has
    272           *              NWKAddrOfInterest as its only parameter.
    273           *
    274           * @param       dstAddr - destination address
    275           * @param       nwkAddr - 16 bit address
    276           * @param       SecurityEnable - Security Options
    277           *
    278           * @return      afStatus_t
    279           */

   \                                 In  segment BANKED_CODE, align 1, keep-with-next
    280          afStatus_t ZDP_NWKAddrOfInterestReq( zAddrType_t *dstAddr, uint16 nwkAddr,
   \                     ZDP_NWKAddrOfInterestReq:
    281                                               byte cmd, byte SecurityEnable )
    282          {
   \   000000                REQUIRE ?V0
   \   000000                REQUIRE ?V1
   \   000000   74F6         MOV     A,#-0xa
   \   000002   12....       LCALL   ?BANKED_ENTER_XDATA
   \   000005                ; Saved register size: 10
   \   000005                ; Auto size: 0
   \   000005   E9           MOV     A,R1
   \   000006   FE           MOV     R6,A
    283            (void)SecurityEnable;  // Intentionally unreferenced parameter
    284          
    285            ZDP_TmpBuf[0] = LO_UINT16( nwkAddr );
   \   000007   12....       LCALL   ?Subroutine21 & 0xFFFF
    286            ZDP_TmpBuf[1] = HI_UINT16( nwkAddr );
   \                     ??CrossCallReturnLabel_20:
   \   00000A   F0           MOVX    @DPTR,A
    287          
    288            return fillAndSend( &ZDP_TransID, dstAddr, cmd, 2 );
   \   00000B                ; Setup parameters for call to function fillAndSend
   \   00000B   8E..         MOV     ?V0,R6
   \   00000D   02....       LJMP    ?Subroutine2 & 0xFFFF
    289          }

   \                                 In  segment BANKED_CODE, align 1, keep-with-next
   \                     ?Subroutine21:
   \   000000   90....       MOV     DPTR,#ZDP_TmpBuf
   \   000003   12....       LCALL   ?Subroutine79 & 0xFFFF
   \                     ??CrossCallReturnLabel_152:
   \   000006   EC           MOV     A,R4
   \   000007   12....       LCALL   ?Subroutine65 & 0xFFFF
   \                     ??CrossCallReturnLabel_97:
   \   00000A   ED           MOV     A,R5
   \   00000B   22           RET

   \                                 In  segment BANKED_CODE, align 1, keep-with-next
   \                     ?Subroutine2:
   \   000000   75..00       MOV     ?V1,#0x0
   \   000003   78..         MOV     R0,#?V0
   \   000005   12....       LCALL   ?PUSH_XSTACK_I_TWO
   \   000008   7902         MOV     R1,#0x2
   \   00000A                REQUIRE ??Subroutine92_0
   \   00000A                ; // Fall through to label ??Subroutine92_0

   \                                 In  segment BANKED_CODE, align 1, keep-with-next
   \                     ??Subroutine92_0:
   \   000000   EA           MOV     A,R2
   \   000001   FC           MOV     R4,A
   \   000002   EB           MOV     A,R3
   \   000003   FD           MOV     R5,A
   \   000004   7A..         MOV     R2,#ZDP_TransID & 0xff
   \   000006   7B..         MOV     R3,#(ZDP_TransID >> 8) & 0xff
   \   000008                REQUIRE ??Subroutine93_0
   \   000008                ; // Fall through to label ??Subroutine93_0

   \                                 In  segment BANKED_CODE, align 1, keep-with-next
   \                     ??Subroutine93_0:
   \   000000   12....       LCALL   ??fillAndSend?relay  ; Banked call to: fillAndSend
   \   000003   7402         MOV     A,#0x2
   \   000005                REQUIRE ??Subroutine94_0
   \   000005                ; // Fall through to label ??Subroutine94_0

   \                                 In  segment BANKED_CODE, align 1, keep-with-next
   \                     ??Subroutine94_0:
   \   000000   12....       LCALL   ?DEALLOC_XSTACK8
   \   000003   7F02         MOV     R7,#0x2
   \   000005   02....       LJMP    ?BANKED_LEAVE_XDATA

   \                                 In  segment BANKED_CODE, align 1, keep-with-next
   \                     ?Subroutine79:
   \   000000   12....       LCALL   ?Subroutine84 & 0xFFFF
   \                     ??CrossCallReturnLabel_155:
   \   000003   22           RET

   \                                 In  segment BANKED_CODE, align 1, keep-with-next
   \                     ?Subroutine84:
   \   000000   12....       LCALL   ??Subroutine126_0 & 0xFFFF
   \                     ??CrossCallReturnLabel_261:
   \   000003   F583         MOV     DPH,A
   \   000005   8882         MOV     DPL,R0
   \   000007   22           RET

   \                                 In  segment BANKED_CODE, align 1, keep-with-next
   \                     ?Subroutine65:
   \   000000   F0           MOVX    @DPTR,A
   \   000001   90....       MOV     DPTR,#ZDP_TmpBuf
   \   000004   12....       LCALL   ?Subroutine84 & 0xFFFF
   \                     ??CrossCallReturnLabel_154:
   \   000007   A3           INC     DPTR
   \   000008   22           RET
    290          
    291          /*********************************************************************
    292           * Address Requests
    293           */
    294          
    295          /*********************************************************************
    296           * @fn          ZDP_NwkAddrReq
    297           *
    298           * @brief       This builds and send a NWK_addr_req message.  This
    299           *              function sends a broadcast message looking for a 16
    300           *              bit address with a 64 bit address as bait.
    301           *
    302           * @param       IEEEAddress - looking for this device
    303           * @param       SecurityEnable - Security Options
    304           *
    305           * @return      afStatus_t
    306           */

   \                                 In  segment BANKED_CODE, align 1, keep-with-next
    307          afStatus_t ZDP_NwkAddrReq( uint8 *IEEEAddress, byte ReqType,
   \                     ZDP_NwkAddrReq:
    308                                     byte StartIndex, byte SecurityEnable )
    309          {
   \   000000                REQUIRE ?V0
   \   000000                REQUIRE ?V1
   \   000000                REQUIRE ?V2
   \   000000                REQUIRE ?V3
   \   000000                REQUIRE ?V4
   \   000000                REQUIRE ?V5
   \   000000   74F2         MOV     A,#-0xe
   \   000002   12....       LCALL   ?BANKED_ENTER_XDATA
   \   000005                ; Saved register size: 14
   \   000005                ; Auto size: 9
   \   000005   74F7         MOV     A,#-0x9
   \   000007   12....       LCALL   ?ALLOC_XSTACK8
   \   00000A   EA           MOV     A,R2
   \   00000B   FE           MOV     R6,A
   \   00000C   EB           MOV     A,R3
   \   00000D   FF           MOV     R7,A
   \   00000E   89..         MOV     ?V2,R1
   \   000010   8C..         MOV     ?V3,R4
    310            uint8 *pBuf = ZDP_TmpBuf;
   \   000012   12....       LCALL   ?Subroutine40 & 0xFFFF
    311            byte len = Z_EXTADDR_LEN + 1 + 1;  // IEEEAddress + ReqType + StartIndex.
    312            zAddrType_t dstAddr;
    313          
    314            (void)SecurityEnable;  // Intentionally unreferenced parameter
    315          
    316            if ( osal_ExtAddrEqual( saveExtAddr, IEEEAddress ) == FALSE )
   \                     ??CrossCallReturnLabel_233:
   \   000015                ; Setup parameters for call to function sAddrExtCmp
   \   000015   EE           MOV     A,R6
   \   000016   FC           MOV     R4,A
   \   000017   EF           MOV     A,R7
   \   000018   FD           MOV     R5,A
   \   000019   7A..         MOV     R2,#saveExtAddr & 0xff
   \   00001B   7B..         MOV     R3,#(saveExtAddr >> 8) & 0xff
   \   00001D   12....       LCALL   ??sAddrExtCmp?relay  ; Banked call to: sAddrExtCmp
   \   000020   E9           MOV     A,R1
   \   000021   700A         JNZ     ??ZDP_NwkAddrReq_0
    317            {
    318              dstAddr.addrMode = AddrBroadcast;
   \   000023   7408         MOV     A,#0x8
   \   000025   12....       LCALL   ?XSTACK_DISP0_8
   \   000028   12....       LCALL   ?Subroutine68 & 0xFFFF
    319              dstAddr.addr.shortAddr = NWK_BROADCAST_SHORTADDR_DEVRXON;
    320            }
   \                     ??CrossCallReturnLabel_102:
   \   00002B   8012         SJMP    ??ZDP_NwkAddrReq_1
    321            else
    322            {
    323              dstAddr.addrMode = Addr16Bit;
   \                     ??ZDP_NwkAddrReq_0:
   \   00002D   7408         MOV     A,#0x8
   \   00002F   12....       LCALL   ?XSTACK_DISP0_8
   \   000032   7402         MOV     A,#0x2
   \   000034   F0           MOVX    @DPTR,A
    324              dstAddr.addr.shortAddr = ZDAppNwkAddr.addr.shortAddr;
   \   000035   90....       MOV     DPTR,#ZDAppNwkAddr
   \   000038   12....       LCALL   ?Subroutine46 & 0xFFFF
    325            }
   \                     ??CrossCallReturnLabel_64:
   \   00003B   E8           MOV     A,R0
   \   00003C   F0           MOVX    @DPTR,A
   \   00003D   A3           INC     DPTR
   \   00003E   E9           MOV     A,R1
   \                     ??ZDP_NwkAddrReq_1:
   \   00003F   F0           MOVX    @DPTR,A
    326          
    327            pBuf = osal_cpyExtAddr( pBuf, IEEEAddress );
   \   000040                ; Setup parameters for call to function sAddrExtCpy
   \   000040   EE           MOV     A,R6
   \   000041   FC           MOV     R4,A
   \   000042   EF           MOV     A,R7
   \   000043   FD           MOV     R5,A
   \   000044   AA..         MOV     R2,?V0
   \   000046   AB..         MOV     R3,?V1
   \   000048   12....       LCALL   ??sAddrExtCpy?relay  ; Banked call to: sAddrExtCpy
    328          
    329            *pBuf++ = ReqType;
   \   00004B   8A82         MOV     DPL,R2
   \   00004D   8B83         MOV     DPH,R3
   \   00004F   E5..         MOV     A,?V2
   \   000051   F0           MOVX    @DPTR,A
   \   000052   A3           INC     DPTR
    330            *pBuf++ = StartIndex;
   \   000053   E5..         MOV     A,?V3
   \   000055   F0           MOVX    @DPTR,A
    331          
    332            return fillAndSend( &ZDP_TransID, &dstAddr, NWK_addr_req, len );
   \   000056                ; Setup parameters for call to function fillAndSend
   \   000056   E4           CLR     A
   \   000057   F5..         MOV     ?V0,A
   \   000059   F5..         MOV     ?V1,A
   \   00005B   78..         MOV     R0,#?V0
   \   00005D   12....       LCALL   ?PUSH_XSTACK_I_TWO
   \   000060   790A         MOV     R1,#0xa
   \   000062   7402         MOV     A,#0x2
   \   000064   12....       LCALL   ?XSTACK_DISP102_8
   \   000067   7A..         MOV     R2,#ZDP_TransID & 0xff
   \   000069   7B..         MOV     R3,#(ZDP_TransID >> 8) & 0xff
   \   00006B   12....       LCALL   ??fillAndSend?relay  ; Banked call to: fillAndSend
   \   00006E   7402         MOV     A,#0x2
   \   000070   12....       LCALL   ?DEALLOC_XSTACK8
   \   000073   7409         MOV     A,#0x9
   \   000075   02....       LJMP    ?Subroutine0 & 0xFFFF
    333          }

   \                                 In  segment BANKED_CODE, align 1, keep-with-next
   \                     ?Subroutine68:
   \   000000   740F         MOV     A,#0xf
   \   000002   F0           MOVX    @DPTR,A
   \   000003   85..82       MOV     DPL,?XSP + 0
   \   000006   85..83       MOV     DPH,?XSP + 1
   \   000009   74FD         MOV     A,#-0x3
   \   00000B   F0           MOVX    @DPTR,A
   \   00000C   A3           INC     DPTR
   \   00000D   74FF         MOV     A,#-0x1
   \   00000F   22           RET

   \                                 In  segment BANKED_CODE, align 1, keep-with-next
   \                     ?Subroutine40:
   \   000000   90....       MOV     DPTR,#ZDP_TmpBuf
   \   000003                REQUIRE ??Subroutine122_0
   \   000003                ; // Fall through to label ??Subroutine122_0

   \                                 In  segment BANKED_CODE, align 1, keep-with-next
   \                     ??Subroutine122_0:
   \   000000   E0           MOVX    A,@DPTR
   \   000001   F5..         MOV     ?V0,A
   \   000003   A3           INC     DPTR
   \   000004   E0           MOVX    A,@DPTR
   \   000005   F5..         MOV     ?V1,A
   \   000007   22           RET
    334          
    335          /*********************************************************************
    336           * @fn          ZDP_IEEEAddrReq
    337           *
    338           * @brief       This builds and send a IEEE_addr_req message.  This
    339           *              function sends a unicast message looking for a 64
    340           *              bit IEEE address with a 16 bit address as bait.
    341           *
    342           * @param       ReqType - ZDP_IEEEADDR_REQTYPE_SINGLE or
    343           *                        ZDP_IEEEADDR_REQTYPE_EXTENDED
    344           * @param       SecurityEnable - Security Options
    345           *
    346           * @return      afStatus_t
    347           */

   \                                 In  segment BANKED_CODE, align 1, keep-with-next
    348          afStatus_t ZDP_IEEEAddrReq( uint16 shortAddr, byte ReqType,
   \                     ZDP_IEEEAddrReq:
    349                                      byte StartIndex, byte SecurityEnable )
    350          {
   \   000000                REQUIRE ?V0
   \   000000                REQUIRE ?V1
   \   000000   74F6         MOV     A,#-0xa
   \   000002   12....       LCALL   ?BANKED_ENTER_XDATA
   \   000005                ; Saved register size: 10
   \   000005                ; Auto size: 9
   \   000005   74F7         MOV     A,#-0x9
   \   000007   12....       LCALL   ?ALLOC_XSTACK8
   \   00000A   E9           MOV     A,R1
   \   00000B   FE           MOV     R6,A
   \   00000C   EC           MOV     A,R4
   \   00000D   FF           MOV     R7,A
    351            uint8 *pBuf = ZDP_TmpBuf;
   \   00000E   12....       LCALL   ??Subroutine124_0 & 0xFFFF
    352            byte len = 2 + 1 + 1;  // shortAddr + ReqType + StartIndex.
    353            zAddrType_t dstAddr;
    354          
    355            (void)SecurityEnable;  // Intentionally unreferenced parameter
    356          
    357            dstAddr.addrMode = (afAddrMode_t)Addr16Bit;
   \                     ??CrossCallReturnLabel_251:
   \   000011   7408         MOV     A,#0x8
   \   000013   12....       LCALL   ?XSTACK_DISP0_8
   \   000016   7402         MOV     A,#0x2
   \   000018   F0           MOVX    @DPTR,A
    358            dstAddr.addr.shortAddr = shortAddr;
   \   000019   85..82       MOV     DPL,?XSP + 0
   \   00001C   85..83       MOV     DPH,?XSP + 1
   \   00001F   EA           MOV     A,R2
   \   000020   F0           MOVX    @DPTR,A
   \   000021   A3           INC     DPTR
   \   000022   EB           MOV     A,R3
   \   000023   F0           MOVX    @DPTR,A
    359          
    360            *pBuf++ = LO_UINT16( shortAddr );
   \   000024   EA           MOV     A,R2
   \   000025   8882         MOV     DPL,R0
   \   000027   8983         MOV     DPH,R1
   \   000029   F0           MOVX    @DPTR,A
   \   00002A   A3           INC     DPTR
    361            *pBuf++ = HI_UINT16( shortAddr );
   \   00002B   EB           MOV     A,R3
   \   00002C   F0           MOVX    @DPTR,A
   \   00002D   A3           INC     DPTR
    362          
    363            *pBuf++ = ReqType;
   \   00002E   EE           MOV     A,R6
   \   00002F   F0           MOVX    @DPTR,A
   \   000030   A3           INC     DPTR
    364            *pBuf++ = StartIndex;
   \   000031   EF           MOV     A,R7
   \   000032   F0           MOVX    @DPTR,A
    365          
    366            return fillAndSend( &ZDP_TransID, &dstAddr, IEEE_addr_req, len );
   \   000033                ; Setup parameters for call to function fillAndSend
   \   000033   75..01       MOV     ?V0,#0x1
   \   000036   75..00       MOV     ?V1,#0x0
   \   000039   78..         MOV     R0,#?V0
   \   00003B   12....       LCALL   ?PUSH_XSTACK_I_TWO
   \   00003E   7904         MOV     R1,#0x4
   \   000040                REQUIRE ?Subroutine7
   \   000040                ; // Fall through to label ?Subroutine7
    367          }

   \                                 In  segment BANKED_CODE, align 1, keep-with-next
   \                     ?Subroutine7:
   \   000000   7402         MOV     A,#0x2
   \   000002   12....       LCALL   ?XSTACK_DISP102_8
   \   000005   7A..         MOV     R2,#ZDP_TransID & 0xff
   \   000007   7B..         MOV     R3,#(ZDP_TransID >> 8) & 0xff
   \   000009   12....       LCALL   ??fillAndSend?relay  ; Banked call to: fillAndSend
   \   00000C   7402         MOV     A,#0x2
   \   00000E   12....       LCALL   ?DEALLOC_XSTACK8
   \   000011                REQUIRE ??Subroutine87_0
   \   000011                ; // Fall through to label ??Subroutine87_0

   \                                 In  segment BANKED_CODE, align 1, keep-with-next
   \                     ??Subroutine87_0:
   \   000000   7409         MOV     A,#0x9
   \   000002   02....       LJMP    ??Subroutine94_0 & 0xFFFF

   \                                 In  segment BANKED_CODE, align 1, keep-with-next
   \                     ??Subroutine124_0:
   \   000000   90....       MOV     DPTR,#ZDP_TmpBuf
   \   000003                REQUIRE ??Subroutine125_0
   \   000003                ; // Fall through to label ??Subroutine125_0
    368          
    369          /*********************************************************************
    370           * @fn          ZDP_MatchDescReq
    371           *
    372           * @brief       This builds and send a Match_Desc_req message.  This
    373           *              function sends a broadcast or unicast message
    374           *              requesting the list of endpoint/interfaces that
    375           *              match profile ID and cluster IDs.
    376           *
    377           * @param       dstAddr - destination address
    378           * @param       nwkAddr - network address of interest
    379           * @param       ProfileID - Profile ID
    380           * @param       NumInClusters - number of input clusters
    381           * @param       InClusterList - input cluster ID list
    382           * @param       NumOutClusters - number of output clusters
    383           * @param       OutClusterList - output cluster ID list
    384           * @param       SecurityEnable - Security Options
    385           *
    386           * @return      afStatus_t
    387           */

   \                                 In  segment BANKED_CODE, align 1, keep-with-next
    388          afStatus_t ZDP_MatchDescReq( zAddrType_t *dstAddr, uint16 nwkAddr,
   \                     ZDP_MatchDescReq:
    389                                          uint16 ProfileID,
    390                                          byte NumInClusters, cId_t *InClusterList,
    391                                          byte NumOutClusters, cId_t *OutClusterList,
    392                                          byte SecurityEnable )
    393          {
   \   000000                REQUIRE ?V0
   \   000000                REQUIRE ?V1
   \   000000                REQUIRE ?V2
   \   000000                REQUIRE ?V3
   \   000000                REQUIRE ?V4
   \   000000                REQUIRE ?V5
   \   000000   74F2         MOV     A,#-0xe
   \   000002   12....       LCALL   ?BANKED_ENTER_XDATA
   \   000005                ; Saved register size: 14
   \   000005                ; Auto size: 0
   \   000005   12....       LCALL   ?Subroutine52 & 0xFFFF
    394            uint8 *pBuf = ZDP_TmpBuf;
   \                     ??CrossCallReturnLabel_235:
   \   000008   7412         MOV     A,#0x12
   \   00000A   12....       LCALL   ?XSTACK_DISP0_8
   \   00000D   E0           MOVX    A,@DPTR
   \   00000E   F5..         MOV     ?V0,A
    395            // nwkAddr+ProfileID+NumInClusters+NumOutClusters.
    396            byte i, len = 2 + 2 + 1 + 1;  // nwkAddr+ProfileID+NumInClusters+NumOutClusters.
    397          
    398            (void)SecurityEnable;  // Intentionally unreferenced parameter
    399          
    400            len += (NumInClusters + NumOutClusters) * sizeof(uint16);
   \   000010   EE           MOV     A,R6
   \   000011   25..         ADD     A,?V0
   \   000013   C3           CLR     C
   \   000014   33           RLC     A
   \   000015   2406         ADD     A,#0x6
   \   000017   FF           MOV     R7,A
    401          
    402            if ( len >= ZDP_BUF_SZ-1 )
   \   000018   C3           CLR     C
   \   000019   944F         SUBB    A,#0x4f
   \   00001B   4005         JC      ??ZDP_MatchDescReq_0
    403            {
    404              return afStatus_MEM_FAIL;
   \   00001D   7910         MOV     R1,#0x10
   \   00001F   02....       LJMP    ??ZDP_MatchDescReq_1 & 0xFFFF
    405            }
    406          
    407            // The spec changed in Zigbee 2007 (2.4.3.1.7.1) to not allow sending
    408            // this command to 0xFFFF.  So, here we will filter this and replace 
    409            // with 0xFFFD to only send to devices with RX ON.  This includes the 
    410            // network address of interest.
    411            if ( ((dstAddr->addrMode == AddrBroadcast) || (dstAddr->addrMode == Addr16Bit))
    412                && (dstAddr->addr.shortAddr == NWK_BROADCAST_SHORTADDR_DEVALL) )
   \                     ??ZDP_MatchDescReq_0:
   \   000022   8A82         MOV     DPL,R2
   \   000024   8B83         MOV     DPH,R3
   \   000026   A3           INC     DPTR
   \   000027   A3           INC     DPTR
   \   000028   A3           INC     DPTR
   \   000029   A3           INC     DPTR
   \   00002A   A3           INC     DPTR
   \   00002B   A3           INC     DPTR
   \   00002C   A3           INC     DPTR
   \   00002D   A3           INC     DPTR
   \   00002E   E0           MOVX    A,@DPTR
   \   00002F   640F         XRL     A,#0xf
   \   000031   6011         JZ      ??ZDP_MatchDescReq_2
   \   000033   8A82         MOV     DPL,R2
   \   000035   8B83         MOV     DPH,R3
   \   000037   A3           INC     DPTR
   \   000038   A3           INC     DPTR
   \   000039   A3           INC     DPTR
   \   00003A   A3           INC     DPTR
   \   00003B   A3           INC     DPTR
   \   00003C   A3           INC     DPTR
   \   00003D   A3           INC     DPTR
   \   00003E   A3           INC     DPTR
   \   00003F   E0           MOVX    A,@DPTR
   \   000040   6402         XRL     A,#0x2
   \   000042   7018         JNZ     ??ZDP_MatchDescReq_3
   \                     ??ZDP_MatchDescReq_2:
   \   000044   8A82         MOV     DPL,R2
   \   000046   8B83         MOV     DPH,R3
   \   000048   E0           MOVX    A,@DPTR
   \   000049   F4           CPL     A
   \   00004A   7003         JNZ     ??ZDP_MatchDescReq_4
   \   00004C   A3           INC     DPTR
   \   00004D   E0           MOVX    A,@DPTR
   \   00004E   F4           CPL     A
   \                     ??ZDP_MatchDescReq_4:
   \   00004F   700B         JNZ     ??ZDP_MatchDescReq_3
    413            {
    414              dstAddr->addr.shortAddr = NWK_BROADCAST_SHORTADDR_DEVRXON;
   \   000051   8A82         MOV     DPL,R2
   \   000053   8B83         MOV     DPH,R3
   \   000055   74FD         MOV     A,#-0x3
   \   000057   F0           MOVX    @DPTR,A
   \   000058   A3           INC     DPTR
   \   000059   74FF         MOV     A,#-0x1
   \   00005B   F0           MOVX    @DPTR,A
    415            }
    416            if ( nwkAddr == NWK_BROADCAST_SHORTADDR_DEVALL )
   \                     ??ZDP_MatchDescReq_3:
   \   00005C   74FF         MOV     A,#-0x1
   \   00005E   6C           XRL     A,R4
   \   00005F   7003         JNZ     ??ZDP_MatchDescReq_5
   \   000061   74FF         MOV     A,#-0x1
   \   000063   6D           XRL     A,R5
   \                     ??ZDP_MatchDescReq_5:
   \   000064   7004         JNZ     ??ZDP_MatchDescReq_6
    417            {
    418              nwkAddr = NWK_BROADCAST_SHORTADDR_DEVRXON;
   \   000066   7CFD         MOV     R4,#-0x3
   \   000068   7DFF         MOV     R5,#-0x1
    419            }
    420            
    421            *pBuf++ = LO_UINT16( nwkAddr );   // NWKAddrOfInterest
   \                     ??ZDP_MatchDescReq_6:
   \   00006A   EC           MOV     A,R4
   \   00006B   8882         MOV     DPL,R0
   \   00006D   8983         MOV     DPH,R1
   \   00006F   F0           MOVX    @DPTR,A
   \   000070   A3           INC     DPTR
    422            *pBuf++ = HI_UINT16( nwkAddr );
   \   000071   ED           MOV     A,R5
   \   000072   12....       LCALL   ??Subroutine114_0 & 0xFFFF
   \                     ??CrossCallReturnLabel_192:
   \   000075   740E         MOV     A,#0xe
   \   000077   12....       LCALL   ?XSTACK_DISP0_8
   \   00007A   12....       LCALL   ?Subroutine42 & 0xFFFF
    423          
    424            *pBuf++ = LO_UINT16( ProfileID );   // Profile ID
    425            *pBuf++ = HI_UINT16( ProfileID );
   \                     ??CrossCallReturnLabel_57:
   \   00007D   A3           INC     DPTR
    426          
    427            *pBuf++ = NumInClusters; // Input cluster list
   \   00007E   EE           MOV     A,R6
   \   00007F   F0           MOVX    @DPTR,A
   \   000080   A3           INC     DPTR
   \   000081   08           INC     R0
   \   000082   08           INC     R0
   \   000083   08           INC     R0
   \   000084   A983         MOV     R1,DPH
    428            if ( NumInClusters )
   \   000086   6011         JZ      ??ZDP_MatchDescReq_7
    429            {
    430              for (i=0; i<NumInClusters; ++i)  {
   \   000088   75..00       MOV     ?V1,#0x0
   \   00008B   7410         MOV     A,#0x10
   \   00008D   12....       LCALL   ?XSTACK_DISP0_8
   \   000090   12....       LCALL   ?Subroutine47 & 0xFFFF
    431                *pBuf++ = LO_UINT16( InClusterList[i] );
   \                     ??CrossCallReturnLabel_65:
   \   000093   12....       LCALL   ?Subroutine9 & 0xFFFF
    432                *pBuf++ = HI_UINT16( InClusterList[i] );
    433              }
    434            }
   \                     ??CrossCallReturnLabel_2:
   \   000096   9E           SUBB    A,R6
   \   000097   40FA         JC      ??CrossCallReturnLabel_65
    435          
    436            *pBuf++ = NumOutClusters; // Output cluster list
   \                     ??ZDP_MatchDescReq_7:
   \   000099   8882         MOV     DPL,R0
   \   00009B   8983         MOV     DPH,R1
   \   00009D   E5..         MOV     A,?V0
   \   00009F   12....       LCALL   ??Subroutine114_0 & 0xFFFF
    437            if ( NumOutClusters )
   \                     ??CrossCallReturnLabel_193:
   \   0000A2   6012         JZ      ??ZDP_MatchDescReq_8
    438            {
    439              for (i=0; i<NumOutClusters; ++i)  {
   \   0000A4   75..00       MOV     ?V1,#0x0
   \   0000A7   7413         MOV     A,#0x13
   \   0000A9   12....       LCALL   ?XSTACK_DISP0_8
   \   0000AC   12....       LCALL   ?Subroutine47 & 0xFFFF
    440                *pBuf++ = LO_UINT16( OutClusterList[i] );
   \                     ??CrossCallReturnLabel_66:
   \   0000AF   12....       LCALL   ?Subroutine9 & 0xFFFF
    441                *pBuf++ = HI_UINT16( OutClusterList[i] );
    442              }
    443            }
   \                     ??CrossCallReturnLabel_3:
   \   0000B2   95..         SUBB    A,?V0
   \   0000B4   40F9         JC      ??CrossCallReturnLabel_66
    444          
    445            return fillAndSend( &ZDP_TransID, dstAddr, Match_Desc_req, len );
   \                     ??ZDP_MatchDescReq_8:
   \   0000B6                ; Setup parameters for call to function fillAndSend
   \   0000B6   75..06       MOV     ?V0,#0x6
   \   0000B9   75..00       MOV     ?V1,#0x0
   \   0000BC   78..         MOV     R0,#?V0
   \   0000BE   12....       LCALL   ?PUSH_XSTACK_I_TWO
   \   0000C1   EF           MOV     A,R7
   \   0000C2   F9           MOV     R1,A
   \   0000C3   EA           MOV     A,R2
   \   0000C4   FC           MOV     R4,A
   \   0000C5   EB           MOV     A,R3
   \   0000C6   FD           MOV     R5,A
   \   0000C7   7A..         MOV     R2,#ZDP_TransID & 0xff
   \   0000C9   7B..         MOV     R3,#(ZDP_TransID >> 8) & 0xff
   \   0000CB   12....       LCALL   ??fillAndSend?relay  ; Banked call to: fillAndSend
   \   0000CE   7402         MOV     A,#0x2
   \   0000D0   12....       LCALL   ?DEALLOC_XSTACK8
   \                     ??ZDP_MatchDescReq_1:
   \   0000D3   02....       LJMP    ??Subroutine107_0 & 0xFFFF
    446          }

   \                                 In  segment BANKED_CODE, align 1, keep-with-next
   \                     ?Subroutine9:
   \   000000   E5..         MOV     A,?V1
   \   000002   12....       LCALL   ?Subroutine80 & 0xFFFF
   \                     ??CrossCallReturnLabel_110:
   \   000005   25..         ADD     A,?V2
   \   000007   F5..         MOV     ?V2,A
   \   000009   ED           MOV     A,R5
   \   00000A   35..         ADDC    A,?V3
   \   00000C   F5..         MOV     ?V3,A
   \   00000E   85..82       MOV     DPL,?V2
   \   000011   12....       LCALL   ?Subroutine71 & 0xFFFF
   \                     ??CrossCallReturnLabel_202:
   \   000014   12....       LCALL   ?Subroutine70 & 0xFFFF
   \                     ??CrossCallReturnLabel_144:
   \   000017   05..         INC     ?V1
   \   000019   E5..         MOV     A,?V1
   \   00001B   C3           CLR     C
   \   00001C   22           RET

   \                                 In  segment BANKED_CODE, align 1, keep-with-next
   \                     ?Subroutine71:
   \   000000   F583         MOV     DPH,A
   \   000002   E0           MOVX    A,@DPTR
   \   000003   8882         MOV     DPL,R0
   \   000005   8983         MOV     DPH,R1
   \   000007                REQUIRE ??Subroutine88_0
   \   000007                ; // Fall through to label ??Subroutine88_0

   \                                 In  segment BANKED_CODE, align 1, keep-with-next
   \                     ??Subroutine88_0:
   \   000000   F0           MOVX    @DPTR,A
   \   000001   A3           INC     DPTR
   \   000002   A882         MOV     R0,DPL
   \   000004   A983         MOV     R1,DPH
   \   000006   22           RET

   \                                 In  segment BANKED_CODE, align 1, keep-with-next
   \                     ?Subroutine80:
   \   000000   25E0         ADD     A,0xE0 /* A   */
   \   000002   F5..         MOV     ?V2,A
   \   000004   E4           CLR     A
   \   000005   33           RLC     A
   \   000006   F5..         MOV     ?V3,A
   \   000008   EC           MOV     A,R4
   \   000009   22           RET

   \                                 In  segment BANKED_CODE, align 1, keep-with-next
   \                     ?Subroutine70:
   \   000000   85..82       MOV     DPL,?V2
   \   000003   85..83       MOV     DPH,?V3
   \   000006                REQUIRE ??Subroutine96_0
   \   000006                ; // Fall through to label ??Subroutine96_0

   \                                 In  segment BANKED_CODE, align 1, keep-with-next
   \                     ??Subroutine96_0:
   \   000000   A3           INC     DPTR
   \   000001                REQUIRE ??Subroutine97_0
   \   000001                ; // Fall through to label ??Subroutine97_0

   \                                 In  segment BANKED_CODE, align 1, keep-with-next
   \                     ??Subroutine97_0:
   \   000000   E0           MOVX    A,@DPTR
   \   000001                REQUIRE ??Subroutine98_0
   \   000001                ; // Fall through to label ??Subroutine98_0

   \                                 In  segment BANKED_CODE, align 1, keep-with-next
   \                     ??Subroutine98_0:
   \   000000   8882         MOV     DPL,R0
   \   000002   8983         MOV     DPH,R1
   \   000004   F0           MOVX    @DPTR,A
   \   000005   A3           INC     DPTR
   \   000006   08           INC     R0
   \   000007   A983         MOV     R1,DPH
   \   000009   22           RET

   \                                 In  segment BANKED_CODE, align 1, keep-with-next
   \                     ?Subroutine42:
   \   000000   E0           MOVX    A,@DPTR
   \   000001   FC           MOV     R4,A
   \   000002   A3           INC     DPTR
   \   000003   E0           MOVX    A,@DPTR
   \   000004   FD           MOV     R5,A
   \   000005   EC           MOV     A,R4
   \   000006   8882         MOV     DPL,R0
   \   000008   8983         MOV     DPH,R1
   \   00000A   F0           MOVX    @DPTR,A
   \   00000B   A3           INC     DPTR
   \   00000C   ED           MOV     A,R5
   \   00000D   F0           MOVX    @DPTR,A
   \   00000E   22           RET

   \                                 In  segment BANKED_CODE, align 1, keep-with-next
   \                     ?Subroutine47:
   \   000000   E0           MOVX    A,@DPTR
   \   000001   FC           MOV     R4,A
   \   000002   A3           INC     DPTR
   \   000003   E0           MOVX    A,@DPTR
   \   000004   FD           MOV     R5,A
   \   000005   22           RET

   \                                 In  segment BANKED_CODE, align 1, keep-with-next
   \                     ??Subroutine114_0:
   \   000000   12....       LCALL   ??Subroutine88_0 & 0xFFFF
   \                     ??CrossCallReturnLabel_203:
   \   000003   22           RET

   \                                 In  segment BANKED_CODE, align 1, keep-with-next
   \                     ?Subroutine52:
   \   000000   E9           MOV     A,R1
   \   000001                REQUIRE ??Subroutine123_0
   \   000001                ; // Fall through to label ??Subroutine123_0

   \                                 In  segment BANKED_CODE, align 1, keep-with-next
   \                     ??Subroutine123_0:
   \   000000   FE           MOV     R6,A
   \   000001                REQUIRE ??Subroutine124_0
   \   000001                ; // Fall through to label ??Subroutine124_0
    447          
    448          /*********************************************************************
    449           * @fn          ZDP_SimpleDescReq
    450           *
    451           * @brief       This builds and send a NWK_Simple_Desc_req
    452           *              message.  This function sends unicast message to the
    453           *              destination device.
    454           *
    455           * @param       dstAddr - destination address
    456           * @param       nwkAddr - 16 bit address
    457           * @param       epIntf - endpoint/interface
    458           * @param       SecurityEnable - Security Options
    459           *
    460           * @return      afStatus_t
    461           */

   \                                 In  segment BANKED_CODE, align 1, keep-with-next
    462          afStatus_t ZDP_SimpleDescReq( zAddrType_t *dstAddr, uint16 nwkAddr,
   \                     ZDP_SimpleDescReq:
    463                                              byte endPoint, byte SecurityEnable )
    464          
    465          {
   \   000000                REQUIRE ?V0
   \   000000                REQUIRE ?V1
   \   000000   74F6         MOV     A,#-0xa
   \   000002   12....       LCALL   ?BANKED_ENTER_XDATA
   \   000005                ; Saved register size: 10
   \   000005                ; Auto size: 0
    466            (void)SecurityEnable;  // Intentionally unreferenced parameter
    467          
    468            ZDP_TmpBuf[0] = LO_UINT16( nwkAddr );
   \   000005   12....       LCALL   ?Subroutine21 & 0xFFFF
    469            ZDP_TmpBuf[1] = HI_UINT16( nwkAddr );
   \                     ??CrossCallReturnLabel_21:
   \   000008   12....       LCALL   ?Subroutine19 & 0xFFFF
    470            ZDP_TmpBuf[2] = endPoint;
    471          
    472            return fillAndSend( &ZDP_TransID, dstAddr, Simple_Desc_req, 3 );
   \                     ??CrossCallReturnLabel_16:
   \   00000B                ; Setup parameters for call to function fillAndSend
   \   00000B   75..04       MOV     ?V0,#0x4
   \   00000E   75..00       MOV     ?V1,#0x0
   \   000011   78..         MOV     R0,#?V0
   \   000013   12....       LCALL   ?PUSH_XSTACK_I_TWO
   \   000016   7903         MOV     R1,#0x3
   \   000018   02....       LJMP    ??Subroutine92_0 & 0xFFFF
    473          }

   \                                 In  segment BANKED_CODE, align 1, keep-with-next
   \                     ?Subroutine19:
   \   000000   12....       LCALL   ?Subroutine65 & 0xFFFF
   \                     ??CrossCallReturnLabel_98:
   \   000003   A3           INC     DPTR
   \   000004   E9           MOV     A,R1
   \   000005   F0           MOVX    @DPTR,A
   \   000006   22           RET
    474          
    475          /*********************************************************************
    476           * @fn          ZDP_UserDescSet
    477           *
    478           * @brief       This builds and send a User_Desc_set message to set
    479           *              the user descriptor.  This function sends unicast
    480           *              message to the destination device.
    481           *
    482           * @param       dstAddr - destination address
    483           * @param       nwkAddr - 16 bit address
    484           * @param       UserDescriptor - user descriptor
    485           * @param       SecurityEnable - Security Options
    486           *
    487           * @return      afStatus_t
    488           */

   \                                 In  segment BANKED_CODE, align 1, keep-with-next
    489          afStatus_t ZDP_UserDescSet( zAddrType_t *dstAddr, uint16 nwkAddr,
   \                     ZDP_UserDescSet:
    490                                    UserDescriptorFormat_t *UserDescriptor,
    491                                    byte SecurityEnable )
    492          {
   \   000000                REQUIRE ?V0
   \   000000                REQUIRE ?V1
   \   000000                REQUIRE ?V2
   \   000000                REQUIRE ?V3
   \   000000                REQUIRE ?V4
   \   000000                REQUIRE ?V5
   \   000000                REQUIRE ?V6
   \   000000                REQUIRE ?V7
   \   000000                REQUIRE ?V8
   \   000000                REQUIRE ?V9
   \   000000                REQUIRE ?V10
   \   000000   74ED         MOV     A,#-0x13
   \   000002   12....       LCALL   ?BANKED_ENTER_XDATA
   \   000005                ; Saved register size: 19
   \   000005                ; Auto size: 0
   \   000005   8A..         MOV     ?V0,R2
   \   000007   8B..         MOV     ?V1,R3
    493            uint8 *pBuf = ZDP_TmpBuf;
   \   000009   12....       LCALL   ?Subroutine39 & 0xFFFF
   \                     ??CrossCallReturnLabel_122:
   \   00000C   7413         MOV     A,#0x13
   \   00000E   12....       LCALL   ?XSTACK_DISP0_8
   \   000011   12....       LCALL   ??Subroutine125_0 & 0xFFFF
   \                     ??CrossCallReturnLabel_240:
   \   000014   E8           MOV     A,R0
   \   000015   FA           MOV     R2,A
   \   000016   E9           MOV     A,R1
   \   000017   FB           MOV     R3,A
    494            byte len = (UserDescriptor->len < AF_MAX_USER_DESCRIPTOR_LEN) ?
    495                        UserDescriptor->len : AF_MAX_USER_DESCRIPTOR_LEN;
   \   000018   8A82         MOV     DPL,R2
   \   00001A   8B83         MOV     DPH,R3
   \   00001C   E0           MOVX    A,@DPTR
   \   00001D   C3           CLR     C
   \   00001E   9410         SUBB    A,#0x10
   \   000020   5005         JNC     ??ZDP_UserDescSet_0
   \   000022   E0           MOVX    A,@DPTR
   \   000023   F5..         MOV     ?V6,A
   \   000025   8003         SJMP    ??ZDP_UserDescSet_1
   \                     ??ZDP_UserDescSet_0:
   \   000027   75..10       MOV     ?V6,#0x10
    496            byte addrLen = 2;
    497          
    498            (void)SecurityEnable;  // Intentionally unreferenced parameter
    499          
    500            *pBuf++ = LO_UINT16( nwkAddr );
   \                     ??ZDP_UserDescSet_1:
   \   00002A   EC           MOV     A,R4
   \   00002B   85..82       MOV     DPL,?V2
   \   00002E   85..83       MOV     DPH,?V3
   \   000031   F0           MOVX    @DPTR,A
   \   000032   A3           INC     DPTR
    501            *pBuf++ = HI_UINT16( nwkAddr );
   \   000033   ED           MOV     A,R5
   \   000034   F0           MOVX    @DPTR,A
   \   000035   A3           INC     DPTR
    502          
    503            *pBuf++ = len;
   \   000036   E5..         MOV     A,?V6
   \   000038   F0           MOVX    @DPTR,A
   \   000039   A3           INC     DPTR
   \   00003A   8582..       MOV     ?V2,DPL
   \   00003D   8583..       MOV     ?V3,DPH
    504            addrLen = 3;
    505          
    506            pBuf = osal_memcpy( pBuf, UserDescriptor->desc, len );
    507            osal_memset( pBuf, AF_USER_DESCRIPTOR_FILL, AF_MAX_USER_DESCRIPTOR_LEN-len );
   \   000040                ; Setup parameters for call to function osal_memset
   \   000040   F5..         MOV     ?V4,A
   \   000042   7410         MOV     A,#0x10
   \   000044   C3           CLR     C
   \   000045   95..         SUBB    A,?V4
   \   000047   FC           MOV     R4,A
   \   000048   95E0         SUBB    A,0xE0 /* A   */
   \   00004A   FD           MOV     R5,A
   \   00004B   7920         MOV     R1,#0x20
   \   00004D   E9           MOV     A,R1
   \   00004E   C0E0         PUSH    A
   \   000050   EC           MOV     A,R4
   \   000051   FE           MOV     R6,A
   \   000052   ED           MOV     A,R5
   \   000053   FF           MOV     R7,A
   \   000054                ; Setup parameters for call to function osal_memcpy
   \   000054   8A82         MOV     DPL,R2
   \   000056   8B83         MOV     DPH,R3
   \   000058   A3           INC     DPTR
   \   000059   A982         MOV     R1,DPL
   \   00005B   AA83         MOV     R2,DPH
   \   00005D   89..         MOV     ?V8,R1
   \   00005F   8A..         MOV     ?V9,R2
   \   000061   75..00       MOV     ?V10,#0x0
   \   000064   78..         MOV     R0,#?V8
   \   000066   12....       LCALL   ?PUSH_XSTACK_I_THREE
   \   000069   AC..         MOV     R4,?V6
   \   00006B   7D00         MOV     R5,#0x0
   \   00006D   AA..         MOV     R2,?V2
   \   00006F   AB..         MOV     R3,?V3
   \   000071   12....       LCALL   ??osal_memcpy?relay  ; Banked call to: osal_memcpy
   \   000074   7403         MOV     A,#0x3
   \   000076   12....       LCALL   ?DEALLOC_XSTACK8
   \   000079   EE           MOV     A,R6
   \   00007A   FC           MOV     R4,A
   \   00007B   EF           MOV     A,R7
   \   00007C   FD           MOV     R5,A
   \   00007D   D0E0         POP     A
   \   00007F   F9           MOV     R1,A
   \   000080   12....       LCALL   ??osal_memset?relay  ; Banked call to: osal_memset
    508          
    509            return fillAndSend( &ZDP_TransID, dstAddr, User_Desc_set, (AF_MAX_USER_DESCRIPTOR_LEN + addrLen) );
   \   000083                ; Setup parameters for call to function fillAndSend
   \   000083   75..14       MOV     ?V2,#0x14
   \   000086   75..00       MOV     ?V3,#0x0
   \   000089   78..         MOV     R0,#?V2
   \   00008B   12....       LCALL   ?PUSH_XSTACK_I_TWO
   \   00008E   7913         MOV     R1,#0x13
   \   000090   AC..         MOV     R4,?V0
   \   000092   AD..         MOV     R5,?V1
   \   000094   7A..         MOV     R2,#ZDP_TransID & 0xff
   \   000096   7B..         MOV     R3,#(ZDP_TransID >> 8) & 0xff
   \   000098   12....       LCALL   ??fillAndSend?relay  ; Banked call to: fillAndSend
   \   00009B   7402         MOV     A,#0x2
   \   00009D   12....       LCALL   ?DEALLOC_XSTACK8
   \   0000A0   7F0B         MOV     R7,#0xb
   \   0000A2   02....       LJMP    ?BANKED_LEAVE_XDATA
    510          }
    511          
    512          /*********************************************************************
    513           * @fn          ZDP_ServerDiscReq
    514           *
    515           * @brief       Build and send a Server_Discovery_req request message.
    516           *
    517           * @param       serverMask - 16-bit bit-mask of server services being sought.
    518           * @param       SecurityEnable - Security Options
    519           *
    520           * @return      afStatus_t
    521           */

   \                                 In  segment BANKED_CODE, align 1, keep-with-next
    522          afStatus_t ZDP_ServerDiscReq( uint16 serverMask, byte SecurityEnable )
   \                     ZDP_ServerDiscReq:
    523          {
   \   000000                REQUIRE ?V0
   \   000000                REQUIRE ?V1
   \   000000   74F6         MOV     A,#-0xa
   \   000002   12....       LCALL   ?BANKED_ENTER_XDATA
   \   000005                ; Saved register size: 10
   \   000005                ; Auto size: 9
   \   000005   74F7         MOV     A,#-0x9
   \   000007   12....       LCALL   ?ALLOC_XSTACK8
   \   00000A   12....       LCALL   ?Subroutine52 & 0xFFFF
    524            uint8 *pBuf = ZDP_TmpBuf;
    525            zAddrType_t dstAddr;
    526          
    527            dstAddr.addrMode = AddrBroadcast;
   \                     ??CrossCallReturnLabel_236:
   \   00000D   7408         MOV     A,#0x8
   \   00000F   12....       LCALL   ?XSTACK_DISP0_8
   \   000012   12....       LCALL   ?Subroutine22 & 0xFFFF
    528            dstAddr.addr.shortAddr = NWK_BROADCAST_SHORTADDR_DEVRXON;
    529          
    530            *pBuf++ = LO_UINT16( serverMask );
   \                     ??CrossCallReturnLabel_22:
   \   000015   EA           MOV     A,R2
   \   000016   8882         MOV     DPL,R0
   \   000018   8983         MOV     DPH,R1
   \   00001A   F0           MOVX    @DPTR,A
   \   00001B   A3           INC     DPTR
    531            *pBuf = HI_UINT16( serverMask );
   \   00001C   EB           MOV     A,R3
   \   00001D   F0           MOVX    @DPTR,A
    532          
    533            FillAndSendTxOptions( &ZDP_TransID, &dstAddr, Server_Discovery_req, 2,
    534                       ((SecurityEnable) ? AF_EN_SECURITY : AF_TX_OPTIONS_NONE) );
   \   00001E   EE           MOV     A,R6
   \   00001F   90....       MOV     DPTR,#ZDP_TxOptions
   \   000022   6004         JZ      ??ZDP_ServerDiscReq_0
   \   000024   7440         MOV     A,#0x40
   \   000026   8001         SJMP    ??ZDP_ServerDiscReq_1
   \                     ??ZDP_ServerDiscReq_0:
   \   000028   E4           CLR     A
   \                     ??ZDP_ServerDiscReq_1:
   \   000029   F0           MOVX    @DPTR,A
   \   00002A                ; Setup parameters for call to function fillAndSend
   \   00002A   75..15       MOV     ?V0,#0x15
   \   00002D   75..00       MOV     ?V1,#0x0
   \   000030   78..         MOV     R0,#?V0
   \   000032   12....       LCALL   ?PUSH_XSTACK_I_TWO
   \   000035   7902         MOV     R1,#0x2
   \   000037   E9           MOV     A,R1
   \   000038   12....       LCALL   ?XSTACK_DISP102_8
   \   00003B   7A..         MOV     R2,#ZDP_TransID & 0xff
   \   00003D   7B..         MOV     R3,#(ZDP_TransID >> 8) & 0xff
   \   00003F   12....       LCALL   ??fillAndSend?relay  ; Banked call to: fillAndSend
   \   000042   7402         MOV     A,#0x2
   \   000044   12....       LCALL   ?DEALLOC_XSTACK8
   \   000047   90....       MOV     DPTR,#ZDP_TxOptions
   \   00004A   E4           CLR     A
   \   00004B   F0           MOVX    @DPTR,A
   \   00004C   02....       LJMP    ??Subroutine87_0 & 0xFFFF
    535          }

   \                                 In  segment BANKED_CODE, align 1, keep-with-next
   \                     ?Subroutine22:
   \   000000   12....       LCALL   ?Subroutine68 & 0xFFFF
   \                     ??CrossCallReturnLabel_103:
   \   000003   F0           MOVX    @DPTR,A
   \   000004   22           RET
    536          
    537          /*********************************************************************
    538           * @fn          ZDP_DeviceAnnce
    539           *
    540           * @brief       This builds and send a Device_Annce message.  This
    541           *              function sends a broadcast message.
    542           *
    543           * @param       nwkAddr - 16 bit address of the device
    544           * @param       IEEEAddr - 64 bit address of the device
    545           * @param       capabilities - device capabilities.  This field is only
    546           *                 sent for v1.1 networks.
    547           * @param       SecurityEnable - Security Options
    548           *
    549           * @return      afStatus_t
    550           */

   \                                 In  segment BANKED_CODE, align 1, keep-with-next
    551          afStatus_t ZDP_DeviceAnnce( uint16 nwkAddr, uint8 *IEEEAddr,
   \                     ZDP_DeviceAnnce:
    552                                        byte capabilities, byte SecurityEnable )
    553          {
   \   000000                REQUIRE ?V0
   \   000000                REQUIRE ?V1
   \   000000   74F6         MOV     A,#-0xa
   \   000002   12....       LCALL   ?BANKED_ENTER_XDATA
   \   000005                ; Saved register size: 10
   \   000005                ; Auto size: 9
   \   000005   74F7         MOV     A,#-0x9
   \   000007   12....       LCALL   ?ALLOC_XSTACK8
   \   00000A   E9           MOV     A,R1
   \   00000B   FE           MOV     R6,A
    554            zAddrType_t dstAddr;
    555            uint8 len;
    556          
    557            (void)SecurityEnable;  // Intentionally unreferenced parameter
    558          
    559            dstAddr.addrMode = (afAddrMode_t)AddrBroadcast;
   \   00000C   7408         MOV     A,#0x8
   \   00000E   12....       LCALL   ?XSTACK_DISP0_8
   \   000011   12....       LCALL   ?Subroutine22 & 0xFFFF
    560            dstAddr.addr.shortAddr = NWK_BROADCAST_SHORTADDR_DEVRXON;
    561          
    562            ZDP_TmpBuf[0] = LO_UINT16( nwkAddr );
   \                     ??CrossCallReturnLabel_23:
   \   000014   12....       LCALL   ?Subroutine43 & 0xFFFF
   \                     ??CrossCallReturnLabel_147:
   \   000017   EA           MOV     A,R2
   \   000018   12....       LCALL   ?Subroutine23 & 0xFFFF
    563            ZDP_TmpBuf[1] = HI_UINT16( nwkAddr );
   \                     ??CrossCallReturnLabel_24:
   \   00001B   EB           MOV     A,R3
   \   00001C   F0           MOVX    @DPTR,A
    564            osal_cpyExtAddr( &ZDP_TmpBuf[2], IEEEAddr );
   \   00001D                ; Setup parameters for call to function sAddrExtCpy
   \   00001D   90....       MOV     DPTR,#ZDP_TmpBuf
   \   000020   E0           MOVX    A,@DPTR
   \   000021   2402         ADD     A,#0x2
   \   000023   FA           MOV     R2,A
   \   000024   A3           INC     DPTR
   \   000025   E0           MOVX    A,@DPTR
   \   000026   3400         ADDC    A,#0x0
   \   000028   FB           MOV     R3,A
   \   000029   12....       LCALL   ??sAddrExtCpy?relay  ; Banked call to: sAddrExtCpy
    565            len = 2 + Z_EXTADDR_LEN;
    566          
    567            ZDP_TmpBuf[10] = capabilities;
   \   00002C   12....       LCALL   ?Subroutine85 & 0xFFFF
   \                     ??CrossCallReturnLabel_259:
   \   00002F   C8           XCH     A,R0
   \   000030   240A         ADD     A,#0xa
   \   000032   F582         MOV     DPL,A
   \   000034   E4           CLR     A
   \   000035   38           ADDC    A,R0
   \   000036   F583         MOV     DPH,A
   \   000038   EE           MOV     A,R6
   \   000039   F0           MOVX    @DPTR,A
    568            len++;
    569          
    570            return fillAndSend( &ZDP_TransID, &dstAddr, Device_annce, len );
   \   00003A                ; Setup parameters for call to function fillAndSend
   \   00003A   75..13       MOV     ?V0,#0x13
   \   00003D   75..00       MOV     ?V1,#0x0
   \   000040   78..         MOV     R0,#?V0
   \   000042   12....       LCALL   ?PUSH_XSTACK_I_TWO
   \   000045   790B         MOV     R1,#0xb
   \   000047   02....       LJMP    ?Subroutine7 & 0xFFFF
    571          }

   \                                 In  segment BANKED_CODE, align 1, keep-with-next
   \                     ?Subroutine43:
   \   000000   90....       MOV     DPTR,#ZDP_TmpBuf
   \   000003                REQUIRE ??Subroutine99_0
   \   000003                ; // Fall through to label ??Subroutine99_0

   \                                 In  segment BANKED_CODE, align 1, keep-with-next
   \                     ??Subroutine99_0:
   \   000000   12....       LCALL   ?Subroutine79 & 0xFFFF
   \                     ??CrossCallReturnLabel_153:
   \   000003   22           RET

   \                                 In  segment BANKED_CODE, align 1, keep-with-next
   \                     ?Subroutine23:
   \   000000   12....       LCALL   ?Subroutine65 & 0xFFFF
   \                     ??CrossCallReturnLabel_99:
   \   000003   22           RET

   \                                 In  segment BANKED_CODE, align 1, keep-with-next
   \                     ?Subroutine85:
   \   000000   90....       MOV     DPTR,#ZDP_TmpBuf
   \   000003                REQUIRE ??Subroutine126_0
   \   000003                ; // Fall through to label ??Subroutine126_0
    572          
    573          /*********************************************************************
    574           * Address Responses
    575           */
    576          
    577          /*********************************************************************
    578           * @fn      zdpProcessAddrReq
    579           *
    580           * @brief   Process an incoming NWK_addr_req or IEEE_addr_req message and then
    581           *          build and send a corresponding NWK_addr_rsp or IEEE_addr_rsp msg.
    582           *
    583           * @param   inMsg - incoming message
    584           *
    585           * @return  none
    586           */

   \                                 In  segment BANKED_CODE, align 1, keep-with-next
    587          void zdpProcessAddrReq( zdoIncomingMsg_t *inMsg )
   \                     zdpProcessAddrReq:
    588          {
   \   000000                REQUIRE ?V0
   \   000000                REQUIRE ?V1
   \   000000                REQUIRE ?V2
   \   000000                REQUIRE ?V3
   \   000000                REQUIRE ?V4
   \   000000                REQUIRE ?V5
   \   000000                REQUIRE ?V6
   \   000000                REQUIRE ?V7
   \   000000                REQUIRE ?V8
   \   000000                REQUIRE ?V9
   \   000000   74EE         MOV     A,#-0x12
   \   000002   12....       LCALL   ?BANKED_ENTER_XDATA
   \   000005                ; Saved register size: 18
   \   000005                ; Auto size: 14
   \   000005   74F2         MOV     A,#-0xe
   \   000007   12....       LCALL   ?ALLOC_XSTACK8
   \   00000A   8A..         MOV     ?V4,R2
   \   00000C   8B..         MOV     ?V5,R3
    589            associated_devices_t *pAssoc;
    590            uint8 reqType;
    591            uint16 aoi = INVALID_NODE_ADDR;
   \   00000E   75..FE       MOV     ?V2,#-0x2
   \   000011   75..FF       MOV     ?V3,#-0x1
    592            uint8 *ieee = NULL;
   \   000014   75..00       MOV     ?V0,#0x0
   \   000017   75..00       MOV     ?V1,#0x0
    593          
    594            reqType = inMsg->asdu[(inMsg->clusterID == NWK_addr_req) ? Z_EXTADDR_LEN : sizeof( uint16 ) ];
   \   00001A   EA           MOV     A,R2
   \   00001B   12....       LCALL   ??Subroutine89_0 & 0xFFFF
   \                     ??CrossCallReturnLabel_126:
   \   00001E   7004         JNZ     ??zdpProcessAddrReq_0
   \   000020   7808         MOV     R0,#0x8
   \   000022   8002         SJMP    ??zdpProcessAddrReq_1
   \                     ??zdpProcessAddrReq_0:
   \   000024   7802         MOV     R0,#0x2
   \                     ??zdpProcessAddrReq_1:
   \   000026   EA           MOV     A,R2
   \   000027   12....       LCALL   ?Subroutine63 & 0xFFFF
   \                     ??CrossCallReturnLabel_93:
   \   00002A   FA           MOV     R2,A
   \   00002B   A3           INC     DPTR
   \   00002C   E0           MOVX    A,@DPTR
   \   00002D   3400         ADDC    A,#0x0
   \   00002F   8A82         MOV     DPL,R2
   \   000031   F583         MOV     DPH,A
   \   000033   E0           MOVX    A,@DPTR
   \   000034   F5..         MOV     ?V6,A
    595          
    596            if ( inMsg->clusterID == NWK_addr_req )
   \   000036   12....       LCALL   ?Subroutine59 & 0xFFFF
   \                     ??CrossCallReturnLabel_86:
   \   000039   49           ORL     A,R1
   \   00003A   7060         JNZ     ??zdpProcessAddrReq_2
    597          
    598            {
    599              ieee = inMsg->asdu;
   \   00003C   12....       LCALL   ?Subroutine64 & 0xFFFF
   \                     ??CrossCallReturnLabel_95:
   \   00003F   12....       LCALL   ??Subroutine122_0 & 0xFFFF
    600          
    601              if ( osal_ExtAddrEqual( saveExtAddr, ieee ) )
   \                     ??CrossCallReturnLabel_229:
   \   000042                ; Setup parameters for call to function sAddrExtCmp
   \   000042   AC..         MOV     R4,?V0
   \   000044   FD           MOV     R5,A
   \   000045   7A..         MOV     R2,#saveExtAddr & 0xff
   \   000047   7B..         MOV     R3,#(saveExtAddr >> 8) & 0xff
   \   000049   12....       LCALL   ??sAddrExtCmp?relay  ; Banked call to: sAddrExtCmp
   \   00004C   E9           MOV     A,R1
   \   00004D   6009         JZ      ??zdpProcessAddrReq_3
    602              {
    603                aoi = ZDAppNwkAddr.addr.shortAddr;
   \   00004F   90....       MOV     DPTR,#ZDAppNwkAddr
   \   000052   12....       LCALL   ??Subroutine86_0 & 0xFFFF
    604              }
   \                     ??CrossCallReturnLabel_116:
   \   000055   02....       LJMP    ??zdpProcessAddrReq_4 & 0xFFFF
    605              // Handle response for sleeping end devices
    606              else if ( (ZSTACK_ROUTER_BUILD)
    607                && (((pAssoc = AssocGetWithExt( ieee )) != NULL)
    608                       && (pAssoc->nodeRelation == CHILD_RFD)) )
   \                     ??zdpProcessAddrReq_3:
   \   000058   90....       MOV     DPTR,#zgDeviceLogicalType
   \   00005B   E0           MOVX    A,@DPTR
   \   00005C   6007         JZ      ??zdpProcessAddrReq_5
   \   00005E   6401         XRL     A,#0x1
   \   000060   6003         JZ      $+5
   \   000062   02....       LJMP    ??zdpProcessAddrReq_6 & 0xFFFF
   \                     ??zdpProcessAddrReq_5:
   \   000065                ; Setup parameters for call to function AssocGetWithExt
   \   000065   AA..         MOV     R2,?V0
   \   000067   AB..         MOV     R3,?V1
   \   000069   12....       LCALL   ??AssocGetWithExt?relay; Banked call to: AssocGetWithExt
   \   00006C   8A..         MOV     ?V8,R2
   \   00006E   8B..         MOV     ?V9,R3
   \   000070   A8..         MOV     R0,?V8
   \   000072   A9..         MOV     R1,?V9
   \   000074   E8           MOV     A,R0
   \   000075   49           ORL     A,R1
   \   000076   7003         JNZ     $+5
   \   000078   02....       LJMP    ??zdpProcessAddrReq_6 & 0xFFFF
   \   00007B   8882         MOV     DPL,R0
   \   00007D   8983         MOV     DPH,R1
   \   00007F   A3           INC     DPTR
   \   000080   A3           INC     DPTR
   \   000081   A3           INC     DPTR
   \   000082   A3           INC     DPTR
   \   000083   E0           MOVX    A,@DPTR
   \   000084   6401         XRL     A,#0x1
   \   000086   6003         JZ      $+5
   \   000088   02....       LJMP    ??zdpProcessAddrReq_6 & 0xFFFF
    609              {
    610                aoi = pAssoc->shortAddr;
   \   00008B   8882         MOV     DPL,R0
   \   00008D   8983         MOV     DPH,R1
   \   00008F   12....       LCALL   ??Subroutine86_0 & 0xFFFF
    611                if ( reqType != ZDP_ADDR_REQTYPE_SINGLE )
   \                     ??CrossCallReturnLabel_117:
   \   000092   E5..         MOV     A,?V6
   \   000094   6003         JZ      $+5
   \   000096   02....       LJMP    ??zdpProcessAddrReq_7 & 0xFFFF
   \   000099   02....       LJMP    ??zdpProcessAddrReq_4 & 0xFFFF
    612                  reqType = 0xFF; // Force Invalid
    613              }
    614            }
   \                     ??zdpProcessAddrReq_2:
   \   00009C   12....       LCALL   ?Subroutine64 & 0xFFFF
   \                     ??CrossCallReturnLabel_96:
   \   00009F   12....       LCALL   ?Subroutine51 & 0xFFFF
   \                     ??CrossCallReturnLabel_76:
   \   0000A2   FA           MOV     R2,A
   \   0000A3   A3           INC     DPTR
   \   0000A4   E0           MOVX    A,@DPTR
   \   0000A5   F8           MOV     R0,A
   \   0000A6   E4           CLR     A
   \   0000A7   C8           XCH     A,R0
   \   0000A8   F9           MOV     R1,A
   \   0000A9   EA           MOV     A,R2
   \   0000AA   28           ADD     A,R0
   \   0000AB   F5..         MOV     ?V2,A
   \   0000AD   E4           CLR     A
   \   0000AE   39           ADDC    A,R1
   \   0000AF   F5..         MOV     ?V3,A
    615            else  // if ( inMsg->clusterID == IEEE_addr_req )
    616            {
    617              aoi = BUILD_UINT16( inMsg->asdu[0], inMsg->asdu[1] );
    618          
    619              if ( aoi == ZDAppNwkAddr.addr.shortAddr )
   \   0000B1   90....       MOV     DPTR,#ZDAppNwkAddr
   \   0000B4   E0           MOVX    A,@DPTR
   \   0000B5   65..         XRL     A,?V2
   \   0000B7   7004         JNZ     ??zdpProcessAddrReq_8
   \   0000B9   A3           INC     DPTR
   \   0000BA   E0           MOVX    A,@DPTR
   \   0000BB   65..         XRL     A,?V3
   \                     ??zdpProcessAddrReq_8:
   \   0000BD   7008         JNZ     ??zdpProcessAddrReq_9
    620              {
    621                ieee = saveExtAddr;
   \   0000BF   75....       MOV     ?V0,#saveExtAddr & 0xff
   \   0000C2   75....       MOV     ?V1,#(saveExtAddr >> 8) & 0xff
   \   0000C5   805A         SJMP    ??zdpProcessAddrReq_4
    622              }
    623              else if ( (ZSTACK_ROUTER_BUILD)
    624                && (((pAssoc = AssocGetWithShort( aoi )) != NULL)
    625                       && (pAssoc->nodeRelation == CHILD_RFD)) )
   \                     ??zdpProcessAddrReq_9:
   \   0000C7   90....       MOV     DPTR,#zgDeviceLogicalType
   \   0000CA   E0           MOVX    A,@DPTR
   \   0000CB   6004         JZ      ??zdpProcessAddrReq_10
   \   0000CD   6401         XRL     A,#0x1
   \   0000CF   7062         JNZ     ??zdpProcessAddrReq_6
   \                     ??zdpProcessAddrReq_10:
   \   0000D1                ; Setup parameters for call to function AssocGetWithShort
   \   0000D1   AB..         MOV     R3,?V3
   \   0000D3   12....       LCALL   ??AssocGetWithShort?relay; Banked call to: AssocGetWithShort
   \   0000D6   8A..         MOV     ?V8,R2
   \   0000D8   8B..         MOV     ?V9,R3
   \   0000DA   A8..         MOV     R0,?V8
   \   0000DC   A9..         MOV     R1,?V9
   \   0000DE   E8           MOV     A,R0
   \   0000DF   49           ORL     A,R1
   \   0000E0   6051         JZ      ??zdpProcessAddrReq_6
   \   0000E2   8882         MOV     DPL,R0
   \   0000E4   8983         MOV     DPH,R1
   \   0000E6   A3           INC     DPTR
   \   0000E7   A3           INC     DPTR
   \   0000E8   A3           INC     DPTR
   \   0000E9   A3           INC     DPTR
   \   0000EA   E0           MOVX    A,@DPTR
   \   0000EB   6401         XRL     A,#0x1
   \   0000ED   7044         JNZ     ??zdpProcessAddrReq_6
    626              {
    627                AddrMgrEntry_t addrEntry;
    628                addrEntry.user = ADDRMGR_USER_DEFAULT;
   \   0000EF   7401         MOV     A,#0x1
   \   0000F1   12....       LCALL   ?XSTACK_DISP0_8
   \   0000F4   E4           CLR     A
   \   0000F5   12....       LCALL   ?Subroutine33 & 0xFFFF
    629                addrEntry.index = pAssoc->addrIdx;
   \                     ??CrossCallReturnLabel_40:
   \   0000F8   A3           INC     DPTR
   \   0000F9   12....       LCALL   ??Subroutine125_0 & 0xFFFF
   \                     ??CrossCallReturnLabel_241:
   \   0000FC   740C         MOV     A,#0xc
   \   0000FE   12....       LCALL   ?XSTACK_DISP0_8
   \   000101   12....       LCALL   ??Subroutine128_0 & 0xFFFF
    630                if ( AddrMgrEntryGet( &addrEntry ) )
   \                     ??CrossCallReturnLabel_266:
   \   000104                ; Setup parameters for call to function AddrMgrEntryGet
   \   000104   7401         MOV     A,#0x1
   \   000106   12....       LCALL   ?XSTACK_DISP101_8
   \   000109   12....       LCALL   ??AddrMgrEntryGet?relay; Banked call to: AddrMgrEntryGet
   \   00010C   E9           MOV     A,R1
   \   00010D   600B         JZ      ??zdpProcessAddrReq_11
    631                {
    632                  ieee = addrEntry.extAddr;
   \   00010F   7404         MOV     A,#0x4
   \   000111   12....       LCALL   ?XSTACK_DISP0_8
   \   000114   8582..       MOV     ?V0,DPL
   \   000117   8583..       MOV     ?V1,DPH
    633                }
    634          
    635                if ( reqType != ZDP_ADDR_REQTYPE_SINGLE )
   \                     ??zdpProcessAddrReq_11:
   \   00011A   E5..         MOV     A,?V6
   \   00011C   6003         JZ      ??zdpProcessAddrReq_4
    636                  reqType = 0xFF; // Force Invalid
   \                     ??zdpProcessAddrReq_7:
   \   00011E   75..FF       MOV     ?V6,#-0x1
    637              }
    638            }
    639          
    640            if ( ((aoi != INVALID_NODE_ADDR) && (ieee != NULL)) || (inMsg->wasBroadcast == FALSE) )
   \                     ??zdpProcessAddrReq_4:
   \   000121   74FE         MOV     A,#-0x2
   \   000123   65..         XRL     A,?V2
   \   000125   7004         JNZ     ??zdpProcessAddrReq_12
   \   000127   74FF         MOV     A,#-0x1
   \   000129   65..         XRL     A,?V3
   \                     ??zdpProcessAddrReq_12:
   \   00012B   6006         JZ      ??zdpProcessAddrReq_6
   \   00012D   E5..         MOV     A,?V0
   \   00012F   45..         ORL     A,?V1
   \   000131   7011         JNZ     ??zdpProcessAddrReq_13
   \                     ??zdpProcessAddrReq_6:
   \   000133   E5..         MOV     A,?V4
   \   000135   240B         ADD     A,#0xb
   \   000137   F582         MOV     DPL,A
   \   000139   E4           CLR     A
   \   00013A   35..         ADDC    A,?V5
   \   00013C   F583         MOV     DPH,A
   \   00013E   E0           MOVX    A,@DPTR
   \   00013F   6003         JZ      $+5
   \   000141   02....       LJMP    ??zdpProcessAddrReq_14 & 0xFFFF
    641            {
    642              uint8 stat;
    643              uint8 *pBuf = ZDP_TmpBuf;
   \                     ??zdpProcessAddrReq_13:
   \   000144   12....       LCALL   ?Subroutine48 & 0xFFFF
    644              // Status + IEEE-Addr + Nwk-Addr.
    645              uint8 len = 1 + Z_EXTADDR_LEN + 2;
   \                     ??CrossCallReturnLabel_222:
   \   000147   75..0B       MOV     ?V8,#0xb
    646              
    647              // If aoi and iee are both setup, we found results
    648              if ( (aoi != INVALID_NODE_ADDR) && (ieee != NULL) )
   \   00014A   74FE         MOV     A,#-0x2
   \   00014C   65..         XRL     A,?V2
   \   00014E   7004         JNZ     ??zdpProcessAddrReq_15
   \   000150   74FF         MOV     A,#-0x1
   \   000152   65..         XRL     A,?V3
   \                     ??zdpProcessAddrReq_15:
   \   000154   601A         JZ      ??zdpProcessAddrReq_16
   \   000156   E5..         MOV     A,?V0
   \   000158   45..         ORL     A,?V1
   \   00015A   6014         JZ      ??zdpProcessAddrReq_16
    649              {
    650                stat = ((reqType == ZDP_ADDR_REQTYPE_SINGLE) || (reqType == ZDP_ADDR_REQTYPE_EXTENDED)) 
    651                              ? ZDP_SUCCESS : ZDP_INVALID_REQTYPE;
   \   00015C   E5..         MOV     A,?V6
   \   00015E   6006         JZ      ??zdpProcessAddrReq_17
   \   000160   7401         MOV     A,#0x1
   \   000162   65..         XRL     A,?V6
   \   000164   7005         JNZ     ??zdpProcessAddrReq_18
   \                     ??zdpProcessAddrReq_17:
   \   000166   75..00       MOV     ?V7,#0x0
   \   000169   801B         SJMP    ??zdpProcessAddrReq_19
   \                     ??zdpProcessAddrReq_18:
   \   00016B   75..80       MOV     ?V7,#-0x80
   \   00016E   8016         SJMP    ??zdpProcessAddrReq_19
    652              }
    653              else 
    654              {
    655                // not found and the req was unicast to this device
    656                stat = ZDP_DEVICE_NOT_FOUND;
   \                     ??zdpProcessAddrReq_16:
   \   000170   75..81       MOV     ?V7,#-0x7f
    657                
    658                // Fill in the missing field with this device's address
    659                if ( inMsg->clusterID == NWK_addr_req )
   \   000173   12....       LCALL   ?Subroutine41 & 0xFFFF
   \                     ??CrossCallReturnLabel_127:
   \   000176   7008         JNZ     ??zdpProcessAddrReq_20
    660                {
    661                  aoi = ZDAppNwkAddr.addr.shortAddr;
   \   000178   90....       MOV     DPTR,#ZDAppNwkAddr
   \   00017B   12....       LCALL   ??Subroutine86_0 & 0xFFFF
    662                }
   \                     ??CrossCallReturnLabel_118:
   \   00017E   8006         SJMP    ??zdpProcessAddrReq_19
    663                else
    664                {
    665                  ieee = saveExtAddr;
   \                     ??zdpProcessAddrReq_20:
   \   000180   75....       MOV     ?V0,#saveExtAddr & 0xff
   \   000183   75....       MOV     ?V1,#(saveExtAddr >> 8) & 0xff
    666                }
    667              }
    668          
    669              *pBuf++ = stat;
   \                     ??zdpProcessAddrReq_19:
   \   000186   8E82         MOV     DPL,R6
   \   000188   8F83         MOV     DPH,R7
   \   00018A   E5..         MOV     A,?V7
   \   00018C   F0           MOVX    @DPTR,A
   \   00018D   A3           INC     DPTR
    670          
    671              pBuf = osal_cpyExtAddr( pBuf, ieee );
   \   00018E                ; Setup parameters for call to function sAddrExtCpy
   \   00018E   AC..         MOV     R4,?V0
   \   000190   AD..         MOV     R5,?V1
   \   000192   AA82         MOV     R2,DPL
   \   000194   AB83         MOV     R3,DPH
   \   000196   12....       LCALL   ??sAddrExtCpy?relay  ; Banked call to: sAddrExtCpy
   \   000199   8A..         MOV     ?V0,R2
   \   00019B   8B..         MOV     ?V1,R3
   \   00019D   AE..         MOV     R6,?V0
   \   00019F   AF..         MOV     R7,?V1
    672          
    673              *pBuf++ = LO_UINT16( aoi );
   \   0001A1   8E82         MOV     DPL,R6
   \   0001A3   8F83         MOV     DPH,R7
   \   0001A5   E5..         MOV     A,?V2
   \   0001A7   F0           MOVX    @DPTR,A
   \   0001A8   A3           INC     DPTR
    674              *pBuf++ = HI_UINT16( aoi );
   \   0001A9   12....       LCALL   ?Subroutine14 & 0xFFFF
    675          
    676              if ( ZSTACK_ROUTER_BUILD )
   \                     ??CrossCallReturnLabel_177:
   \   0001AC   90....       MOV     DPTR,#zgDeviceLogicalType
   \   0001AF   E0           MOVX    A,@DPTR
   \   0001B0   6007         JZ      ??zdpProcessAddrReq_21
   \   0001B2   6401         XRL     A,#0x1
   \   0001B4   6003         JZ      $+5
   \   0001B6   02....       LJMP    ??zdpProcessAddrReq_22 & 0xFFFF
    677              {
    678                if ( (reqType == ZDP_ADDR_REQTYPE_EXTENDED) && (aoi == ZDAppNwkAddr.addr.shortAddr)
    679                     && (stat == ZDP_SUCCESS) )
   \                     ??zdpProcessAddrReq_21:
   \   0001B9   7401         MOV     A,#0x1
   \   0001BB   65..         XRL     A,?V6
   \   0001BD   6003         JZ      $+5
   \   0001BF   02....       LJMP    ??zdpProcessAddrReq_22 & 0xFFFF
   \   0001C2   90....       MOV     DPTR,#ZDAppNwkAddr
   \   0001C5   E0           MOVX    A,@DPTR
   \   0001C6   65..         XRL     A,?V2
   \   0001C8   7004         JNZ     ??zdpProcessAddrReq_23
   \   0001CA   A3           INC     DPTR
   \   0001CB   E0           MOVX    A,@DPTR
   \   0001CC   65..         XRL     A,?V3
   \                     ??zdpProcessAddrReq_23:
   \   0001CE   6003         JZ      $+5
   \   0001D0   02....       LJMP    ??zdpProcessAddrReq_22 & 0xFFFF
   \   0001D3   E5..         MOV     A,?V7
   \   0001D5   6003         JZ      $+5
   \   0001D7   02....       LJMP    ??zdpProcessAddrReq_22 & 0xFFFF
    680                {
    681                  uint8  cnt = 0;
   \   0001DA   85..82       MOV     DPL,?XSP + 0
   \   0001DD   85..83       MOV     DPH,?XSP + 1
   \   0001E0   E4           CLR     A
   \   0001E1   F0           MOVX    @DPTR,A
    682                  uint16 *list = AssocMakeList( &cnt );
   \   0001E2                ; Setup parameters for call to function AssocMakeList
   \   0001E2   AA..         MOV     R2,?XSP + 0
   \   0001E4   AB..         MOV     R3,?XSP + 1
   \   0001E6   12....       LCALL   ??AssocMakeList?relay; Banked call to: AssocMakeList
    683          
    684                  if ( list != NULL )
   \   0001E9   EA           MOV     A,R2
   \   0001EA   4B           ORL     A,R3
   \   0001EB   6071         JZ      ??zdpProcessAddrReq_24
    685                  {
    686                    byte idx = inMsg->asdu[(((inMsg->clusterID == NWK_addr_req) ? Z_EXTADDR_LEN : sizeof( uint16 )) + 1)];
   \   0001ED   12....       LCALL   ?Subroutine41 & 0xFFFF
   \                     ??CrossCallReturnLabel_128:
   \   0001F0   7004         JNZ     ??zdpProcessAddrReq_25
   \   0001F2   7808         MOV     R0,#0x8
   \   0001F4   8002         SJMP    ??zdpProcessAddrReq_26
   \                     ??zdpProcessAddrReq_25:
   \   0001F6   7802         MOV     R0,#0x2
   \                     ??zdpProcessAddrReq_26:
   \   0001F8   E5..         MOV     A,?V4
   \   0001FA   12....       LCALL   ?Subroutine63 & 0xFFFF
   \                     ??CrossCallReturnLabel_94:
   \   0001FD   FC           MOV     R4,A
   \   0001FE   A3           INC     DPTR
   \   0001FF   E0           MOVX    A,@DPTR
   \   000200   3400         ADDC    A,#0x0
   \   000202   8C82         MOV     DPL,R4
   \   000204   F583         MOV     DPH,A
   \   000206   A3           INC     DPTR
   \   000207   E0           MOVX    A,@DPTR
   \   000208   FC           MOV     R4,A
    687                    uint16 *pList = list + idx;
   \   000209   25E0         ADD     A,0xE0 /* A   */
   \   00020B   F8           MOV     R0,A
   \   00020C   E4           CLR     A
   \   00020D   33           RLC     A
   \   00020E   F9           MOV     R1,A
   \   00020F   EA           MOV     A,R2
   \   000210   28           ADD     A,R0
   \   000211   F8           MOV     R0,A
   \   000212   EB           MOV     A,R3
   \   000213   39           ADDC    A,R1
   \   000214   F9           MOV     R1,A
    688          
    689                    // NumAssocDev field is only present on success.
    690                    if ( cnt > idx )
   \   000215   85..82       MOV     DPL,?XSP + 0
   \   000218   85..83       MOV     DPH,?XSP + 1
   \   00021B   E0           MOVX    A,@DPTR
   \   00021C   FD           MOV     R5,A
   \   00021D   EC           MOV     A,R4
   \   00021E   C3           CLR     C
   \   00021F   9D           SUBB    A,R5
   \   000220   500C         JNC     ??zdpProcessAddrReq_27
    691                    {
    692                      cnt -= idx;
   \   000222   E0           MOVX    A,@DPTR
   \   000223   C3           CLR     C
   \   000224   9C           SUBB    A,R4
   \   000225   F0           MOVX    @DPTR,A
    693                      len += (cnt * sizeof( uint16 ));
   \   000226   C3           CLR     C
   \   000227   33           RLC     A
   \   000228   240B         ADD     A,#0xb
   \   00022A   F5..         MOV     ?V8,A
   \   00022C   8002         SJMP    ??zdpProcessAddrReq_28
    694                    }
    695                    else
    696                    {
    697                      cnt = 0;
   \                     ??zdpProcessAddrReq_27:
   \   00022E   E4           CLR     A
   \   00022F   F0           MOVX    @DPTR,A
    698                    }
    699                    *pBuf++ = cnt;
   \                     ??zdpProcessAddrReq_28:
   \   000230   12....       LCALL   ?Subroutine49 & 0xFFFF
    700                    len++;
    701          
    702                    // StartIndex field is only present if NumAssocDev field is non-zero.
    703                    *pBuf++ = idx;
   \                     ??CrossCallReturnLabel_70:
   \   000233   EC           MOV     A,R4
   \   000234   12....       LCALL   ?Subroutine35 & 0xFFFF
    704                    len++;
   \                     ??CrossCallReturnLabel_46:
   \   000237   05..         INC     ?V8
   \   000239   05..         INC     ?V8
   \   00023B   8013         SJMP    ??zdpProcessAddrReq_29
    705          
    706                    while ( cnt != 0 )
    707                    {
    708                      *pBuf++ = LO_UINT16( *pList );
   \                     ??zdpProcessAddrReq_30:
   \   00023D   12....       LCALL   ?Subroutine13 & 0xFFFF
    709                      *pBuf++ = HI_UINT16( *pList );
    710                      pList++;
   \                     ??CrossCallReturnLabel_8:
   \   000240   E8           MOV     A,R0
   \   000241   2402         ADD     A,#0x2
   \   000243   F8           MOV     R0,A
   \   000244   5001         JNC     ??zdpProcessAddrReq_31
   \   000246   09           INC     R1
    711                      cnt--;
   \                     ??zdpProcessAddrReq_31:
   \   000247   85..82       MOV     DPL,?XSP + 0
   \   00024A   85..83       MOV     DPH,?XSP + 1
   \   00024D   E0           MOVX    A,@DPTR
   \   00024E   14           DEC     A
   \   00024F   F0           MOVX    @DPTR,A
    712                    }
   \                     ??zdpProcessAddrReq_29:
   \   000250   85..82       MOV     DPL,?XSP + 0
   \   000253   85..83       MOV     DPH,?XSP + 1
   \   000256   E0           MOVX    A,@DPTR
   \   000257   70E4         JNZ     ??zdpProcessAddrReq_30
    713          
    714                    osal_mem_free( (uint8 *)list );
   \   000259                ; Setup parameters for call to function osal_mem_free
   \   000259   12....       LCALL   ??osal_mem_free?relay; Banked call to: osal_mem_free
   \   00025C   8009         SJMP    ??zdpProcessAddrReq_22
    715                  }
    716                  else
    717                  {
    718                    // NumAssocDev field is only present on success.
    719                    *pBuf++ = 0;
   \                     ??zdpProcessAddrReq_24:
   \   00025E   8E82         MOV     DPL,R6
   \   000260   8F83         MOV     DPH,R7
   \   000262   E4           CLR     A
   \   000263   F0           MOVX    @DPTR,A
    720                    len++;
   \   000264   75..0C       MOV     ?V8,#0xc
    721                  }
    722                }
    723              }
    724          
    725              ZDP_TxOptions = AF_MSG_ACK_REQUEST;
   \                     ??zdpProcessAddrReq_22:
   \   000267   90....       MOV     DPTR,#ZDP_TxOptions
   \   00026A   7410         MOV     A,#0x10
   \   00026C   F0           MOVX    @DPTR,A
    726              fillAndSend( &(inMsg->TransSeq), &(inMsg->srcAddr), (cId_t)(inMsg->clusterID | ZDO_RESPONSE_BIT), len );
   \   00026D                ; Setup parameters for call to function fillAndSend
   \   00026D   12....       LCALL   ?Subroutine59 & 0xFFFF
   \                     ??CrossCallReturnLabel_87:
   \   000270   F5..         MOV     ?V0,A
   \   000272   A3           INC     DPTR
   \   000273   E0           MOVX    A,@DPTR
   \   000274   4480         ORL     A,#0x80
   \   000276   F5..         MOV     ?V1,A
   \   000278   78..         MOV     R0,#?V0
   \   00027A   12....       LCALL   ?PUSH_XSTACK_I_TWO
   \   00027D   A9..         MOV     R1,?V8
   \   00027F   E5..         MOV     A,?V4
   \   000281   12....       LCALL   ??Subroutine112_0 & 0xFFFF
   \                     ??CrossCallReturnLabel_186:
   \   000284   35..         ADDC    A,?V5
   \   000286   FD           MOV     R5,A
   \   000287   E5..         MOV     A,?V4
   \   000289   240F         ADD     A,#0xf
   \   00028B   FA           MOV     R2,A
   \   00028C   E4           CLR     A
   \   00028D   35..         ADDC    A,?V5
   \   00028F   FB           MOV     R3,A
   \   000290   12....       LCALL   ??fillAndSend?relay  ; Banked call to: fillAndSend
   \   000293   7402         MOV     A,#0x2
   \   000295   12....       LCALL   ?DEALLOC_XSTACK8
    727              ZDP_TxOptions = AF_TX_OPTIONS_NONE;
   \   000298   90....       MOV     DPTR,#ZDP_TxOptions
   \   00029B   E4           CLR     A
   \   00029C   F0           MOVX    @DPTR,A
    728            }
    729          }
   \                     ??zdpProcessAddrReq_14:
   \   00029D   740E         MOV     A,#0xe
   \   00029F   02....       LJMP    ??Subroutine117_0 & 0xFFFF

   \                                 In  segment BANKED_CODE, align 1, keep-with-next
   \                     ?Subroutine64:
   \   000000   E5..         MOV     A,?V4
   \   000002   12....       LCALL   ?Subroutine81 & 0xFFFF
   \                     ??CrossCallReturnLabel_113:
   \   000005   22           RET

   \                                 In  segment BANKED_CODE, align 1, keep-with-next
   \                     ?Subroutine81:
   \   000000   2413         ADD     A,#0x13
   \   000002   F582         MOV     DPL,A
   \   000004   E4           CLR     A
   \   000005   35..         ADDC    A,?V5
   \   000007   F583         MOV     DPH,A
   \   000009   22           RET

   \                                 In  segment BANKED_CODE, align 1, keep-with-next
   \                     ?Subroutine63:
   \   000000   12....       LCALL   ?Subroutine81 & 0xFFFF
   \                     ??CrossCallReturnLabel_112:
   \   000003   E0           MOVX    A,@DPTR
   \   000004   28           ADD     A,R0
   \   000005   22           RET

   \                                 In  segment BANKED_CODE, align 1, keep-with-next
   \                     ?Subroutine59:
   \   000000   E5..         MOV     A,?V4
   \   000002   12....       LCALL   ?Subroutine82 & 0xFFFF
   \                     ??CrossCallReturnLabel_123:
   \   000005   E0           MOVX    A,@DPTR
   \   000006   22           RET

   \                                 In  segment BANKED_CODE, align 1, keep-with-next
   \                     ?Subroutine41:
   \   000000   E5..         MOV     A,?V4
   \   000002                REQUIRE ??Subroutine89_0
   \   000002                ; // Fall through to label ??Subroutine89_0

   \                                 In  segment BANKED_CODE, align 1, keep-with-next
   \                     ??Subroutine89_0:
   \   000000   12....       LCALL   ?Subroutine82 & 0xFFFF
   \                     ??CrossCallReturnLabel_124:
   \   000003                REQUIRE ??Subroutine90_0
   \   000003                ; // Fall through to label ??Subroutine90_0

   \                                 In  segment BANKED_CODE, align 1, keep-with-next
   \                     ??Subroutine90_0:
   \   000000   12....       LCALL   ?Subroutine76 & 0xFFFF
   \                     ??CrossCallReturnLabel_255:
   \   000003   E8           MOV     A,R0
   \   000004   49           ORL     A,R1
   \   000005   22           RET

   \                                 In  segment BANKED_CODE, align 1, keep-with-next
   \                     ?Subroutine82:
   \   000000   240C         ADD     A,#0xc
   \   000002   F582         MOV     DPL,A
   \   000004   E4           CLR     A
   \   000005   35..         ADDC    A,?V5
   \   000007   F583         MOV     DPH,A
   \   000009   22           RET

   \                                 In  segment BANKED_CODE, align 1, keep-with-next
   \                     ?Subroutine51:
   \   000000   12....       LCALL   ?Subroutine76 & 0xFFFF
   \                     ??CrossCallReturnLabel_254:
   \   000003   8882         MOV     DPL,R0
   \   000005   8983         MOV     DPH,R1
   \   000007   E0           MOVX    A,@DPTR
   \   000008   22           RET

   \                                 In  segment BANKED_CODE, align 1, keep-with-next
   \                     ?Subroutine73:
   \   000000   E0           MOVX    A,@DPTR
   \   000001   8E82         MOV     DPL,R6
   \   000003   8F83         MOV     DPH,R7
   \   000005                REQUIRE ??Subroutine100_0
   \   000005                ; // Fall through to label ??Subroutine100_0

   \                                 In  segment BANKED_CODE, align 1, keep-with-next
   \                     ??Subroutine100_0:
   \   000000   F0           MOVX    @DPTR,A
   \   000001   A3           INC     DPTR
   \   000002   AE82         MOV     R6,DPL
   \   000004   AF83         MOV     R7,DPH
   \   000006   22           RET

   \                                 In  segment BANKED_CODE, align 1, keep-with-next
   \                     ?Subroutine49:
   \   000000   12....       LCALL   ??Subroutine108_0 & 0xFFFF
   \                     ??CrossCallReturnLabel_169:
   \   000003   F0           MOVX    @DPTR,A
   \   000004   A3           INC     DPTR
   \   000005   22           RET

   \                                 In  segment BANKED_CODE, align 1, keep-with-next
   \                     ?Subroutine35:
   \   000000   F0           MOVX    @DPTR,A
   \   000001   A3           INC     DPTR
   \   000002   0E           INC     R6
   \   000003   0E           INC     R6
   \   000004   AF83         MOV     R7,DPH
   \   000006   22           RET

   \                                 In  segment BANKED_CODE, align 1, keep-with-next
   \                     ??Subroutine108_0:
   \   000000   E0           MOVX    A,@DPTR
   \   000001   8E82         MOV     DPL,R6
   \   000003   8F83         MOV     DPH,R7
   \   000005   22           RET

   \                                 In  segment BANKED_CODE, align 1, keep-with-next
   \                     ?Subroutine14:
   \   000000   E5..         MOV     A,?V3
   \   000002                REQUIRE ??Subroutine109_0
   \   000002                ; // Fall through to label ??Subroutine109_0

   \                                 In  segment BANKED_CODE, align 1, keep-with-next
   \                     ??Subroutine109_0:
   \   000000   12....       LCALL   ??Subroutine100_0 & 0xFFFF
   \                     ??CrossCallReturnLabel_181:
   \   000003   22           RET

   \                                 In  segment BANKED_CODE, align 1, keep-with-next
   \                     ?Subroutine13:
   \   000000   8882         MOV     DPL,R0
   \   000002   8983         MOV     DPH,R1
   \   000004   12....       LCALL   ?Subroutine73 & 0xFFFF
   \                     ??CrossCallReturnLabel_180:
   \   000007   8882         MOV     DPL,R0
   \   000009   8983         MOV     DPH,R1
   \   00000B   12....       LCALL   ?Subroutine72 & 0xFFFF
   \                     ??CrossCallReturnLabel_185:
   \   00000E   22           RET

   \                                 In  segment BANKED_CODE, align 1, keep-with-next
   \                     ?Subroutine72:
   \   000000   A3           INC     DPTR
   \   000001                REQUIRE ??Subroutine110_0
   \   000001                ; // Fall through to label ??Subroutine110_0

   \                                 In  segment BANKED_CODE, align 1, keep-with-next
   \                     ??Subroutine110_0:
   \   000000   E0           MOVX    A,@DPTR
   \   000001   8E82         MOV     DPL,R6
   \   000003   8F83         MOV     DPH,R7
   \   000005                REQUIRE ??Subroutine111_0
   \   000005                ; // Fall through to label ??Subroutine111_0

   \                                 In  segment BANKED_CODE, align 1, keep-with-next
   \                     ??Subroutine111_0:
   \   000000   F0           MOVX    @DPTR,A
   \   000001   A3           INC     DPTR
   \   000002   0E           INC     R6
   \   000003   AF83         MOV     R7,DPH
   \   000005   22           RET

   \                                 In  segment BANKED_CODE, align 1, keep-with-next
   \                     ??Subroutine112_0:
   \   000000   2402         ADD     A,#0x2
   \   000002   FC           MOV     R4,A
   \   000003   E4           CLR     A
   \   000004   22           RET

   \                                 In  segment BANKED_CODE, align 1, keep-with-next
   \                     ??Subroutine117_0:
   \   000000   12....       LCALL   ?DEALLOC_XSTACK8
   \   000003                REQUIRE ??Subroutine118_0
   \   000003                ; // Fall through to label ??Subroutine118_0

   \                                 In  segment BANKED_CODE, align 1, keep-with-next
   \                     ??Subroutine118_0:
   \   000000   7F0A         MOV     R7,#0xa
   \   000002   02....       LJMP    ?BANKED_LEAVE_XDATA

   \                                 In  segment BANKED_CODE, align 1, keep-with-next
   \                     ?Subroutine48:
   \   000000   90....       MOV     DPTR,#ZDP_TmpBuf
   \   000003                REQUIRE ??Subroutine120_0
   \   000003                ; // Fall through to label ??Subroutine120_0

   \                                 In  segment BANKED_CODE, align 1, keep-with-next
   \                     ??Subroutine120_0:
   \   000000   E0           MOVX    A,@DPTR
   \   000001   FE           MOV     R6,A
   \   000002   A3           INC     DPTR
   \   000003   E0           MOVX    A,@DPTR
   \   000004   FF           MOV     R7,A
   \   000005   22           RET
    730          
    731          /*********************************************************************
    732           * @fn          ZDP_NodeDescMsg
    733           *
    734           * @brief       Builds and sends a Node Descriptor message, unicast to the
    735           *              specified device.
    736           *
    737           * @param       inMsg - incoming message
    738           * @param       nwkAddr - 16 bit network address for device
    739           * @param       pNodeDesc - pointer to the node descriptor
    740           *
    741           * @return      afStatus_t
    742           */

   \                                 In  segment BANKED_CODE, align 1, keep-with-next
    743          afStatus_t ZDP_NodeDescMsg( zdoIncomingMsg_t *inMsg,
   \                     ZDP_NodeDescMsg:
    744                                     uint16 nwkAddr, NodeDescriptorFormat_t *pNodeDesc )
    745          {
   \   000000                REQUIRE ?V0
   \   000000                REQUIRE ?V1
   \   000000   74F6         MOV     A,#-0xa
   \   000002   12....       LCALL   ?BANKED_ENTER_XDATA
   \   000005                ; Saved register size: 10
   \   000005                ; Auto size: 0
    746            uint8 *pBuf = ZDP_TmpBuf;
   \   000005   12....       LCALL   ??Subroutine124_0 & 0xFFFF
    747            byte len;
    748          
    749            len = 1 + 2 + 13;  // Status + nwkAddr + Node descriptor
    750          
    751            *pBuf++ = ZDP_SUCCESS;
   \                     ??CrossCallReturnLabel_252:
   \   000008   8882         MOV     DPL,R0
   \   00000A   8983         MOV     DPH,R1
   \   00000C   12....       LCALL   ?Subroutine34 & 0xFFFF
    752          
    753            *pBuf++ = LO_UINT16( nwkAddr );
    754            *pBuf++ = HI_UINT16( nwkAddr );
   \                     ??CrossCallReturnLabel_43:
   \   00000F   12....       LCALL   ??Subroutine114_0 & 0xFFFF
   \                     ??CrossCallReturnLabel_194:
   \   000012   740A         MOV     A,#0xa
   \   000014   12....       LCALL   ?XSTACK_DISP0_8
   \   000017   12....       LCALL   ?Subroutine47 & 0xFFFF
    755          
    756            *pBuf++ = (byte)((pNodeDesc->ComplexDescAvail << 3) |
    757                               (pNodeDesc->UserDescAvail << 4) |
    758                               (pNodeDesc->LogicalType & 0x07));
   \                     ??CrossCallReturnLabel_67:
   \   00001A   8C82         MOV     DPL,R4
   \   00001C   8D83         MOV     DPH,R5
   \   00001E   E0           MOVX    A,@DPTR
   \   00001F   541F         ANL     A,#0x1f
   \   000021   12....       LCALL   ?Subroutine16 & 0xFFFF
    759          
    760            *pBuf++ = (byte)((pNodeDesc->FrequencyBand << 3) | (pNodeDesc->APSFlags & 0x07));
    761            *pBuf++ = pNodeDesc->CapabilityFlags;
   \                     ??CrossCallReturnLabel_10:
   \   000024   8C82         MOV     DPL,R4
   \   000026   8D83         MOV     DPH,R5
   \   000028   A3           INC     DPTR
   \   000029   A3           INC     DPTR
   \   00002A   12....       LCALL   ?Subroutine24 & 0xFFFF
    762            *pBuf++ = pNodeDesc->ManufacturerCode[0];
   \                     ??CrossCallReturnLabel_26:
   \   00002D   12....       LCALL   ?Subroutine24 & 0xFFFF
    763            *pBuf++ = pNodeDesc->ManufacturerCode[1];
   \                     ??CrossCallReturnLabel_27:
   \   000030   A3           INC     DPTR
   \   000031   12....       LCALL   ?Subroutine20 & 0xFFFF
    764            *pBuf++ = pNodeDesc->MaxBufferSize;
   \                     ??CrossCallReturnLabel_18:
   \   000034   12....       LCALL   ?Subroutine20 & 0xFFFF
    765            *pBuf++ = pNodeDesc->MaxInTransferSize[0];
   \                     ??CrossCallReturnLabel_19:
   \   000037   12....       LCALL   ?Subroutine18 & 0xFFFF
    766            *pBuf++ = pNodeDesc->MaxInTransferSize[1];
   \                     ??CrossCallReturnLabel_14:
   \   00003A   12....       LCALL   ?Subroutine25 & 0xFFFF
    767          
    768            *pBuf++ = LO_UINT16( pNodeDesc->ServerMask );
   \                     ??CrossCallReturnLabel_129:
   \   00003D   2408         ADD     A,#0x8
   \   00003F   FE           MOV     R6,A
   \   000040   E4           CLR     A
   \   000041   3D           ADDC    A,R5
   \   000042   FF           MOV     R7,A
   \   000043   8E82         MOV     DPL,R6
   \   000045   8F83         MOV     DPH,R7
   \   000047   12....       LCALL   ??Subroutine95_0 & 0xFFFF
    769            *pBuf++ = HI_UINT16( pNodeDesc->ServerMask );
   \                     ??CrossCallReturnLabel_133:
   \   00004A   8E82         MOV     DPL,R6
   \   00004C   8F83         MOV     DPH,R7
   \   00004E   12....       LCALL   ?Subroutine18 & 0xFFFF
    770            *pBuf++ = pNodeDesc->MaxOutTransferSize[0];
   \                     ??CrossCallReturnLabel_15:
   \   000051   A3           INC     DPTR
   \   000052   A3           INC     DPTR
   \   000053   A3           INC     DPTR
   \   000054   12....       LCALL   ?Subroutine25 & 0xFFFF
    771            *pBuf++ = pNodeDesc->MaxOutTransferSize[1];
   \                     ??CrossCallReturnLabel_130:
   \   000057   240B         ADD     A,#0xb
   \   000059   F582         MOV     DPL,A
   \   00005B   E4           CLR     A
   \   00005C   3D           ADDC    A,R5
   \   00005D   F583         MOV     DPH,A
   \   00005F   12....       LCALL   ?Subroutine25 & 0xFFFF
    772            *pBuf = pNodeDesc->DescriptorCapability;
   \                     ??CrossCallReturnLabel_131:
   \   000062   240C         ADD     A,#0xc
   \   000064   F582         MOV     DPL,A
   \   000066   E4           CLR     A
   \   000067   3D           ADDC    A,R5
   \   000068   F583         MOV     DPH,A
   \   00006A   12....       LCALL   ?Subroutine54 & 0xFFFF
    773          
    774            return fillAndSend( &(inMsg->TransSeq), &(inMsg->srcAddr), Node_Desc_rsp, len );
   \                     ??CrossCallReturnLabel_80:
   \   00006D                ; Setup parameters for call to function fillAndSend
   \   00006D   75..02       MOV     ?V0,#0x2
   \   000070   75..80       MOV     ?V1,#-0x80
   \   000073   78..         MOV     R0,#?V0
   \   000075   12....       LCALL   ?PUSH_XSTACK_I_TWO
   \   000078   7910         MOV     R1,#0x10
   \   00007A   EA           MOV     A,R2
   \   00007B   12....       LCALL   ??Subroutine112_0 & 0xFFFF
   \                     ??CrossCallReturnLabel_187:
   \   00007E   3B           ADDC    A,R3
   \   00007F   FD           MOV     R5,A
   \   000080   EA           MOV     A,R2
   \   000081   240F         ADD     A,#0xf
   \   000083   FA           MOV     R2,A
   \   000084   5001         JNC     ??ZDP_NodeDescMsg_0
   \   000086   0B           INC     R3
   \                     ??ZDP_NodeDescMsg_0:
   \   000087   02....       LJMP    ??Subroutine93_0 & 0xFFFF
    775          }

   \                                 In  segment BANKED_CODE, align 1, keep-with-next
   \                     ?Subroutine25:
   \   000000   E0           MOVX    A,@DPTR
   \   000001                REQUIRE ??Subroutine91_0
   \   000001                ; // Fall through to label ??Subroutine91_0

   \                                 In  segment BANKED_CODE, align 1, keep-with-next
   \                     ??Subroutine91_0:
   \   000000   12....       LCALL   ??Subroutine98_0 & 0xFFFF
   \                     ??CrossCallReturnLabel_139:
   \   000003   EC           MOV     A,R4
   \   000004   22           RET

   \                                 In  segment BANKED_CODE, align 1, keep-with-next
   \                     ?Subroutine24:
   \   000000   E0           MOVX    A,@DPTR
   \   000001   12....       LCALL   ?Subroutine69 & 0xFFFF
   \                     ??CrossCallReturnLabel_104:
   \   000004   A3           INC     DPTR
   \   000005   A3           INC     DPTR
   \   000006   22           RET

   \                                 In  segment BANKED_CODE, align 1, keep-with-next
   \                     ?Subroutine20:
   \   000000   12....       LCALL   ?Subroutine67 & 0xFFFF
   \                     ??CrossCallReturnLabel_100:
   \   000003   22           RET

   \                                 In  segment BANKED_CODE, align 1, keep-with-next
   \                     ?Subroutine67:
   \   000000   E0           MOVX    A,@DPTR
   \   000001   12....       LCALL   ?Subroutine83 & 0xFFFF
   \                     ??CrossCallReturnLabel_114:
   \   000004   A3           INC     DPTR
   \   000005   A3           INC     DPTR
   \   000006   A3           INC     DPTR
   \   000007   A3           INC     DPTR
   \   000008   22           RET

   \                                 In  segment BANKED_CODE, align 1, keep-with-next
   \                     ?Subroutine18:
   \   000000   A3           INC     DPTR
   \   000001   12....       LCALL   ?Subroutine67 & 0xFFFF
   \                     ??CrossCallReturnLabel_101:
   \   000004   A3           INC     DPTR
   \   000005   A3           INC     DPTR
   \   000006   22           RET

   \                                 In  segment BANKED_CODE, align 1, keep-with-next
   \                     ?Subroutine34:
   \   000000   E4           CLR     A
   \   000001   F0           MOVX    @DPTR,A
   \   000002   A3           INC     DPTR
   \   000003   EC           MOV     A,R4
   \   000004   F0           MOVX    @DPTR,A
   \   000005   A3           INC     DPTR
   \   000006   ED           MOV     A,R5
   \   000007   22           RET

   \                                 In  segment BANKED_CODE, align 1, keep-with-next
   \                     ?Subroutine54:
   \   000000   E0           MOVX    A,@DPTR
   \   000001   8882         MOV     DPL,R0
   \   000003   8983         MOV     DPH,R1
   \   000005   F0           MOVX    @DPTR,A
   \   000006   22           RET

   \                                 In  segment BANKED_CODE, align 1, keep-with-next
   \                     ??Subroutine95_0:
   \   000000   12....       LCALL   ??Subroutine97_0 & 0xFFFF
   \                     ??CrossCallReturnLabel_142:
   \   000003   22           RET

   \                                 In  segment BANKED_CODE, align 1, keep-with-next
   \                     ?Subroutine16:
   \   000000   12....       LCALL   ?Subroutine69 & 0xFFFF
   \                     ??CrossCallReturnLabel_105:
   \   000003   12....       LCALL   ??Subroutine97_0 & 0xFFFF
   \                     ??CrossCallReturnLabel_141:
   \   000006   22           RET

   \                                 In  segment BANKED_CODE, align 1, keep-with-next
   \                     ?Subroutine69:
   \   000000   12....       LCALL   ?Subroutine83 & 0xFFFF
   \                     ??CrossCallReturnLabel_115:
   \   000003   22           RET

   \                                 In  segment BANKED_CODE, align 1, keep-with-next
   \                     ?Subroutine83:
   \   000000   8882         MOV     DPL,R0
   \   000002   8983         MOV     DPH,R1
   \   000004   F0           MOVX    @DPTR,A
   \   000005   A3           INC     DPTR
   \   000006   08           INC     R0
   \   000007   A983         MOV     R1,DPH
   \   000009   8C82         MOV     DPL,R4
   \   00000B   8D83         MOV     DPH,R5
   \   00000D   A3           INC     DPTR
   \   00000E   22           RET
    776          
    777          /*********************************************************************
    778           * @fn          ZDP_PowerDescMsg
    779           *
    780           * @brief       Builds and sends a Power Descriptor message, unicast to the
    781           *              specified device.
    782           *
    783           * @param       inMsg - incoming message (request)
    784           * @param       nwkAddr - 16 bit network address for device
    785           * @param       pPowerDesc - pointer to the node descriptor
    786           *
    787           * @return      afStatus_t
    788           */

   \                                 In  segment BANKED_CODE, align 1, keep-with-next
    789          afStatus_t ZDP_PowerDescMsg( zdoIncomingMsg_t *inMsg,
   \                     ZDP_PowerDescMsg:
    790                               uint16 nwkAddr, NodePowerDescriptorFormat_t *pPowerDesc )
    791          {
   \   000000                REQUIRE ?V0
   \   000000                REQUIRE ?V1
   \   000000   74F6         MOV     A,#-0xa
   \   000002   12....       LCALL   ?BANKED_ENTER_XDATA
   \   000005                ; Saved register size: 10
   \   000005                ; Auto size: 0
   \   000005   EA           MOV     A,R2
   \   000006   FE           MOV     R6,A
   \   000007   EB           MOV     A,R3
   \   000008   FF           MOV     R7,A
    792            uint8 *pBuf = ZDP_TmpBuf;
   \   000009   12....       LCALL   ??Subroutine102_0 & 0xFFFF
    793            byte len = 1 + 2 + 2;  // Status + nwkAddr + Node Power descriptor.
    794          
    795            *pBuf++ = ZDP_SUCCESS;
   \                     ??CrossCallReturnLabel_163:
   \   00000C   8A82         MOV     DPL,R2
   \   00000E   8B83         MOV     DPH,R3
   \   000010   12....       LCALL   ?Subroutine34 & 0xFFFF
    796          
    797            *pBuf++ = LO_UINT16( nwkAddr );
    798            *pBuf++ = HI_UINT16( nwkAddr );
   \                     ??CrossCallReturnLabel_44:
   \   000013   12....       LCALL   ??Subroutine116_0 & 0xFFFF
   \                     ??CrossCallReturnLabel_207:
   \   000016   740A         MOV     A,#0xa
   \   000018   12....       LCALL   ?XSTACK_DISP0_8
   \   00001B   12....       LCALL   ?Subroutine51 & 0xFFFF
    799          
    800            *pBuf++ = (byte)((pPowerDesc->AvailablePowerSources << 4)
    801                              | (pPowerDesc->PowerMode & 0x0F));
   \                     ??CrossCallReturnLabel_75:
   \   00001E   12....       LCALL   ??Subroutine115_0 & 0xFFFF
    802            *pBuf++ = (byte)((pPowerDesc->CurrentPowerSourceLevel << 4)
    803                              | (pPowerDesc->CurrentPowerSource & 0x0F));
   \                     ??CrossCallReturnLabel_206:
   \   000021   12....       LCALL   ??Subroutine122_0 & 0xFFFF
   \                     ??CrossCallReturnLabel_230:
   \   000024   540F         ANL     A,#0xf
   \   000026   F9           MOV     R1,A
   \   000027   740C         MOV     A,#0xc
   \   000029   78..         MOV     R0,#?V0
   \   00002B   12....       LCALL   ?US_SHR
   \   00002E   E5..         MOV     A,?V0
   \   000030   C4           SWAP    A
   \   000031   49           ORL     A,R1
   \   000032   8A82         MOV     DPL,R2
   \   000034   8B83         MOV     DPH,R3
   \   000036   F0           MOVX    @DPTR,A
    804          
    805            return fillAndSend( &(inMsg->TransSeq), &(inMsg->srcAddr), Power_Desc_rsp, len );
   \   000037                ; Setup parameters for call to function fillAndSend
   \   000037   75..03       MOV     ?V0,#0x3
   \   00003A   75..80       MOV     ?V1,#-0x80
   \   00003D   78..         MOV     R0,#?V0
   \   00003F   12....       LCALL   ?PUSH_XSTACK_I_TWO
   \   000042   7905         MOV     R1,#0x5
   \   000044   EE           MOV     A,R6
   \   000045   12....       LCALL   ??Subroutine112_0 & 0xFFFF
   \                     ??CrossCallReturnLabel_188:
   \   000048   3F           ADDC    A,R7
   \   000049   FD           MOV     R5,A
   \   00004A   EE           MOV     A,R6
   \   00004B   240F         ADD     A,#0xf
   \   00004D   FA           MOV     R2,A
   \   00004E   E4           CLR     A
   \   00004F   3F           ADDC    A,R7
   \   000050   FB           MOV     R3,A
   \   000051   80..         SJMP    ??Subroutine93_0
    806          }

   \                                 In  segment BANKED_CODE, align 1, keep-with-next
   \                     ??Subroutine102_0:
   \   000000   90....       MOV     DPTR,#ZDP_TmpBuf
   \   000003                REQUIRE ??Subroutine103_0
   \   000003                ; // Fall through to label ??Subroutine103_0

   \                                 In  segment BANKED_CODE, align 1, keep-with-next
   \                     ??Subroutine103_0:
   \   000000   E0           MOVX    A,@DPTR
   \   000001   FA           MOV     R2,A
   \   000002   A3           INC     DPTR
   \   000003   E0           MOVX    A,@DPTR
   \   000004   FB           MOV     R3,A
   \   000005   22           RET

   \                                 In  segment BANKED_CODE, align 1, keep-with-next
   \                     ??Subroutine115_0:
   \   000000   8A82         MOV     DPL,R2
   \   000002   8B83         MOV     DPH,R3
   \   000004   F0           MOVX    @DPTR,A
   \   000005   A3           INC     DPTR
   \   000006   0A           INC     R2
   \   000007   AB83         MOV     R3,DPH
   \   000009   8882         MOV     DPL,R0
   \   00000B   8983         MOV     DPH,R1
   \   00000D   22           RET

   \                                 In  segment BANKED_CODE, align 1, keep-with-next
   \                     ??Subroutine116_0:
   \   000000   F0           MOVX    @DPTR,A
   \   000001   A3           INC     DPTR
   \   000002   AA82         MOV     R2,DPL
   \   000004   AB83         MOV     R3,DPH
   \   000006   22           RET
    807          
    808          /*********************************************************************
    809           * @fn          ZDP_SimpleDescMsg
    810           *
    811           * @brief       Builds and sends a Simple Descriptor message, unicast to the
    812           *              specified device.
    813           *
    814           * @param       inMsg - incoming message (request)
    815           * @param       Status - message status (ZDP_SUCCESS or other)
    816           * @param       pSimpleDesc - pointer to the node descriptor
    817           *
    818           * @return      afStatus_t
    819           */

   \                                 In  segment BANKED_CODE, align 1, keep-with-next
    820          afStatus_t ZDP_SimpleDescMsg( zdoIncomingMsg_t *inMsg, byte Status,
   \                     ZDP_SimpleDescMsg:
    821                                        SimpleDescriptionFormat_t *pSimpleDesc )
    822          {
   \   000000                REQUIRE ?V0
   \   000000                REQUIRE ?V1
   \   000000                REQUIRE ?V2
   \   000000                REQUIRE ?V3
   \   000000                REQUIRE ?V4
   \   000000                REQUIRE ?V5
   \   000000                REQUIRE ?V6
   \   000000                REQUIRE ?V7
   \   000000   74F0         MOV     A,#-0x10
   \   000002   12....       LCALL   ?BANKED_ENTER_XDATA
   \   000005                ; Saved register size: 16
   \   000005                ; Auto size: 0
   \   000005   8A..         MOV     ?V0,R2
   \   000007   8B..         MOV     ?V1,R3
   \   000009   12....       LCALL   ?Subroutine52 & 0xFFFF
    823            uint8 *pBuf = ZDP_TmpBuf;
    824            uint8 i, len;
    825          
    826            if ( Status == ZDP_SUCCESS && pSimpleDesc )
   \                     ??CrossCallReturnLabel_237:
   \   00000C   EE           MOV     A,R6
   \   00000D   702E         JNZ     ??ZDP_SimpleDescMsg_0
   \   00000F   EC           MOV     A,R4
   \   000010   4D           ORL     A,R5
   \   000011   602A         JZ      ??ZDP_SimpleDescMsg_0
    827            {
    828              // Status + NWKAddrOfInterest + desc length + empty simple descriptor.
    829              len = 1 + 2 + 1 + 8;
    830              len += (pSimpleDesc->AppNumInClusters + pSimpleDesc->AppNumOutClusters) * sizeof ( uint16 );
   \   000013   8C82         MOV     DPL,R4
   \   000015   8D83         MOV     DPH,R5
   \   000017   A3           INC     DPTR
   \   000018   A3           INC     DPTR
   \   000019   A3           INC     DPTR
   \   00001A   A3           INC     DPTR
   \   00001B   A3           INC     DPTR
   \   00001C   A3           INC     DPTR
   \   00001D   A3           INC     DPTR
   \   00001E   A3           INC     DPTR
   \   00001F   A3           INC     DPTR
   \   000020   E0           MOVX    A,@DPTR
   \   000021   FA           MOV     R2,A
   \   000022   8C82         MOV     DPL,R4
   \   000024   8D83         MOV     DPH,R5
   \   000026   A3           INC     DPTR
   \   000027   A3           INC     DPTR
   \   000028   A3           INC     DPTR
   \   000029   A3           INC     DPTR
   \   00002A   A3           INC     DPTR
   \   00002B   A3           INC     DPTR
   \   00002C   E0           MOVX    A,@DPTR
   \   00002D   2A           ADD     A,R2
   \   00002E   C3           CLR     C
   \   00002F   33           RLC     A
   \   000030   240C         ADD     A,#0xc
   \   000032   FA           MOV     R2,A
    831            }
    832            else
    833            {
    834              len = 1 + 2 + 1; // Status + desc length
    835            }
    836            if ( len >= ZDP_BUF_SZ-1 )
   \   000033   C3           CLR     C
   \   000034   944F         SUBB    A,#0x4f
   \   000036   4007         JC      ??ZDP_SimpleDescMsg_1
    837            {
    838              return afStatus_MEM_FAIL;
   \   000038   7910         MOV     R1,#0x10
   \   00003A   02....       LJMP    ??ZDP_SimpleDescMsg_2 & 0xFFFF
    839            }
   \                     ??ZDP_SimpleDescMsg_0:
   \   00003D   7A04         MOV     R2,#0x4
    840          
    841            *pBuf++ = Status;
   \                     ??ZDP_SimpleDescMsg_1:
   \   00003F   12....       LCALL   ?Subroutine10 & 0xFFFF
    842          
    843            *pBuf++ = LO_UINT16( ZDAppNwkAddr.addr.shortAddr );
   \                     ??CrossCallReturnLabel_199:
   \   000042   90....       MOV     DPTR,#ZDAppNwkAddr
   \   000045   12....       LCALL   ??Subroutine95_0 & 0xFFFF
    844            *pBuf++ = HI_UINT16( ZDAppNwkAddr.addr.shortAddr );
   \                     ??CrossCallReturnLabel_134:
   \   000048   90....       MOV     DPTR,#ZDAppNwkAddr + 1
   \   00004B   12....       LCALL   ?Subroutine54 & 0xFFFF
   \                     ??CrossCallReturnLabel_81:
   \   00004E   A3           INC     DPTR
    845          
    846            if ( len > 4 )
   \   00004F   EA           MOV     A,R2
   \   000050   C3           CLR     C
   \   000051   9405         SUBB    A,#0x5
   \   000053   5003         JNC     $+5
   \   000055   02....       LJMP    ??ZDP_SimpleDescMsg_3 & 0xFFFF
    847            {
    848              *pBuf++ = len - 4;   // Simple descriptor length
   \   000058   74FC         MOV     A,#-0x4
   \   00005A   2A           ADD     A,R2
   \   00005B   F0           MOVX    @DPTR,A
   \   00005C   A3           INC     DPTR
   \   00005D   08           INC     R0
   \   00005E   08           INC     R0
   \   00005F   A983         MOV     R1,DPH
    849          
    850              *pBuf++ = pSimpleDesc->EndPoint;
   \   000061   8C82         MOV     DPL,R4
   \   000063   8D83         MOV     DPH,R5
   \   000065   12....       LCALL   ??Subroutine95_0 & 0xFFFF
    851              *pBuf++ = LO_UINT16( pSimpleDesc->AppProfId );
   \                     ??CrossCallReturnLabel_135:
   \   000068   8C82         MOV     DPL,R4
   \   00006A   8D83         MOV     DPH,R5
   \   00006C   A3           INC     DPTR
   \   00006D   8582..       MOV     ?V2,DPL
   \   000070   8583..       MOV     ?V3,DPH
   \   000073   12....       LCALL   ?Subroutine11 & 0xFFFF
    852              *pBuf++ = HI_UINT16( pSimpleDesc->AppProfId );
    853              *pBuf++ = LO_UINT16( pSimpleDesc->AppDeviceId );
   \                     ??CrossCallReturnLabel_4:
   \   000076   EC           MOV     A,R4
   \   000077   2403         ADD     A,#0x3
   \   000079   12....       LCALL   ?Subroutine62 & 0xFFFF
   \                     ??CrossCallReturnLabel_90:
   \   00007C   12....       LCALL   ?Subroutine11 & 0xFFFF
    854              *pBuf++ = HI_UINT16( pSimpleDesc->AppDeviceId );
    855          
    856              *pBuf++ = (byte)(pSimpleDesc->AppDevVer << 4);
   \                     ??CrossCallReturnLabel_5:
   \   00007F   8C82         MOV     DPL,R4
   \   000081   8D83         MOV     DPH,R5
   \   000083   A3           INC     DPTR
   \   000084   A3           INC     DPTR
   \   000085   A3           INC     DPTR
   \   000086   A3           INC     DPTR
   \   000087   A3           INC     DPTR
   \   000088   E0           MOVX    A,@DPTR
   \   000089   C4           SWAP    A
   \   00008A   54F0         ANL     A,#0xf0
   \   00008C   12....       LCALL   ??Subroutine91_0 & 0xFFFF
    857          
    858              *pBuf++ = pSimpleDesc->AppNumInClusters;
   \                     ??CrossCallReturnLabel_132:
   \   00008F   2406         ADD     A,#0x6
   \   000091   12....       LCALL   ?Subroutine62 & 0xFFFF
   \                     ??CrossCallReturnLabel_91:
   \   000094   12....       LCALL   ??Subroutine95_0 & 0xFFFF
    859              if ( pSimpleDesc->AppNumInClusters )
   \                     ??CrossCallReturnLabel_136:
   \   000097   85..82       MOV     DPL,?V2
   \   00009A   85..83       MOV     DPH,?V3
   \   00009D   E0           MOVX    A,@DPTR
   \   00009E   601D         JZ      ??ZDP_SimpleDescMsg_4
    860              {
    861                for (i=0; i<pSimpleDesc->AppNumInClusters; ++i)
   \   0000A0   7B00         MOV     R3,#0x0
   \   0000A2   8008         SJMP    ??CrossCallReturnLabel_0
    862                {
    863                  *pBuf++ = LO_UINT16( pSimpleDesc->pAppInClusterList[i] );
   \                     ??ZDP_SimpleDescMsg_5:
   \   0000A4   12....       LCALL   ?Subroutine60 & 0xFFFF
    864                  *pBuf++ = HI_UINT16( pSimpleDesc->pAppInClusterList[i] );
    865                }
   \                     ??CrossCallReturnLabel_88:
   \   0000A7   2407         ADD     A,#0x7
   \   0000A9   12....       LCALL   ?Subroutine8 & 0xFFFF
   \                     ??CrossCallReturnLabel_0:
   \   0000AC   8C82         MOV     DPL,R4
   \   0000AE   8D83         MOV     DPH,R5
   \   0000B0   A3           INC     DPTR
   \   0000B1   A3           INC     DPTR
   \   0000B2   A3           INC     DPTR
   \   0000B3   A3           INC     DPTR
   \   0000B4   A3           INC     DPTR
   \   0000B5   A3           INC     DPTR
   \   0000B6   E0           MOVX    A,@DPTR
   \   0000B7   FF           MOV     R7,A
   \   0000B8   EB           MOV     A,R3
   \   0000B9   C3           CLR     C
   \   0000BA   9F           SUBB    A,R7
   \   0000BB   40E7         JC      ??ZDP_SimpleDescMsg_5
    866              }
    867          
    868              *pBuf++ = pSimpleDesc->AppNumOutClusters;
   \                     ??ZDP_SimpleDescMsg_4:
   \   0000BD   EC           MOV     A,R4
   \   0000BE   2409         ADD     A,#0x9
   \   0000C0   12....       LCALL   ?Subroutine62 & 0xFFFF
   \                     ??CrossCallReturnLabel_92:
   \   0000C3   E0           MOVX    A,@DPTR
   \   0000C4   12....       LCALL   ??Subroutine113_0 & 0xFFFF
    869              if ( pSimpleDesc->AppNumOutClusters )
   \                     ??CrossCallReturnLabel_197:
   \   0000C7   85..82       MOV     DPL,?V2
   \   0000CA   85..83       MOV     DPH,?V3
   \   0000CD   E0           MOVX    A,@DPTR
   \   0000CE   6022         JZ      ??ZDP_SimpleDescMsg_6
    870              {
    871                for (i=0; i<pSimpleDesc->AppNumOutClusters; ++i)
   \   0000D0   7B00         MOV     R3,#0x0
   \                     ??ZDP_SimpleDescMsg_7:
   \   0000D2   8C82         MOV     DPL,R4
   \   0000D4   8D83         MOV     DPH,R5
   \   0000D6   A3           INC     DPTR
   \   0000D7   A3           INC     DPTR
   \   0000D8   A3           INC     DPTR
   \   0000D9   A3           INC     DPTR
   \   0000DA   A3           INC     DPTR
   \   0000DB   A3           INC     DPTR
   \   0000DC   A3           INC     DPTR
   \   0000DD   A3           INC     DPTR
   \   0000DE   A3           INC     DPTR
   \   0000DF   E0           MOVX    A,@DPTR
   \   0000E0   FF           MOV     R7,A
   \   0000E1   EB           MOV     A,R3
   \   0000E2   C3           CLR     C
   \   0000E3   9F           SUBB    A,R7
   \   0000E4   500C         JNC     ??ZDP_SimpleDescMsg_6
    872                {
    873                  *pBuf++ = LO_UINT16( pSimpleDesc->pAppOutClusterList[i] );
   \   0000E6   12....       LCALL   ?Subroutine60 & 0xFFFF
    874                  *pBuf++ = HI_UINT16( pSimpleDesc->pAppOutClusterList[i] );
    875                }
    876              }
    877            }
   \                     ??CrossCallReturnLabel_89:
   \   0000E9   240A         ADD     A,#0xa
   \   0000EB   12....       LCALL   ?Subroutine8 & 0xFFFF
   \                     ??CrossCallReturnLabel_1:
   \   0000EE   80E2         SJMP    ??ZDP_SimpleDescMsg_7
    878          
    879            else
    880            {
    881              *pBuf = 0; // Description Length = 0;
   \                     ??ZDP_SimpleDescMsg_3:
   \   0000F0   E4           CLR     A
   \   0000F1   F0           MOVX    @DPTR,A
    882            }
    883          
    884            return fillAndSend( &(inMsg->TransSeq), &(inMsg->srcAddr), Simple_Desc_rsp, len );
   \                     ??ZDP_SimpleDescMsg_6:
   \   0000F2                ; Setup parameters for call to function fillAndSend
   \   0000F2   75..04       MOV     ?V2,#0x4
   \   0000F5   75..80       MOV     ?V3,#-0x80
   \   0000F8   78..         MOV     R0,#?V2
   \   0000FA   12....       LCALL   ?PUSH_XSTACK_I_TWO
   \   0000FD   EA           MOV     A,R2
   \   0000FE   F9           MOV     R1,A
   \   0000FF   12....       LCALL   ?Subroutine61 & 0xFFFF
   \                     ??CrossCallReturnLabel_190:
   \   000102   35..         ADDC    A,?V1
   \   000104   FD           MOV     R5,A
   \   000105   E5..         MOV     A,?V0
   \   000107   240F         ADD     A,#0xf
   \   000109   FA           MOV     R2,A
   \   00010A   E4           CLR     A
   \   00010B   35..         ADDC    A,?V1
   \   00010D   FB           MOV     R3,A
   \   00010E   12....       LCALL   ??fillAndSend?relay  ; Banked call to: fillAndSend
   \   000111   7402         MOV     A,#0x2
   \   000113   12....       LCALL   ?DEALLOC_XSTACK8
   \                     ??ZDP_SimpleDescMsg_2:
   \   000116                REQUIRE ?Subroutine4
   \   000116                ; // Fall through to label ?Subroutine4
    885          }

   \                                 In  segment BANKED_CODE, align 1, keep-with-next
   \                     ?Subroutine4:
   \   000000   7F08         MOV     R7,#0x8
   \   000002   02....       LJMP    ?BANKED_LEAVE_XDATA

   \                                 In  segment BANKED_CODE, align 1, keep-with-next
   \                     ?Subroutine62:
   \   000000   F5..         MOV     ?V2,A
   \   000002   E4           CLR     A
   \   000003   3D           ADDC    A,R5
   \   000004   F5..         MOV     ?V3,A
   \   000006   85..82       MOV     DPL,?V2
   \   000009   F583         MOV     DPH,A
   \   00000B   22           RET

   \                                 In  segment BANKED_CODE, align 1, keep-with-next
   \                     ?Subroutine60:
   \   000000   EB           MOV     A,R3
   \   000001   12....       LCALL   ?Subroutine80 & 0xFFFF
   \                     ??CrossCallReturnLabel_111:
   \   000004   22           RET

   \                                 In  segment BANKED_CODE, align 1, keep-with-next
   \                     ?Subroutine11:
   \   000000   12....       LCALL   ??Subroutine97_0 & 0xFFFF
   \                     ??CrossCallReturnLabel_140:
   \   000003   12....       LCALL   ?Subroutine70 & 0xFFFF
   \                     ??CrossCallReturnLabel_145:
   \   000006   22           RET

   \                                 In  segment BANKED_CODE, align 1, keep-with-next
   \                     ?Subroutine8:
   \   000000   F5..         MOV     ?V4,A
   \   000002   E4           CLR     A
   \   000003   3D           ADDC    A,R5
   \   000004   F5..         MOV     ?V5,A
   \   000006   85..82       MOV     DPL,?V4
   \   000009   F583         MOV     DPH,A
   \   00000B   12....       LCALL   ?Subroutine75 & 0xFFFF
   \                     ??CrossCallReturnLabel_108:
   \   00000E   12....       LCALL   ?Subroutine71 & 0xFFFF
   \                     ??CrossCallReturnLabel_201:
   \   000011   85..82       MOV     DPL,?V4
   \   000014   85..83       MOV     DPH,?V5
   \   000017   12....       LCALL   ?Subroutine75 & 0xFFFF
   \                     ??CrossCallReturnLabel_109:
   \   00001A   F583         MOV     DPH,A
   \   00001C   12....       LCALL   ??Subroutine96_0 & 0xFFFF
   \                     ??CrossCallReturnLabel_143:
   \   00001F   0B           INC     R3
   \   000020   22           RET

   \                                 In  segment BANKED_CODE, align 1, keep-with-next
   \                     ?Subroutine75:
   \   000000   E0           MOVX    A,@DPTR
   \   000001   25..         ADD     A,?V2
   \   000003   FF           MOV     R7,A
   \   000004   A3           INC     DPTR
   \   000005   E0           MOVX    A,@DPTR
   \   000006   35..         ADDC    A,?V3
   \   000008   8F82         MOV     DPL,R7
   \   00000A   22           RET

   \                                 In  segment BANKED_CODE, align 1, keep-with-next
   \                     ?Subroutine61:
   \   000000   E5..         MOV     A,?V0
   \   000002                REQUIRE ??Subroutine112_0
   \   000002                ; // Fall through to label ??Subroutine112_0

   \                                 In  segment BANKED_CODE, align 1, keep-with-next
   \                     ?Subroutine10:
   \   000000   EE           MOV     A,R6
   \   000001                REQUIRE ??Subroutine113_0
   \   000001                ; // Fall through to label ??Subroutine113_0

   \                                 In  segment BANKED_CODE, align 1, keep-with-next
   \                     ??Subroutine113_0:
   \   000000   8882         MOV     DPL,R0
   \   000002   8983         MOV     DPH,R1
   \   000004                REQUIRE ??Subroutine114_0
   \   000004                ; // Fall through to label ??Subroutine114_0
    886          
    887          /*********************************************************************
    888           * @fn          ZDP_EPRsp
    889           *
    890           * @brief       This builds and send an endpoint list. Used in
    891           *              Active_EP_rsp and Match_Desc_Rsp
    892           *              message.  This function sends unicast message to the
    893           *              requesting device.
    894           *
    895           * @param       MsgType - either Active_EP_rsp or Match_Desc_Rsp
    896           * @param       dstAddr - destination address
    897           * @param       Status - message status (ZDP_SUCCESS or other)
    898           * @param       nwkAddr - Device's short address that this response describes
    899           * @param       Count - number of endpoint/interfaces in list
    900           * @param       pEPIntfList - Array of Endpoint/Interfaces
    901           * @param       SecurityEnable - Security Options
    902           *
    903           * @return      afStatus_t
    904           */

   \                                 In  segment BANKED_CODE, align 1, keep-with-next
    905          afStatus_t ZDP_EPRsp( uint16 MsgType, byte TransSeq, zAddrType_t *dstAddr,
   \                     ZDP_EPRsp:
    906                                  byte Status, uint16 nwkAddr, byte Count,
    907                                  uint8 *pEPList,
    908                                  byte SecurityEnable )
    909          {
   \   000000                REQUIRE ?V0
   \   000000                REQUIRE ?V1
   \   000000                REQUIRE ?V2
   \   000000                REQUIRE ?V3
   \   000000                REQUIRE ?V4
   \   000000                REQUIRE ?V5
   \   000000                REQUIRE ?V6
   \   000000   74F1         MOV     A,#-0xf
   \   000002   12....       LCALL   ?BANKED_ENTER_XDATA
   \   000005                ; Saved register size: 15
   \   000005                ; Auto size: 1
   \   000005   74FF         MOV     A,#-0x1
   \   000007   12....       LCALL   ?ALLOC_XSTACK8
   \   00000A   E9           MOV     A,R1
   \   00000B   85..82       MOV     DPL,?XSP + 0
   \   00000E   85..83       MOV     DPH,?XSP + 1
   \   000011   F0           MOVX    @DPTR,A
   \   000012   8A..         MOV     ?V2,R2
   \   000014   8B..         MOV     ?V3,R3
   \   000016   EC           MOV     A,R4
   \   000017   FE           MOV     R6,A
   \   000018   ED           MOV     A,R5
   \   000019   FF           MOV     R7,A
    910            uint8 *pBuf = ZDP_TmpBuf;
   \   00001A   12....       LCALL   ??Subroutine102_0 & 0xFFFF
    911            byte len = 1 + 2 + 1;  // Status + nwkAddr + endpoint/interface count.
   \                     ??CrossCallReturnLabel_164:
   \   00001D   75..04       MOV     ?V0,#0x4
    912            byte txOptions;
    913          
    914            (void)SecurityEnable;  // Intentionally unreferenced parameter
    915          
    916            if ( MsgType == Match_Desc_rsp )
   \   000020   7406         MOV     A,#0x6
   \   000022   65..         XRL     A,?V2
   \   000024   7004         JNZ     ??ZDP_EPRsp_0
   \   000026   7480         MOV     A,#-0x80
   \   000028   65..         XRL     A,?V3
   \                     ??ZDP_EPRsp_0:
   \   00002A   7005         JNZ     ??ZDP_EPRsp_1
    917              txOptions = AF_MSG_ACK_REQUEST;
   \   00002C   75..10       MOV     ?V1,#0x10
   \   00002F   8003         SJMP    ??ZDP_EPRsp_2
    918            else
    919              txOptions = 0;
   \                     ??ZDP_EPRsp_1:
   \   000031   75..00       MOV     ?V1,#0x0
    920          
    921              *pBuf++ = Status;
   \                     ??ZDP_EPRsp_2:
   \   000034   7410         MOV     A,#0x10
   \   000036   12....       LCALL   ?XSTACK_DISP0_8
   \   000039   12....       LCALL   ?Subroutine15 & 0xFFFF
   \                     ??CrossCallReturnLabel_212:
   \   00003C   7411         MOV     A,#0x11
   \   00003E   12....       LCALL   ?XSTACK_DISP0_8
   \   000041   12....       LCALL   ?Subroutine31 & 0xFFFF
    922            *pBuf++ = LO_UINT16( nwkAddr );
    923            *pBuf++ = HI_UINT16( nwkAddr );
   \                     ??CrossCallReturnLabel_38:
   \   000044   7413         MOV     A,#0x13
   \   000046   12....       LCALL   ?XSTACK_DISP0_8
   \   000049   E0           MOVX    A,@DPTR
   \   00004A   F9           MOV     R1,A
    924          
    925            *pBuf++ = Count;   // Endpoint/Interface count
   \   00004B   8A82         MOV     DPL,R2
   \   00004D   8B83         MOV     DPH,R3
   \   00004F   F0           MOVX    @DPTR,A
   \   000050   A3           INC     DPTR
   \   000051   0A           INC     R2
   \   000052   AB83         MOV     R3,DPH
    926          
    927            if ( Count )
   \   000054   601E         JZ      ??ZDP_EPRsp_3
    928            {
    929              len += Count;
   \   000056   7404         MOV     A,#0x4
   \   000058   29           ADD     A,R1
   \   000059   F5..         MOV     ?V0,A
    930              osal_memcpy( pBuf, pEPList, Count );
   \   00005B                ; Setup parameters for call to function osal_memcpy
   \   00005B   7414         MOV     A,#0x14
   \   00005D   12....       LCALL   ?XSTACK_DISP0_8
   \   000060   12....       LCALL   ?Subroutine45 & 0xFFFF
    931            }
   \                     ??CrossCallReturnLabel_61:
   \   000063   12....       LCALL   ?PUSH_XSTACK_I_THREE
   \   000066   89..         MOV     ?V4,R1
   \   000068   AC..         MOV     R4,?V4
   \   00006A   7D00         MOV     R5,#0x0
   \   00006C   12....       LCALL   ??osal_memcpy?relay  ; Banked call to: osal_memcpy
   \   00006F   7403         MOV     A,#0x3
   \   000071   12....       LCALL   ?DEALLOC_XSTACK8
    932          
    933            FillAndSendTxOptions( &TransSeq, dstAddr, MsgType, len, txOptions );
   \                     ??ZDP_EPRsp_3:
   \   000074   E5..         MOV     A,?V1
   \   000076   90....       MOV     DPTR,#ZDP_TxOptions
   \   000079   F0           MOVX    @DPTR,A
   \   00007A                ; Setup parameters for call to function fillAndSend
   \   00007A   78..         MOV     R0,#?V2
   \   00007C   12....       LCALL   ?PUSH_XSTACK_I_TWO
   \   00007F   A9..         MOV     R1,?V0
   \   000081   EE           MOV     A,R6
   \   000082   FC           MOV     R4,A
   \   000083   EF           MOV     A,R7
   \   000084   FD           MOV     R5,A
   \   000085   7402         MOV     A,#0x2
   \   000087   12....       LCALL   ?XSTACK_DISP101_8
   \   00008A   12....       LCALL   ??fillAndSend?relay  ; Banked call to: fillAndSend
   \   00008D   7402         MOV     A,#0x2
   \   00008F   12....       LCALL   ?DEALLOC_XSTACK8
   \   000092   90....       MOV     DPTR,#ZDP_TxOptions
   \   000095   E4           CLR     A
   \   000096   F0           MOVX    @DPTR,A
   \   000097   04           INC     A
   \   000098   12....       LCALL   ?DEALLOC_XSTACK8
   \   00009B   7F07         MOV     R7,#0x7
   \   00009D   02....       LJMP    ?BANKED_LEAVE_XDATA
    934          }

   \                                 In  segment BANKED_CODE, align 1, keep-with-next
   \                     ??Subroutine101_0:
   \   000000   E0           MOVX    A,@DPTR
   \   000001   8A82         MOV     DPL,R2
   \   000003   8B83         MOV     DPH,R3
   \   000005   22           RET

   \                                 In  segment BANKED_CODE, align 1, keep-with-next
   \                     ?Subroutine31:
   \   000000   12....       LCALL   ?Subroutine74 & 0xFFFF
   \                     ??CrossCallReturnLabel_106:
   \   000003   F0           MOVX    @DPTR,A
   \   000004   A3           INC     DPTR
   \   000005   E9           MOV     A,R1
   \   000006   F0           MOVX    @DPTR,A
   \   000007   A3           INC     DPTR
   \   000008   0A           INC     R2
   \   000009   0A           INC     R2
   \   00000A   AB83         MOV     R3,DPH
   \   00000C   22           RET

   \                                 In  segment BANKED_CODE, align 1, keep-with-next
   \                     ?Subroutine15:
   \   000000   12....       LCALL   ??Subroutine101_0 & 0xFFFF
   \                     ??CrossCallReturnLabel_156:
   \   000003                REQUIRE ??Subroutine116_0
   \   000003                ; // Fall through to label ??Subroutine116_0

   \                                 In  segment BANKED_CODE, align 1, keep-with-next
   \                     ?Subroutine74:
   \   000000   12....       LCALL   ??Subroutine126_0 & 0xFFFF
   \                     ??CrossCallReturnLabel_258:
   \   000003   F9           MOV     R1,A
   \   000004   E8           MOV     A,R0
   \   000005   8A82         MOV     DPL,R2
   \   000007   8B83         MOV     DPH,R3
   \   000009   22           RET

   \                                 In  segment BANKED_CODE, align 1, keep-with-next
   \                     ?Subroutine45:
   \   000000   E0           MOVX    A,@DPTR
   \   000001   F5..         MOV     ?V4,A
   \   000003   A3           INC     DPTR
   \   000004   E0           MOVX    A,@DPTR
   \   000005   F5..         MOV     ?V5,A
   \   000007   75..00       MOV     ?V6,#0x0
   \   00000A   78..         MOV     R0,#?V4
   \   00000C   22           RET
    935          
    936          /*********************************************************************
    937           * @fn          ZDP_UserDescRsp
    938           *
    939           * @brief       Build and send the User Decriptor Response.
    940           *
    941           *
    942           * @param       dstAddr - destination address
    943           * @param       nwkAddrOfInterest -
    944           * @param       userDesc -
    945           * @param       SecurityEnable - Security Options
    946           *
    947           * @return      ZStatus_t
    948           */

   \                                 In  segment BANKED_CODE, align 1, keep-with-next
    949          ZStatus_t ZDP_UserDescRsp( byte TransSeq, zAddrType_t *dstAddr,
   \                     ZDP_UserDescRsp:
    950                          uint16 nwkAddrOfInterest, UserDescriptorFormat_t *userDesc,
    951                          byte SecurityEnable )
    952          {
   \   000000                REQUIRE ?V0
   \   000000                REQUIRE ?V1
   \   000000                REQUIRE ?V2
   \   000000                REQUIRE ?V4
   \   000000                REQUIRE ?V5
   \   000000                REQUIRE ?V6
   \   000000                REQUIRE ?V8
   \   000000                REQUIRE ?V9
   \   000000   74EE         MOV     A,#-0x12
   \   000002   12....       LCALL   ?BANKED_ENTER_XDATA
   \   000005                ; Saved register size: 18
   \   000005                ; Auto size: 1
   \   000005   74FF         MOV     A,#-0x1
   \   000007   12....       LCALL   ?ALLOC_XSTACK8
   \   00000A   E9           MOV     A,R1
   \   00000B   85..82       MOV     DPL,?XSP + 0
   \   00000E   85..83       MOV     DPH,?XSP + 1
   \   000011   F0           MOVX    @DPTR,A
   \   000012   EA           MOV     A,R2
   \   000013   FE           MOV     R6,A
   \   000014   EB           MOV     A,R3
   \   000015   FF           MOV     R7,A
    953            uint8 *pBuf = ZDP_TmpBuf;
   \   000016   12....       LCALL   ?Subroutine40 & 0xFFFF
   \                     ??CrossCallReturnLabel_234:
   \   000019   7413         MOV     A,#0x13
   \   00001B   12....       LCALL   ?XSTACK_DISP0_8
   \   00001E   12....       LCALL   ??Subroutine125_0 & 0xFFFF
   \                     ??CrossCallReturnLabel_242:
   \   000021   88..         MOV     ?V8,R0
   \   000023   89..         MOV     ?V9,R1
    954            byte len = 1 + 2 + 1;  // Status + nwkAddr + descriptor length.
    955          
    956            (void)SecurityEnable;  // Intentionally unreferenced parameter
    957          
    958            len += userDesc->len;
   \   000025   8882         MOV     DPL,R0
   \   000027   F583         MOV     DPH,A
   \   000029   E0           MOVX    A,@DPTR
   \   00002A   2404         ADD     A,#0x4
   \   00002C   F5..         MOV     ?V2,A
    959          
    960            *pBuf++ = ZSUCCESS;
   \   00002E   85..82       MOV     DPL,?V0
   \   000031   85..83       MOV     DPH,?V1
   \   000034   12....       LCALL   ?Subroutine34 & 0xFFFF
    961          
    962            *pBuf++ = LO_UINT16( nwkAddrOfInterest );
    963            *pBuf++ = HI_UINT16( nwkAddrOfInterest );
   \                     ??CrossCallReturnLabel_45:
   \   000037   12....       LCALL   ?Subroutine28 & 0xFFFF
    964          
    965            *pBuf++ = userDesc->len;
   \                     ??CrossCallReturnLabel_30:
   \   00003A   E0           MOVX    A,@DPTR
   \   00003B   85..82       MOV     DPL,?V0
   \   00003E   85..83       MOV     DPH,?V1
   \   000041   12....       LCALL   ?Subroutine28 & 0xFFFF
    966            osal_memcpy( pBuf, userDesc->desc, userDesc->len );
   \                     ??CrossCallReturnLabel_31:
   \   000044   A3           INC     DPTR
   \   000045   A982         MOV     R1,DPL
   \   000047   AA83         MOV     R2,DPH
   \   000049   89..         MOV     ?V4,R1
   \   00004B   8A..         MOV     ?V5,R2
   \   00004D   75..00       MOV     ?V6,#0x0
   \   000050   78..         MOV     R0,#?V4
   \   000052   12....       LCALL   ?PUSH_XSTACK_I_THREE
   \   000055   85..82       MOV     DPL,?V8
   \   000058   85..83       MOV     DPH,?V9
   \   00005B   E0           MOVX    A,@DPTR
   \   00005C   FC           MOV     R4,A
   \   00005D   7D00         MOV     R5,#0x0
   \   00005F   AA..         MOV     R2,?V0
   \   000061   AB..         MOV     R3,?V1
   \   000063   12....       LCALL   ??osal_memcpy?relay  ; Banked call to: osal_memcpy
   \   000066   7403         MOV     A,#0x3
   \   000068   12....       LCALL   ?DEALLOC_XSTACK8
    967          
    968            return (ZStatus_t)fillAndSend( &TransSeq, dstAddr, User_Desc_rsp, len );
   \   00006B                ; Setup parameters for call to function fillAndSend
   \   00006B   75..11       MOV     ?V0,#0x11
   \   00006E   75..80       MOV     ?V1,#-0x80
   \   000071   78..         MOV     R0,#?V0
   \   000073   12....       LCALL   ?PUSH_XSTACK_I_TWO
   \   000076   A9..         MOV     R1,?V2
   \   000078   EE           MOV     A,R6
   \   000079   FC           MOV     R4,A
   \   00007A   EF           MOV     A,R7
   \   00007B   FD           MOV     R5,A
   \   00007C   7402         MOV     A,#0x2
   \   00007E   12....       LCALL   ?XSTACK_DISP101_8
   \   000081   12....       LCALL   ??fillAndSend?relay  ; Banked call to: fillAndSend
   \   000084   7402         MOV     A,#0x2
   \   000086   12....       LCALL   ?DEALLOC_XSTACK8
   \   000089   02....       LJMP    ?Subroutine3 & 0xFFFF
    969          }

   \                                 In  segment BANKED_CODE, align 1, keep-with-next
   \                     ?Subroutine28:
   \   000000   F0           MOVX    @DPTR,A
   \   000001   A3           INC     DPTR
   \   000002   8582..       MOV     ?V0,DPL
   \   000005   8583..       MOV     ?V1,DPH
   \   000008                ; Setup parameters for call to function osal_memcpy
   \   000008   8882         MOV     DPL,R0
   \   00000A   8983         MOV     DPH,R1
   \   00000C   22           RET

   \                                 In  segment BANKED_CODE, align 1, keep-with-next
   \                     ?Subroutine3:
   \   000000   7401         MOV     A,#0x1
   \   000002                REQUIRE ??Subroutine117_0
   \   000002                ; // Fall through to label ??Subroutine117_0
    970          
    971          /*********************************************************************
    972           * @fn          ZDP_ServerDiscRsp
    973           *
    974           * @brief       Build and send the Server_Discovery_rsp response.
    975           *
    976           * @param       transID - Transaction sequence number of request.
    977           * @param       dstAddr - Network Destination Address.
    978           * @param       status - Status of response to request.
    979           * @param       aoi - Network Address of Interest of request.
    980           * @param       serverMask - Bit map of service(s) being sought.
    981           * @param       SecurityEnable - Security Options
    982           *
    983           * @return      ZStatus_t
    984           */

   \                                 In  segment BANKED_CODE, align 1, keep-with-next
    985          ZStatus_t ZDP_ServerDiscRsp( byte transID, zAddrType_t *dstAddr, byte status,
   \                     ZDP_ServerDiscRsp:
    986                                     uint16 aoi, uint16 serverMask, byte SecurityEnable )
    987          {
   \   000000                REQUIRE ?V0
   \   000000                REQUIRE ?V1
   \   000000   74F6         MOV     A,#-0xa
   \   000002   12....       LCALL   ?BANKED_ENTER_XDATA
   \   000005                ; Saved register size: 10
   \   000005                ; Auto size: 1
   \   000005   74FF         MOV     A,#-0x1
   \   000007   12....       LCALL   ?ALLOC_XSTACK8
   \   00000A   E9           MOV     A,R1
   \   00000B   85..82       MOV     DPL,?XSP + 0
   \   00000E   85..83       MOV     DPH,?XSP + 1
   \   000011   F0           MOVX    @DPTR,A
   \   000012   EC           MOV     A,R4
   \   000013   12....       LCALL   ??Subroutine123_0 & 0xFFFF
    988            const byte len = 1  + 2;  // status + aoi + mask.
    989            uint8 *pBuf = ZDP_TmpBuf;
    990            ZStatus_t stat;
    991          
    992            // Intentionally unreferenced parameters
    993            (void)aoi;
    994            (void)SecurityEnable;
    995          
    996            *pBuf++ = status;
   \                     ??CrossCallReturnLabel_238:
   \   000016   12....       LCALL   ?Subroutine10 & 0xFFFF
   \                     ??CrossCallReturnLabel_200:
   \   000019   740D         MOV     A,#0xd
   \   00001B   12....       LCALL   ?XSTACK_DISP0_8
   \   00001E   12....       LCALL   ?Subroutine42 & 0xFFFF
    997          
    998            *pBuf++ = LO_UINT16( serverMask );
    999            *pBuf++ = HI_UINT16( serverMask );
   1000          
   1001            ZDP_TxOptions = AF_MSG_ACK_REQUEST;
   \                     ??CrossCallReturnLabel_58:
   \   000021   90....       MOV     DPTR,#ZDP_TxOptions
   \   000024   7410         MOV     A,#0x10
   \   000026   F0           MOVX    @DPTR,A
   1002            stat = fillAndSend( &transID, dstAddr, Server_Discovery_rsp, len );
   \   000027                ; Setup parameters for call to function fillAndSend
   \   000027   75..15       MOV     ?V0,#0x15
   \   00002A   75..80       MOV     ?V1,#-0x80
   \   00002D   78..         MOV     R0,#?V0
   \   00002F   12....       LCALL   ?PUSH_XSTACK_I_TWO
   \   000032   7903         MOV     R1,#0x3
   \   000034   EA           MOV     A,R2
   \   000035   FC           MOV     R4,A
   \   000036   EB           MOV     A,R3
   \   000037   FD           MOV     R5,A
   \   000038   7402         MOV     A,#0x2
   \   00003A   12....       LCALL   ?XSTACK_DISP101_8
   \   00003D   12....       LCALL   ??fillAndSend?relay  ; Banked call to: fillAndSend
   \   000040   7402         MOV     A,#0x2
   \   000042   12....       LCALL   ?DEALLOC_XSTACK8
   1003            ZDP_TxOptions = AF_TX_OPTIONS_NONE;
   \   000045   90....       MOV     DPTR,#ZDP_TxOptions
   \   000048   E4           CLR     A
   \   000049   F0           MOVX    @DPTR,A
   1004          
   1005            return ( stat );
   \   00004A   04           INC     A
   \   00004B   02....       LJMP    ??Subroutine94_0 & 0xFFFF
   1006          }
   1007          
   1008          /*********************************************************************
   1009           * @fn          ZDP_GenericRsp
   1010           *
   1011           * @brief       Sends a response message with only the parameter status
   1012           *              byte and the addr of interest for data.
   1013           *              This function sends unicast message to the
   1014           *              requesting device.
   1015           *
   1016           * @param       dstAddr - destination address
   1017           * @param       status  - generic status for response
   1018           * @param       aoi     - address of interest
   1019           * @param       dstAddr - destination address
   1020           * @param       rspId   - response cluster ID
   1021           * @param       SecurityEnable - Security Options
   1022           *
   1023           * @return      afStatus_t
   1024           */

   \                                 In  segment BANKED_CODE, align 1, keep-with-next
   1025          afStatus_t ZDP_GenericRsp( byte TransSeq, zAddrType_t *dstAddr,
   \                     ZDP_GenericRsp:
   1026                               byte status, uint16 aoi, uint16 rspID, byte SecurityEnable )
   1027          {
   \   000000   74F7         MOV     A,#-0x9
   \   000002   12....       LCALL   ?BANKED_ENTER_XDATA
   \   000005                ; Saved register size: 9
   \   000005                ; Auto size: 1
   \   000005   74FF         MOV     A,#-0x1
   \   000007   12....       LCALL   ?ALLOC_XSTACK8
   \   00000A   E9           MOV     A,R1
   \   00000B   85..82       MOV     DPL,?XSP + 0
   \   00000E   85..83       MOV     DPH,?XSP + 1
   \   000011   F0           MOVX    @DPTR,A
   1028            uint8 len;
   1029          
   1030            (void)SecurityEnable;  // Intentionally unreferenced parameter
   1031          
   1032            ZDP_TmpBuf[0] = status;
   \   000012   12....       LCALL   ?Subroutine43 & 0xFFFF
   \                     ??CrossCallReturnLabel_148:
   \   000015   EC           MOV     A,R4
   \   000016   F0           MOVX    @DPTR,A
   \   000017   740A         MOV     A,#0xa
   \   000019   12....       LCALL   ?XSTACK_DISP0_8
   \   00001C   12....       LCALL   ??Subroutine125_0 & 0xFFFF
   1033            ZDP_TmpBuf[1] = LO_UINT16( aoi );
   \                     ??CrossCallReturnLabel_243:
   \   00001F   90....       MOV     DPTR,#ZDP_TmpBuf
   \   000022   E0           MOVX    A,@DPTR
   \   000023   FC           MOV     R4,A
   \   000024   A3           INC     DPTR
   \   000025   E0           MOVX    A,@DPTR
   \   000026   F583         MOV     DPH,A
   \   000028   8C82         MOV     DPL,R4
   \   00002A   A3           INC     DPTR
   \   00002B   E8           MOV     A,R0
   \   00002C   12....       LCALL   ?Subroutine19 & 0xFFFF
   1034            ZDP_TmpBuf[2] = HI_UINT16( aoi );
   1035          
   1036            // Length byte
   1037            ZDP_TmpBuf[3] = 0;
   \                     ??CrossCallReturnLabel_17:
   \   00002F   12....       LCALL   ?Subroutine43 & 0xFFFF
   \                     ??CrossCallReturnLabel_149:
   \   000032   A3           INC     DPTR
   \   000033   A3           INC     DPTR
   \   000034   A3           INC     DPTR
   \   000035   E4           CLR     A
   \   000036   F0           MOVX    @DPTR,A
   1038            len = 4;
   1039          
   1040            return fillAndSend( &TransSeq, dstAddr, rspID, len );
   \   000037                ; Setup parameters for call to function fillAndSend
   \   000037   740C         MOV     A,#0xc
   \   000039   12....       LCALL   ?XSTACK_DISP0_8
   \   00003C   12....       LCALL   ?PUSH_XSTACK8_X_TWO
   \   00003F   7904         MOV     R1,#0x4
   \   000041   EA           MOV     A,R2
   \   000042   FC           MOV     R4,A
   \   000043   EB           MOV     A,R3
   \   000044   FD           MOV     R5,A
   \   000045   7402         MOV     A,#0x2
   \   000047   12....       LCALL   ?XSTACK_DISP101_8
   \   00004A   12....       LCALL   ??fillAndSend?relay  ; Banked call to: fillAndSend
   \   00004D   7402         MOV     A,#0x2
   \   00004F   12....       LCALL   ?DEALLOC_XSTACK8
   \   000052   7401         MOV     A,#0x1
   \   000054   12....       LCALL   ?DEALLOC_XSTACK8
   \   000057                REQUIRE ?Subroutine5
   \   000057                ; // Fall through to label ?Subroutine5
   1041          }

   \                                 In  segment BANKED_CODE, align 1, keep-with-next
   \                     ?Subroutine5:
   \   000000   7F01         MOV     R7,#0x1
   \   000002   02....       LJMP    ?BANKED_LEAVE_XDATA
   1042          
   1043          /*********************************************************************
   1044           * Binding
   1045           */
   1046          /*********************************************************************
   1047           * @fn          ZDP_EndDeviceBindReq
   1048           *
   1049           * @brief       This builds and sends a End_Device_Bind_req message.
   1050           *              This function sends a unicast message.
   1051           *
   1052           * @param       dstAddr - destination address
   1053           * @param       LocalCoordinator - short address of local coordinator
   1054           * @param       epIntf - Endpoint/Interface of Simple Desc
   1055           * @param       ProfileID - Profile ID
   1056           *
   1057           *   The Input cluster list is the opposite of what you would think.
   1058           *   This is the output cluster list of this device
   1059           * @param       NumInClusters - number of input clusters
   1060           * @param       InClusterList - input cluster ID list
   1061           *
   1062           *   The Output cluster list is the opposite of what you would think.
   1063           *   This is the input cluster list of this device
   1064           * @param       NumOutClusters - number of output clusters
   1065           * @param       OutClusterList - output cluster ID list
   1066           *
   1067           * @param       SecurityEnable - Security Options
   1068           *
   1069           * @return      afStatus_t
   1070           */

   \                                 In  segment BANKED_CODE, align 1, keep-with-next
   1071          afStatus_t ZDP_EndDeviceBindReq( zAddrType_t *dstAddr,
   \                     ZDP_EndDeviceBindReq:
   1072                                           uint16 LocalCoordinator,
   1073                                           byte endPoint,
   1074                                           uint16 ProfileID,
   1075                                           byte NumInClusters, cId_t *InClusterList,
   1076                                           byte NumOutClusters, cId_t *OutClusterList,
   1077                                           byte SecurityEnable )
   1078          {
   \   000000                REQUIRE ?V0
   \   000000                REQUIRE ?V1
   \   000000                REQUIRE ?V2
   \   000000                REQUIRE ?V3
   \   000000                REQUIRE ?V4
   \   000000                REQUIRE ?V5
   \   000000                REQUIRE ?V6
   \   000000                REQUIRE ?V7
   \   000000                REQUIRE ?V8
   \   000000                REQUIRE ?V9
   \   000000   74EE         MOV     A,#-0x12
   \   000002   12....       LCALL   ?BANKED_ENTER_XDATA
   \   000005                ; Saved register size: 18
   \   000005                ; Auto size: 0
   \   000005   8A..         MOV     ?V6,R2
   \   000007   8B..         MOV     ?V7,R3
   \   000009   8C..         MOV     ?V4,R4
   \   00000B   8D..         MOV     ?V5,R5
   \   00000D   89..         MOV     ?V3,R1
   1079            uint8 *pBuf = ZDP_TmpBuf;
   \   00000F   12....       LCALL   ?Subroutine48 & 0xFFFF
   \                     ??CrossCallReturnLabel_223:
   \   000012   7414         MOV     A,#0x14
   \   000014   12....       LCALL   ?XSTACK_DISP0_8
   \   000017   E0           MOVX    A,@DPTR
   \   000018   F5..         MOV     ?V2,A
   \   00001A   7417         MOV     A,#0x17
   \   00001C   12....       LCALL   ?XSTACK_DISP0_8
   \   00001F   E0           MOVX    A,@DPTR
   \   000020   F5..         MOV     ?V1,A
   1080            uint8 i, len;
   1081            uint8 *ieeeAddr;
   1082          
   1083            (void)SecurityEnable;  // Intentionally unreferenced parameter
   1084          
   1085            // LocalCoordinator + SrcExtAddr + ep + ProfileID +  NumInClusters + NumOutClusters.
   1086            len = 2 + Z_EXTADDR_LEN + 1 + 2 + 1 + 1;
   1087            len += (NumInClusters + NumOutClusters) * sizeof ( uint16 );
   \   000022   E5..         MOV     A,?V2
   \   000024   25..         ADD     A,?V1
   \   000026   C3           CLR     C
   \   000027   33           RLC     A
   \   000028   240F         ADD     A,#0xf
   \   00002A   F5..         MOV     ?V0,A
   1088          
   1089            if ( len >= ZDP_BUF_SZ-1 )
   \   00002C   C3           CLR     C
   \   00002D   944F         SUBB    A,#0x4f
   \   00002F   4005         JC      ??ZDP_EndDeviceBindReq_0
   1090            {
   1091              return afStatus_MEM_FAIL;
   \   000031   7910         MOV     R1,#0x10
   \   000033   02....       LJMP    ??ZDP_EndDeviceBindReq_1 & 0xFFFF
   1092            }
   1093          
   1094            if ( LocalCoordinator != NLME_GetShortAddr() )
   \                     ??ZDP_EndDeviceBindReq_0:
   \   000036                ; Setup parameters for call to function NLME_GetShortAddr
   \   000036   12....       LCALL   ??NLME_GetShortAddr?relay; Banked call to: NLME_GetShortAddr
   \   000039   EA           MOV     A,R2
   \   00003A   65..         XRL     A,?V4
   \   00003C   7003         JNZ     ??ZDP_EndDeviceBindReq_2
   \   00003E   EB           MOV     A,R3
   \   00003F   65..         XRL     A,?V5
   \                     ??ZDP_EndDeviceBindReq_2:
   \   000041   6005         JZ      ??ZDP_EndDeviceBindReq_3
   1095            {
   1096              return afStatus_INVALID_PARAMETER;
   \   000043   7902         MOV     R1,#0x2
   \   000045   02....       LJMP    ??ZDP_EndDeviceBindReq_1 & 0xFFFF
   1097            }
   1098          
   1099            *pBuf++ = LO_UINT16( LocalCoordinator );
   \                     ??ZDP_EndDeviceBindReq_3:
   \   000048   8E82         MOV     DPL,R6
   \   00004A   8F83         MOV     DPH,R7
   \   00004C   E5..         MOV     A,?V4
   \   00004E   F0           MOVX    @DPTR,A
   \   00004F   A3           INC     DPTR
   1100            *pBuf++ = HI_UINT16( LocalCoordinator );
   \   000050   E5..         MOV     A,?V5
   \   000052   12....       LCALL   ??Subroutine109_0 & 0xFFFF
   1101          
   1102            ieeeAddr = NLME_GetExtAddr();
   1103            pBuf = osal_cpyExtAddr( pBuf, ieeeAddr );
   \                     ??CrossCallReturnLabel_172:
   \   000055                ; Setup parameters for call to function sAddrExtCpy
   \   000055                ; Setup parameters for call to function NLME_GetExtAddr
   \   000055   12....       LCALL   ??NLME_GetExtAddr?relay; Banked call to: NLME_GetExtAddr
   \   000058   EA           MOV     A,R2
   \   000059   FC           MOV     R4,A
   \   00005A   EB           MOV     A,R3
   \   00005B   FD           MOV     R5,A
   \   00005C   EE           MOV     A,R6
   \   00005D   FA           MOV     R2,A
   \   00005E   EF           MOV     A,R7
   \   00005F   FB           MOV     R3,A
   \   000060   12....       LCALL   ??sAddrExtCpy?relay  ; Banked call to: sAddrExtCpy
   \   000063   8A..         MOV     ?V4,R2
   \   000065   8B..         MOV     ?V5,R3
   \   000067   AE..         MOV     R6,?V4
   \   000069   AF..         MOV     R7,?V5
   1104          
   1105            *pBuf++ = endPoint;
   \   00006B   8E82         MOV     DPL,R6
   \   00006D   8F83         MOV     DPH,R7
   \   00006F   12....       LCALL   ?Subroutine14 & 0xFFFF
   \                     ??CrossCallReturnLabel_178:
   \   000072   7412         MOV     A,#0x12
   \   000074   12....       LCALL   ?XSTACK_DISP0_8
   \   000077   12....       LCALL   ??Subroutine125_0 & 0xFFFF
   1106          
   1107            *pBuf++ = LO_UINT16( ProfileID );   // Profile ID
   \                     ??CrossCallReturnLabel_244:
   \   00007A   E8           MOV     A,R0
   \   00007B   8E82         MOV     DPL,R6
   \   00007D   8F83         MOV     DPH,R7
   \   00007F   12....       LCALL   ??Subroutine129_0 & 0xFFFF
   1108            *pBuf++ = HI_UINT16( ProfileID );
   \                     ??CrossCallReturnLabel_263:
   \   000082   A3           INC     DPTR
   1109          
   1110            *pBuf++ = NumInClusters; // Input cluster list
   \   000083   E5..         MOV     A,?V2
   \   000085   F0           MOVX    @DPTR,A
   \   000086   A3           INC     DPTR
   \   000087   0E           INC     R6
   \   000088   0E           INC     R6
   \   000089   0E           INC     R6
   \   00008A   AF83         MOV     R7,DPH
   1111            for ( i = 0; i < NumInClusters; ++i )
   \   00008C   7C00         MOV     R4,#0x0
   \   00008E   7415         MOV     A,#0x15
   \   000090   12....       LCALL   ?XSTACK_DISP0_8
   \   000093   12....       LCALL   ??Subroutine125_0 & 0xFFFF
   \                     ??CrossCallReturnLabel_245:
   \   000096   8003         SJMP    ??CrossCallReturnLabel_6
   1112            {
   1113              *pBuf++ = LO_UINT16(InClusterList[i]);
   \                     ??ZDP_EndDeviceBindReq_4:
   \   000098   12....       LCALL   ?Subroutine12 & 0xFFFF
   1114              *pBuf++ = HI_UINT16(InClusterList[i]);
   1115            }
   \                     ??CrossCallReturnLabel_6:
   \   00009B   EC           MOV     A,R4
   \   00009C   C3           CLR     C
   \   00009D   95..         SUBB    A,?V2
   \   00009F   40F7         JC      ??ZDP_EndDeviceBindReq_4
   1116          
   1117            *pBuf++ = NumOutClusters; // Output cluster list
   \   0000A1   8E82         MOV     DPL,R6
   \   0000A3   8F83         MOV     DPH,R7
   \   0000A5   E5..         MOV     A,?V1
   \   0000A7   12....       LCALL   ??Subroutine109_0 & 0xFFFF
   1118            for ( i = 0; i < NumOutClusters; ++i )
   \                     ??CrossCallReturnLabel_173:
   \   0000AA   7C00         MOV     R4,#0x0
   \   0000AC   7418         MOV     A,#0x18
   \   0000AE   12....       LCALL   ?XSTACK_DISP0_8
   \   0000B1   12....       LCALL   ??Subroutine125_0 & 0xFFFF
   \                     ??CrossCallReturnLabel_246:
   \   0000B4   8003         SJMP    ??CrossCallReturnLabel_7
   1119            {
   1120              *pBuf++ = LO_UINT16(OutClusterList[i]);
   \                     ??ZDP_EndDeviceBindReq_5:
   \   0000B6   12....       LCALL   ?Subroutine12 & 0xFFFF
   1121              *pBuf++ = HI_UINT16(OutClusterList[i]);
   1122            }
   \                     ??CrossCallReturnLabel_7:
   \   0000B9   EC           MOV     A,R4
   \   0000BA   C3           CLR     C
   \   0000BB   95..         SUBB    A,?V1
   \   0000BD   40F7         JC      ??ZDP_EndDeviceBindReq_5
   1123          
   1124            return fillAndSend( &ZDP_TransID, dstAddr, End_Device_Bind_req, len );
   \   0000BF                ; Setup parameters for call to function fillAndSend
   \   0000BF   75..20       MOV     ?V4,#0x20
   \   0000C2   75..00       MOV     ?V5,#0x0
   \   0000C5   78..         MOV     R0,#?V4
   \   0000C7   12....       LCALL   ?PUSH_XSTACK_I_TWO
   \   0000CA   A9..         MOV     R1,?V0
   \   0000CC   AC..         MOV     R4,?V6
   \   0000CE   AD..         MOV     R5,?V7
   \   0000D0   7A..         MOV     R2,#ZDP_TransID & 0xff
   \   0000D2   7B..         MOV     R3,#(ZDP_TransID >> 8) & 0xff
   \   0000D4   12....       LCALL   ??fillAndSend?relay  ; Banked call to: fillAndSend
   \   0000D7   7402         MOV     A,#0x2
   \   0000D9   12....       LCALL   ?DEALLOC_XSTACK8
   \                     ??ZDP_EndDeviceBindReq_1:
   \   0000DC   02....       LJMP    ??Subroutine118_0 & 0xFFFF
   1125          }

   \                                 In  segment BANKED_CODE, align 1, keep-with-next
   \                     ?Subroutine12:
   \   000000   EC           MOV     A,R4
   \   000001   25E0         ADD     A,0xE0 /* A   */
   \   000003   FA           MOV     R2,A
   \   000004   E4           CLR     A
   \   000005   33           RLC     A
   \   000006   FB           MOV     R3,A
   \   000007   E8           MOV     A,R0
   \   000008   2A           ADD     A,R2
   \   000009   FA           MOV     R2,A
   \   00000A   E9           MOV     A,R1
   \   00000B   3B           ADDC    A,R3
   \   00000C   FB           MOV     R3,A
   \   00000D   8A82         MOV     DPL,R2
   \   00000F   8B83         MOV     DPH,R3
   \   000011   12....       LCALL   ?Subroutine73 & 0xFFFF
   \                     ??CrossCallReturnLabel_179:
   \   000014   8A82         MOV     DPL,R2
   \   000016   8B83         MOV     DPH,R3
   \   000018   12....       LCALL   ?Subroutine72 & 0xFFFF
   \                     ??CrossCallReturnLabel_184:
   \   00001B   0C           INC     R4
   \   00001C   22           RET
   1126          
   1127          /*********************************************************************
   1128           * @fn          ZDP_BindUnbindReq
   1129           *
   1130           * @brief       This builds and send a Bind_req or Unbind_req message
   1131           *              Depending on the ClusterID. This function
   1132           *              sends a unicast message to the local coordinator.
   1133           *
   1134           * @param       BindOrUnbind - either Bind_req or Unbind_req
   1135           * @param       dstAddr - destination address of the message
   1136           * @param       SourceAddr - source 64 bit address of the binding
   1137           * @param       SrcEPIntf - Source endpoint/interface
   1138           * @param       ClusterID - Binding cluster ID
   1139           * @param       DestinationAddr - destination 64 bit addr of binding
   1140           * @param       DstEPIntf - destination endpoint/interface
   1141           * @param       SecurityEnable - Security Options
   1142           *
   1143           * @return      afStatus_t
   1144           */

   \                                 In  segment BANKED_CODE, align 1, keep-with-next
   1145          afStatus_t ZDP_BindUnbindReq( uint16 BindOrUnbind, zAddrType_t *dstAddr,
   \                     ZDP_BindUnbindReq:
   1146                                        uint8 *SourceAddr, byte SrcEndPoint,
   1147                                        cId_t ClusterID,
   1148                                        zAddrType_t *destinationAddr, byte DstEndPoint,
   1149                                        byte SecurityEnable )
   1150          {
   \   000000                REQUIRE ?V0
   \   000000                REQUIRE ?V1
   \   000000                REQUIRE ?V2
   \   000000                REQUIRE ?V3
   \   000000                REQUIRE ?V4
   \   000000                REQUIRE ?V5
   \   000000                REQUIRE ?V6
   \   000000                REQUIRE ?V7
   \   000000   74F0         MOV     A,#-0x10
   \   000002   12....       LCALL   ?BANKED_ENTER_XDATA
   \   000005                ; Saved register size: 16
   \   000005                ; Auto size: 0
   \   000005   8A..         MOV     ?V4,R2
   \   000007   8B..         MOV     ?V5,R3
   \   000009   8C..         MOV     ?V2,R4
   \   00000B   8D..         MOV     ?V3,R5
   \   00000D   89..         MOV     ?V1,R1
   1151            uint8 *pBuf = ZDP_TmpBuf;
   \   00000F   12....       LCALL   ??Subroutine102_0 & 0xFFFF
   1152            byte len;
   1153          
   1154            (void)SecurityEnable;  // Intentionally unreferenced parameter
   1155          
   1156            // SourceAddr + SrcEPIntf + ClusterID +  addrMode.
   1157            len = Z_EXTADDR_LEN + 1 + sizeof( cId_t ) + sizeof( uint8 );
   \                     ??CrossCallReturnLabel_165:
   \   000012   75..0C       MOV     ?V0,#0xc
   \   000015   7414         MOV     A,#0x14
   \   000017   12....       LCALL   ?XSTACK_DISP0_8
   \   00001A   12....       LCALL   ??Subroutine120_0 & 0xFFFF
   1158            if ( destinationAddr->addrMode == Addr64Bit )
   \                     ??CrossCallReturnLabel_219:
   \   00001D   8E82         MOV     DPL,R6
   \   00001F   8F83         MOV     DPH,R7
   \   000021   A3           INC     DPTR
   \   000022   A3           INC     DPTR
   \   000023   A3           INC     DPTR
   \   000024   A3           INC     DPTR
   \   000025   A3           INC     DPTR
   \   000026   A3           INC     DPTR
   \   000027   A3           INC     DPTR
   \   000028   A3           INC     DPTR
   \   000029   E0           MOVX    A,@DPTR
   \   00002A   6403         XRL     A,#0x3
   \   00002C   7005         JNZ     ??ZDP_BindUnbindReq_0
   1159              len += Z_EXTADDR_LEN + 1;     // +1 for DstEPIntf
   \   00002E   75..15       MOV     ?V0,#0x15
   \   000031   8014         SJMP    ??ZDP_BindUnbindReq_1
   1160            else if ( destinationAddr->addrMode == AddrGroup )
   \                     ??ZDP_BindUnbindReq_0:
   \   000033   8E82         MOV     DPL,R6
   \   000035   8F83         MOV     DPH,R7
   \   000037   A3           INC     DPTR
   \   000038   A3           INC     DPTR
   \   000039   A3           INC     DPTR
   \   00003A   A3           INC     DPTR
   \   00003B   A3           INC     DPTR
   \   00003C   A3           INC     DPTR
   \   00003D   A3           INC     DPTR
   \   00003E   A3           INC     DPTR
   \   00003F   E0           MOVX    A,@DPTR
   \   000040   6401         XRL     A,#0x1
   \   000042   7003         JNZ     ??ZDP_BindUnbindReq_1
   1161              len += sizeof ( uint16 );
   \   000044   75..0E       MOV     ?V0,#0xe
   1162          
   1163            pBuf = osal_cpyExtAddr( pBuf, SourceAddr );
   \                     ??ZDP_BindUnbindReq_1:
   \   000047                ; Setup parameters for call to function sAddrExtCpy
   \   000047   7410         MOV     A,#0x10
   \   000049   12....       LCALL   ?XSTACK_DISP0_8
   \   00004C   12....       LCALL   ?Subroutine47 & 0xFFFF
   \                     ??CrossCallReturnLabel_68:
   \   00004F   12....       LCALL   ??sAddrExtCpy?relay  ; Banked call to: sAddrExtCpy
   1164            *pBuf++ = SrcEndPoint;
   \   000052   8A82         MOV     DPL,R2
   \   000054   8B83         MOV     DPH,R3
   \   000056   E5..         MOV     A,?V1
   \   000058   12....       LCALL   ??Subroutine116_0 & 0xFFFF
   \                     ??CrossCallReturnLabel_208:
   \   00005B   7412         MOV     A,#0x12
   \   00005D   12....       LCALL   ?XSTACK_DISP0_8
   \   000060   12....       LCALL   ?Subroutine31 & 0xFFFF
   1165          
   1166            *pBuf++ = LO_UINT16( ClusterID );
   1167          
   1168            *pBuf++ = HI_UINT16( ClusterID );
   1169            *pBuf++ = destinationAddr->addrMode;
   \                     ??CrossCallReturnLabel_39:
   \   000063   EE           MOV     A,R6
   \   000064   2408         ADD     A,#0x8
   \   000066   12....       LCALL   ?Subroutine27 & 0xFFFF
   1170            if ( destinationAddr->addrMode == Addr64Bit )
   \                     ??CrossCallReturnLabel_28:
   \   000069   7017         JNZ     ??ZDP_BindUnbindReq_2
   1171            {
   1172              pBuf = osal_cpyExtAddr( pBuf, destinationAddr->addr.extAddr );
   1173              *pBuf = DstEndPoint;
   \   00006B   7416         MOV     A,#0x16
   \   00006D   12....       LCALL   ?XSTACK_DISP0_8
   \   000070   E0           MOVX    A,@DPTR
   \   000071   C0E0         PUSH    A
   \   000073                ; Setup parameters for call to function sAddrExtCpy
   \   000073   EE           MOV     A,R6
   \   000074   FC           MOV     R4,A
   \   000075   EF           MOV     A,R7
   \   000076   FD           MOV     R5,A
   \   000077   12....       LCALL   ??sAddrExtCpy?relay  ; Banked call to: sAddrExtCpy
   \   00007A   8A82         MOV     DPL,R2
   \   00007C   8B83         MOV     DPH,R3
   \   00007E   D0E0         POP     A
   \   000080   8022         SJMP    ??CrossCallReturnLabel_158
   1174            }
   1175            else if ( destinationAddr->addrMode == AddrGroup )
   \                     ??ZDP_BindUnbindReq_2:
   \   000082   8E82         MOV     DPL,R6
   \   000084   8F83         MOV     DPH,R7
   \   000086   A3           INC     DPTR
   \   000087   A3           INC     DPTR
   \   000088   A3           INC     DPTR
   \   000089   A3           INC     DPTR
   \   00008A   A3           INC     DPTR
   \   00008B   A3           INC     DPTR
   \   00008C   A3           INC     DPTR
   \   00008D   A3           INC     DPTR
   \   00008E   E0           MOVX    A,@DPTR
   \   00008F   6401         XRL     A,#0x1
   \   000091   7012         JNZ     ??ZDP_BindUnbindReq_3
   1176            {
   1177              *pBuf++ = LO_UINT16( destinationAddr->addr.shortAddr );
   \   000093   8E82         MOV     DPL,R6
   \   000095   8F83         MOV     DPH,R7
   \   000097   12....       LCALL   ?Subroutine53 & 0xFFFF
   \                     ??CrossCallReturnLabel_77:
   \   00009A   0A           INC     R2
   \   00009B   AB83         MOV     R3,DPH
   1178              *pBuf++ = HI_UINT16( destinationAddr->addr.shortAddr );
   \   00009D   8E82         MOV     DPL,R6
   \   00009F   8F83         MOV     DPH,R7
   \   0000A1   12....       LCALL   ?Subroutine77 & 0xFFFF
   1179            }
   \                     ??CrossCallReturnLabel_158:
   \   0000A4   F0           MOVX    @DPTR,A
   1180          
   1181            FillAndSendTxOptions( &ZDP_TransID, dstAddr, BindOrUnbind, len, AF_MSG_ACK_REQUEST );
   \                     ??ZDP_BindUnbindReq_3:
   \   0000A5   90....       MOV     DPTR,#ZDP_TxOptions
   \   0000A8   7410         MOV     A,#0x10
   \   0000AA   F0           MOVX    @DPTR,A
   \   0000AB                ; Setup parameters for call to function fillAndSend
   \   0000AB   78..         MOV     R0,#?V4
   \   0000AD   12....       LCALL   ?PUSH_XSTACK_I_TWO
   \   0000B0   A9..         MOV     R1,?V0
   \   0000B2   AC..         MOV     R4,?V2
   \   0000B4   AD..         MOV     R5,?V3
   \   0000B6   7A..         MOV     R2,#ZDP_TransID & 0xff
   \   0000B8   7B..         MOV     R3,#(ZDP_TransID >> 8) & 0xff
   \   0000BA   12....       LCALL   ??fillAndSend?relay  ; Banked call to: fillAndSend
   \   0000BD   7402         MOV     A,#0x2
   \   0000BF   12....       LCALL   ?DEALLOC_XSTACK8
   \   0000C2   90....       MOV     DPTR,#ZDP_TxOptions
   \   0000C5   E4           CLR     A
   \   0000C6   F0           MOVX    @DPTR,A
   \   0000C7   02....       LJMP    ?Subroutine4 & 0xFFFF
   1182          }

   \                                 In  segment BANKED_CODE, align 1, keep-with-next
   \                     ?Subroutine77:
   \   000000   A3           INC     DPTR
   \   000001                REQUIRE ??Subroutine101_0
   \   000001                ; // Fall through to label ??Subroutine101_0

   \                                 In  segment BANKED_CODE, align 1, keep-with-next
   \                     ?Subroutine53:
   \   000000   12....       LCALL   ??Subroutine101_0 & 0xFFFF
   \                     ??CrossCallReturnLabel_157:
   \   000003   F0           MOVX    @DPTR,A
   \   000004   A3           INC     DPTR
   \   000005   22           RET

   \                                 In  segment BANKED_CODE, align 1, keep-with-next
   \                     ?Subroutine27:
   \   000000   12....       LCALL   ?Subroutine66 & 0xFFFF
   \                     ??CrossCallReturnLabel_204:
   \   000003   E0           MOVX    A,@DPTR
   \   000004   6403         XRL     A,#0x3
   \   000006   22           RET

   \                                 In  segment BANKED_CODE, align 1, keep-with-next
   \                     ?Subroutine66:
   \   000000   F8           MOV     R0,A
   \   000001   E4           CLR     A
   \   000002   3F           ADDC    A,R7
   \   000003   F9           MOV     R1,A
   \   000004   8882         MOV     DPL,R0
   \   000006   8983         MOV     DPH,R1
   \   000008   E0           MOVX    A,@DPTR
   \   000009                REQUIRE ??Subroutine115_0
   \   000009                ; // Fall through to label ??Subroutine115_0
   1183          
   1184          /*********************************************************************
   1185           * Network Management
   1186           */
   1187          
   1188          /*********************************************************************
   1189           * @fn          ZDP_MgmtNwkDiscReq
   1190           *
   1191           * @brief       This builds and send a Mgmt_NWK_Disc_req message. This
   1192           *              function sends a unicast message.
   1193           *
   1194           * @param       dstAddr - destination address of the message
   1195           * @param       ScanChannels - 32 bit address bit map
   1196           * @param       StartIndex - Starting index within the reporting network
   1197           *                           list
   1198           * @param       SecurityEnable - Security Options
   1199           *
   1200           * @return      afStatus_t
   1201           */

   \                                 In  segment BANKED_CODE, align 1, keep-with-next
   1202          afStatus_t ZDP_MgmtNwkDiscReq( zAddrType_t *dstAddr,
   \                     ZDP_MgmtNwkDiscReq:
   1203                                         uint32 ScanChannels,
   1204                                         byte ScanDuration,
   1205                                         byte StartIndex,
   1206                                         byte SecurityEnable )
   1207          {
   \   000000                REQUIRE ?V0
   \   000000                REQUIRE ?V1
   \   000000                REQUIRE ?V2
   \   000000                REQUIRE ?V3
   \   000000   74F4         MOV     A,#-0xc
   \   000002   12....       LCALL   ?BANKED_ENTER_XDATA
   \   000005                ; Saved register size: 12
   \   000005                ; Auto size: 0
   \   000005   EA           MOV     A,R2
   \   000006   FE           MOV     R6,A
   \   000007   EB           MOV     A,R3
   \   000008   FF           MOV     R7,A
   \   000009   89..         MOV     ?V0,R1
   \   00000B   8C..         MOV     ?V1,R4
   1208            uint8 *pBuf = ZDP_TmpBuf;
   1209            byte len = sizeof( uint32 )+1+1;  // ScanChannels + ScanDuration + StartIndex.
   1210          
   1211            (void)SecurityEnable;  // Intentionally unreferenced parameter
   1212          
   1213            pBuf = osal_buffer_uint32( pBuf, ScanChannels );
   \   00000D                ; Setup parameters for call to function osal_buffer_uint32
   \   00000D   740C         MOV     A,#0xc
   \   00000F   12....       LCALL   ?XSTACK_DISP0_8
   \   000012   12....       LCALL   ?PUSH_XSTACK8_X_FOUR
   \   000015   12....       LCALL   ??Subroutine102_0 & 0xFFFF
   \                     ??CrossCallReturnLabel_166:
   \   000018   12....       LCALL   ??osal_buffer_uint32?relay; Banked call to: osal_buffer_uint32
   \   00001B   7404         MOV     A,#0x4
   \   00001D   12....       LCALL   ?DEALLOC_XSTACK8
   \   000020   8A82         MOV     DPL,R2
   \   000022   8B83         MOV     DPH,R3
   1214          
   1215            *pBuf++ = ScanDuration;
   \   000024   E5..         MOV     A,?V0
   \   000026   F0           MOVX    @DPTR,A
   \   000027   A3           INC     DPTR
   1216            *pBuf = StartIndex;
   \   000028   E5..         MOV     A,?V1
   \   00002A   F0           MOVX    @DPTR,A
   1217          
   1218            return fillAndSend( &ZDP_TransID, dstAddr, Mgmt_NWK_Disc_req, len );
   \   00002B                ; Setup parameters for call to function fillAndSend
   \   00002B   75..30       MOV     ?V2,#0x30
   \   00002E   75..00       MOV     ?V3,#0x0
   \   000031   78..         MOV     R0,#?V2
   \   000033   12....       LCALL   ?PUSH_XSTACK_I_TWO
   \   000036   7906         MOV     R1,#0x6
   \   000038   80..         SJMP    ??Subroutine104_0
   1219          }

   \                                 In  segment BANKED_CODE, align 1, keep-with-next
   \                     ??Subroutine104_0:
   \   000000   EE           MOV     A,R6
   \   000001   FC           MOV     R4,A
   \   000002   EF           MOV     A,R7
   \   000003   FD           MOV     R5,A
   \   000004   7A..         MOV     R2,#ZDP_TransID & 0xff
   \   000006   7B..         MOV     R3,#(ZDP_TransID >> 8) & 0xff
   \   000008   12....       LCALL   ??fillAndSend?relay  ; Banked call to: fillAndSend
   \   00000B   7402         MOV     A,#0x2
   \   00000D                REQUIRE ??Subroutine105_0
   \   00000D                ; // Fall through to label ??Subroutine105_0

   \                                 In  segment BANKED_CODE, align 1, keep-with-next
   \                     ??Subroutine105_0:
   \   000000   12....       LCALL   ?DEALLOC_XSTACK8
   \   000003                REQUIRE ??Subroutine106_0
   \   000003                ; // Fall through to label ??Subroutine106_0
   1220          
   1221          /*********************************************************************
   1222           * @fn          ZDP_MgmtDirectJoinReq
   1223           *
   1224           * @brief       This builds and send a Mgmt_Direct_Join_req message. This
   1225           *              function sends a unicast message.
   1226           *
   1227           * @param       dstAddr - destination address of the message
   1228           * @param       deviceAddr - 64 bit IEEE Address
   1229           * @param       SecurityEnable - Security Options
   1230           *
   1231           * @return      afStatus_t
   1232           */

   \                                 In  segment BANKED_CODE, align 1, keep-with-next
   \                     ?Subroutine56:
   \   000000   EA           MOV     A,R2
   \   000001   FE           MOV     R6,A
   \   000002   EB           MOV     A,R3
   \   000003   FF           MOV     R7,A
   \   000004   89..         MOV     ?V0,R1
   \   000006                ; Setup parameters for call to function sAddrExtCpy
   \   000006                ; Setup parameters for call to function sAddrExtCpy
   \   000006                REQUIRE ??Subroutine102_0
   \   000006                ; // Fall through to label ??Subroutine102_0

   \                                 In  segment BANKED_CODE, align 1, keep-with-next
   \                     ?Subroutine1:
   \   000000   75..00       MOV     ?V3,#0x0
   \   000003   78..         MOV     R0,#?V2
   \   000005   12....       LCALL   ?PUSH_XSTACK_I_TWO
   \   000008   7909         MOV     R1,#0x9
   \   00000A                REQUIRE ??Subroutine104_0
   \   00000A                ; // Fall through to label ??Subroutine104_0

   \                                 In  segment BANKED_CODE, align 1, keep-with-next
   1233          afStatus_t ZDP_MgmtDirectJoinReq( zAddrType_t *dstAddr,
   \                     ZDP_MgmtDirectJoinReq:
   1234                                         uint8 *deviceAddr,
   1235                                         byte capInfo,
   1236                                         byte SecurityEnable )
   1237          {
   \   000000                REQUIRE ?V0
   \   000000                REQUIRE ?V2
   \   000000                REQUIRE ?V3
   \   000000   74F4         MOV     A,#-0xc
   \   000002   12....       LCALL   ?BANKED_ENTER_XDATA
   \   000005                ; Saved register size: 12
   \   000005                ; Auto size: 0
   \   000005   12....       LCALL   ?Subroutine56 & 0xFFFF
   1238            (void)SecurityEnable;  // Intentionally unreferenced parameter
   1239          
   1240            osal_cpyExtAddr( ZDP_TmpBuf, deviceAddr );
   \                     ??CrossCallReturnLabel_160:
   \   000008   12....       LCALL   ??sAddrExtCpy?relay  ; Banked call to: sAddrExtCpy
   1241            ZDP_TmpBuf[Z_EXTADDR_LEN] = capInfo;
   \   00000B   12....       LCALL   ?Subroutine38 & 0xFFFF
   \                     ??CrossCallReturnLabel_53:
   \   00000E   E5..         MOV     A,?V0
   \   000010   F0           MOVX    @DPTR,A
   1242          
   1243            return fillAndSend( &ZDP_TransID, dstAddr, Mgmt_Direct_Join_req, (Z_EXTADDR_LEN + 1) );
   \   000011                ; Setup parameters for call to function fillAndSend
   \   000011   75..35       MOV     ?V2,#0x35
   \   000014   80..         SJMP    ?Subroutine1
   1244          }

   \                                 In  segment BANKED_CODE, align 1, keep-with-next
   \                     ?Subroutine38:
   \   000000   12....       LCALL   ?Subroutine85 & 0xFFFF
   \                     ??CrossCallReturnLabel_260:
   \   000003   C8           XCH     A,R0
   \   000004   2408         ADD     A,#0x8
   \   000006   F582         MOV     DPL,A
   \   000008   E4           CLR     A
   \   000009   38           ADDC    A,R0
   \   00000A   F583         MOV     DPH,A
   \   00000C   22           RET
   1245          
   1246          /*********************************************************************
   1247           * @fn          ZDP_MgmtPermitJoinReq
   1248           *
   1249           * @brief       This builds and send a Mgmt_Permit_Join_req message.
   1250           *
   1251           * @param       dstAddr - destination address of the message
   1252           * @param       duration - Permit duration
   1253           * @param       TcSignificance - Trust Center Significance
   1254           *
   1255           * @return      afStatus_t
   1256           */

   \                                 In  segment BANKED_CODE, align 1, keep-with-next
   1257          afStatus_t ZDP_MgmtPermitJoinReq( zAddrType_t *dstAddr, byte duration,
   \                     ZDP_MgmtPermitJoinReq:
   1258                                            byte TcSignificance, byte SecurityEnable )
   1259          {
   \   000000                REQUIRE ?V0
   \   000000                REQUIRE ?V1
   \   000000   74F6         MOV     A,#-0xa
   \   000002   12....       LCALL   ?BANKED_ENTER_XDATA
   \   000005                ; Saved register size: 10
   \   000005                ; Auto size: 0
   1260            (void)SecurityEnable;  // Intentionally unreferenced parameter
   1261          
   1262            // Build buffer
   1263            ZDP_TmpBuf[ZDP_MGMT_PERMIT_JOIN_REQ_DURATION] = duration;
   \   000005   12....       LCALL   ?Subroutine43 & 0xFFFF
   \                     ??CrossCallReturnLabel_150:
   \   000008   E9           MOV     A,R1
   \   000009   12....       LCALL   ?Subroutine23 & 0xFFFF
   1264            ZDP_TmpBuf[ZDP_MGMT_PERMIT_JOIN_REQ_TC_SIG]   = TcSignificance;
   \                     ??CrossCallReturnLabel_25:
   \   00000C   EC           MOV     A,R4
   \   00000D   F0           MOVX    @DPTR,A
   1265          
   1266            // Send the message
   1267            return fillAndSend( &ZDP_TransID, dstAddr, Mgmt_Permit_Join_req,
   1268                                ZDP_MGMT_PERMIT_JOIN_REQ_SIZE );
   \   00000E                ; Setup parameters for call to function fillAndSend
   \   00000E   75..36       MOV     ?V0,#0x36
   \   000011   02....       LJMP    ?Subroutine2 & 0xFFFF
   1269          }
   1270          
   1271          /*********************************************************************
   1272           * @fn          ZDP_MgmtLeaveReq
   1273           *
   1274           * @brief       This builds and send a Mgmt_Leave_req message.
   1275           *
   1276           * @param       dstAddr - destination address of the message
   1277           *              IEEEAddr - IEEE adddress of device that is removed
   1278           *              RemoveChildren - set to 1 to remove the children of the
   1279           *                                device as well. 0 otherwise.
   1280           *              Rejoin - set to 1 if the removed device should rejoin
   1281                                   afterwards. 0 otherwise.
   1282           *
   1283           * @return      afStatus_t
   1284           */

   \                                 In  segment BANKED_CODE, align 1, keep-with-next
   1285          afStatus_t ZDP_MgmtLeaveReq( zAddrType_t *dstAddr, uint8 *IEEEAddr, uint8 RemoveChildren,
   \                     ZDP_MgmtLeaveReq:
   1286                           uint8 Rejoin, uint8 SecurityEnable )
   1287          
   1288          {
   \   000000                REQUIRE ?V0
   \   000000                REQUIRE ?V2
   \   000000                REQUIRE ?V3
   \   000000   74F4         MOV     A,#-0xc
   \   000002   12....       LCALL   ?BANKED_ENTER_XDATA
   \   000005                ; Saved register size: 12
   \   000005                ; Auto size: 0
   \   000005   12....       LCALL   ?Subroutine56 & 0xFFFF
   1289            (void)SecurityEnable;  // Intentionally unreferenced parameter
   1290          
   1291            osal_cpyExtAddr( ZDP_TmpBuf, IEEEAddr );
   \                     ??CrossCallReturnLabel_161:
   \   000008   12....       LCALL   ??sAddrExtCpy?relay  ; Banked call to: sAddrExtCpy
   1292            ZDP_TmpBuf[Z_EXTADDR_LEN] = 0;
   \   00000B   12....       LCALL   ?Subroutine38 & 0xFFFF
   \                     ??CrossCallReturnLabel_54:
   \   00000E   E4           CLR     A
   \   00000F   F0           MOVX    @DPTR,A
   1293          
   1294            if ( RemoveChildren == TRUE )
   \   000010   04           INC     A
   \   000011   65..         XRL     A,?V0
   \   000013   7006         JNZ     ??ZDP_MgmtLeaveReq_0
   1295            {
   1296              ZDP_TmpBuf[Z_EXTADDR_LEN] |= ZDP_MGMT_LEAVE_REQ_RC;
   \   000015   12....       LCALL   ?Subroutine38 & 0xFFFF
   1297            }
   \                     ??CrossCallReturnLabel_55:
   \   000018   7440         MOV     A,#0x40
   \   00001A   F0           MOVX    @DPTR,A
   1298            if ( Rejoin == TRUE )
   \                     ??ZDP_MgmtLeaveReq_0:
   \   00001B   740C         MOV     A,#0xc
   \   00001D   12....       LCALL   ?XSTACK_DISP0_8
   \   000020   E0           MOVX    A,@DPTR
   \   000021   6401         XRL     A,#0x1
   \   000023   7007         JNZ     ??ZDP_MgmtLeaveReq_1
   1299            {
   1300              ZDP_TmpBuf[Z_EXTADDR_LEN] |= ZDP_MGMT_LEAVE_REQ_REJOIN;
   \   000025   12....       LCALL   ?Subroutine38 & 0xFFFF
   1301            }
   \                     ??CrossCallReturnLabel_56:
   \   000028   E0           MOVX    A,@DPTR
   \   000029   D2E7         SETB    0xE0 /* A   */.7
   \   00002B   F0           MOVX    @DPTR,A
   1302          
   1303            return fillAndSend( &ZDP_TransID, dstAddr, Mgmt_Leave_req, (Z_EXTADDR_LEN + 1) );
   \                     ??ZDP_MgmtLeaveReq_1:
   \   00002C                ; Setup parameters for call to function fillAndSend
   \   00002C   75..34       MOV     ?V2,#0x34
   \   00002F   02....       LJMP    ?Subroutine1 & 0xFFFF
   1304          }
   1305          
   1306          /*********************************************************************
   1307           * @fn          ZDP_MgmtNwkUpdateReq
   1308           *
   1309           * @brief       This builds and send a Mgmt_NWK_Update_req message. This
   1310           *              function sends a unicast or broadcast message.
   1311           *
   1312           * @param       dstAddr - destination address of the message
   1313           * @param       ChannelMask - 32 bit address bit map
   1314           * @param       ScanDuration - length of time to spend scanning each channel
   1315           * @param       ScanCount - number of energy scans to be conducted
   1316           * @param       NwkUpdateId - NWk Update Id value
   1317           * @param       NwkManagerAddr - NWK address for device with Network Manager
   1318           *                               bit set in its Node Descriptor
   1319           *
   1320           * @return      afStatus_t
   1321           */

   \                                 In  segment BANKED_CODE, align 1, keep-with-next
   1322          afStatus_t ZDP_MgmtNwkUpdateReq( zAddrType_t *dstAddr,
   \                     ZDP_MgmtNwkUpdateReq:
   1323                                           uint32 ChannelMask,
   1324                                           uint8 ScanDuration,
   1325                                           uint8 ScanCount,
   1326                                           uint8 NwkUpdateId,
   1327                                           uint16 NwkManagerAddr )
   1328          {
   \   000000                REQUIRE ?V0
   \   000000                REQUIRE ?V1
   \   000000                REQUIRE ?V2
   \   000000                REQUIRE ?V3
   \   000000                REQUIRE ?V4
   \   000000                REQUIRE ?V5
   \   000000   74F2         MOV     A,#-0xe
   \   000002   12....       LCALL   ?BANKED_ENTER_XDATA
   \   000005                ; Saved register size: 14
   \   000005                ; Auto size: 0
   \   000005   EA           MOV     A,R2
   \   000006   FE           MOV     R6,A
   \   000007   EB           MOV     A,R3
   \   000008   FF           MOV     R7,A
   \   000009   89..         MOV     ?V0,R1
   \   00000B   8C..         MOV     ?V1,R4
   \   00000D   8D..         MOV     ?V2,R5
   1329            uint8 *pBuf = ZDP_TmpBuf;
   1330            byte len = sizeof( uint32 ) + 1;  // ChannelMask + ScanDuration
   \   00000F   75..05       MOV     ?V3,#0x5
   1331          
   1332            pBuf = osal_buffer_uint32( pBuf, ChannelMask );
   \   000012                ; Setup parameters for call to function osal_buffer_uint32
   \   000012   740E         MOV     A,#0xe
   \   000014   12....       LCALL   ?XSTACK_DISP0_8
   \   000017   12....       LCALL   ?PUSH_XSTACK8_X_FOUR
   \   00001A   12....       LCALL   ??Subroutine102_0 & 0xFFFF
   \                     ??CrossCallReturnLabel_167:
   \   00001D   12....       LCALL   ??osal_buffer_uint32?relay; Banked call to: osal_buffer_uint32
   \   000020   7404         MOV     A,#0x4
   \   000022   12....       LCALL   ?DEALLOC_XSTACK8
   \   000025   8A..         MOV     ?V4,R2
   \   000027   8B..         MOV     ?V5,R3
   \   000029   A8..         MOV     R0,?V4
   \   00002B   A9..         MOV     R1,?V5
   1333          
   1334            *pBuf++ = ScanDuration;
   \   00002D   8882         MOV     DPL,R0
   \   00002F   8983         MOV     DPH,R1
   \   000031   E5..         MOV     A,?V0
   \   000033   F0           MOVX    @DPTR,A
   \   000034   A3           INC     DPTR
   1335          
   1336            if ( ScanDuration <= 0x05 )
   \   000035   C3           CLR     C
   \   000036   9406         SUBB    A,#0x6
   \   000038   5007         JNC     ??ZDP_MgmtNwkUpdateReq_0
   1337            {
   1338              // Request is to scan over channelMask
   1339              len += sizeof( uint8 );
   \   00003A   75..06       MOV     ?V3,#0x6
   1340          
   1341              *pBuf++ = ScanCount;
   \   00003D   E5..         MOV     A,?V1
   \   00003F   802C         SJMP    ??ZDP_MgmtNwkUpdateReq_1
   1342            }
   1343            else if ( ( ScanDuration == 0xFE ) || ( ScanDuration == 0xFF ) )
   \                     ??ZDP_MgmtNwkUpdateReq_0:
   \   000041   74FE         MOV     A,#-0x2
   \   000043   65..         XRL     A,?V0
   \   000045   6006         JZ      ??ZDP_MgmtNwkUpdateReq_2
   \   000047   74FF         MOV     A,#-0x1
   \   000049   65..         XRL     A,?V0
   \   00004B   7021         JNZ     ??ZDP_MgmtNwkUpdateReq_3
   1344            {
   1345              // Request is to change Channel (0xFE) or apsChannelMask and NwkManagerAddr (0xFF)
   1346              len += sizeof( uint8 );
   \                     ??ZDP_MgmtNwkUpdateReq_2:
   \   00004D   75..06       MOV     ?V3,#0x6
   1347          
   1348              *pBuf++ = NwkUpdateId;
   \   000050   E5..         MOV     A,?V2
   \   000052   12....       LCALL   ??Subroutine114_0 & 0xFFFF
   1349          
   1350              if ( ScanDuration == 0xFF )
   \                     ??CrossCallReturnLabel_195:
   \   000055   74FF         MOV     A,#-0x1
   \   000057   65..         XRL     A,?V0
   \   000059   7013         JNZ     ??ZDP_MgmtNwkUpdateReq_3
   1351              {
   1352                len += sizeof( uint16 );
   \   00005B   75..08       MOV     ?V3,#0x8
   \   00005E   7412         MOV     A,#0x12
   \   000060   12....       LCALL   ?XSTACK_DISP0_8
   \   000063   12....       LCALL   ?Subroutine55 & 0xFFFF
   1353          
   1354                *pBuf++  = LO_UINT16( NwkManagerAddr );
   \                     ??CrossCallReturnLabel_83:
   \   000066   8882         MOV     DPL,R0
   \   000068   8983         MOV     DPH,R1
   \   00006A   F0           MOVX    @DPTR,A
   \   00006B   A3           INC     DPTR
   1355                *pBuf++  = HI_UINT16( NwkManagerAddr );
   \   00006C   EB           MOV     A,R3
   \                     ??ZDP_MgmtNwkUpdateReq_1:
   \   00006D   F0           MOVX    @DPTR,A
   1356              }
   1357            }
   1358          
   1359            return fillAndSend( &ZDP_TransID, dstAddr, Mgmt_NWK_Update_req, len );
   \                     ??ZDP_MgmtNwkUpdateReq_3:
   \   00006E                ; Setup parameters for call to function fillAndSend
   \   00006E   75..38       MOV     ?V4,#0x38
   \   000071   75..00       MOV     ?V5,#0x0
   \   000074   78..         MOV     R0,#?V4
   \   000076   12....       LCALL   ?PUSH_XSTACK_I_TWO
   \   000079   A9..         MOV     R1,?V3
   \   00007B   EE           MOV     A,R6
   \   00007C   FC           MOV     R4,A
   \   00007D   EF           MOV     A,R7
   \   00007E   FD           MOV     R5,A
   \   00007F   7A..         MOV     R2,#ZDP_TransID & 0xff
   \   000081   7B..         MOV     R3,#(ZDP_TransID >> 8) & 0xff
   \   000083   12....       LCALL   ??fillAndSend?relay  ; Banked call to: fillAndSend
   \   000086   7402         MOV     A,#0x2
   \   000088                REQUIRE ?Subroutine0
   \   000088                ; // Fall through to label ?Subroutine0
   1360          }

   \                                 In  segment BANKED_CODE, align 1, keep-with-next
   \                     ?Subroutine55:
   \   000000   E0           MOVX    A,@DPTR
   \   000001   FA           MOV     R2,A
   \   000002   A3           INC     DPTR
   \   000003   E0           MOVX    A,@DPTR
   \   000004   FB           MOV     R3,A
   \   000005   EA           MOV     A,R2
   \   000006   22           RET
   1361          
   1362          
   1363          /*********************************************************************
   1364           * Network Management Responses
   1365           */
   1366          
   1367          /*********************************************************************
   1368           * @fn          ZDP_MgmtNwkDiscRsp
   1369           *
   1370           * @brief       This builds and send a Mgmt_NWK_Disc_rsp message. This
   1371           *              function sends a unicast message.
   1372           *
   1373           * @param       dstAddr - destination address of the message
   1374           * @param       Status - message status (ZDP_SUCCESS or other)
   1375           * @param       NetworkCount - Total number of networks found
   1376           * @param       StartIndex - Starting index within the reporting network
   1377           *                           list
   1378           * @param       NetworkListCount - number of network lists included
   1379           *                                 in this message
   1380           * @param       NetworkList - List of network descriptors
   1381           * @param       SecurityEnable - Security Options
   1382           *
   1383           * @return      afStatus_t
   1384           */

   \                                 In  segment BANKED_CODE, align 1, keep-with-next
   1385          afStatus_t ZDP_MgmtNwkDiscRsp( byte TransSeq, zAddrType_t *dstAddr,
   \                     ZDP_MgmtNwkDiscRsp:
   1386                                      byte Status,
   1387                                      byte NetworkCount,
   1388                                      byte StartIndex,
   1389                                      byte NetworkListCount,
   1390                                      networkDesc_t *NetworkList,
   1391                                      byte SecurityEnable )
   1392          {
   \   000000                REQUIRE ?V0
   \   000000                REQUIRE ?V1
   \   000000                REQUIRE ?V2
   \   000000                REQUIRE ?V3
   \   000000                REQUIRE ?V4
   \   000000                REQUIRE ?V5
   \   000000                REQUIRE ?V6
   \   000000                REQUIRE ?V7
   \   000000                REQUIRE ?V8
   \   000000                REQUIRE ?V10
   \   000000                REQUIRE ?V11
   \   000000   74EC         MOV     A,#-0x14
   \   000002   12....       LCALL   ?BANKED_ENTER_XDATA
   \   000005                ; Saved register size: 20
   \   000005                ; Auto size: 1
   \   000005   74FF         MOV     A,#-0x1
   \   000007   12....       LCALL   ?ALLOC_XSTACK8
   \   00000A   E9           MOV     A,R1
   \   00000B   85..82       MOV     DPL,?XSP + 0
   \   00000E   85..83       MOV     DPH,?XSP + 1
   \   000011   F0           MOVX    @DPTR,A
   \   000012   8A..         MOV     ?V10,R2
   \   000014   8B..         MOV     ?V11,R3
   \   000016   8C..         MOV     ?V8,R4
   \   000018   8D..         MOV     ?V6,R5
   \   00001A   7416         MOV     A,#0x16
   \   00001C   12....       LCALL   ?XSTACK_DISP0_8
   \   00001F   E0           MOVX    A,@DPTR
   \   000020   F5..         MOV     ?V4,A
   1393            uint8 *buf;
   1394            uint8 *pBuf;
   1395            byte len = 1+1+1+1;  // Status + NetworkCount + StartIndex + NetworkCountList.
   1396            byte idx;
   1397          
   1398            (void)SecurityEnable;  // Intentionally unreferenced parameter
   1399          
   1400            len += (NetworkListCount * ( ZDP_NETWORK_EXTENDED_DISCRIPTOR_SIZE - 2 ));
   \   000022   75F00C       MOV     B,#0xc
   \   000025   12....       LCALL   ?Subroutine57 & 0xFFFF
   1401          
   1402            buf = osal_mem_alloc( len+1 );
   \                     ??CrossCallReturnLabel_214:
   \   000028   12....       LCALL   ??osal_mem_alloc?relay; Banked call to: osal_mem_alloc
   \   00002B   8A..         MOV     ?V0,R2
   \   00002D   8B..         MOV     ?V1,R3
   1403            if ( buf == NULL )
   \   00002F   EA           MOV     A,R2
   \   000030   45..         ORL     A,?V1
   \   000032   7005         JNZ     ??ZDP_MgmtNwkDiscRsp_0
   1404            {
   1405              return afStatus_MEM_FAIL;
   \   000034   7910         MOV     R1,#0x10
   \   000036   02....       LJMP    ??CrossCallReturnLabel_35 & 0xFFFF
   1406            }
   1407          
   1408            pBuf = buf+1;
   \                     ??ZDP_MgmtNwkDiscRsp_0:
   \   000039   8A82         MOV     DPL,R2
   \   00003B   8B83         MOV     DPH,R3
   \   00003D   A3           INC     DPTR
   1409          
   1410            *pBuf++ = Status;
   \   00003E   E5..         MOV     A,?V8
   \   000040   F0           MOVX    @DPTR,A
   \   000041   A3           INC     DPTR
   1411            *pBuf++ = NetworkCount;
   \   000042   E5..         MOV     A,?V6
   \   000044   12....       LCALL   ??Subroutine109_0 & 0xFFFF
   1412            *pBuf++ = StartIndex;
   \                     ??CrossCallReturnLabel_174:
   \   000047   7415         MOV     A,#0x15
   \   000049   12....       LCALL   ?XSTACK_DISP0_8
   \   00004C   12....       LCALL   ?Subroutine49 & 0xFFFF
   1413            *pBuf++ = NetworkListCount;
   \                     ??CrossCallReturnLabel_71:
   \   00004F   E5..         MOV     A,?V4
   \   000051   12....       LCALL   ?Subroutine35 & 0xFFFF
   1414          
   1415            for ( idx = 0; idx < NetworkListCount; idx++ )
   \                     ??CrossCallReturnLabel_47:
   \   000054   75..00       MOV     ?V7,#0x0
   \   000057   7417         MOV     A,#0x17
   \   000059   12....       LCALL   ?XSTACK_DISP0_8
   \   00005C   12....       LCALL   ??Subroutine86_0 & 0xFFFF
   \                     ??CrossCallReturnLabel_119:
   \   00005F   8014         SJMP    ??ZDP_MgmtNwkDiscRsp_1
   1416            {
   1417              osal_cpyExtAddr( pBuf, NetworkList->extendedPANID);
   1418              pBuf += Z_EXTADDR_LEN;
   1419          
   1420              *pBuf++  = NetworkList->logicalChannel;                // LogicalChannel
   1421              *pBuf    = NetworkList->stackProfile;                  // Stack profile
   1422              *pBuf++ |= (byte)(NetworkList->version << 4);          // ZigBee Version
   1423              *pBuf    = BEACON_ORDER_NO_BEACONS;                    // Beacon Order
   1424              *pBuf++ |= (uint8)(BEACON_ORDER_NO_BEACONS << 4);      // Superframe Order
   1425          
   1426              if ( NetworkList->chosenRouter != INVALID_NODE_ADDR )
   1427              {
   1428                *pBuf++ = TRUE;                         // Permit Joining
   1429              }
   1430              else
   1431              {
   1432                *pBuf++ = FALSE;
   \                     ??ZDP_MgmtNwkDiscRsp_2:
   \   000061   E4           CLR     A
   1433              }
   \                     ??ZDP_MgmtNwkDiscRsp_3:
   \   000062   12....       LCALL   ??Subroutine111_0 & 0xFFFF
   1434          
   1435              NetworkList = NetworkList->nextDesc;    // Move to next list entry
   \                     ??CrossCallReturnLabel_182:
   \   000065   E5..         MOV     A,?V2
   \   000067   2414         ADD     A,#0x14
   \   000069   F582         MOV     DPL,A
   \   00006B   E4           CLR     A
   \   00006C   35..         ADDC    A,?V3
   \   00006E   F583         MOV     DPH,A
   \   000070   12....       LCALL   ??Subroutine86_0 & 0xFFFF
   \                     ??CrossCallReturnLabel_120:
   \   000073   05..         INC     ?V7
   \                     ??ZDP_MgmtNwkDiscRsp_1:
   \   000075   E5..         MOV     A,?V7
   \   000077   C3           CLR     C
   \   000078   95..         SUBB    A,?V4
   \   00007A   507B         JNC     ??ZDP_MgmtNwkDiscRsp_4
   \   00007C                ; Setup parameters for call to function sAddrExtCpy
   \   00007C   E5..         MOV     A,?V2
   \   00007E   240B         ADD     A,#0xb
   \   000080   FC           MOV     R4,A
   \   000081   E4           CLR     A
   \   000082   35..         ADDC    A,?V3
   \   000084   FD           MOV     R5,A
   \   000085   EE           MOV     A,R6
   \   000086   FA           MOV     R2,A
   \   000087   EF           MOV     A,R7
   \   000088   FB           MOV     R3,A
   \   000089   12....       LCALL   ??sAddrExtCpy?relay  ; Banked call to: sAddrExtCpy
   \   00008C   EE           MOV     A,R6
   \   00008D   2408         ADD     A,#0x8
   \   00008F   FE           MOV     R6,A
   \   000090   5001         JNC     ??ZDP_MgmtNwkDiscRsp_5
   \   000092   0F           INC     R7
   \                     ??ZDP_MgmtNwkDiscRsp_5:
   \   000093   85..82       MOV     DPL,?V2
   \   000096   85..83       MOV     DPH,?V3
   \   000099   12....       LCALL   ?Subroutine78 & 0xFFFF
   \                     ??CrossCallReturnLabel_170:
   \   00009C   12....       LCALL   ??Subroutine109_0 & 0xFFFF
   \                     ??CrossCallReturnLabel_175:
   \   00009F   85..82       MOV     DPL,?V2
   \   0000A2   85..83       MOV     DPH,?V3
   \   0000A5   A3           INC     DPTR
   \   0000A6   A3           INC     DPTR
   \   0000A7   A3           INC     DPTR
   \   0000A8   A3           INC     DPTR
   \   0000A9   12....       LCALL   ?Subroutine78 & 0xFFFF
   \                     ??CrossCallReturnLabel_171:
   \   0000AC   12....       LCALL   ?Subroutine36 & 0xFFFF
   \                     ??CrossCallReturnLabel_49:
   \   0000AF   85..82       MOV     DPL,?V2
   \   0000B2   85..83       MOV     DPH,?V3
   \   0000B5   A3           INC     DPTR
   \   0000B6   A3           INC     DPTR
   \   0000B7   A3           INC     DPTR
   \   0000B8   A3           INC     DPTR
   \   0000B9   A3           INC     DPTR
   \   0000BA   12....       LCALL   ?Subroutine44 & 0xFFFF
   \                     ??CrossCallReturnLabel_59:
   \   0000BD   8E82         MOV     DPL,R6
   \   0000BF   8F83         MOV     DPH,R7
   \   0000C1   740F         MOV     A,#0xf
   \   0000C3   F0           MOVX    @DPTR,A
   \   0000C4   08           INC     R0
   \   0000C5   EF           MOV     A,R7
   \   0000C6   F9           MOV     R1,A
   \   0000C7   A3           INC     DPTR
   \   0000C8   0E           INC     R6
   \   0000C9   AF83         MOV     R7,DPH
   \   0000CB   8882         MOV     DPL,R0
   \   0000CD   8983         MOV     DPH,R1
   \   0000CF   740F         MOV     A,#0xf
   \   0000D1   44F0         ORL     A,#0xf0
   \   0000D3   F0           MOVX    @DPTR,A
   \   0000D4   85..82       MOV     DPL,?V2
   \   0000D7   85..83       MOV     DPH,?V3
   \   0000DA   A3           INC     DPTR
   \   0000DB   A3           INC     DPTR
   \   0000DC   A3           INC     DPTR
   \   0000DD   A3           INC     DPTR
   \   0000DE   A3           INC     DPTR
   \   0000DF   A3           INC     DPTR
   \   0000E0   A3           INC     DPTR
   \   0000E1   E0           MOVX    A,@DPTR
   \   0000E2   64FE         XRL     A,#0xfe
   \   0000E4   7003         JNZ     ??ZDP_MgmtNwkDiscRsp_6
   \   0000E6   A3           INC     DPTR
   \   0000E7   E0           MOVX    A,@DPTR
   \   0000E8   F4           CPL     A
   \                     ??ZDP_MgmtNwkDiscRsp_6:
   \   0000E9   8E82         MOV     DPL,R6
   \   0000EB   8F83         MOV     DPH,R7
   \   0000ED   7003         JNZ     $+5
   \   0000EF   02....       LJMP    ??ZDP_MgmtNwkDiscRsp_2 & 0xFFFF
   \   0000F2   7401         MOV     A,#0x1
   \   0000F4   02....       LJMP    ??ZDP_MgmtNwkDiscRsp_3 & 0xFFFF
   1436            }
   1437          
   1438            FillAndSendBuffer( &TransSeq, dstAddr, Mgmt_NWK_Disc_rsp, len, buf );
   \                     ??ZDP_MgmtNwkDiscRsp_4:
   \   0000F7   85..82       MOV     DPL,?V0
   \   0000FA   85..83       MOV     DPH,?V1
   \   0000FD   12....       LCALL   ??Subroutine127_0 & 0xFFFF
   \                     ??CrossCallReturnLabel_271:
   \   000100                ; Setup parameters for call to function fillAndSend
   \   000100   75..30       MOV     ?V2,#0x30
   \   000103   75..80       MOV     ?V3,#-0x80
   \   000106   78..         MOV     R0,#?V2
   \   000108   12....       LCALL   ?PUSH_XSTACK_I_TWO
   \   00010B   A9..         MOV     R1,?V5
   \   00010D   AC..         MOV     R4,?V10
   \   00010F   AD..         MOV     R5,?V11
   \   000111   7402         MOV     A,#0x2
   \   000113   12....       LCALL   ?XSTACK_DISP101_8
   \   000116   12....       LCALL   ??fillAndSend?relay  ; Banked call to: fillAndSend
   \   000119   7402         MOV     A,#0x2
   \   00011B   12....       LCALL   ?DEALLOC_XSTACK8
   \   00011E   E9           MOV     A,R1
   \   00011F   FE           MOV     R6,A
   \   000120                ; Setup parameters for call to function osal_mem_free
   \   000120   AA..         MOV     R2,?V0
   \   000122   AB..         MOV     R3,?V1
   \   000124   12....       LCALL   ??osal_mem_free?relay; Banked call to: osal_mem_free
   \   000127   12....       LCALL   ?Subroutine30 & 0xFFFF
   \                     ??CrossCallReturnLabel_35:
   \   00012A                REQUIRE ?Subroutine6
   \   00012A                ; // Fall through to label ?Subroutine6
   1439          }

   \                                 In  segment BANKED_CODE, align 1, keep-with-next
   \                     ?Subroutine6:
   \   000000   7401         MOV     A,#0x1
   \   000002   12....       LCALL   ?DEALLOC_XSTACK8
   \   000005   7F0C         MOV     R7,#0xc
   \   000007   02....       LJMP    ?BANKED_LEAVE_XDATA

   \                                 In  segment BANKED_CODE, align 1, keep-with-next
   \                     ?Subroutine78:
   \   000000   A3           INC     DPTR
   \   000001   A3           INC     DPTR
   \   000002                REQUIRE ??Subroutine108_0
   \   000002                ; // Fall through to label ??Subroutine108_0

   \                                 In  segment BANKED_CODE, align 1, keep-with-next
   \                     ?Subroutine44:
   \   000000   E0           MOVX    A,@DPTR
   \   000001   C4           SWAP    A
   \   000002   54F0         ANL     A,#0xf0
   \   000004   FA           MOV     R2,A
   \   000005   8882         MOV     DPL,R0
   \   000007   8983         MOV     DPH,R1
   \   000009   E0           MOVX    A,@DPTR
   \   00000A   4A           ORL     A,R2
   \   00000B   F0           MOVX    @DPTR,A
   \   00000C   22           RET

   \                                 In  segment BANKED_CODE, align 1, keep-with-next
   \                     ?Subroutine36:
   \   000000   F0           MOVX    @DPTR,A
   \   000001   EE           MOV     A,R6
   \   000002   F8           MOV     R0,A
   \   000003   EF           MOV     A,R7
   \   000004   F9           MOV     R1,A
   \   000005   A3           INC     DPTR
   \   000006   0E           INC     R6
   \   000007   AF83         MOV     R7,DPH
   \   000009   22           RET

   \                                 In  segment BANKED_CODE, align 1, keep-with-next
   \                     ?Subroutine30:
   \   000000   90....       MOV     DPTR,#ZDP_TmpBuf
   \   000003   74..         MOV     A,#(ZDP_Buf + 1) & 0xff
   \   000005   F0           MOVX    @DPTR,A
   \   000006   A3           INC     DPTR
   \   000007   74..         MOV     A,#((ZDP_Buf + 1) >> 8) & 0xff
   \   000009   F0           MOVX    @DPTR,A
   \   00000A   EE           MOV     A,R6
   \   00000B   F9           MOV     R1,A
   \   00000C   22           RET

   \                                 In  segment BANKED_CODE, align 1, keep-with-next
   \                     ?Subroutine57:
   \   000000   A4           MUL     AB
   \   000001   2404         ADD     A,#0x4
   \   000003   F5..         MOV     ?V5,A
   \   000005                ; Setup parameters for call to function osal_mem_alloc
   \   000005                ; Setup parameters for call to function osal_mem_alloc
   \   000005                REQUIRE ??Subroutine119_0
   \   000005                ; // Fall through to label ??Subroutine119_0

   \                                 In  segment BANKED_CODE, align 1, keep-with-next
   \                     ??Subroutine119_0:
   \   000000   2401         ADD     A,#0x1
   \   000002   FA           MOV     R2,A
   \   000003   E4           CLR     A
   \   000004   3400         ADDC    A,#0x0
   \   000006   FB           MOV     R3,A
   \   000007   22           RET

   \                                 In  segment BANKED_CODE, align 1, keep-with-next
   \                     ??Subroutine127_0:
   \   000000   A3           INC     DPTR
   \   000001   A882         MOV     R0,DPL
   \   000003   A983         MOV     R1,DPH
   \   000005   90....       MOV     DPTR,#ZDP_TmpBuf
   \   000008                REQUIRE ??Subroutine128_0
   \   000008                ; // Fall through to label ??Subroutine128_0
   1440          
   1441          /*********************************************************************
   1442           * @fn          ZDP_MgmtLqiRsp
   1443           *
   1444           * @brief       This builds and send a Mgmt_Lqi_rsp message. This
   1445           *              function sends a unicast message.
   1446           *
   1447           * @param       dstAddr - destination address of the message
   1448           * @param       Status - message status (ZDP_SUCCESS or other)
   1449           * @param       NeighborLqiEntries - Total number of entries found
   1450           * @param       StartIndex - Starting index within the reporting list
   1451           * @param       NeighborLqiCount - number of lists included
   1452           *                                 in this message
   1453           * @param       NeighborLqiList - List of NeighborLqiItems.  This list
   1454           *                is the list to be sent, not the entire list
   1455           * @param       SecurityEnable - true if secure
   1456           *
   1457           * @return      ZStatus_t
   1458           */

   \                                 In  segment BANKED_CODE, align 1, keep-with-next
   1459          ZStatus_t ZDP_MgmtLqiRsp( byte TransSeq, zAddrType_t *dstAddr,
   \                     ZDP_MgmtLqiRsp:
   1460                                    byte Status,
   1461                                    byte NeighborLqiEntries,
   1462                                    byte StartIndex,
   1463                                    byte NeighborLqiCount,
   1464                                    ZDP_MgmtLqiItem_t* NeighborList,
   1465                                    byte SecurityEnable )
   1466          {
   \   000000                REQUIRE ?V0
   \   000000                REQUIRE ?V1
   \   000000                REQUIRE ?V2
   \   000000                REQUIRE ?V3
   \   000000                REQUIRE ?V4
   \   000000                REQUIRE ?V5
   \   000000                REQUIRE ?V6
   \   000000                REQUIRE ?V7
   \   000000                REQUIRE ?V8
   \   000000                REQUIRE ?V9
   \   000000                REQUIRE ?V10
   \   000000                REQUIRE ?V11
   \   000000                REQUIRE ?V12
   \   000000   74EB         MOV     A,#-0x15
   \   000002   12....       LCALL   ?BANKED_ENTER_XDATA
   \   000005                ; Saved register size: 21
   \   000005                ; Auto size: 1
   \   000005   74FF         MOV     A,#-0x1
   \   000007   12....       LCALL   ?ALLOC_XSTACK8
   \   00000A   E9           MOV     A,R1
   \   00000B   85..82       MOV     DPL,?XSP + 0
   \   00000E   85..83       MOV     DPH,?XSP + 1
   \   000011   F0           MOVX    @DPTR,A
   \   000012   8A..         MOV     ?V10,R2
   \   000014   8B..         MOV     ?V11,R3
   \   000016   8D..         MOV     ?V12,R5
   1467            ZDP_MgmtLqiItem_t* list = NeighborList;
   \   000018   7418         MOV     A,#0x18
   \   00001A   12....       LCALL   ?XSTACK_DISP0_8
   \   00001D   12....       LCALL   ??Subroutine122_0 & 0xFFFF
   1468            uint8 *buf, *pBuf;
   1469            byte len, x;
   1470          
   1471            (void)SecurityEnable;  // Intentionally unreferenced parameter
   1472          
   1473            if ( ZSuccess != Status )
   \                     ??CrossCallReturnLabel_231:
   \   000020   EC           MOV     A,R4
   \   000021   6026         JZ      ??ZDP_MgmtLqiRsp_0
   1474            {
   1475              ZDP_TmpBuf[0] = Status;
   \   000023   12....       LCALL   ?Subroutine43 & 0xFFFF
   \                     ??CrossCallReturnLabel_151:
   \   000026   EC           MOV     A,R4
   \   000027   F0           MOVX    @DPTR,A
   1476              return fillAndSend( &TransSeq, dstAddr, Mgmt_Lqi_rsp, 1 );
   \   000028                ; Setup parameters for call to function fillAndSend
   \   000028   75..31       MOV     ?V0,#0x31
   \   00002B   75..80       MOV     ?V1,#-0x80
   \   00002E   78..         MOV     R0,#?V0
   \   000030   12....       LCALL   ?PUSH_XSTACK_I_TWO
   \   000033   7901         MOV     R1,#0x1
   \   000035   AC..         MOV     R4,?V10
   \   000037   AD..         MOV     R5,?V11
   \   000039   7402         MOV     A,#0x2
   \   00003B   12....       LCALL   ?XSTACK_DISP101_8
   \   00003E   12....       LCALL   ??fillAndSend?relay  ; Banked call to: fillAndSend
   \   000041   7402         MOV     A,#0x2
   \   000043   12....       LCALL   ?DEALLOC_XSTACK8
   \   000046   02....       LJMP    ??CrossCallReturnLabel_36 & 0xFFFF
   1477            }
   \                     ??ZDP_MgmtLqiRsp_0:
   \   000049   7417         MOV     A,#0x17
   \   00004B   12....       LCALL   ?XSTACK_DISP0_8
   \   00004E   E0           MOVX    A,@DPTR
   \   00004F   F5..         MOV     ?V5,A
   1478          
   1479            // (Status + NeighborLqiEntries + StartIndex + NeighborLqiCount) +
   1480            //  neighbor LQI data.
   1481            len = (1 + 1 + 1 + 1) + (NeighborLqiCount * ZDP_MGMTLQI_EXTENDED_SIZE);
   \   000051   75F016       MOV     B,#0x16
   \   000054   A4           MUL     AB
   \   000055   2404         ADD     A,#0x4
   \   000057   F5..         MOV     ?V6,A
   1482          
   1483            buf = osal_mem_alloc( len+1 );
   \   000059                ; Setup parameters for call to function osal_mem_alloc
   \   000059   12....       LCALL   ??Subroutine119_0 & 0xFFFF
   \                     ??CrossCallReturnLabel_216:
   \   00005C   12....       LCALL   ??osal_mem_alloc?relay; Banked call to: osal_mem_alloc
   \   00005F   8A..         MOV     ?V2,R2
   \   000061   8B..         MOV     ?V3,R3
   1484            if ( buf == NULL )
   \   000063   EA           MOV     A,R2
   \   000064   45..         ORL     A,?V3
   \   000066   7005         JNZ     ??ZDP_MgmtLqiRsp_1
   1485            {
   1486              return afStatus_MEM_FAIL;
   \   000068   7910         MOV     R1,#0x10
   \   00006A   02....       LJMP    ??CrossCallReturnLabel_36 & 0xFFFF
   1487            }
   1488          
   1489            pBuf = buf+1;
   \                     ??ZDP_MgmtLqiRsp_1:
   \   00006D   8A82         MOV     DPL,R2
   \   00006F   8B83         MOV     DPH,R3
   \   000071   A3           INC     DPTR
   1490          
   1491            *pBuf++ = Status;
   \   000072   E4           CLR     A
   \   000073   F0           MOVX    @DPTR,A
   \   000074   A3           INC     DPTR
   1492            *pBuf++ = NeighborLqiEntries;
   \   000075   E5..         MOV     A,?V12
   \   000077   12....       LCALL   ??Subroutine109_0 & 0xFFFF
   1493            *pBuf++ = StartIndex;
   \                     ??CrossCallReturnLabel_176:
   \   00007A   7416         MOV     A,#0x16
   \   00007C   12....       LCALL   ?XSTACK_DISP0_8
   \   00007F   12....       LCALL   ?Subroutine49 & 0xFFFF
   1494            *pBuf++ = NeighborLqiCount;
   \                     ??CrossCallReturnLabel_72:
   \   000082   E5..         MOV     A,?V5
   \   000084   12....       LCALL   ?Subroutine35 & 0xFFFF
   1495          
   1496            for ( x = 0; x < NeighborLqiCount; x++ )
   \                     ??CrossCallReturnLabel_48:
   \   000087   75..00       MOV     ?V4,#0x0
   \   00008A   02....       LJMP    ??ZDP_MgmtLqiRsp_2 & 0xFFFF
   1497            {
   1498              osal_cpyExtAddr( pBuf, list->extPanID);         // Extended PanID
   \                     ??ZDP_MgmtLqiRsp_3:
   \   00008D                ; Setup parameters for call to function sAddrExtCpy
   \   00008D   12....       LCALL   ?Subroutine61 & 0xFFFF
   \                     ??CrossCallReturnLabel_191:
   \   000090   35..         ADDC    A,?V1
   \   000092   FD           MOV     R5,A
   \   000093   EE           MOV     A,R6
   \   000094   FA           MOV     R2,A
   \   000095   EF           MOV     A,R7
   \   000096   FB           MOV     R3,A
   \   000097   12....       LCALL   ??sAddrExtCpy?relay  ; Banked call to: sAddrExtCpy
   1499              pBuf += Z_EXTADDR_LEN;
   1500          
   1501              // EXTADDR
   1502              pBuf = osal_cpyExtAddr( pBuf, list->extAddr );
   \   00009A                ; Setup parameters for call to function sAddrExtCpy
   \   00009A   E5..         MOV     A,?V0
   \   00009C   240A         ADD     A,#0xa
   \   00009E   FC           MOV     R4,A
   \   00009F   E4           CLR     A
   \   0000A0   35..         ADDC    A,?V1
   \   0000A2   FD           MOV     R5,A
   \   0000A3   EE           MOV     A,R6
   \   0000A4   2408         ADD     A,#0x8
   \   0000A6   FA           MOV     R2,A
   \   0000A7   E4           CLR     A
   \   0000A8   3F           ADDC    A,R7
   \   0000A9   FB           MOV     R3,A
   \   0000AA   12....       LCALL   ??sAddrExtCpy?relay  ; Banked call to: sAddrExtCpy
   \   0000AD   8A..         MOV     ?V8,R2
   \   0000AF   8B..         MOV     ?V9,R3
   \   0000B1   AE..         MOV     R6,?V8
   \   0000B3   AF..         MOV     R7,?V9
   1503          
   1504              // NWKADDR
   1505              *pBuf++ = LO_UINT16( list->nwkAddr );
   \   0000B5   E5..         MOV     A,?V0
   \   0000B7   2412         ADD     A,#0x12
   \   0000B9   F8           MOV     R0,A
   \   0000BA   E4           CLR     A
   \   0000BB   35..         ADDC    A,?V1
   \   0000BD   F9           MOV     R1,A
   \   0000BE   12....       LCALL   ?Subroutine13 & 0xFFFF
   1506              *pBuf++ = HI_UINT16( list->nwkAddr );
   1507          
   1508              // DEVICETYPE
   1509              *pBuf = list->devType;
   \                     ??CrossCallReturnLabel_9:
   \   0000C1   E5..         MOV     A,?V0
   \   0000C3   2414         ADD     A,#0x14
   \   0000C5   F582         MOV     DPL,A
   \   0000C7   E4           CLR     A
   \   0000C8   35..         ADDC    A,?V1
   \   0000CA   F583         MOV     DPH,A
   \   0000CC   12....       LCALL   ??Subroutine108_0 & 0xFFFF
   \                     ??CrossCallReturnLabel_168:
   \   0000CF   F0           MOVX    @DPTR,A
   1510          
   1511              // RXONIDLE
   1512              *pBuf |= (uint8)(list->rxOnIdle << 2);
   \   0000D0   E5..         MOV     A,?V0
   \   0000D2   2415         ADD     A,#0x15
   \   0000D4   F582         MOV     DPL,A
   \   0000D6   E4           CLR     A
   \   0000D7   35..         ADDC    A,?V1
   \   0000D9   F583         MOV     DPH,A
   \   0000DB   E0           MOVX    A,@DPTR
   \   0000DC   33           RLC     A
   \   0000DD   33           RLC     A
   \   0000DE   54FC         ANL     A,#0xfc
   \   0000E0   F8           MOV     R0,A
   \   0000E1   8E82         MOV     DPL,R6
   \   0000E3   8F83         MOV     DPH,R7
   \   0000E5   E0           MOVX    A,@DPTR
   \   0000E6   48           ORL     A,R0
   \   0000E7   12....       LCALL   ?Subroutine36 & 0xFFFF
   1513          
   1514              // RELATIONSHIP
   1515              *pBuf++ |= (uint8)(list->relation << 4);
   \                     ??CrossCallReturnLabel_50:
   \   0000EA   E5..         MOV     A,?V0
   \   0000EC   2416         ADD     A,#0x16
   \   0000EE   F582         MOV     DPL,A
   \   0000F0   E4           CLR     A
   \   0000F1   35..         ADDC    A,?V1
   \   0000F3   F583         MOV     DPH,A
   \   0000F5   12....       LCALL   ?Subroutine44 & 0xFFFF
   1516          
   1517              // PERMITJOINING
   1518              *pBuf++ = (uint8)(list->permit);
   \                     ??CrossCallReturnLabel_60:
   \   0000F8   E5..         MOV     A,?V0
   \   0000FA   2417         ADD     A,#0x17
   \   0000FC   12....       LCALL   ?Subroutine29 & 0xFFFF
   1519          
   1520              // DEPTH
   1521              *pBuf++ = list->depth;
   1522          
   1523              // LQI
   1524              *pBuf++ = list->lqi;
   1525          
   1526              list++; // next list entry
   1527            }
   \                     ??CrossCallReturnLabel_32:
   \   0000FF   2418         ADD     A,#0x18
   \   000101   12....       LCALL   ?Subroutine29 & 0xFFFF
   \                     ??CrossCallReturnLabel_33:
   \   000104   2419         ADD     A,#0x19
   \   000106   12....       LCALL   ?Subroutine29 & 0xFFFF
   \                     ??CrossCallReturnLabel_34:
   \   000109   241A         ADD     A,#0x1a
   \   00010B   F5..         MOV     ?V0,A
   \   00010D   5002         JNC     ??ZDP_MgmtLqiRsp_4
   \   00010F   05..         INC     ?V1
   \                     ??ZDP_MgmtLqiRsp_4:
   \   000111   05..         INC     ?V4
   \                     ??ZDP_MgmtLqiRsp_2:
   \   000113   E5..         MOV     A,?V4
   \   000115   C3           CLR     C
   \   000116   95..         SUBB    A,?V5
   \   000118   5003         JNC     $+5
   \   00011A   02....       LJMP    ??ZDP_MgmtLqiRsp_3 & 0xFFFF
   1528          
   1529            FillAndSendBuffer( &TransSeq, dstAddr, Mgmt_Lqi_rsp, len, buf );
   \   00011D   12....       LCALL   ?Subroutine32 & 0xFFFF
   \                     ??CrossCallReturnLabel_274:
   \   000120                ; Setup parameters for call to function fillAndSend
   \   000120   75..31       MOV     ?V0,#0x31
   \   000123   75..80       MOV     ?V1,#-0x80
   \   000126   78..         MOV     R0,#?V0
   \   000128   12....       LCALL   ?PUSH_XSTACK_I_TWO
   \   00012B   A9..         MOV     R1,?V6
   \   00012D   AC..         MOV     R4,?V10
   \   00012F   AD..         MOV     R5,?V11
   \   000131   7402         MOV     A,#0x2
   \   000133   12....       LCALL   ?XSTACK_DISP101_8
   \   000136   12....       LCALL   ??fillAndSend?relay  ; Banked call to: fillAndSend
   \   000139   7402         MOV     A,#0x2
   \   00013B   12....       LCALL   ?DEALLOC_XSTACK8
   \   00013E   E9           MOV     A,R1
   \   00013F   FE           MOV     R6,A
   \   000140                ; Setup parameters for call to function osal_mem_free
   \   000140   AA..         MOV     R2,?V2
   \   000142   AB..         MOV     R3,?V3
   \   000144   12....       LCALL   ??osal_mem_free?relay; Banked call to: osal_mem_free
   \   000147   12....       LCALL   ?Subroutine30 & 0xFFFF
   \                     ??CrossCallReturnLabel_36:
   \   00014A   7401         MOV     A,#0x1
   \   00014C   12....       LCALL   ?DEALLOC_XSTACK8
   \   00014F   7F0D         MOV     R7,#0xd
   \   000151   02....       LJMP    ?BANKED_LEAVE_XDATA
   1530          }

   \                                 In  segment BANKED_CODE, align 1, keep-with-next
   \                     ?Subroutine29:
   \   000000   F582         MOV     DPL,A
   \   000002   E4           CLR     A
   \   000003   35..         ADDC    A,?V1
   \   000005   F583         MOV     DPH,A
   \   000007   12....       LCALL   ??Subroutine110_0 & 0xFFFF
   \                     ??CrossCallReturnLabel_183:
   \   00000A   E5..         MOV     A,?V0
   \   00000C   22           RET

   \                                 In  segment BANKED_CODE, align 1, keep-with-next
   \                     ?Subroutine32:
   \   000000   85..82       MOV     DPL,?V2
   \   000003   85..83       MOV     DPH,?V3
   \   000006                REQUIRE ??Subroutine127_0
   \   000006                ; // Fall through to label ??Subroutine127_0
   1531          
   1532          /*********************************************************************
   1533           * @fn          ZDP_MgmtRtgRsp
   1534           *
   1535           * @brief       This builds and send a Mgmt_Rtg_rsp message. This
   1536           *              function sends a unicast message.
   1537           *
   1538           * @param       dstAddr - destination address of the message
   1539           * @param       Status - message status (ZDP_SUCCESS or other)
   1540           * @param       RoutingTableEntries - Total number of entries
   1541           * @param       StartIndex - Starting index within the reporting list
   1542           * @param       RoutingTableListCount - number of entries included
   1543           *                                      in this message
   1544           * @param       RoutingTableList - List of Routing Table entries
   1545           * @param       SecurityEnable - true to enable security for this message
   1546           *
   1547           * @return      ZStatus_t
   1548           */

   \                                 In  segment BANKED_CODE, align 1, keep-with-next
   \                     ?Subroutine26:
   \   000000   A3           INC     DPTR
   \   000001                REQUIRE ??Subroutine95_0
   \   000001                ; // Fall through to label ??Subroutine95_0

   \                                 In  segment BANKED_CODE, align 1, keep-with-next
   1549          ZStatus_t ZDP_MgmtRtgRsp( byte TransSeq, zAddrType_t *dstAddr,
   \                     ZDP_MgmtRtgRsp:
   1550                                      byte Status,
   1551                                      byte RoutingTableEntries,
   1552                                      byte StartIndex,
   1553                                      byte RoutingListCount,
   1554                                      rtgItem_t *RoutingTableList,
   1555                                      byte SecurityEnable )
   1556          {
   \   000000                REQUIRE ?V0
   \   000000                REQUIRE ?V1
   \   000000                REQUIRE ?V2
   \   000000                REQUIRE ?V3
   \   000000                REQUIRE ?V4
   \   000000                REQUIRE ?V5
   \   000000                REQUIRE ?V6
   \   000000                REQUIRE ?V7
   \   000000                REQUIRE ?V8
   \   000000                REQUIRE ?V9
   \   000000   74EE         MOV     A,#-0x12
   \   000002   12....       LCALL   ?BANKED_ENTER_XDATA
   \   000005                ; Saved register size: 18
   \   000005                ; Auto size: 1
   \   000005   74FF         MOV     A,#-0x1
   \   000007   12....       LCALL   ?ALLOC_XSTACK8
   \   00000A   E9           MOV     A,R1
   \   00000B   85..82       MOV     DPL,?XSP + 0
   \   00000E   85..83       MOV     DPH,?XSP + 1
   \   000011   F0           MOVX    @DPTR,A
   \   000012   8A..         MOV     ?V2,R2
   \   000014   8B..         MOV     ?V3,R3
   \   000016   8C..         MOV     ?V1,R4
   \   000018   8D..         MOV     ?V0,R5
   \   00001A   7414         MOV     A,#0x14
   \   00001C   12....       LCALL   ?XSTACK_DISP0_8
   \   00001F   E0           MOVX    A,@DPTR
   \   000020   F5..         MOV     ?V4,A
   1557            uint8 *buf;
   1558            uint8 *pBuf;
   1559            // Status + RoutingTableEntries + StartIndex + RoutingListCount.
   1560            byte len = 1 + 1 + 1 + 1;
   1561            byte x;
   1562          
   1563            (void)SecurityEnable;  // Intentionally unreferenced parameter
   1564          
   1565            // Add an array for Routing List data
   1566            len += (RoutingListCount * ZDP_ROUTINGENTRY_SIZE);
   \   000022   75F005       MOV     B,#0x5
   \   000025   12....       LCALL   ?Subroutine57 & 0xFFFF
   1567          
   1568            buf = osal_mem_alloc( (short)(len+1) );
   \                     ??CrossCallReturnLabel_215:
   \   000028   12....       LCALL   ??osal_mem_alloc?relay; Banked call to: osal_mem_alloc
   \   00002B   8A..         MOV     ?V6,R2
   \   00002D   8B..         MOV     ?V7,R3
   \   00002F   AE..         MOV     R6,?V6
   \   000031   AF..         MOV     R7,?V7
   1569            if ( buf == NULL )
   \   000033   EE           MOV     A,R6
   \   000034   4F           ORL     A,R7
   \   000035   7005         JNZ     ??ZDP_MgmtRtgRsp_0
   1570            {
   1571              return afStatus_MEM_FAIL;
   \   000037   7910         MOV     R1,#0x10
   \   000039   02....       LJMP    ??ZDP_MgmtRtgRsp_1 & 0xFFFF
   1572            }
   1573          
   1574            pBuf = buf+1;
   \                     ??ZDP_MgmtRtgRsp_0:
   \   00003C   8E82         MOV     DPL,R6
   \   00003E   8F83         MOV     DPH,R7
   \   000040   A3           INC     DPTR
   1575          
   1576            *pBuf++ = Status;
   \   000041   E5..         MOV     A,?V1
   \   000043   F0           MOVX    @DPTR,A
   \   000044   A3           INC     DPTR
   1577            *pBuf++ = RoutingTableEntries;
   \   000045   E5..         MOV     A,?V0
   \   000047   12....       LCALL   ??Subroutine114_0 & 0xFFFF
   1578            *pBuf++ = StartIndex;
   \                     ??CrossCallReturnLabel_196:
   \   00004A   7413         MOV     A,#0x13
   \   00004C   12....       LCALL   ?XSTACK_DISP0_8
   \   00004F   12....       LCALL   ?Subroutine54 & 0xFFFF
   \                     ??CrossCallReturnLabel_82:
   \   000052   A3           INC     DPTR
   1579            *pBuf++ = RoutingListCount;
   \   000053   E5..         MOV     A,?V4
   \   000055   F0           MOVX    @DPTR,A
   \   000056   A3           INC     DPTR
   \   000057   08           INC     R0
   \   000058   08           INC     R0
   \   000059   A983         MOV     R1,DPH
   1580          
   1581            for ( x = 0; x < RoutingListCount; x++ )
   \   00005B   75..00       MOV     ?V6,#0x0
   \   00005E   7415         MOV     A,#0x15
   \   000060   12....       LCALL   ?XSTACK_DISP0_8
   \   000063   12....       LCALL   ??Subroutine103_0 & 0xFFFF
   \                     ??CrossCallReturnLabel_162:
   \   000066   8031         SJMP    ??ZDP_MgmtRtgRsp_2
   1582            {
   1583              *pBuf++ = LO_UINT16( RoutingTableList->dstAddress );  // Destination Address
   \                     ??ZDP_MgmtRtgRsp_3:
   \   000068   8A82         MOV     DPL,R2
   \   00006A   8B83         MOV     DPH,R3
   \   00006C   E0           MOVX    A,@DPTR
   \   00006D   12....       LCALL   ??Subroutine113_0 & 0xFFFF
   1584              *pBuf++ = HI_UINT16( RoutingTableList->dstAddress );
   \                     ??CrossCallReturnLabel_198:
   \   000070   8A82         MOV     DPL,R2
   \   000072   8B83         MOV     DPH,R3
   \   000074   12....       LCALL   ?Subroutine26 & 0xFFFF
   1585              *pBuf++ = RoutingTableList->status;
   \                     ??CrossCallReturnLabel_137:
   \   000077   8A82         MOV     DPL,R2
   \   000079   8B83         MOV     DPH,R3
   \   00007B   A3           INC     DPTR
   \   00007C   A3           INC     DPTR
   \   00007D   A3           INC     DPTR
   \   00007E   A3           INC     DPTR
   \   00007F   12....       LCALL   ?Subroutine26 & 0xFFFF
   1586              *pBuf++ = LO_UINT16( RoutingTableList->nextHopAddress );  // Next hop
   \                     ??CrossCallReturnLabel_138:
   \   000082   EA           MOV     A,R2
   \   000083   12....       LCALL   ??Subroutine112_0 & 0xFFFF
   \                     ??CrossCallReturnLabel_189:
   \   000086   3B           ADDC    A,R3
   \   000087   FD           MOV     R5,A
   \   000088   8C82         MOV     DPL,R4
   \   00008A   8D83         MOV     DPH,R5
   \   00008C   E0           MOVX    A,@DPTR
   \   00008D   12....       LCALL   ?Subroutine16 & 0xFFFF
   1587              *pBuf++ = HI_UINT16( RoutingTableList->nextHopAddress );
   1588              RoutingTableList++;    // Move to next list entry
   \                     ??CrossCallReturnLabel_11:
   \   000090   EA           MOV     A,R2
   \   000091   2407         ADD     A,#0x7
   \   000093   FA           MOV     R2,A
   \   000094   5001         JNC     ??ZDP_MgmtRtgRsp_4
   \   000096   0B           INC     R3
   1589            }
   \                     ??ZDP_MgmtRtgRsp_4:
   \   000097   05..         INC     ?V6
   \                     ??ZDP_MgmtRtgRsp_2:
   \   000099   E5..         MOV     A,?V6
   \   00009B   C3           CLR     C
   \   00009C   95..         SUBB    A,?V4
   \   00009E   40C8         JC      ??ZDP_MgmtRtgRsp_3
   1590          
   1591            FillAndSendBuffer( &TransSeq, dstAddr, Mgmt_Rtg_rsp, len, buf );
   \   0000A0   8E82         MOV     DPL,R6
   \   0000A2   8F83         MOV     DPH,R7
   \   0000A4   12....       LCALL   ??Subroutine127_0 & 0xFFFF
   \                     ??CrossCallReturnLabel_272:
   \   0000A7                ; Setup parameters for call to function fillAndSend
   \   0000A7   75..32       MOV     ?V6,#0x32
   \   0000AA   75..80       MOV     ?V7,#-0x80
   \   0000AD   78..         MOV     R0,#?V6
   \   0000AF   12....       LCALL   ?PUSH_XSTACK_I_TWO
   \   0000B2   A9..         MOV     R1,?V5
   \   0000B4   AC..         MOV     R4,?V2
   \   0000B6   AD..         MOV     R5,?V3
   \   0000B8   7402         MOV     A,#0x2
   \   0000BA   12....       LCALL   ?XSTACK_DISP101_8
   \   0000BD   12....       LCALL   ??fillAndSend?relay  ; Banked call to: fillAndSend
   \   0000C0   7402         MOV     A,#0x2
   \   0000C2   12....       LCALL   ?DEALLOC_XSTACK8
   \   0000C5   E9           MOV     A,R1
   \   0000C6   F5..         MOV     ?V2,A
   \   0000C8                ; Setup parameters for call to function osal_mem_free
   \   0000C8   EE           MOV     A,R6
   \   0000C9   FA           MOV     R2,A
   \   0000CA   EF           MOV     A,R7
   \   0000CB   FB           MOV     R3,A
   \   0000CC   12....       LCALL   ??osal_mem_free?relay; Banked call to: osal_mem_free
   \   0000CF   90....       MOV     DPTR,#ZDP_TmpBuf
   \   0000D2   74..         MOV     A,#(ZDP_Buf + 1) & 0xff
   \   0000D4   F0           MOVX    @DPTR,A
   \   0000D5   A3           INC     DPTR
   \   0000D6   74..         MOV     A,#((ZDP_Buf + 1) >> 8) & 0xff
   \   0000D8   F0           MOVX    @DPTR,A
   \   0000D9   A9..         MOV     R1,?V2
   \                     ??ZDP_MgmtRtgRsp_1:
   \   0000DB   02....       LJMP    ?Subroutine3 & 0xFFFF
   1592          }
   1593          
   1594          /*********************************************************************
   1595           * @fn          ZDP_MgmtBindRsp
   1596           *
   1597           * @brief       This builds and send a Mgmt_Bind_rsp message. This
   1598           *              function sends a unicast message.
   1599           *
   1600           * @param       dstAddr - destination address of the message
   1601           * @param       Status - message status (ZDP_SUCCESS or other)
   1602           * @param       BindingTableEntries - Total number of entries
   1603           * @param       StartIndex - Starting index within the reporting list
   1604           * @param       BindingTableListCount - number of entries included
   1605           *                                 in this message
   1606           * @param       BindingTableList - List of Binding Table entries
   1607           * @param       SecurityEnable - Security Options
   1608           *
   1609           * @return      ZStatus_t
   1610           */

   \                                 In  segment BANKED_CODE, align 1, keep-with-next
   1611          ZStatus_t ZDP_MgmtBindRsp( byte TransSeq, zAddrType_t *dstAddr,
   \                     ZDP_MgmtBindRsp:
   1612                                      byte Status,
   1613                                      byte BindingTableEntries,
   1614                                      byte StartIndex,
   1615                                      byte BindingTableListCount,
   1616                                      apsBindingItem_t *BindingTableList,
   1617                                      byte SecurityEnable )
   1618          {
   \   000000                REQUIRE ?V0
   \   000000                REQUIRE ?V1
   \   000000                REQUIRE ?V2
   \   000000                REQUIRE ?V3
   \   000000                REQUIRE ?V4
   \   000000                REQUIRE ?V5
   \   000000                REQUIRE ?V6
   \   000000                REQUIRE ?V8
   \   000000                REQUIRE ?V9
   \   000000                REQUIRE ?V10
   \   000000                REQUIRE ?V11
   \   000000   74EC         MOV     A,#-0x14
   \   000002   12....       LCALL   ?BANKED_ENTER_XDATA
   \   000005                ; Saved register size: 20
   \   000005                ; Auto size: 1
   \   000005   74FF         MOV     A,#-0x1
   \   000007   12....       LCALL   ?ALLOC_XSTACK8
   \   00000A   E9           MOV     A,R1
   \   00000B   85..82       MOV     DPL,?XSP + 0
   \   00000E   85..83       MOV     DPH,?XSP + 1
   \   000011   F0           MOVX    @DPTR,A
   \   000012   8A..         MOV     ?V10,R2
   \   000014   8B..         MOV     ?V11,R3
   \   000016   8C..         MOV     ?V6,R4
   \   000018   8D..         MOV     ?V5,R5
   \   00001A   7416         MOV     A,#0x16
   \   00001C   12....       LCALL   ?XSTACK_DISP0_8
   \   00001F   E0           MOVX    A,@DPTR
   \   000020   F5..         MOV     ?V4,A
   1619            uint8 *buf;
   1620            uint8 *pBuf;
   1621            uint8 maxLen; // maxLen is the maximum packet length to allocate enough memory space
   1622            uint8 len;    // Actual length varies due to different addrMode
   1623            uint8 x;
   1624            byte extZdpBindEntrySize = ZDP_BINDINGENTRY_SIZE + 1 + 1; // One more byte for cluserID and DstAddrMode
   1625            byte shortZdpBindEntrySize = ZDP_BINDINGENTRY_SIZE + 1 + 1 + 2 - 8 - 1; // clusterID + DstAddrMode + shortAddr - ExtAddr - DstEndpoint
   1626          
   1627            (void)SecurityEnable;  // Intentionally unreferenced parameter
   1628          
   1629            // Status + BindingTableEntries + StartIndex + BindingTableListCount.
   1630            maxLen = 1 + 1 + 1 + 1;
   1631            maxLen += (BindingTableListCount * extZdpBindEntrySize );  //max length
   1632            buf = osal_mem_alloc( maxLen + 1 );  // +1 for transaction ID
   \   000022                ; Setup parameters for call to function osal_mem_alloc
   \   000022   75F015       MOV     B,#0x15
   \   000025   A4           MUL     AB
   \   000026   2404         ADD     A,#0x4
   \   000028   12....       LCALL   ??Subroutine119_0 & 0xFFFF
   \                     ??CrossCallReturnLabel_217:
   \   00002B   12....       LCALL   ??osal_mem_alloc?relay; Banked call to: osal_mem_alloc
   \   00002E   8A..         MOV     ?V2,R2
   \   000030   8B..         MOV     ?V3,R3
   1633          
   1634            if ( buf == NULL )
   \   000032   EA           MOV     A,R2
   \   000033   45..         ORL     A,?V3
   \   000035   7005         JNZ     ??ZDP_MgmtBindRsp_0
   1635            {
   1636              return afStatus_MEM_FAIL;
   \   000037   7910         MOV     R1,#0x10
   \   000039   02....       LJMP    ??CrossCallReturnLabel_37 & 0xFFFF
   1637            }
   1638          
   1639            pBuf = buf+1;
   \                     ??ZDP_MgmtBindRsp_0:
   \   00003C   8A82         MOV     DPL,R2
   \   00003E   8B83         MOV     DPH,R3
   \   000040   A3           INC     DPTR
   1640          
   1641            *pBuf++ = Status;
   \   000041   E5..         MOV     A,?V6
   \   000043   F0           MOVX    @DPTR,A
   \   000044   A3           INC     DPTR
   1642            *pBuf++ = BindingTableEntries;
   \   000045   E5..         MOV     A,?V5
   \   000047   12....       LCALL   ??Subroutine116_0 & 0xFFFF
   1643            *pBuf++ = StartIndex;
   \                     ??CrossCallReturnLabel_209:
   \   00004A   7415         MOV     A,#0x15
   \   00004C   12....       LCALL   ?XSTACK_DISP0_8
   \   00004F   12....       LCALL   ?Subroutine53 & 0xFFFF
   1644            *pBuf++ = BindingTableListCount;
   \                     ??CrossCallReturnLabel_78:
   \   000052   E5..         MOV     A,?V4
   \   000054   F0           MOVX    @DPTR,A
   \   000055   A3           INC     DPTR
   \   000056   0A           INC     R2
   \   000057   0A           INC     R2
   \   000058   AB83         MOV     R3,DPH
   1645          
   1646            // Initial length = Status + BindingTableEntries + StartIndex + BindingTableListCount.
   1647            // length += ZDP_BINDINGENTRY_SIZE   -- Version 1.0
   1648            //           extZdpBindEntrySize     -- Version 1.1 extended address mode
   1649            //           shortZdpBindEntrySize   -- Version 1.1 group address mode
   1650          
   1651            len = 1 + 1 + 1 + 1;
   \   00005A   75..04       MOV     ?V0,#0x4
   1652            for ( x = 0; x < BindingTableListCount; x++ )
   \   00005D   75..00       MOV     ?V1,#0x0
   \   000060   7417         MOV     A,#0x17
   \   000062   12....       LCALL   ?XSTACK_DISP0_8
   \   000065   12....       LCALL   ??Subroutine120_0 & 0xFFFF
   \                     ??CrossCallReturnLabel_220:
   \   000068   8017         SJMP    ??ZDP_MgmtBindRsp_1
   1653            {
   1654              pBuf = osal_cpyExtAddr( pBuf, BindingTableList->srcAddr );
   1655              *pBuf++ = BindingTableList->srcEP;
   1656          
   1657              // Cluster ID
   1658              *pBuf++ = LO_UINT16( BindingTableList->clusterID );
   1659              *pBuf++ = HI_UINT16( BindingTableList->clusterID );
   1660          
   1661              *pBuf++ = BindingTableList->dstAddr.addrMode;
   1662              if ( BindingTableList->dstAddr.addrMode == Addr64Bit )
   1663              {
   1664                len += extZdpBindEntrySize;
   1665                pBuf = osal_cpyExtAddr( pBuf, BindingTableList->dstAddr.addr.extAddr );
   1666                *pBuf++ = BindingTableList->dstEP;
   1667              }
   1668              else
   1669              {
   1670                len += shortZdpBindEntrySize;
   \                     ??ZDP_MgmtBindRsp_2:
   \   00006A   740E         MOV     A,#0xe
   \   00006C   25..         ADD     A,?V0
   \   00006E   F5..         MOV     ?V0,A
   1671                *pBuf++ = LO_UINT16( BindingTableList->dstAddr.addr.shortAddr );
   \   000070   EE           MOV     A,R6
   \   000071   240B         ADD     A,#0xb
   \   000073   12....       LCALL   ?Subroutine17 & 0xFFFF
   1672                *pBuf++ = HI_UINT16( BindingTableList->dstAddr.addr.shortAddr );
   1673              }
   \                     ??CrossCallReturnLabel_12:
   \   000076   AB83         MOV     R3,DPH
   1674              BindingTableList++;    // Move to next list entry
   \   000078   EE           MOV     A,R6
   \   000079   2415         ADD     A,#0x15
   \   00007B   FE           MOV     R6,A
   \   00007C   5001         JNC     ??ZDP_MgmtBindRsp_3
   \   00007E   0F           INC     R7
   \                     ??ZDP_MgmtBindRsp_3:
   \   00007F   05..         INC     ?V1
   \                     ??ZDP_MgmtBindRsp_1:
   \   000081   E5..         MOV     A,?V1
   \   000083   C3           CLR     C
   \   000084   95..         SUBB    A,?V4
   \   000086   5046         JNC     ??ZDP_MgmtBindRsp_4
   \   000088                ; Setup parameters for call to function sAddrExtCpy
   \   000088   EE           MOV     A,R6
   \   000089   FC           MOV     R4,A
   \   00008A   EF           MOV     A,R7
   \   00008B   FD           MOV     R5,A
   \   00008C   12....       LCALL   ??sAddrExtCpy?relay  ; Banked call to: sAddrExtCpy
   \   00008F   8E82         MOV     DPL,R6
   \   000091   8F83         MOV     DPH,R7
   \   000093   A3           INC     DPTR
   \   000094   A3           INC     DPTR
   \   000095   A3           INC     DPTR
   \   000096   A3           INC     DPTR
   \   000097   A3           INC     DPTR
   \   000098   A3           INC     DPTR
   \   000099   A3           INC     DPTR
   \   00009A   A3           INC     DPTR
   \   00009B   12....       LCALL   ?Subroutine15 & 0xFFFF
   \                     ??CrossCallReturnLabel_213:
   \   00009E   EE           MOV     A,R6
   \   00009F   2409         ADD     A,#0x9
   \   0000A1   12....       LCALL   ?Subroutine17 & 0xFFFF
   \                     ??CrossCallReturnLabel_13:
   \   0000A4   AB83         MOV     R3,DPH
   \   0000A6   EE           MOV     A,R6
   \   0000A7   2413         ADD     A,#0x13
   \   0000A9   12....       LCALL   ?Subroutine27 & 0xFFFF
   \                     ??CrossCallReturnLabel_29:
   \   0000AC   70BC         JNZ     ??ZDP_MgmtBindRsp_2
   \   0000AE   7415         MOV     A,#0x15
   \   0000B0   25..         ADD     A,?V0
   \   0000B2   F5..         MOV     ?V0,A
   \   0000B4                ; Setup parameters for call to function sAddrExtCpy
   \   0000B4   EE           MOV     A,R6
   \   0000B5   240B         ADD     A,#0xb
   \   0000B7   FC           MOV     R4,A
   \   0000B8   E4           CLR     A
   \   0000B9   3F           ADDC    A,R7
   \   0000BA   FD           MOV     R5,A
   \   0000BB   12....       LCALL   ??sAddrExtCpy?relay  ; Banked call to: sAddrExtCpy
   \   0000BE   EE           MOV     A,R6
   \   0000BF   2414         ADD     A,#0x14
   \   0000C1   F582         MOV     DPL,A
   \   0000C3   E4           CLR     A
   \   0000C4   3F           ADDC    A,R7
   \   0000C5   F583         MOV     DPH,A
   \   0000C7   12....       LCALL   ?Subroutine53 & 0xFFFF
   1675            }
   \                     ??CrossCallReturnLabel_79:
   \   0000CA   AA82         MOV     R2,DPL
   \   0000CC   80A8         SJMP    ??CrossCallReturnLabel_12
   1676          
   1677            FillAndSendBuffer( &TransSeq, dstAddr, Mgmt_Bind_rsp, len, buf );
   \                     ??ZDP_MgmtBindRsp_4:
   \   0000CE   12....       LCALL   ?Subroutine32 & 0xFFFF
   \                     ??CrossCallReturnLabel_275:
   \   0000D1                ; Setup parameters for call to function fillAndSend
   \   0000D1   75..33       MOV     ?V8,#0x33
   \   0000D4   75..80       MOV     ?V9,#-0x80
   \   0000D7   78..         MOV     R0,#?V8
   \   0000D9   12....       LCALL   ?PUSH_XSTACK_I_TWO
   \   0000DC   A9..         MOV     R1,?V0
   \   0000DE   AC..         MOV     R4,?V10
   \   0000E0   AD..         MOV     R5,?V11
   \   0000E2   7402         MOV     A,#0x2
   \   0000E4   12....       LCALL   ?XSTACK_DISP101_8
   \   0000E7   12....       LCALL   ??fillAndSend?relay  ; Banked call to: fillAndSend
   \   0000EA   7402         MOV     A,#0x2
   \   0000EC   12....       LCALL   ?DEALLOC_XSTACK8
   \   0000EF   E9           MOV     A,R1
   \   0000F0   FE           MOV     R6,A
   \   0000F1                ; Setup parameters for call to function osal_mem_free
   \   0000F1   AA..         MOV     R2,?V2
   \   0000F3   AB..         MOV     R3,?V3
   \   0000F5   12....       LCALL   ??osal_mem_free?relay; Banked call to: osal_mem_free
   \   0000F8   12....       LCALL   ?Subroutine30 & 0xFFFF
   \                     ??CrossCallReturnLabel_37:
   \   0000FB   02....       LJMP    ?Subroutine6 & 0xFFFF
   1678          }

   \                                 In  segment BANKED_CODE, align 1, keep-with-next
   \                     ?Subroutine17:
   \   000000   12....       LCALL   ?Subroutine66 & 0xFFFF
   \                     ??CrossCallReturnLabel_205:
   \   000003   12....       LCALL   ?Subroutine77 & 0xFFFF
   \                     ??CrossCallReturnLabel_159:
   \   000006   F0           MOVX    @DPTR,A
   \   000007   A3           INC     DPTR
   \   000008   0A           INC     R2
   \   000009   22           RET
   1679          
   1680          /*********************************************************************
   1681           * @fn          ZDP_MgmtNwkUpdateNotify
   1682           *
   1683           * @brief       This builds and send a Mgmt_NWK_Update_notify message. This
   1684           *              function sends a unicast message.
   1685           *
   1686           * @param       dstAddr - destination address of the message
   1687           * @param       status - message status (ZDP_SUCCESS or other)
   1688           * @param       scannedChannels - List of channels scanned by the request
   1689           * @param       totalTransmissions - Total transmissions
   1690           * @param       transmissionFailures - Sum of transmission failures
   1691           * @param       listCount - Number of records contained in the energyValues list
   1692           * @param       energyValues - List of descriptors, one for each of ListCount,
   1693           *                             of the enegry detect descriptors
   1694           * @param       txOptions - Transmit options
   1695           * @param       securityEnable - Security options
   1696           *
   1697           * @return      afStatus_t
   1698           */

   \                                 In  segment BANKED_CODE, align 1, keep-with-next
   1699          afStatus_t ZDP_MgmtNwkUpdateNotify( uint8 TransSeq, zAddrType_t *dstAddr,
   \                     ZDP_MgmtNwkUpdateNotify:
   1700                                              uint8 status, uint32 scannedChannels,
   1701                                              uint16 totalTransmissions, uint16 transmissionFailures,
   1702                                              uint8 listCount, uint8 *energyValues, uint8 txOptions,
   1703                                              uint8 securityEnable )
   1704          {
   \   000000                REQUIRE ?V0
   \   000000                REQUIRE ?V1
   \   000000                REQUIRE ?V2
   \   000000                REQUIRE ?V4
   \   000000                REQUIRE ?V5
   \   000000                REQUIRE ?V6
   \   000000                REQUIRE ?V8
   \   000000                REQUIRE ?V9
   \   000000   74EE         MOV     A,#-0x12
   \   000002   12....       LCALL   ?BANKED_ENTER_XDATA
   \   000005                ; Saved register size: 18
   \   000005                ; Auto size: 1
   \   000005   74FF         MOV     A,#-0x1
   \   000007   12....       LCALL   ?ALLOC_XSTACK8
   \   00000A   E9           MOV     A,R1
   \   00000B   85..82       MOV     DPL,?XSP + 0
   \   00000E   85..83       MOV     DPH,?XSP + 1
   \   000011   F0           MOVX    @DPTR,A
   \   000012   8A..         MOV     ?V8,R2
   \   000014   8B..         MOV     ?V9,R3
   \   000016   8C..         MOV     ?V2,R4
   \   000018   8D..         MOV     ?V0,R5
   1705            uint8 *buf;
   1706            uint8 *pBuf;
   1707            uint8 len;
   1708          
   1709            (void)securityEnable;  // Intentionally unreferenced parameter
   1710          
   1711            // Status + ScannedChannels + totalTransmissions + transmissionFailures + ListCount + energyValues
   1712            len = 1 + 4 + 2 + 2 + 1 + listCount;
   \   00001A   740A         MOV     A,#0xa
   \   00001C   2D           ADD     A,R5
   \   00001D   F5..         MOV     ?V1,A
   1713          
   1714            buf = osal_mem_alloc( len+1 ); // +1 for transaction ID
   \   00001F                ; Setup parameters for call to function osal_mem_alloc
   \   00001F   12....       LCALL   ??Subroutine119_0 & 0xFFFF
   \                     ??CrossCallReturnLabel_218:
   \   000022   12....       LCALL   ??osal_mem_alloc?relay; Banked call to: osal_mem_alloc
   \   000025   8A..         MOV     ?V4,R2
   \   000027   8B..         MOV     ?V5,R3
   \   000029   AE..         MOV     R6,?V4
   \   00002B   AF..         MOV     R7,?V5
   1715            if ( buf == NULL )
   \   00002D   EE           MOV     A,R6
   \   00002E   4F           ORL     A,R7
   \   00002F   7005         JNZ     ??ZDP_MgmtNwkUpdateNotify_0
   1716            {
   1717              return afStatus_MEM_FAIL;
   \   000031   7910         MOV     R1,#0x10
   \   000033   02....       LJMP    ??ZDP_MgmtNwkUpdateNotify_1 & 0xFFFF
   1718            }
   1719          
   1720            pBuf = buf+1;
   \                     ??ZDP_MgmtNwkUpdateNotify_0:
   \   000036   8E82         MOV     DPL,R6
   \   000038   8F83         MOV     DPH,R7
   \   00003A   A3           INC     DPTR
   1721          
   1722            *pBuf++ = status;
   \   00003B   E5..         MOV     A,?V2
   \   00003D   12....       LCALL   ??Subroutine116_0 & 0xFFFF
   1723          
   1724            pBuf = osal_buffer_uint32( pBuf, scannedChannels );
   \                     ??CrossCallReturnLabel_210:
   \   000040                ; Setup parameters for call to function osal_buffer_uint32
   \   000040   7413         MOV     A,#0x13
   \   000042   12....       LCALL   ?XSTACK_DISP0_8
   \   000045   12....       LCALL   ?PUSH_XSTACK8_X_FOUR
   \   000048   12....       LCALL   ??osal_buffer_uint32?relay; Banked call to: osal_buffer_uint32
   \   00004B   7404         MOV     A,#0x4
   \   00004D   12....       LCALL   ?DEALLOC_XSTACK8
   \   000050   7417         MOV     A,#0x17
   \   000052   12....       LCALL   ?XSTACK_DISP0_8
   \   000055   12....       LCALL   ?Subroutine50 & 0xFFFF
   1725          
   1726            *pBuf++ = LO_UINT16( totalTransmissions );
   \                     ??CrossCallReturnLabel_73:
   \   000058   F0           MOVX    @DPTR,A
   \   000059   A3           INC     DPTR
   1727            *pBuf++ = HI_UINT16( totalTransmissions );
   \   00005A   E9           MOV     A,R1
   \   00005B   12....       LCALL   ??Subroutine116_0 & 0xFFFF
   \                     ??CrossCallReturnLabel_211:
   \   00005E   7419         MOV     A,#0x19
   \   000060   12....       LCALL   ?XSTACK_DISP0_8
   \   000063   12....       LCALL   ?Subroutine50 & 0xFFFF
   1728          
   1729            *pBuf++ = LO_UINT16( transmissionFailures );
   \                     ??CrossCallReturnLabel_74:
   \   000066   12....       LCALL   ??Subroutine129_0 & 0xFFFF
   1730            *pBuf++ = HI_UINT16( transmissionFailures );
   \                     ??CrossCallReturnLabel_264:
   \   000069   A3           INC     DPTR
   1731          
   1732            *pBuf++ = listCount;
   \   00006A   E5..         MOV     A,?V0
   \   00006C   F0           MOVX    @DPTR,A
   \   00006D   A3           INC     DPTR
   \   00006E   0A           INC     R2
   \   00006F   0A           INC     R2
   \   000070   0A           INC     R2
   \   000071   AB83         MOV     R3,DPH
   1733          
   1734            if ( listCount > 0 )
   \   000073   601A         JZ      ??ZDP_MgmtNwkUpdateNotify_2
   1735              osal_memcpy( pBuf, energyValues, listCount );
   \   000075                ; Setup parameters for call to function osal_memcpy
   \   000075   741B         MOV     A,#0x1b
   \   000077   12....       LCALL   ?XSTACK_DISP0_8
   \   00007A   12....       LCALL   ?Subroutine45 & 0xFFFF
   \                     ??CrossCallReturnLabel_62:
   \   00007D   12....       LCALL   ?PUSH_XSTACK_I_THREE
   \   000080   85....       MOV     ?V4,?V0
   \   000083   AC..         MOV     R4,?V4
   \   000085   7D00         MOV     R5,#0x0
   \   000087   12....       LCALL   ??osal_memcpy?relay  ; Banked call to: osal_memcpy
   \   00008A   7403         MOV     A,#0x3
   \   00008C   12....       LCALL   ?DEALLOC_XSTACK8
   1736          
   1737            FillAndSendBufferTxOptions( &TransSeq, dstAddr, Mgmt_NWK_Update_notify, len, buf, txOptions );
   \                     ??ZDP_MgmtNwkUpdateNotify_2:
   \   00008F   8E82         MOV     DPL,R6
   \   000091   8F83         MOV     DPH,R7
   \   000093   12....       LCALL   ??Subroutine127_0 & 0xFFFF
   \                     ??CrossCallReturnLabel_273:
   \   000096   741D         MOV     A,#0x1d
   \   000098   12....       LCALL   ?XSTACK_DISP0_8
   \   00009B   E0           MOVX    A,@DPTR
   \   00009C   90....       MOV     DPTR,#ZDP_TxOptions
   \   00009F   F0           MOVX    @DPTR,A
   \   0000A0                ; Setup parameters for call to function fillAndSend
   \   0000A0   75..38       MOV     ?V4,#0x38
   \   0000A3   75..80       MOV     ?V5,#-0x80
   \   0000A6   78..         MOV     R0,#?V4
   \   0000A8   12....       LCALL   ?PUSH_XSTACK_I_TWO
   \   0000AB   A9..         MOV     R1,?V1
   \   0000AD   AC..         MOV     R4,?V8
   \   0000AF   AD..         MOV     R5,?V9
   \   0000B1   7402         MOV     A,#0x2
   \   0000B3   12....       LCALL   ?XSTACK_DISP101_8
   \   0000B6   12....       LCALL   ??fillAndSend?relay  ; Banked call to: fillAndSend
   \   0000B9   7402         MOV     A,#0x2
   \   0000BB   12....       LCALL   ?DEALLOC_XSTACK8
   \   0000BE   E9           MOV     A,R1
   \   0000BF   F5..         MOV     ?V1,A
   \   0000C1                ; Setup parameters for call to function osal_mem_free
   \   0000C1   EE           MOV     A,R6
   \   0000C2   FA           MOV     R2,A
   \   0000C3   EF           MOV     A,R7
   \   0000C4   FB           MOV     R3,A
   \   0000C5   12....       LCALL   ??osal_mem_free?relay; Banked call to: osal_mem_free
   \   0000C8   90....       MOV     DPTR,#ZDP_TmpBuf
   \   0000CB   74..         MOV     A,#(ZDP_Buf + 1) & 0xff
   \   0000CD   F0           MOVX    @DPTR,A
   \   0000CE   A3           INC     DPTR
   \   0000CF   74..         MOV     A,#((ZDP_Buf + 1) >> 8) & 0xff
   \   0000D1   F0           MOVX    @DPTR,A
   \   0000D2   90....       MOV     DPTR,#ZDP_TxOptions
   \   0000D5   E4           CLR     A
   \   0000D6   F0           MOVX    @DPTR,A
   \   0000D7   A9..         MOV     R1,?V1
   \                     ??ZDP_MgmtNwkUpdateNotify_1:
   \   0000D9                REQUIRE ?Subroutine3
   \   0000D9                ; // Fall through to label ?Subroutine3
   1738          }

   \                                 In  segment BANKED_CODE, align 1, keep-with-next
   \                     ?Subroutine50:
   \   000000   12....       LCALL   ?Subroutine74 & 0xFFFF
   \                     ??CrossCallReturnLabel_107:
   \   000003   22           RET
   1739          
   1740          /*********************************************************************
   1741           * Functions to register for ZDO Over-the-air messages
   1742           */
   1743          
   1744          /*********************************************************************
   1745           * @fn          ZDO_RegisterForZDOMsg
   1746           *
   1747           * @brief       Call this function to register of an incoming over
   1748           *              the air ZDO message - probably a response message
   1749           *              but requests can also be received.
   1750           *              Messages are delivered to the task with ZDO_CB_MSG
   1751           *              as the message ID.
   1752           *
   1753           * @param       taskID - Where you would like the message delivered
   1754           * @param       clusterID - What message?
   1755           *
   1756           * @return      ZSuccess - successful, ZMemError if not
   1757           */

   \                                 In  segment BANKED_CODE, align 1, keep-with-next
   1758          ZStatus_t ZDO_RegisterForZDOMsg( uint8 taskID, uint16 clusterID )
   \                     ZDO_RegisterForZDOMsg:
   1759          {
   \   000000                REQUIRE ?V0
   \   000000                REQUIRE ?V1
   \   000000                REQUIRE ?V2
   \   000000                REQUIRE ?V4
   \   000000                REQUIRE ?V5
   \   000000   74F2         MOV     A,#-0xe
   \   000002   12....       LCALL   ?BANKED_ENTER_XDATA
   \   000005                ; Saved register size: 14
   \   000005                ; Auto size: 0
   \   000005   89..         MOV     ?V2,R1
   \   000007   8A..         MOV     ?V0,R2
   \   000009   8B..         MOV     ?V1,R3
   1760            ZDO_MsgCB_t *pList;
   1761            ZDO_MsgCB_t *pLast;
   1762            ZDO_MsgCB_t *pNew;
   1763          
   1764            // Look for duplicate
   1765            pList = pLast = zdoMsgCBs;
   \   00000B   90....       MOV     DPTR,#zdoMsgCBs
   \   00000E   12....       LCALL   ??Subroutine120_0 & 0xFFFF
   \                     ??CrossCallReturnLabel_221:
   \   000011   EE           MOV     A,R6
   \   000012   F8           MOV     R0,A
   \   000013   EF           MOV     A,R7
   \   000014   8028         SJMP    ??CrossCallReturnLabel_257
   1766            while ( pList )
   1767            {
   1768              if ( pList->taskID == taskID && pList->clusterID == clusterID )
   \                     ??ZDO_RegisterForZDOMsg_0:
   \   000016   8882         MOV     DPL,R0
   \   000018   8983         MOV     DPH,R1
   \   00001A   A3           INC     DPTR
   \   00001B   A3           INC     DPTR
   \   00001C   E0           MOVX    A,@DPTR
   \   00001D   65..         XRL     A,?V2
   \   00001F   7012         JNZ     ??ZDO_RegisterForZDOMsg_1
   \   000021   8882         MOV     DPL,R0
   \   000023   8983         MOV     DPH,R1
   \   000025   A3           INC     DPTR
   \   000026   A3           INC     DPTR
   \   000027   A3           INC     DPTR
   \   000028   E0           MOVX    A,@DPTR
   \   000029   65..         XRL     A,?V0
   \   00002B   7004         JNZ     ??ZDO_RegisterForZDOMsg_2
   \   00002D   A3           INC     DPTR
   \   00002E   E0           MOVX    A,@DPTR
   \   00002F   65..         XRL     A,?V1
   \                     ??ZDO_RegisterForZDOMsg_2:
   \   000031   6054         JZ      ??CrossCallReturnLabel_267
   1769                return ( ZSuccess );
   1770              pLast = pList;
   \                     ??ZDO_RegisterForZDOMsg_1:
   \   000033   E8           MOV     A,R0
   \   000034   FE           MOV     R6,A
   \   000035   E9           MOV     A,R1
   \   000036   FF           MOV     R7,A
   1771              pList = (ZDO_MsgCB_t *)pList->next;
   \   000037   8882         MOV     DPL,R0
   \   000039   8983         MOV     DPH,R1
   \   00003B   12....       LCALL   ??Subroutine126_0 & 0xFFFF
   1772            }
   \                     ??CrossCallReturnLabel_257:
   \   00003E   F9           MOV     R1,A
   \   00003F   E8           MOV     A,R0
   \   000040   49           ORL     A,R1
   \   000041   70D3         JNZ     ??ZDO_RegisterForZDOMsg_0
   1773          
   1774            // Add to the list
   1775            pNew = (ZDO_MsgCB_t *)osal_mem_alloc( sizeof ( ZDO_MsgCB_t ) );
   \   000043                ; Setup parameters for call to function osal_mem_alloc
   \   000043   7A05         MOV     R2,#0x5
   \   000045   7B00         MOV     R3,#0x0
   \   000047   12....       LCALL   ??osal_mem_alloc?relay; Banked call to: osal_mem_alloc
   \   00004A   8A..         MOV     ?V4,R2
   \   00004C   8B..         MOV     ?V5,R3
   \   00004E   A8..         MOV     R0,?V4
   \   000050   A9..         MOV     R1,?V5
   1776            if ( pNew )
   \   000052   E8           MOV     A,R0
   \   000053   49           ORL     A,R1
   \   000054   6035         JZ      ??ZDO_RegisterForZDOMsg_3
   1777            {
   1778              pNew->taskID = taskID;
   \   000056   8882         MOV     DPL,R0
   \   000058   8983         MOV     DPH,R1
   \   00005A   A3           INC     DPTR
   \   00005B   A3           INC     DPTR
   \   00005C   E5..         MOV     A,?V2
   \   00005E   12....       LCALL   ?Subroutine33 & 0xFFFF
   1779              pNew->clusterID = clusterID;
   \                     ??CrossCallReturnLabel_41:
   \   000061   A3           INC     DPTR
   \   000062   A3           INC     DPTR
   \   000063   E5..         MOV     A,?V0
   \   000065   F0           MOVX    @DPTR,A
   \   000066   A3           INC     DPTR
   \   000067   E5..         MOV     A,?V1
   \   000069   F0           MOVX    @DPTR,A
   1780              pNew->next = NULL;
   \   00006A   8882         MOV     DPL,R0
   \   00006C   8983         MOV     DPH,R1
   \   00006E   E4           CLR     A
   \   00006F   F0           MOVX    @DPTR,A
   \   000070   A3           INC     DPTR
   \   000071   F0           MOVX    @DPTR,A
   1781              if ( zdoMsgCBs )
   \   000072   90....       MOV     DPTR,#zdoMsgCBs
   \   000075   12....       LCALL   ?Subroutine55 & 0xFFFF
   \                     ??CrossCallReturnLabel_85:
   \   000078   4B           ORL     A,R3
   \   000079   6006         JZ      ??ZDO_RegisterForZDOMsg_4
   1782              {
   1783                pLast->next = pNew;
   \   00007B   8E82         MOV     DPL,R6
   \   00007D   8F83         MOV     DPH,R7
   \   00007F   8003         SJMP    ??ZDO_RegisterForZDOMsg_5
   1784              }
   1785              else
   1786                zdoMsgCBs = pNew;
   \                     ??ZDO_RegisterForZDOMsg_4:
   \   000081   90....       MOV     DPTR,#zdoMsgCBs
   \                     ??ZDO_RegisterForZDOMsg_5:
   \   000084   12....       LCALL   ??Subroutine128_0 & 0xFFFF
   1787              return ( ZSuccess );
   \                     ??CrossCallReturnLabel_267:
   \   000087   7900         MOV     R1,#0x0
   \   000089   8002         SJMP    ??ZDO_RegisterForZDOMsg_6
   1788            }
   1789            else
   1790              return ( ZMemError );
   \                     ??ZDO_RegisterForZDOMsg_3:
   \   00008B   7910         MOV     R1,#0x10
   \                     ??ZDO_RegisterForZDOMsg_6:
   \   00008D   02....       LJMP    ??Subroutine107_0 & 0xFFFF
   1791          }
   1792          
   1793          /*********************************************************************
   1794           * @fn          ZDO_RemoveRegisteredCB
   1795           *
   1796           * @brief       Call this function if you don't want to receive the
   1797           *              incoming message.
   1798           *
   1799           * @param       taskID - Where the messages are being delivered.
   1800           * @param       clusterID - What message?
   1801           *
   1802           * @return      ZSuccess - successful, ZFailure if not found
   1803           */

   \                                 In  segment BANKED_CODE, align 1, keep-with-next
   1804          ZStatus_t ZDO_RemoveRegisteredCB( uint8 taskID, uint16 clusterID )
   \                     ZDO_RemoveRegisteredCB:
   1805          {
   \   000000   74F7         MOV     A,#-0x9
   \   000002   12....       LCALL   ?BANKED_ENTER_XDATA
   \   000005                ; Saved register size: 9
   \   000005                ; Auto size: 0
   \   000005   E9           MOV     A,R1
   \   000006   FE           MOV     R6,A
   \   000007   EA           MOV     A,R2
   \   000008   FC           MOV     R4,A
   \   000009   EB           MOV     A,R3
   \   00000A   FD           MOV     R5,A
   1806            ZDO_MsgCB_t *pList;
   1807            ZDO_MsgCB_t *pLast = NULL;
   \   00000B   7800         MOV     R0,#0x0
   \   00000D   7900         MOV     R1,#0x0
   1808          
   1809            pList = zdoMsgCBs;
   \   00000F   90....       MOV     DPTR,#zdoMsgCBs
   \   000012   8008         SJMP    ??ZDO_RemoveRegisteredCB_0
   1810            while ( pList )
   1811            {
   1812              if ( pList->taskID == taskID && pList->clusterID == clusterID )
   1813              {
   1814                if ( pLast )
   1815                {
   1816                  // remove this one from the linked list
   1817                  pLast->next = pList->next;
   1818                }
   1819                else if ( pList->next )
   1820                {
   1821                  // remove the first one from the linked list
   1822                  zdoMsgCBs = pList->next;
   1823                }
   1824                else
   1825                {
   1826                  // remove the only item from the list
   1827                  zdoMsgCBs = (ZDO_MsgCB_t *)NULL;
   1828                }
   1829                osal_mem_free( pList );
   1830                return ( ZSuccess );
   1831              }
   1832              pLast = pList;
   \                     ??ZDO_RemoveRegisteredCB_1:
   \   000014   EA           MOV     A,R2
   \   000015   F8           MOV     R0,A
   \   000016   EB           MOV     A,R3
   \   000017   F9           MOV     R1,A
   1833              pList = pList->next;
   \   000018   8A82         MOV     DPL,R2
   \   00001A   8B83         MOV     DPH,R3
   \                     ??ZDO_RemoveRegisteredCB_0:
   \   00001C   12....       LCALL   ?Subroutine55 & 0xFFFF
   \                     ??CrossCallReturnLabel_84:
   \   00001F   4B           ORL     A,R3
   \   000020   6048         JZ      ??ZDO_RemoveRegisteredCB_2
   \   000022   8A82         MOV     DPL,R2
   \   000024   8B83         MOV     DPH,R3
   \   000026   A3           INC     DPTR
   \   000027   A3           INC     DPTR
   \   000028   E0           MOVX    A,@DPTR
   \   000029   6E           XRL     A,R6
   \   00002A   70E8         JNZ     ??ZDO_RemoveRegisteredCB_1
   \   00002C   8A82         MOV     DPL,R2
   \   00002E   8B83         MOV     DPH,R3
   \   000030   A3           INC     DPTR
   \   000031   A3           INC     DPTR
   \   000032   A3           INC     DPTR
   \   000033   E0           MOVX    A,@DPTR
   \   000034   6C           XRL     A,R4
   \   000035   7003         JNZ     ??ZDO_RemoveRegisteredCB_3
   \   000037   A3           INC     DPTR
   \   000038   E0           MOVX    A,@DPTR
   \   000039   6D           XRL     A,R5
   \                     ??ZDO_RemoveRegisteredCB_3:
   \   00003A   70D8         JNZ     ??ZDO_RemoveRegisteredCB_1
   \   00003C   E8           MOV     A,R0
   \   00003D   49           ORL     A,R1
   \   00003E   8A82         MOV     DPL,R2
   \   000040   8B83         MOV     DPH,R3
   \   000042   600D         JZ      ??ZDO_RemoveRegisteredCB_4
   \   000044   12....       LCALL   ?Subroutine47 & 0xFFFF
   \                     ??CrossCallReturnLabel_69:
   \   000047   8882         MOV     DPL,R0
   \   000049   8983         MOV     DPH,R1
   \   00004B   EC           MOV     A,R4
   \   00004C   F0           MOVX    @DPTR,A
   \   00004D   A3           INC     DPTR
   \   00004E   ED           MOV     A,R5
   \   00004F   8011         SJMP    ??ZDO_RemoveRegisteredCB_5
   \                     ??ZDO_RemoveRegisteredCB_4:
   \   000051   12....       LCALL   ??Subroutine90_0 & 0xFFFF
   \                     ??CrossCallReturnLabel_125:
   \   000054   90....       MOV     DPTR,#zdoMsgCBs
   \   000057   6006         JZ      ??ZDO_RemoveRegisteredCB_6
   \   000059   E8           MOV     A,R0
   \   00005A   F0           MOVX    @DPTR,A
   \   00005B   A3           INC     DPTR
   \   00005C   E9           MOV     A,R1
   \   00005D   8003         SJMP    ??ZDO_RemoveRegisteredCB_5
   \                     ??ZDO_RemoveRegisteredCB_6:
   \   00005F   E4           CLR     A
   \   000060   F0           MOVX    @DPTR,A
   \   000061   A3           INC     DPTR
   \                     ??ZDO_RemoveRegisteredCB_5:
   \   000062   F0           MOVX    @DPTR,A
   \   000063                ; Setup parameters for call to function osal_mem_free
   \   000063   12....       LCALL   ??osal_mem_free?relay; Banked call to: osal_mem_free
   \   000066   7900         MOV     R1,#0x0
   \   000068   8002         SJMP    ??ZDO_RemoveRegisteredCB_7
   1834            }
   1835          
   1836            return ( ZFailure );
   \                     ??ZDO_RemoveRegisteredCB_2:
   \   00006A   7901         MOV     R1,#0x1
   \                     ??ZDO_RemoveRegisteredCB_7:
   \   00006C   02....       LJMP    ?Subroutine5 & 0xFFFF
   1837          }
   1838          
   1839          /*********************************************************************
   1840           * @fn          ZDO_SendMsgCBs
   1841           *
   1842           * @brief       This function sends messages to registered tasks.
   1843           *              Local to ZDO and shouldn't be called outside of ZDO.
   1844           *
   1845           * @param       inMsg - incoming message
   1846           *
   1847           * @return      TRUE if sent to at least 1 task, FALSE if not
   1848           */

   \                                 In  segment BANKED_CODE, align 1, keep-with-next
   1849          uint8 ZDO_SendMsgCBs( zdoIncomingMsg_t *inMsg )
   \                     ZDO_SendMsgCBs:
   1850          {
   \   000000                REQUIRE ?V0
   \   000000                REQUIRE ?V1
   \   000000                REQUIRE ?V2
   \   000000                REQUIRE ?V3
   \   000000                REQUIRE ?V4
   \   000000                REQUIRE ?V5
   \   000000                REQUIRE ?V6
   \   000000                REQUIRE ?V7
   \   000000   74F0         MOV     A,#-0x10
   \   000002   12....       LCALL   ?BANKED_ENTER_XDATA
   \   000005                ; Saved register size: 16
   \   000005                ; Auto size: 0
   \   000005   8A..         MOV     ?V2,R2
   \   000007   8B..         MOV     ?V3,R3
   1851            uint8 ret = FALSE;
   \   000009   75..00       MOV     ?V4,#0x0
   1852            ZDO_MsgCB_t *pList = zdoMsgCBs;
   \   00000C   90....       MOV     DPTR,#zdoMsgCBs
   \   00000F   02....       LJMP    ??ZDO_SendMsgCBs_0 & 0xFFFF
   1853            while ( pList )
   1854            {
   1855              if ( pList->clusterID == inMsg->clusterID )
   \                     ??ZDO_SendMsgCBs_1:
   \   000012   85..82       MOV     DPL,?V0
   \   000015   85..83       MOV     DPH,?V1
   \   000018   A3           INC     DPTR
   \   000019   A3           INC     DPTR
   \   00001A   A3           INC     DPTR
   \   00001B   12....       LCALL   ??Subroutine125_0 & 0xFFFF
   \                     ??CrossCallReturnLabel_247:
   \   00001E   E5..         MOV     A,?V2
   \   000020   240C         ADD     A,#0xc
   \   000022   12....       LCALL   ??Subroutine121_0 & 0xFFFF
   \                     ??CrossCallReturnLabel_224:
   \   000025   68           XRL     A,R0
   \   000026   7003         JNZ     ??ZDO_SendMsgCBs_2
   \   000028   A3           INC     DPTR
   \   000029   E0           MOVX    A,@DPTR
   \   00002A   69           XRL     A,R1
   \                     ??ZDO_SendMsgCBs_2:
   \   00002B   6003         JZ      $+5
   \   00002D   02....       LJMP    ??ZDO_SendMsgCBs_3 & 0xFFFF
   1856              {
   1857                zdoIncomingMsg_t *msgPtr;
   1858          
   1859                // Send the address to the task
   1860                msgPtr = (zdoIncomingMsg_t *)osal_msg_allocate( sizeof( zdoIncomingMsg_t ) + inMsg->asduLen );
   \   000030                ; Setup parameters for call to function osal_msg_allocate
   \   000030   12....       LCALL   ?Subroutine58 & 0xFFFF
   \                     ??CrossCallReturnLabel_226:
   \   000033   2415         ADD     A,#0x15
   \   000035   FA           MOV     R2,A
   \   000036   E4           CLR     A
   \   000037   3400         ADDC    A,#0x0
   \   000039   FB           MOV     R3,A
   \   00003A   12....       LCALL   ??osal_msg_allocate?relay; Banked call to: osal_msg_allocate
   \   00003D   8A..         MOV     ?V6,R2
   \   00003F   8B..         MOV     ?V7,R3
   \   000041   AE..         MOV     R6,?V6
   \   000043   AF..         MOV     R7,?V7
   1861                if ( msgPtr )
   \   000045   EE           MOV     A,R6
   \   000046   4F           ORL     A,R7
   \   000047   606F         JZ      ??ZDO_SendMsgCBs_3
   1862                {
   1863                  // copy struct
   1864                  osal_memcpy( msgPtr, inMsg, sizeof( zdoIncomingMsg_t ));
   \   000049                ; Setup parameters for call to function osal_memcpy
   \   000049   85....       MOV     ?V4,?V2
   \   00004C   85....       MOV     ?V5,?V3
   \   00004F   75..00       MOV     ?V6,#0x0
   \   000052   78..         MOV     R0,#?V4
   \   000054   12....       LCALL   ?PUSH_XSTACK_I_THREE
   \   000057   7C15         MOV     R4,#0x15
   \   000059   7D00         MOV     R5,#0x0
   \   00005B   12....       LCALL   ??osal_memcpy?relay  ; Banked call to: osal_memcpy
   \   00005E   7403         MOV     A,#0x3
   \   000060   12....       LCALL   ?DEALLOC_XSTACK8
   1865          
   1866                  if ( inMsg->asduLen )
   \   000063   12....       LCALL   ?Subroutine58 & 0xFFFF
   \                     ??CrossCallReturnLabel_227:
   \   000066   6035         JZ      ??ZDO_SendMsgCBs_4
   1867                  {
   1868                    msgPtr->asdu = (byte*)(((byte*)msgPtr) + sizeof( zdoIncomingMsg_t ));
   \   000068   EE           MOV     A,R6
   \   000069   2415         ADD     A,#0x15
   \   00006B   FA           MOV     R2,A
   \   00006C   E4           CLR     A
   \   00006D   3F           ADDC    A,R7
   \   00006E   FB           MOV     R3,A
   \   00006F   EE           MOV     A,R6
   \   000070   2413         ADD     A,#0x13
   \   000072   F582         MOV     DPL,A
   \   000074   E4           CLR     A
   \   000075   3F           ADDC    A,R7
   \   000076   F583         MOV     DPH,A
   \   000078   EA           MOV     A,R2
   \   000079   F0           MOVX    @DPTR,A
   \   00007A   A3           INC     DPTR
   \   00007B   EB           MOV     A,R3
   \   00007C   F0           MOVX    @DPTR,A
   1869                    osal_memcpy( msgPtr->asdu, inMsg->asdu, inMsg->asduLen );
   \   00007D                ; Setup parameters for call to function osal_memcpy
   \   00007D   E5..         MOV     A,?V2
   \   00007F   2413         ADD     A,#0x13
   \   000081   12....       LCALL   ??Subroutine121_0 & 0xFFFF
   1870                  }
   \                     ??CrossCallReturnLabel_225:
   \   000084   F5..         MOV     ?V4,A
   \   000086   A3           INC     DPTR
   \   000087   E0           MOVX    A,@DPTR
   \   000088   F5..         MOV     ?V5,A
   \   00008A   78..         MOV     R0,#?V4
   \   00008C   12....       LCALL   ?PUSH_XSTACK_I_THREE
   \   00008F   12....       LCALL   ?Subroutine58 & 0xFFFF
   \                     ??CrossCallReturnLabel_228:
   \   000092   FC           MOV     R4,A
   \   000093   7D00         MOV     R5,#0x0
   \   000095   12....       LCALL   ??osal_memcpy?relay  ; Banked call to: osal_memcpy
   \   000098   7403         MOV     A,#0x3
   \   00009A   12....       LCALL   ?DEALLOC_XSTACK8
   1871          
   1872                  msgPtr->hdr.event = ZDO_CB_MSG;
   \                     ??ZDO_SendMsgCBs_4:
   \   00009D   8E82         MOV     DPL,R6
   \   00009F   8F83         MOV     DPH,R7
   \   0000A1   74D3         MOV     A,#-0x2d
   \   0000A3   F0           MOVX    @DPTR,A
   1873                  osal_msg_send( pList->taskID, (uint8 *)msgPtr );
   \   0000A4                ; Setup parameters for call to function osal_msg_send
   \   0000A4   EE           MOV     A,R6
   \   0000A5   FA           MOV     R2,A
   \   0000A6   EF           MOV     A,R7
   \   0000A7   FB           MOV     R3,A
   \   0000A8   85..82       MOV     DPL,?V0
   \   0000AB   85..83       MOV     DPH,?V1
   \   0000AE   A3           INC     DPTR
   \   0000AF   A3           INC     DPTR
   \   0000B0   E0           MOVX    A,@DPTR
   \   0000B1   F9           MOV     R1,A
   \   0000B2   12....       LCALL   ??osal_msg_send?relay; Banked call to: osal_msg_send
   1874                  ret = TRUE;
   \   0000B5   75..01       MOV     ?V4,#0x1
   1875                }
   1876              }
   1877              pList = (ZDO_MsgCB_t *)pList->next;
   \                     ??ZDO_SendMsgCBs_3:
   \   0000B8   85..82       MOV     DPL,?V0
   \   0000BB   85..83       MOV     DPH,?V1
   1878            }
   \                     ??ZDO_SendMsgCBs_0:
   \   0000BE   12....       LCALL   ??Subroutine122_0 & 0xFFFF
   \                     ??CrossCallReturnLabel_232:
   \   0000C1   E5..         MOV     A,?V0
   \   0000C3   45..         ORL     A,?V1
   \   0000C5   6003         JZ      $+5
   \   0000C7   02....       LJMP    ??ZDO_SendMsgCBs_1 & 0xFFFF
   1879            return ( ret );
   \   0000CA   A9..         MOV     R1,?V4
   \   0000CC   02....       LJMP    ?Subroutine4 & 0xFFFF
   1880          }

   \                                 In  segment BANKED_CODE, align 1, keep-with-next
   \                     ?Subroutine58:
   \   000000   E5..         MOV     A,?V2
   \   000002   2410         ADD     A,#0x10
   \   000004                REQUIRE ??Subroutine121_0
   \   000004                ; // Fall through to label ??Subroutine121_0

   \                                 In  segment BANKED_CODE, align 1, keep-with-next
   \                     ??Subroutine121_0:
   \   000000   F582         MOV     DPL,A
   \   000002   E4           CLR     A
   \   000003   35..         ADDC    A,?V3
   \   000005   F583         MOV     DPH,A
   \   000007   E0           MOVX    A,@DPTR
   \   000008   22           RET
   1881          
   1882          /*********************************************************************
   1883           * Incoming message processor
   1884           */
   1885          
   1886          /*********************************************************************
   1887           * @fn          ZDP_IncomingData
   1888           *
   1889           * @brief       This function indicates the transfer of a data PDU (ASDU)
   1890           *              from the APS sub-layer to the ZDO.
   1891           *
   1892           * @param       pData - Incoming Message
   1893           *
   1894           * @return      none
   1895           */

   \                                 In  segment BANKED_CODE, align 1, keep-with-next
   1896          void ZDP_IncomingData( afIncomingMSGPacket_t *pData )
   \                     ZDP_IncomingData:
   1897          {
   \   000000                REQUIRE ?V0
   \   000000                REQUIRE ?V1
   \   000000                REQUIRE ?V2
   \   000000                REQUIRE ?V3
   \   000000   74F4         MOV     A,#-0xc
   \   000002   12....       LCALL   ?BANKED_ENTER_XDATA
   \   000005                ; Saved register size: 12
   \   000005                ; Auto size: 21
   \   000005   74EB         MOV     A,#-0x15
   \   000007   12....       LCALL   ?ALLOC_XSTACK8
   1898            uint8 x = 0;
   \   00000A   75..00       MOV     ?V2,#0x0
   1899            uint8 handled;
   1900            zdoIncomingMsg_t inMsg;
   1901          
   1902            inMsg.srcAddr.addrMode = Addr16Bit;
   \   00000D   740A         MOV     A,#0xa
   \   00000F   12....       LCALL   ?XSTACK_DISP0_8
   \   000012   7402         MOV     A,#0x2
   \   000014   12....       LCALL   ?Subroutine37 & 0xFFFF
   1903            inMsg.srcAddr.addr.shortAddr = pData->srcAddr.addr.shortAddr;
   \                     ??CrossCallReturnLabel_51:
   \   000017   A3           INC     DPTR
   \   000018   A3           INC     DPTR
   \   000019   12....       LCALL   ??Subroutine125_0 & 0xFFFF
   \                     ??CrossCallReturnLabel_248:
   \   00001C   7402         MOV     A,#0x2
   \   00001E   12....       LCALL   ?XSTACK_DISP0_8
   \   000021   12....       LCALL   ??Subroutine128_0 & 0xFFFF
   1904            inMsg.wasBroadcast = pData->wasBroadcast;
   \                     ??CrossCallReturnLabel_268:
   \   000024   EA           MOV     A,R2
   \   000025   2415         ADD     A,#0x15
   \   000027   F582         MOV     DPL,A
   \   000029   E4           CLR     A
   \   00002A   3B           ADDC    A,R3
   \   00002B   F583         MOV     DPH,A
   \   00002D   E0           MOVX    A,@DPTR
   \   00002E   C0E0         PUSH    A
   \   000030   740B         MOV     A,#0xb
   \   000032   12....       LCALL   ?XSTACK_DISP0_8
   \   000035   D0E0         POP     A
   \   000037   12....       LCALL   ?Subroutine37 & 0xFFFF
   1905            inMsg.clusterID = pData->clusterId;
   \                     ??CrossCallReturnLabel_52:
   \   00003A   12....       LCALL   ??Subroutine125_0 & 0xFFFF
   \                     ??CrossCallReturnLabel_249:
   \   00003D   740C         MOV     A,#0xc
   \   00003F   12....       LCALL   ?XSTACK_DISP0_8
   \   000042   12....       LCALL   ??Subroutine128_0 & 0xFFFF
   1906            inMsg.SecurityUse = pData->SecurityUse;
   \                     ??CrossCallReturnLabel_269:
   \   000045   EA           MOV     A,R2
   \   000046   2419         ADD     A,#0x19
   \   000048   F582         MOV     DPL,A
   \   00004A   E4           CLR     A
   \   00004B   3B           ADDC    A,R3
   \   00004C   F583         MOV     DPH,A
   \   00004E   E0           MOVX    A,@DPTR
   \   00004F   C0E0         PUSH    A
   \   000051   740E         MOV     A,#0xe
   \   000053   12....       LCALL   ?XSTACK_DISP0_8
   \   000056   D0E0         POP     A
   \   000058   F0           MOVX    @DPTR,A
   1907          
   1908            inMsg.asduLen = pData->cmd.DataLength-1;
   \   000059   EA           MOV     A,R2
   \   00005A   2420         ADD     A,#0x20
   \   00005C   F582         MOV     DPL,A
   \   00005E   E4           CLR     A
   \   00005F   3B           ADDC    A,R3
   \   000060   F583         MOV     DPH,A
   \   000062   E0           MOVX    A,@DPTR
   \   000063   14           DEC     A
   \   000064   C0E0         PUSH    A
   \   000066   7410         MOV     A,#0x10
   \   000068   12....       LCALL   ?XSTACK_DISP0_8
   \   00006B   D0E0         POP     A
   \   00006D   F0           MOVX    @DPTR,A
   1909            inMsg.asdu = pData->cmd.Data+1;
   \   00006E   EA           MOV     A,R2
   \   00006F   2422         ADD     A,#0x22
   \   000071   F8           MOV     R0,A
   \   000072   E4           CLR     A
   \   000073   3B           ADDC    A,R3
   \   000074   F9           MOV     R1,A
   \   000075   8882         MOV     DPL,R0
   \   000077   8983         MOV     DPH,R1
   \   000079   E0           MOVX    A,@DPTR
   \   00007A   2401         ADD     A,#0x1
   \   00007C   FC           MOV     R4,A
   \   00007D   A3           INC     DPTR
   \   00007E   E0           MOVX    A,@DPTR
   \   00007F   3400         ADDC    A,#0x0
   \   000081   FD           MOV     R5,A
   \   000082   7413         MOV     A,#0x13
   \   000084   12....       LCALL   ?XSTACK_DISP0_8
   \   000087   EC           MOV     A,R4
   \   000088   F0           MOVX    @DPTR,A
   \   000089   A3           INC     DPTR
   \   00008A   ED           MOV     A,R5
   \   00008B   F0           MOVX    @DPTR,A
   1910            inMsg.TransSeq = pData->cmd.Data[0];
   \   00008C   8882         MOV     DPL,R0
   \   00008E   8983         MOV     DPH,R1
   \   000090   12....       LCALL   ??Subroutine99_0 & 0xFFFF
   \                     ??CrossCallReturnLabel_146:
   \   000093   E0           MOVX    A,@DPTR
   \   000094   C0E0         PUSH    A
   \   000096   740F         MOV     A,#0xf
   \   000098   12....       LCALL   ?XSTACK_DISP0_8
   \   00009B   D0E0         POP     A
   \   00009D   F0           MOVX    @DPTR,A
   1911            inMsg.macDestAddr = pData->macDestAddr;
   \   00009E   EA           MOV     A,R2
   \   00009F   2412         ADD     A,#0x12
   \   0000A1   F582         MOV     DPL,A
   \   0000A3   E4           CLR     A
   \   0000A4   3B           ADDC    A,R3
   \   0000A5   F583         MOV     DPH,A
   \   0000A7   12....       LCALL   ??Subroutine125_0 & 0xFFFF
   \                     ??CrossCallReturnLabel_250:
   \   0000AA   7411         MOV     A,#0x11
   \   0000AC   12....       LCALL   ?XSTACK_DISP0_8
   \   0000AF   12....       LCALL   ??Subroutine128_0 & 0xFFFF
   1912          
   1913            handled = ZDO_SendMsgCBs( &inMsg );
   \                     ??CrossCallReturnLabel_270:
   \   0000B2                ; Setup parameters for call to function ZDO_SendMsgCBs
   \   0000B2   AA..         MOV     R2,?XSP + 0
   \   0000B4   AB..         MOV     R3,?XSP + 1
   \   0000B6   12....       LCALL   ??ZDO_SendMsgCBs?relay; Banked call to: ZDO_SendMsgCBs
   \   0000B9   E9           MOV     A,R1
   \   0000BA   FA           MOV     R2,A
   \   0000BB   8002         SJMP    ??ZDP_IncomingData_0
   1914          
   1915          #if (defined MT_ZDO_CB_FUNC)
   1916          #if !defined MT_TASK
   1917            if (zgZdoDirectCB)
   1918          #endif
   1919            {
   1920              MT_ZdoDirectCB( pData, &inMsg );
   1921            }
   1922          #endif
   1923          
   1924            while ( zdpMsgProcs[x].clusterID != 0xFFFF )
   1925            {
   1926              if ( zdpMsgProcs[x].clusterID == inMsg.clusterID )
   1927              {
   1928                zdpMsgProcs[x].pFn( &inMsg );
   1929                return;
   1930              }
   1931              x++;
   \                     ??ZDP_IncomingData_1:
   \   0000BD   05..         INC     ?V2
   \                     ??ZDP_IncomingData_0:
   \   0000BF   85....       MOV     ?V0,?V2
   \   0000C2   75..00       MOV     ?V1,#0x0
   \   0000C5   7402         MOV     A,#0x2
   \   0000C7   78..         MOV     R0,#?V0
   \   0000C9   12....       LCALL   ?S_SHL
   \   0000CC   74..         MOV     A,#zdpMsgProcs & 0xff
   \   0000CE   25..         ADD     A,?V0
   \   0000D0   F582         MOV     DPL,A
   \   0000D2   74..         MOV     A,#(zdpMsgProcs >> 8) & 0xff
   \   0000D4   35..         ADDC    A,?V1
   \   0000D6   F583         MOV     DPH,A
   \   0000D8   E4           CLR     A
   \   0000D9   93           MOVC    A,@A+DPTR
   \   0000DA   F8           MOV     R0,A
   \   0000DB   7401         MOV     A,#0x1
   \   0000DD   93           MOVC    A,@A+DPTR
   \   0000DE   F9           MOV     R1,A
   \   0000DF   74FF         MOV     A,#-0x1
   \   0000E1   68           XRL     A,R0
   \   0000E2   7003         JNZ     ??ZDP_IncomingData_2
   \   0000E4   74FF         MOV     A,#-0x1
   \   0000E6   69           XRL     A,R1
   \                     ??ZDP_IncomingData_2:
   \   0000E7   603F         JZ      ??ZDP_IncomingData_3
   \   0000E9   E4           CLR     A
   \   0000EA   93           MOVC    A,@A+DPTR
   \   0000EB   F8           MOV     R0,A
   \   0000EC   7401         MOV     A,#0x1
   \   0000EE   93           MOVC    A,@A+DPTR
   \   0000EF   F9           MOV     R1,A
   \   0000F0   740C         MOV     A,#0xc
   \   0000F2   12....       LCALL   ?XSTACK_DISP0_8
   \   0000F5   E0           MOVX    A,@DPTR
   \   0000F6   68           XRL     A,R0
   \   0000F7   7003         JNZ     ??ZDP_IncomingData_4
   \   0000F9   A3           INC     DPTR
   \   0000FA   E0           MOVX    A,@DPTR
   \   0000FB   69           XRL     A,R1
   \                     ??ZDP_IncomingData_4:
   \   0000FC   70BF         JNZ     ??ZDP_IncomingData_1
   \   0000FE                ; Setup parameters for indirect call
   \   0000FE   AA..         MOV     R2,?XSP + 0
   \   000100   AB..         MOV     R3,?XSP + 1
   \   000102   75..00       MOV     ?V3,#0x0
   \   000105   7402         MOV     A,#0x2
   \   000107   78..         MOV     R0,#?V2
   \   000109   12....       LCALL   ?S_SHL
   \   00010C   74..         MOV     A,#(zdpMsgProcs + 2) & 0xff
   \   00010E   25..         ADD     A,?V2
   \   000110   F582         MOV     DPL,A
   \   000112   74..         MOV     A,#((zdpMsgProcs + 2) >> 8) & 0xff
   \   000114   35..         ADDC    A,?V3
   \   000116   F583         MOV     DPH,A
   \   000118   E4           CLR     A
   \   000119   93           MOVC    A,@A+DPTR
   \   00011A   C0E0         PUSH    A
   \   00011C   7401         MOV     A,#0x1
   \   00011E   93           MOVC    A,@A+DPTR
   \   00011F   F583         MOV     DPH,A
   \   000121   D082         POP     DPL
   \   000123   12....       LCALL   ?CALL_IND
   \   000126   800A         SJMP    ??ZDP_IncomingData_5
   1932            }
   1933          
   1934            // Handle unhandled messages
   1935            if ( !handled )
   \                     ??ZDP_IncomingData_3:
   \   000128   EA           MOV     A,R2
   \   000129   7007         JNZ     ??ZDP_IncomingData_5
   1936              ZDApp_InMsgCB( &inMsg );
   \   00012B                ; Setup parameters for call to function ZDApp_InMsgCB
   \   00012B   AA..         MOV     R2,?XSP + 0
   \   00012D   AB..         MOV     R3,?XSP + 1
   \   00012F   12....       LCALL   ??ZDApp_InMsgCB?relay; Banked call to: ZDApp_InMsgCB
   1937          }
   \                     ??ZDP_IncomingData_5:
   \   000132   7415         MOV     A,#0x15
   \   000134   02....       LJMP    ??Subroutine105_0 & 0xFFFF

   \                                 In  segment BANKED_CODE, align 1, keep-with-next
   \                     ?Subroutine37:
   \   000000   F0           MOVX    @DPTR,A
   \   000001   8A82         MOV     DPL,R2
   \   000003   8B83         MOV     DPH,R3
   \   000005   A3           INC     DPTR
   \   000006   A3           INC     DPTR
   \   000007   A3           INC     DPTR
   \   000008   A3           INC     DPTR
   \   000009   22           RET

   \                                 In  segment XDATA_ID, align 1, keep-with-next
   \                     `?<Initializer for ZDP_TmpBuf>`:
   \   000000   ....         DW ZDP_Buf + 1H

   \                                 In  segment BANK_RELAYS, align 1
   \                     ??fillAndSend?relay:
   \   000000   12....       LCALL   ?BDISPATCH
   \   000003   ......       DC24    fillAndSend

   \                                 In  segment BANK_RELAYS, align 1
   \                     ??ZDP_SendData?relay:
   \   000000   12....       LCALL   ?BDISPATCH
   \   000003   ......       DC24    ZDP_SendData

   \                                 In  segment BANK_RELAYS, align 1
   \                     ??ZDP_NWKAddrOfInterestReq?relay:
   \   000000   12....       LCALL   ?BDISPATCH
   \   000003   ......       DC24    ZDP_NWKAddrOfInterestReq

   \                                 In  segment BANK_RELAYS, align 1
   \                     ??ZDP_NwkAddrReq?relay:
   \   000000   12....       LCALL   ?BDISPATCH
   \   000003   ......       DC24    ZDP_NwkAddrReq

   \                                 In  segment BANK_RELAYS, align 1
   \                     ??ZDP_IEEEAddrReq?relay:
   \   000000   12....       LCALL   ?BDISPATCH
   \   000003   ......       DC24    ZDP_IEEEAddrReq

   \                                 In  segment BANK_RELAYS, align 1
   \                     ??ZDP_MatchDescReq?relay:
   \   000000   12....       LCALL   ?BDISPATCH
   \   000003   ......       DC24    ZDP_MatchDescReq

   \                                 In  segment BANK_RELAYS, align 1
   \                     ??ZDP_SimpleDescReq?relay:
   \   000000   12....       LCALL   ?BDISPATCH
   \   000003   ......       DC24    ZDP_SimpleDescReq

   \                                 In  segment BANK_RELAYS, align 1
   \                     ??ZDP_UserDescSet?relay:
   \   000000   12....       LCALL   ?BDISPATCH
   \   000003   ......       DC24    ZDP_UserDescSet

   \                                 In  segment BANK_RELAYS, align 1
   \                     ??ZDP_ServerDiscReq?relay:
   \   000000   12....       LCALL   ?BDISPATCH
   \   000003   ......       DC24    ZDP_ServerDiscReq

   \                                 In  segment BANK_RELAYS, align 1
   \                     ??ZDP_DeviceAnnce?relay:
   \   000000   12....       LCALL   ?BDISPATCH
   \   000003   ......       DC24    ZDP_DeviceAnnce

   \                                 In  segment BANK_RELAYS, align 1
   \                     ??zdpProcessAddrReq?relay:
   \   000000   12....       LCALL   ?BDISPATCH
   \   000003   ......       DC24    zdpProcessAddrReq

   \                                 In  segment BANK_RELAYS, align 1
   \                     ??ZDP_NodeDescMsg?relay:
   \   000000   12....       LCALL   ?BDISPATCH
   \   000003   ......       DC24    ZDP_NodeDescMsg

   \                                 In  segment BANK_RELAYS, align 1
   \                     ??ZDP_PowerDescMsg?relay:
   \   000000   12....       LCALL   ?BDISPATCH
   \   000003   ......       DC24    ZDP_PowerDescMsg

   \                                 In  segment BANK_RELAYS, align 1
   \                     ??ZDP_SimpleDescMsg?relay:
   \   000000   12....       LCALL   ?BDISPATCH
   \   000003   ......       DC24    ZDP_SimpleDescMsg

   \                                 In  segment BANK_RELAYS, align 1
   \                     ??ZDP_EPRsp?relay:
   \   000000   12....       LCALL   ?BDISPATCH
   \   000003   ......       DC24    ZDP_EPRsp

   \                                 In  segment BANK_RELAYS, align 1
   \                     ??ZDP_UserDescRsp?relay:
   \   000000   12....       LCALL   ?BDISPATCH
   \   000003   ......       DC24    ZDP_UserDescRsp

   \                                 In  segment BANK_RELAYS, align 1
   \                     ??ZDP_ServerDiscRsp?relay:
   \   000000   12....       LCALL   ?BDISPATCH
   \   000003   ......       DC24    ZDP_ServerDiscRsp

   \                                 In  segment BANK_RELAYS, align 1
   \                     ??ZDP_GenericRsp?relay:
   \   000000   12....       LCALL   ?BDISPATCH
   \   000003   ......       DC24    ZDP_GenericRsp

   \                                 In  segment BANK_RELAYS, align 1
   \                     ??ZDP_EndDeviceBindReq?relay:
   \   000000   12....       LCALL   ?BDISPATCH
   \   000003   ......       DC24    ZDP_EndDeviceBindReq

   \                                 In  segment BANK_RELAYS, align 1
   \                     ??ZDP_BindUnbindReq?relay:
   \   000000   12....       LCALL   ?BDISPATCH
   \   000003   ......       DC24    ZDP_BindUnbindReq

   \                                 In  segment BANK_RELAYS, align 1
   \                     ??ZDP_MgmtNwkDiscReq?relay:
   \   000000   12....       LCALL   ?BDISPATCH
   \   000003   ......       DC24    ZDP_MgmtNwkDiscReq

   \                                 In  segment BANK_RELAYS, align 1
   \                     ??ZDP_MgmtDirectJoinReq?relay:
   \   000000   12....       LCALL   ?BDISPATCH
   \   000003   ......       DC24    ZDP_MgmtDirectJoinReq

   \                                 In  segment BANK_RELAYS, align 1
   \                     ??ZDP_MgmtPermitJoinReq?relay:
   \   000000   12....       LCALL   ?BDISPATCH
   \   000003   ......       DC24    ZDP_MgmtPermitJoinReq

   \                                 In  segment BANK_RELAYS, align 1
   \                     ??ZDP_MgmtLeaveReq?relay:
   \   000000   12....       LCALL   ?BDISPATCH
   \   000003   ......       DC24    ZDP_MgmtLeaveReq

   \                                 In  segment BANK_RELAYS, align 1
   \                     ??ZDP_MgmtNwkUpdateReq?relay:
   \   000000   12....       LCALL   ?BDISPATCH
   \   000003   ......       DC24    ZDP_MgmtNwkUpdateReq

   \                                 In  segment BANK_RELAYS, align 1
   \                     ??ZDP_MgmtNwkDiscRsp?relay:
   \   000000   12....       LCALL   ?BDISPATCH
   \   000003   ......       DC24    ZDP_MgmtNwkDiscRsp

   \                                 In  segment BANK_RELAYS, align 1
   \                     ??ZDP_MgmtLqiRsp?relay:
   \   000000   12....       LCALL   ?BDISPATCH
   \   000003   ......       DC24    ZDP_MgmtLqiRsp

   \                                 In  segment BANK_RELAYS, align 1
   \                     ??ZDP_MgmtRtgRsp?relay:
   \   000000   12....       LCALL   ?BDISPATCH
   \   000003   ......       DC24    ZDP_MgmtRtgRsp

   \                                 In  segment BANK_RELAYS, align 1
   \                     ??ZDP_MgmtBindRsp?relay:
   \   000000   12....       LCALL   ?BDISPATCH
   \   000003   ......       DC24    ZDP_MgmtBindRsp

   \                                 In  segment BANK_RELAYS, align 1
   \                     ??ZDP_MgmtNwkUpdateNotify?relay:
   \   000000   12....       LCALL   ?BDISPATCH
   \   000003   ......       DC24    ZDP_MgmtNwkUpdateNotify

   \                                 In  segment BANK_RELAYS, align 1
   \                     ??ZDO_RegisterForZDOMsg?relay:
   \   000000   12....       LCALL   ?BDISPATCH
   \   000003   ......       DC24    ZDO_RegisterForZDOMsg

   \                                 In  segment BANK_RELAYS, align 1
   \                     ??ZDO_RemoveRegisteredCB?relay:
   \   000000   12....       LCALL   ?BDISPATCH
   \   000003   ......       DC24    ZDO_RemoveRegisteredCB

   \                                 In  segment BANK_RELAYS, align 1
   \                     ??ZDO_SendMsgCBs?relay:
   \   000000   12....       LCALL   ?BDISPATCH
   \   000003   ......       DC24    ZDO_SendMsgCBs

   \                                 In  segment BANK_RELAYS, align 1
   \                     ??ZDP_IncomingData?relay:
   \   000000   12....       LCALL   ?BDISPATCH
   \   000003   ......       DC24    ZDP_IncomingData
   1938          
   1939          /*********************************************************************
   1940          *********************************************************************/
   1941          

   Maximum stack usage in bytes:

   ISTACK XSTACK Function
   ------ ------ --------
      1     14   ZDO_RegisterForZDOMsg
        0     14   -> osal_mem_alloc
      0      9   ZDO_RemoveRegisteredCB
        0      9   -> osal_mem_free
      0     52   ZDO_SendMsgCBs
        0     19   -> osal_memcpy
        0     16   -> osal_msg_allocate
        0     16   -> osal_msg_send
      1     26   ZDP_BindUnbindReq
        0     18   -> fillAndSend
        0     16   -> sAddrExtCpy
        1     16   -> sAddrExtCpy
      1     22   ZDP_DeviceAnnce
        0     21   -> fillAndSend
        0     19   -> sAddrExtCpy
      1     26   ZDP_EPRsp
        0     18   -> fillAndSend
        0     19   -> osal_memcpy
      1     29   ZDP_EndDeviceBindReq
        0     18   -> NLME_GetExtAddr
        0     18   -> NLME_GetShortAddr
        0     20   -> fillAndSend
        0     18   -> sAddrExtCpy
      1     16   ZDP_GenericRsp
        0     12   -> fillAndSend
      1     21   ZDP_IEEEAddrReq
        0     21   -> fillAndSend
      1     33   ZDP_IncomingData
        0     33   -> ZDApp_InMsgCB
        0     33   -> ZDO_SendMsgCBs
      1     24   ZDP_MatchDescReq
        0     16   -> fillAndSend
      1     28   ZDP_MgmtBindRsp
        0     23   -> fillAndSend
        0     21   -> osal_mem_alloc
        0     21   -> osal_mem_free
        0     21   -> sAddrExtCpy
      1     15   ZDP_MgmtDirectJoinReq
        0     14   -> fillAndSend
        0     12   -> sAddrExtCpy
      0     16   ZDP_MgmtLeaveReq
        0     14   -> fillAndSend
        0     12   -> sAddrExtCpy
      1     29   ZDP_MgmtLqiRsp
        0     24   -> fillAndSend
        0     22   -> osal_mem_alloc
        0     22   -> osal_mem_free
        0     22   -> sAddrExtCpy
      1     20   ZDP_MgmtNwkDiscReq
        0     14   -> fillAndSend
        0     16   -> osal_buffer_uint32
      1     28   ZDP_MgmtNwkDiscRsp
        0     23   -> fillAndSend
        0     21   -> osal_mem_alloc
        0     21   -> osal_mem_free
        0     21   -> sAddrExtCpy
      1     35   ZDP_MgmtNwkUpdateNotify
        0     21   -> fillAndSend
        0     23   -> osal_buffer_uint32
        0     19   -> osal_mem_alloc
        0     19   -> osal_mem_free
        0     22   -> osal_memcpy
      1     24   ZDP_MgmtNwkUpdateReq
        0     16   -> fillAndSend
        0     18   -> osal_buffer_uint32
      1     12   ZDP_MgmtPermitJoinReq
        0     12   -> fillAndSend
      1     26   ZDP_MgmtRtgRsp
        0     21   -> fillAndSend
        0     19   -> osal_mem_alloc
        0     19   -> osal_mem_free
      1     13   ZDP_NWKAddrOfInterestReq
        0     12   -> fillAndSend
      1     14   ZDP_NodeDescMsg
        0     12   -> fillAndSend
      1     25   ZDP_NwkAddrReq
        0     25   -> fillAndSend
        0     23   -> sAddrExtCmp
        0     23   -> sAddrExtCpy
      1     14   ZDP_PowerDescMsg
        0     12   -> fillAndSend
      1     19   ZDP_SendData
        0     14   -> fillAndSend
      1     21   ZDP_ServerDiscReq
        0     21   -> fillAndSend
      1     17   ZDP_ServerDiscRsp
        0     13   -> fillAndSend
      1     18   ZDP_SimpleDescMsg
        0     18   -> fillAndSend
      1     13   ZDP_SimpleDescReq
        0     12   -> fillAndSend
      1     25   ZDP_UserDescRsp
        0     21   -> fillAndSend
        0     22   -> osal_memcpy
      1     24   ZDP_UserDescSet
        0     21   -> fillAndSend
        1     22   -> osal_memcpy
        0     19   -> osal_memset
      1     69   fillAndSend
        0     35   -> AF_DataRequest
        0     26   -> osal_memset
      1     34   zdpProcessAddrReq
        0     32   -> AddrMgrEntryGet
        0     32   -> AssocGetWithExt
        0     32   -> AssocGetWithShort
        0     32   -> AssocMakeList
        0     34   -> fillAndSend
        0     32   -> osal_mem_free
        0     32   -> sAddrExtCmp
        0     32   -> sAddrExtCpy


   Segment part sizes:

   Bytes  Function/Label
   -----  --------------
       2  ?<Initializer for ZDP_TmpBuf>
       7  ??Subroutine100_0
       6  ??Subroutine101_0
       3  ??Subroutine102_0
       6  ??Subroutine103_0
      13  ??Subroutine104_0
       3  ??Subroutine105_0
       5  ??Subroutine106_0
       5  ??Subroutine107_0
       6  ??Subroutine108_0
       4  ??Subroutine109_0
       5  ??Subroutine110_0
       6  ??Subroutine111_0
       5  ??Subroutine112_0
       4  ??Subroutine113_0
       4  ??Subroutine114_0
      14  ??Subroutine115_0
       7  ??Subroutine116_0
       3  ??Subroutine117_0
       5  ??Subroutine118_0
       8  ??Subroutine119_0
       6  ??Subroutine120_0
       9  ??Subroutine121_0
       8  ??Subroutine122_0
       1  ??Subroutine123_0
       3  ??Subroutine124_0
       4  ??Subroutine125_0
       5  ??Subroutine126_0
       8  ??Subroutine127_0
       1  ??Subroutine128_0
       5  ??Subroutine129_0
       8  ??Subroutine86_0
       5  ??Subroutine87_0
       7  ??Subroutine88_0
       3  ??Subroutine89_0
       6  ??Subroutine90_0
       5  ??Subroutine91_0
       8  ??Subroutine92_0
       5  ??Subroutine93_0
       8  ??Subroutine94_0
       4  ??Subroutine95_0
       1  ??Subroutine96_0
       1  ??Subroutine97_0
      10  ??Subroutine98_0
       4  ??Subroutine99_0
       6  ??ZDO_RegisterForZDOMsg?relay
       6  ??ZDO_RemoveRegisteredCB?relay
       6  ??ZDO_SendMsgCBs?relay
       6  ??ZDP_BindUnbindReq?relay
       6  ??ZDP_DeviceAnnce?relay
       6  ??ZDP_EPRsp?relay
       6  ??ZDP_EndDeviceBindReq?relay
       6  ??ZDP_GenericRsp?relay
       6  ??ZDP_IEEEAddrReq?relay
       6  ??ZDP_IncomingData?relay
       6  ??ZDP_MatchDescReq?relay
       6  ??ZDP_MgmtBindRsp?relay
       6  ??ZDP_MgmtDirectJoinReq?relay
       6  ??ZDP_MgmtLeaveReq?relay
       6  ??ZDP_MgmtLqiRsp?relay
       6  ??ZDP_MgmtNwkDiscReq?relay
       6  ??ZDP_MgmtNwkDiscRsp?relay
       6  ??ZDP_MgmtNwkUpdateNotify?relay
       6  ??ZDP_MgmtNwkUpdateReq?relay
       6  ??ZDP_MgmtPermitJoinReq?relay
       6  ??ZDP_MgmtRtgRsp?relay
       6  ??ZDP_NWKAddrOfInterestReq?relay
       6  ??ZDP_NodeDescMsg?relay
       6  ??ZDP_NwkAddrReq?relay
       6  ??ZDP_PowerDescMsg?relay
       6  ??ZDP_SendData?relay
       6  ??ZDP_ServerDiscReq?relay
       6  ??ZDP_ServerDiscRsp?relay
       6  ??ZDP_SimpleDescMsg?relay
       6  ??ZDP_SimpleDescReq?relay
       6  ??ZDP_UserDescRsp?relay
       6  ??ZDP_UserDescSet?relay
       6  ??fillAndSend?relay
       6  ??zdpProcessAddrReq?relay
       3  ?Subroutine0
      10  ?Subroutine1
       1  ?Subroutine10
       7  ?Subroutine11
      29  ?Subroutine12
      15  ?Subroutine13
       2  ?Subroutine14
       3  ?Subroutine15
       7  ?Subroutine16
      10  ?Subroutine17
       7  ?Subroutine18
       7  ?Subroutine19
      10  ?Subroutine2
       4  ?Subroutine20
      12  ?Subroutine21
       5  ?Subroutine22
       4  ?Subroutine23
       7  ?Subroutine24
       1  ?Subroutine25
       1  ?Subroutine26
       7  ?Subroutine27
      13  ?Subroutine28
      13  ?Subroutine29
       2  ?Subroutine3
      13  ?Subroutine30
      13  ?Subroutine31
       6  ?Subroutine32
       7  ?Subroutine33
       8  ?Subroutine34
       7  ?Subroutine35
      10  ?Subroutine36
      10  ?Subroutine37
      13  ?Subroutine38
       3  ?Subroutine39
       5  ?Subroutine4
       3  ?Subroutine40
       2  ?Subroutine41
      15  ?Subroutine42
       3  ?Subroutine43
      13  ?Subroutine44
      13  ?Subroutine45
      10  ?Subroutine46
       6  ?Subroutine47
       3  ?Subroutine48
       6  ?Subroutine49
       5  ?Subroutine5
       4  ?Subroutine50
       9  ?Subroutine51
       1  ?Subroutine52
       6  ?Subroutine53
       7  ?Subroutine54
       7  ?Subroutine55
       6  ?Subroutine56
       5  ?Subroutine57
       4  ?Subroutine58
       7  ?Subroutine59
      10  ?Subroutine6
       5  ?Subroutine60
       2  ?Subroutine61
      12  ?Subroutine62
       6  ?Subroutine63
       6  ?Subroutine64
       9  ?Subroutine65
       9  ?Subroutine66
       9  ?Subroutine67
      16  ?Subroutine68
       4  ?Subroutine69
      17  ?Subroutine7
       6  ?Subroutine70
       7  ?Subroutine71
       1  ?Subroutine72
       5  ?Subroutine73
      10  ?Subroutine74
      11  ?Subroutine75
       5  ?Subroutine76
       1  ?Subroutine77
       2  ?Subroutine78
       4  ?Subroutine79
      33  ?Subroutine8
      10  ?Subroutine80
      10  ?Subroutine81
      10  ?Subroutine82
      15  ?Subroutine83
       8  ?Subroutine84
       3  ?Subroutine85
      29  ?Subroutine9
     144  ZDO_RegisterForZDOMsg
     111  ZDO_RemoveRegisteredCB
     207  ZDO_SendMsgCBs
       1  ZDP_AF_ENDPOINT
     202  ZDP_BindUnbindReq
      80  ZDP_Buf
      74  ZDP_DeviceAnnce
     160  ZDP_EPRsp
     223  ZDP_EndDeviceBindReq
      87  ZDP_GenericRsp
      64  ZDP_IEEEAddrReq
     311  ZDP_IncomingData
     214  ZDP_MatchDescReq
     254  ZDP_MgmtBindRsp
      22  ZDP_MgmtDirectJoinReq
      50  ZDP_MgmtLeaveReq
     340  ZDP_MgmtLqiRsp
      58  ZDP_MgmtNwkDiscReq
     298  ZDP_MgmtNwkDiscRsp
     217  ZDP_MgmtNwkUpdateNotify
     136  ZDP_MgmtNwkUpdateReq
      20  ZDP_MgmtPermitJoinReq
     222  ZDP_MgmtRtgRsp
      16  ZDP_NWKAddrOfInterestReq
     138  ZDP_NodeDescMsg
     120  ZDP_NwkAddrReq
      83  ZDP_PowerDescMsg
     103  ZDP_SendData
      79  ZDP_ServerDiscReq
      78  ZDP_ServerDiscRsp
     278  ZDP_SimpleDescMsg
      27  ZDP_SimpleDescReq
       2  ZDP_TmpBuf
       1  ZDP_TransID
       1  ZDP_TxOptions
     140  ZDP_UserDescRsp
     165  ZDP_UserDescSet
     175  fillAndSend
       2  zdoMsgCBs
      36  zdpMsgProcs
     674  zdpProcessAddrReq

 
 6 419 bytes in segment BANKED_CODE
   204 bytes in segment BANK_RELAYS
    37 bytes in segment CODE_C
     2 bytes in segment XDATA_I
     2 bytes in segment XDATA_ID
    84 bytes in segment XDATA_Z
 
 6 662 bytes of CODE  memory
    86 bytes of XDATA memory

Errors: none
Warnings: none
