///////////////////////////////////////////////////////////////////////////////
//                                                                            /
// IAR C/C++ Compiler V8.30.1.41636 for 8051            19/Oct/2017  14:53:54 /
// Copyright 2004-2013 IAR Systems AB.                                        /
//                                                                            /
//    Core               =  plain                                             /
//    Code model         =  banked                                            /
//    Data model         =  large                                             /
//    Calling convention =  xdata reentrant                                   /
//    Constant location  =  data_rom                                          /
//    Dptr setup         =  1,16                                              /
//                                                                            /
//    Source file        =  D:\简宝山\寿县17-09-01 25\程序\无线节点程序\code\ /
//                          Components\stack\zdo\ZDApp.c                      /
//    Command line       =  -f "D:\简宝山\寿县17-09-01                        /
//                          25\程序\无线节点程序\code\Projects\zstack\Samples /
//                          \SampleApp\CC2530DB\..\..\..\Tools\CC2530DB\f8wEn /
//                          dev.cfg" (-DCPU32MHZ -DROOT=__near_func           /
//                          -DMAC_CFG_TX_DATA_MAX=3 -DMAC_CFG_TX_MAX=6        /
//                          -DMAC_CFG_RX_MAX=3) -f "D:\简宝山\寿县17-09-01    /
//                          25\程序\无线节点程序\code\Projects\zstack\Samples /
//                          \SampleApp\CC2530DB\..\..\..\Tools\CC2530DB\f8wCo /
//                          nfig.cfg" (-DZIGBEEPRO -DSECURE=0                 /
//                          -DZG_SECURE_DYNAMIC=0 -DREFLECTOR                 /
//                          -DDEFAULT_CHANLIST=0x00000800                     /
//                          -DZDAPP_CONFIG_PAN_ID=0xFFF1                      /
//                          -DNWK_START_DELAY=100 -DEXTENDED_JOINING_RANDOM_M /
//                          ASK=0x007F -DBEACON_REQUEST_DELAY=100             /
//                          -DBEACON_REQ_DELAY_MASK=0x00FF                    /
//                          -DLINK_STATUS_JITTER_MASK=0x007F                  /
//                          -DROUTE_EXPIRY_TIME=30 -DAPSC_ACK_WAIT_DURATION_P /
//                          OLLED=3000 -DNWK_INDIRECT_MSG_TIMEOUT=7           /
//                          -DMAX_RREQ_ENTRIES=8 -DAPSC_MAX_FRAME_RETRIES=3   /
//                          -DNWK_MAX_DATA_RETRIES=2                          /
//                          -DMAX_POLL_FAILURE_RETRIES=2 -DMAX_BCAST=9        /
//                          -DAPS_MAX_GROUPS=16 -DMAX_RTG_ENTRIES=40          /
//                          -DNWK_MAX_BINDING_ENTRIES=4                       /
//                          -DMAX_BINDING_CLUSTER_IDS=4                       /
//                          "-DDEFAULT_KEY={0x01, 0x03, 0x05, 0x07, 0x09,     /
//                          0x0B, 0x0D, 0x0F, 0x00, 0x02, 0x04, 0x06, 0x08,   /
//                          0x0A, 0x0C, 0x0D}" -DMAC_MAX_FRAME_SIZE=116       /
//                          -DZDNWKMGR_MIN_TRANSMISSIONS=20 "-DCONST=const    /
//                          __code" -DGENERIC=__generic                       /
//                          -DRFD_RCVC_ALWAYS_ON=FALSE -DPOLL_RATE=1000       /
//                          -DQUEUED_POLL_RATE=100 -DRESPONSE_POLL_RATE=100)  /
//                          -DREJOIN_POLL_RATE=440 "D:\简宝山\寿县17-09-01    /
//                          25\程序\无线节点程序\code\Components\stack\zdo\ZD /
//                          App.c" -D NWK_AUTO_POLL -D ZTOOL_P1 -D xMT_TASK   /
//                          -D xMT_SYS_FUNC -D xMT_ZDO_FUNC -D                /
//                          xLCD_SUPPORTED=DEBUG -lC "D:\简宝山\寿县17-09-01  /
//                          25\程序\无线节点程序\code\Projects\zstack\Samples /
//                          \SampleApp\CC2530DB\EndDeviceEB\List\" -lA        /
//                          "D:\简宝山\寿县17-09-01                           /
//                          25\程序\无线节点程序\code\Projects\zstack\Samples /
//                          \SampleApp\CC2530DB\EndDeviceEB\List\"            /
//                          --diag_suppress Pe001,Pa010 -o                    /
//                          "D:\简宝山\寿县17-09-01                           /
//                          25\程序\无线节点程序\code\Projects\zstack\Samples /
//                          \SampleApp\CC2530DB\EndDeviceEB\Obj\" -e          /
//                          --no_code_motion --debug --core=plain             /
//                          --dptr=16,1 --data_model=large                    /
//                          --code_model=banked --calling_convention=xdata_re /
//                          entrant --place_constants=data_rom                /
//                          --nr_virtual_regs 8 -I "D:\简宝山\寿县17-09-01    /
//                          25\程序\无线节点程序\code\Projects\zstack\Samples /
//                          \SampleApp\CC2530DB\" -I "D:\简宝山\寿县17-09-01  /
//                          25\程序\无线节点程序\code\Projects\zstack\Samples /
//                          \SampleApp\CC2530DB\..\Source\" -I                /
//                          "D:\简宝山\寿县17-09-01                           /
//                          25\程序\无线节点程序\code\Projects\zstack\Samples /
//                          \SampleApp\CC2530DB\..\Source\hardware\" -I       /
//                          "D:\简宝山\寿县17-09-01                           /
//                          25\程序\无线节点程序\code\Projects\zstack\Samples /
//                          \SampleApp\CC2530DB\..\..\..\ZMain\TI2530DB\" -I  /
//                          "D:\简宝山\寿县17-09-01                           /
//                          25\程序\无线节点程序\code\Projects\zstack\Samples /
//                          \SampleApp\CC2530DB\..\..\..\..\..\Components\hal /
//                          \include\" -I "D:\简宝山\寿县17-09-01             /
//                          25\程序\无线节点程序\code\Projects\zstack\Samples /
//                          \SampleApp\CC2530DB\..\..\..\..\..\Components\hal /
//                          \target\CC2530EB\" -I "D:\简宝山\寿县17-09-01     /
//                          25\程序\无线节点程序\code\Projects\zstack\Samples /
//                          \SampleApp\CC2530DB\..\..\..\..\..\Components\mac /
//                          \include\" -I "D:\简宝山\寿县17-09-01             /
//                          25\程序\无线节点程序\code\Projects\zstack\Samples /
//                          \SampleApp\CC2530DB\..\..\..\..\..\Components\mac /
//                          \high_level\" -I "D:\简宝山\寿县17-09-01          /
//                          25\程序\无线节点程序\code\Projects\zstack\Samples /
//                          \SampleApp\CC2530DB\..\..\..\..\..\Components\mac /
//                          \low_level\srf04\" -I "D:\简宝山\寿县17-09-01     /
//                          25\程序\无线节点程序\code\Projects\zstack\Samples /
//                          \SampleApp\CC2530DB\..\..\..\..\..\Components\mac /
//                          \low_level\srf04\single_chip\" -I                 /
//                          "D:\简宝山\寿县17-09-01                           /
//                          25\程序\无线节点程序\code\Projects\zstack\Samples /
//                          \SampleApp\CC2530DB\..\..\..\..\..\Components\mt\ /
//                          " -I "D:\简宝山\寿县17-09-01                      /
//                          25\程序\无线节点程序\code\Projects\zstack\Samples /
//                          \SampleApp\CC2530DB\..\..\..\..\..\Components\osa /
//                          l\include\" -I "D:\简宝山\寿县17-09-01            /
//                          25\程序\无线节点程序\code\Projects\zstack\Samples /
//                          \SampleApp\CC2530DB\..\..\..\..\..\Components\ser /
//                          vices\saddr\" -I "D:\简宝山\寿县17-09-01          /
//                          25\程序\无线节点程序\code\Projects\zstack\Samples /
//                          \SampleApp\CC2530DB\..\..\..\..\..\Components\ser /
//                          vices\sdata\" -I "D:\简宝山\寿县17-09-01          /
//                          25\程序\无线节点程序\code\Projects\zstack\Samples /
//                          \SampleApp\CC2530DB\..\..\..\..\..\Components\sta /
//                          ck\af\" -I "D:\简宝山\寿县17-09-01                /
//                          25\程序\无线节点程序\code\Projects\zstack\Samples /
//                          \SampleApp\CC2530DB\..\..\..\..\..\Components\sta /
//                          ck\nwk\" -I "D:\简宝山\寿县17-09-01               /
//                          25\程序\无线节点程序\code\Projects\zstack\Samples /
//                          \SampleApp\CC2530DB\..\..\..\..\..\Components\sta /
//                          ck\sapi\" -I "D:\简宝山\寿县17-09-01              /
//                          25\程序\无线节点程序\code\Projects\zstack\Samples /
//                          \SampleApp\CC2530DB\..\..\..\..\..\Components\sta /
//                          ck\sec\" -I "D:\简宝山\寿县17-09-01               /
//                          25\程序\无线节点程序\code\Projects\zstack\Samples /
//                          \SampleApp\CC2530DB\..\..\..\..\..\Components\sta /
//                          ck\sys\" -I "D:\简宝山\寿县17-09-01               /
//                          25\程序\无线节点程序\code\Projects\zstack\Samples /
//                          \SampleApp\CC2530DB\..\..\..\..\..\Components\sta /
//                          ck\zdo\" -I "D:\简宝山\寿县17-09-01               /
//                          25\程序\无线节点程序\code\Projects\zstack\Samples /
//                          \SampleApp\CC2530DB\..\..\..\..\..\Components\zma /
//                          c\" -I "D:\简宝山\寿县17-09-01                    /
//                          25\程序\无线节点程序\code\Projects\zstack\Samples /
//                          \SampleApp\CC2530DB\..\..\..\..\..\Components\zma /
//                          c\f8w\" -Ohz --require_prototypes                 /
//    List file          =  D:\简宝山\寿县17-09-01 25\程序\无线节点程序\code\ /
//                          Projects\zstack\Samples\SampleApp\CC2530DB\EndDev /
//                          iceEB\List\ZDApp.s51                              /
//                                                                            /
//                                                                            /
///////////////////////////////////////////////////////////////////////////////

        NAME ZDApp

        RTMODEL "__SystemLibrary", "CLib"
        RTMODEL "__calling_convention", "xdata_reentrant"
        RTMODEL "__code_model", "banked"
        RTMODEL "__core", "plain"
        RTMODEL "__data_model", "large"
        RTMODEL "__dptr_size", "16"
        RTMODEL "__extended_stack", "disabled"
        RTMODEL "__location_for_constants", "data"
        RTMODEL "__number_of_dptrs", "1"
        RTMODEL "__rt_version", "1"

        RSEG DOVERLAY:DATA:NOROOT(0)
        RSEG IOVERLAY:IDATA:NOROOT(0)
        RSEG ISTACK:IDATA:NOROOT(0)
        RSEG PSTACK:XDATA:NOROOT(0)
        RSEG XSTACK:XDATA:NOROOT(0)

        EXTERN ?V0
        EXTERN ?V1
        EXTERN ?V2
        EXTERN ?V3
        EXTERN ?V4
        EXTERN ?V5
        EXTERN ?V6
        EXTERN ?V7
        EXTERN ?ALLOC_XSTACK8
        EXTERN ?BANKED_ENTER_XDATA
        EXTERN ?BANKED_LEAVE_XDATA
        EXTERN ?BDISPATCH
        EXTERN ?BRET
        EXTERN ?CALL_IND
        EXTERN ?DEALLOC_XSTACK8
        EXTERN ?L_ADD_TO_X
        EXTERN ?L_MOV_X
        EXTERN ?PUSH_XSTACK8_X_TWO
        EXTERN ?PUSH_XSTACK_I_ONE
        EXTERN ?PUSH_XSTACK_I_THREE
        EXTERN ?PUSH_XSTACK_I_TWO
        EXTERN ?US_SWITCH_SPARSE
        EXTERN ?XLOAD_R0123
        EXTERN ?XSP
        EXTERN ?XSTACK_DISP0_8
        EXTERN ?XSTACK_DISP101_8
        EXTERN ?XSTACK_DISP102_8
        EXTERN ?XSTORE_R0123
        EXTERN __INIT_XDATA_I
        EXTERN __INIT_XDATA_Z

        PUBLIC ??AddrMgrWriteNVRequest?relay
        FUNCTION ??AddrMgrWriteNVRequest?relay,0203H
        PUBLIC ??ZDAppCheckForHoldKey?relay
        FUNCTION ??ZDAppCheckForHoldKey?relay,0203H
        PUBLIC ??ZDAppDetermineDeviceType?relay
        FUNCTION ??ZDAppDetermineDeviceType?relay,0203H
        PUBLIC ??ZDApp_AnnounceNewAddress?relay
        FUNCTION ??ZDApp_AnnounceNewAddress?relay,0203H
        PUBLIC ??ZDApp_ChangeMatchDescRespPermission?relay
        FUNCTION ??ZDApp_ChangeMatchDescRespPermission?relay,0203H
        PUBLIC ??ZDApp_CoordStartPANIDConflictCB?relay
        FUNCTION ??ZDApp_CoordStartPANIDConflictCB?relay,0203H
        PUBLIC ??ZDApp_DeviceAuthEvt?relay
        FUNCTION ??ZDApp_DeviceAuthEvt?relay,0203H
        PUBLIC ??ZDApp_DeviceConfigured?relay
        FUNCTION ??ZDApp_DeviceConfigured?relay,0203H
        PUBLIC ??ZDApp_InMsgCB?relay
        FUNCTION ??ZDApp_InMsgCB?relay,0203H
        PUBLIC ??ZDApp_Init?relay
        FUNCTION ??ZDApp_Init?relay,0203H
        PUBLIC ??ZDApp_InitUserDesc?relay
        FUNCTION ??ZDApp_InitUserDesc?relay,0203H
        PUBLIC ??ZDApp_InitZdoCBFunc?relay
        FUNCTION ??ZDApp_InitZdoCBFunc?relay,0203H
        PUBLIC ??ZDApp_JoinReq?relay
        FUNCTION ??ZDApp_JoinReq?relay,0203H
        PUBLIC ??ZDApp_LeaveCtrlBypass?relay
        FUNCTION ??ZDApp_LeaveCtrlBypass?relay,0203H
        PUBLIC ??ZDApp_LeaveCtrlInit?relay
        FUNCTION ??ZDApp_LeaveCtrlInit?relay,0203H
        PUBLIC ??ZDApp_LeaveCtrlReset?relay
        FUNCTION ??ZDApp_LeaveCtrlReset?relay,0203H
        PUBLIC ??ZDApp_LeaveCtrlSet?relay
        FUNCTION ??ZDApp_LeaveCtrlSet?relay,0203H
        PUBLIC ??ZDApp_LeaveCtrlStartup?relay
        FUNCTION ??ZDApp_LeaveCtrlStartup?relay,0203H
        PUBLIC ??ZDApp_LeaveReset?relay
        FUNCTION ??ZDApp_LeaveReset?relay,0203H
        PUBLIC ??ZDApp_LeaveUpdate?relay
        FUNCTION ??ZDApp_LeaveUpdate?relay,0203H
        PUBLIC ??ZDApp_NVUpdate?relay
        FUNCTION ??ZDApp_NVUpdate?relay,0203H
        PUBLIC ??ZDApp_NetworkDiscoveryReq?relay
        FUNCTION ??ZDApp_NetworkDiscoveryReq?relay,0203H
        PUBLIC ??ZDApp_NetworkInit?relay
        FUNCTION ??ZDApp_NetworkInit?relay,0203H
        PUBLIC ??ZDApp_NetworkStartEvt?relay
        FUNCTION ??ZDApp_NetworkStartEvt?relay,0203H
        PUBLIC ??ZDApp_NodeProfileSync?relay
        FUNCTION ??ZDApp_NodeProfileSync?relay,0203H
        PUBLIC ??ZDApp_NwkDescListProcessing?relay
        FUNCTION ??ZDApp_NwkDescListProcessing?relay,0203H
        PUBLIC ??ZDApp_NwkStateUpdateCB?relay
        FUNCTION ??ZDApp_NwkStateUpdateCB?relay,0203H
        PUBLIC ??ZDApp_ProcessMsgCBs?relay
        FUNCTION ??ZDApp_ProcessMsgCBs?relay,0203H
        PUBLIC ??ZDApp_ProcessNetworkJoin?relay
        FUNCTION ??ZDApp_ProcessNetworkJoin?relay,0203H
        PUBLIC ??ZDApp_ProcessOSALMsg?relay
        FUNCTION ??ZDApp_ProcessOSALMsg?relay,0203H
        PUBLIC ??ZDApp_ProcessSecEvent?relay
        FUNCTION ??ZDApp_ProcessSecEvent?relay,0203H
        PUBLIC ??ZDApp_ProcessSecMsg?relay
        FUNCTION ??ZDApp_ProcessSecMsg?relay,0203H
        PUBLIC ??ZDApp_ReadNetworkRestoreState?relay
        FUNCTION ??ZDApp_ReadNetworkRestoreState?relay,0203H
        PUBLIC ??ZDApp_RegisterCBs?relay
        FUNCTION ??ZDApp_RegisterCBs?relay,0203H
        PUBLIC ??ZDApp_ResetNwkKey?relay
        FUNCTION ??ZDApp_ResetNwkKey?relay,0203H
        PUBLIC ??ZDApp_ResetTimerCancel?relay
        FUNCTION ??ZDApp_ResetTimerCancel?relay,0203H
        PUBLIC ??ZDApp_ResetTimerStart?relay
        FUNCTION ??ZDApp_ResetTimerStart?relay,0203H
        PUBLIC ??ZDApp_RestoreNetworkState?relay
        FUNCTION ??ZDApp_RestoreNetworkState?relay,0203H
        PUBLIC ??ZDApp_RestoreNwkKey?relay
        FUNCTION ??ZDApp_RestoreNwkKey?relay,0203H
        PUBLIC ??ZDApp_SaveNetworkStateEvt?relay
        FUNCTION ??ZDApp_SaveNetworkStateEvt?relay,0203H
        PUBLIC ??ZDApp_SaveNwkKey?relay
        FUNCTION ??ZDApp_SaveNwkKey?relay,0203H
        PUBLIC ??ZDApp_SecInit?relay
        FUNCTION ??ZDApp_SecInit?relay,0203H
        PUBLIC ??ZDApp_SendEventMsg?relay
        FUNCTION ??ZDApp_SendEventMsg?relay,0203H
        PUBLIC ??ZDApp_SendMsg?relay
        FUNCTION ??ZDApp_SendMsg?relay,0203H
        PUBLIC ??ZDApp_StartJoiningCycle?relay
        FUNCTION ??ZDApp_StartJoiningCycle?relay,0203H
        PUBLIC ??ZDApp_StopJoiningCycle?relay
        FUNCTION ??ZDApp_StopJoiningCycle?relay,0203H
        PUBLIC ??ZDApp_event_loop?relay
        FUNCTION ??ZDApp_event_loop?relay,0203H
        PUBLIC ??ZDOInitDevice?relay
        FUNCTION ??ZDOInitDevice?relay,0203H
        PUBLIC ??ZDO_AddrChangeIndicationCB?relay
        FUNCTION ??ZDO_AddrChangeIndicationCB?relay,0203H
        PUBLIC ??ZDO_ConcentratorIndicationCB?relay
        FUNCTION ??ZDO_ConcentratorIndicationCB?relay,0203H
        PUBLIC ??ZDO_DeregisterForZdoCB?relay
        FUNCTION ??ZDO_DeregisterForZdoCB?relay,0203H
        PUBLIC ??ZDO_JoinConfirmCB?relay
        FUNCTION ??ZDO_JoinConfirmCB?relay,0203H
        PUBLIC ??ZDO_JoinIndicationCB?relay
        FUNCTION ??ZDO_JoinIndicationCB?relay,0203H
        PUBLIC ??ZDO_LeaveCnf?relay
        FUNCTION ??ZDO_LeaveCnf?relay,0203H
        PUBLIC ??ZDO_LeaveInd?relay
        FUNCTION ??ZDO_LeaveInd?relay,0203H
        PUBLIC ??ZDO_ManytoOneFailureIndicationCB?relay
        FUNCTION ??ZDO_ManytoOneFailureIndicationCB?relay,0203H
        PUBLIC ??ZDO_NetworkDiscoveryConfirmCB?relay
        FUNCTION ??ZDO_NetworkDiscoveryConfirmCB?relay,0203H
        PUBLIC ??ZDO_NetworkFormationConfirmCB?relay
        FUNCTION ??ZDO_NetworkFormationConfirmCB?relay,0203H
        PUBLIC ??ZDO_PollConfirmCB?relay
        FUNCTION ??ZDO_PollConfirmCB?relay,0203H
        PUBLIC ??ZDO_RegisterForZdoCB?relay
        FUNCTION ??ZDO_RegisterForZdoCB?relay,0203H
        PUBLIC ??ZDO_SrcRtgIndCB?relay
        FUNCTION ??ZDO_SrcRtgIndCB?relay,0203H
        PUBLIC ??ZDO_StartRouterConfirmCB?relay
        FUNCTION ??ZDO_StartRouterConfirmCB?relay,0203H
        PUBLIC ??ZDO_SyncIndicationCB?relay
        FUNCTION ??ZDO_SyncIndicationCB?relay,0203H
        PUBLIC ??ZDO_UpdateDeviceIndication?relay
        FUNCTION ??ZDO_UpdateDeviceIndication?relay,0203H
        PUBLIC ??ZDO_beaconNotifyIndCB?relay
        FUNCTION ??ZDO_beaconNotifyIndCB?relay,0203H
        PUBLIC AddrMgrWriteNVRequest
        FUNCTION AddrMgrWriteNVRequest,0203H
        ARGFRAME XSTACK, 0, STACK
        PUBLIC ZDAppCheckForHoldKey
        FUNCTION ZDAppCheckForHoldKey,0203H
        ARGFRAME XSTACK, 0, STACK
        PUBLIC ZDAppDetermineDeviceType
        FUNCTION ZDAppDetermineDeviceType,021203H
        ARGFRAME XSTACK, 12, STACK
        ARGFRAME IOVERLAY, 0, STATIC
        ARGFRAME DOVERLAY, 0, STATIC
        LOCFRAME ISTACK, 2, STACK
        PUBLIC ZDAppNwkAddr
        PUBLIC ZDAppTaskID
        PUBLIC ZDApp_AnnounceNewAddress
        FUNCTION ZDApp_AnnounceNewAddress,0a1203H
        ARGFRAME XSTACK, 12, STACK
        ARGFRAME IOVERLAY, 0, STATIC
        ARGFRAME DOVERLAY, 0, STATIC
        LOCFRAME XSTACK, 11, STACK
        PUBLIC ZDApp_AutoFindMode_epDesc
        PUBLIC ZDApp_ChangeMatchDescRespPermission
        FUNCTION ZDApp_ChangeMatchDescRespPermission,021203H
        ARGFRAME XSTACK, 0, STACK
        LOCFRAME XSTACK, 9, STACK
        PUBLIC ZDApp_CoordStartPANIDConflictCB
        FUNCTION ZDApp_CoordStartPANIDConflictCB,0203H
        ARGFRAME XSTACK, 0, STACK
        PUBLIC ZDApp_DeviceAuthEvt
        FUNCTION ZDApp_DeviceAuthEvt,021203H
        ARGFRAME XSTACK, 9, STACK
        ARGFRAME IOVERLAY, 0, STATIC
        ARGFRAME DOVERLAY, 0, STATIC
        LOCFRAME ISTACK, 2, STACK
        PUBLIC ZDApp_DeviceConfigured
        FUNCTION ZDApp_DeviceConfigured,0a1203H
        ARGFRAME XSTACK, 0, STACK
        LOCFRAME XSTACK, 16, STACK
        PUBLIC ZDApp_InMsgCB
        FUNCTION ZDApp_InMsgCB,0a1203H
        ARGFRAME XSTACK, 0, STACK
        LOCFRAME XSTACK, 14, STACK
        PUBLIC ZDApp_Init
        FUNCTION ZDApp_Init,021203H
        ARGFRAME XSTACK, 0, STACK
        LOCFRAME XSTACK, 9, STACK
        PUBLIC ZDApp_InitUserDesc
        FUNCTION ZDApp_InitUserDesc,0a1203H
        ARGFRAME XSTACK, 0, STACK
        LOCFRAME XSTACK, 31, STACK
        PUBLIC ZDApp_InitZdoCBFunc
        FUNCTION ZDApp_InitZdoCBFunc,0203H
        ARGFRAME XSTACK, 9, STACK
        ARGFRAME IOVERLAY, 0, STATIC
        ARGFRAME DOVERLAY, 0, STATIC
        LOCFRAME ISTACK, 2, STACK
        PUBLIC ZDApp_JoinReq
        FUNCTION ZDApp_JoinReq,0a1203H
        ARGFRAME XSTACK, 4, STACK
        LOCFRAME XSTACK, 16, STACK
        PUBLIC ZDApp_LeaveCtrl
        PUBLIC ZDApp_LeaveCtrlBypass
        FUNCTION ZDApp_LeaveCtrlBypass,0203H
        ARGFRAME XSTACK, 0, STACK
        LOCFRAME ISTACK, 2, STACK
        PUBLIC ZDApp_LeaveCtrlInit
        FUNCTION ZDApp_LeaveCtrlInit,0a1203H
        ARGFRAME XSTACK, 12, STACK
        ARGFRAME IOVERLAY, 0, STATIC
        ARGFRAME DOVERLAY, 0, STATIC
        LOCFRAME XSTACK, 14, STACK
        PUBLIC ZDApp_LeaveCtrlReset
        FUNCTION ZDApp_LeaveCtrlReset,0a1203H
        ARGFRAME XSTACK, 0, STACK
        ARGFRAME IOVERLAY, 0, STATIC
        ARGFRAME DOVERLAY, 0, STATIC
        LOCFRAME XSTACK, 14, STACK
        PUBLIC ZDApp_LeaveCtrlSet
        FUNCTION ZDApp_LeaveCtrlSet,0a1203H
        ARGFRAME XSTACK, 9, STACK
        ARGFRAME IOVERLAY, 0, STATIC
        ARGFRAME DOVERLAY, 0, STATIC
        LOCFRAME XSTACK, 14, STACK
        PUBLIC ZDApp_LeaveCtrlStartup
        FUNCTION ZDApp_LeaveCtrlStartup,021203H
        ARGFRAME XSTACK, 12, STACK
        ARGFRAME IOVERLAY, 0, STATIC
        ARGFRAME DOVERLAY, 0, STATIC
        LOCFRAME ISTACK, 2, STACK
        PUBLIC ZDApp_LeaveReset
        FUNCTION ZDApp_LeaveReset,021203H
        ARGFRAME XSTACK, 10, STACK
        ARGFRAME IOVERLAY, 0, STATIC
        ARGFRAME DOVERLAY, 0, STATIC
        LOCFRAME XSTACK, 9, STACK
        PUBLIC ZDApp_LeaveUpdate
        FUNCTION ZDApp_LeaveUpdate,0a1203H
        ARGFRAME XSTACK, 10, STACK
        ARGFRAME IOVERLAY, 0, STATIC
        ARGFRAME DOVERLAY, 0, STATIC
        LOCFRAME XSTACK, 23, STACK
        PUBLIC ZDApp_NVUpdate
        FUNCTION ZDApp_NVUpdate,0203H
        ARGFRAME XSTACK, 0, STACK
        PUBLIC ZDApp_NetworkDiscoveryReq
        FUNCTION ZDApp_NetworkDiscoveryReq,0a1203H
        ARGFRAME XSTACK, 0, STACK
        LOCFRAME XSTACK, 12, STACK
        PUBLIC ZDApp_NetworkInit
        FUNCTION ZDApp_NetworkInit,021203H
        ARGFRAME XSTACK, 12, STACK
        ARGFRAME IOVERLAY, 0, STATIC
        ARGFRAME DOVERLAY, 0, STATIC
        LOCFRAME ISTACK, 2, STACK
        PUBLIC ZDApp_NetworkStartEvt
        FUNCTION ZDApp_NetworkStartEvt,021203H
        ARGFRAME XSTACK, 0, STACK
        LOCFRAME ISTACK, 2, STACK
        PUBLIC ZDApp_NodeProfileSync
        FUNCTION ZDApp_NodeProfileSync,021203H
        ARGFRAME XSTACK, 12, STACK
        ARGFRAME IOVERLAY, 0, STATIC
        ARGFRAME DOVERLAY, 0, STATIC
        LOCFRAME XSTACK, 9, STACK
        PUBLIC ZDApp_NwkDescListProcessing
        FUNCTION ZDApp_NwkDescListProcessing,0a1203H
        ARGFRAME XSTACK, 11, STACK
        ARGFRAME IOVERLAY, 0, STATIC
        ARGFRAME DOVERLAY, 0, STATIC
        LOCFRAME XSTACK, 14, STACK
        PUBLIC ZDApp_NwkStateUpdateCB
        FUNCTION ZDApp_NwkStateUpdateCB,021203H
        ARGFRAME XSTACK, 0, STACK
        LOCFRAME ISTACK, 2, STACK
        PUBLIC ZDApp_ProcessMsgCBs
        FUNCTION ZDApp_ProcessMsgCBs,0a1203H
        ARGFRAME XSTACK, 11, STACK
        ARGFRAME IOVERLAY, 0, STATIC
        ARGFRAME DOVERLAY, 0, STATIC
        LOCFRAME XSTACK, 31, STACK
        PUBLIC ZDApp_ProcessNetworkJoin
        FUNCTION ZDApp_ProcessNetworkJoin,0a1203H
        ARGFRAME XSTACK, 11, STACK
        ARGFRAME IOVERLAY, 0, STATIC
        ARGFRAME DOVERLAY, 0, STATIC
        LOCFRAME XSTACK, 12, STACK
        PUBLIC ZDApp_ProcessOSALMsg
        FUNCTION ZDApp_ProcessOSALMsg,0a1203H
        ARGFRAME XSTACK, 12, STACK
        ARGFRAME IOVERLAY, 0, STATIC
        ARGFRAME DOVERLAY, 0, STATIC
        LOCFRAME XSTACK, 15, STACK
        PUBLIC ZDApp_ProcessSecEvent
        FUNCTION ZDApp_ProcessSecEvent,021203H
        ARGFRAME XSTACK, 0, STACK
        LOCFRAME XSTACK, 9, STACK
        PUBLIC ZDApp_ProcessSecMsg
        FUNCTION ZDApp_ProcessSecMsg,021203H
        ARGFRAME XSTACK, 0, STACK
        LOCFRAME ISTACK, 2, STACK
        PUBLIC ZDApp_ReadNetworkRestoreState
        FUNCTION ZDApp_ReadNetworkRestoreState,021203H
        ARGFRAME XSTACK, 0, STACK
        LOCFRAME XSTACK, 9, STACK
        PUBLIC ZDApp_RegisterCBs
        FUNCTION ZDApp_RegisterCBs,021203H
        ARGFRAME XSTACK, 9, STACK
        ARGFRAME IOVERLAY, 0, STATIC
        ARGFRAME DOVERLAY, 0, STATIC
        LOCFRAME ISTACK, 2, STACK
        PUBLIC ZDApp_ResetNwkKey
        FUNCTION ZDApp_ResetNwkKey,0a1203H
        ARGFRAME XSTACK, 0, STACK
        LOCFRAME XSTACK, 35, STACK
        PUBLIC ZDApp_ResetTimerCancel
        FUNCTION ZDApp_ResetTimerCancel,021203H
        ARGFRAME XSTACK, 0, STACK
        ARGFRAME IOVERLAY, 0, STATIC
        ARGFRAME DOVERLAY, 0, STATIC
        LOCFRAME ISTACK, 2, STACK
        PUBLIC ZDApp_ResetTimerStart
        FUNCTION ZDApp_ResetTimerStart,021203H
        ARGFRAME XSTACK, 9, STACK
        ARGFRAME IOVERLAY, 0, STATIC
        ARGFRAME DOVERLAY, 0, STATIC
        LOCFRAME ISTACK, 2, STACK
        PUBLIC ZDApp_RestoreNetworkState
        FUNCTION ZDApp_RestoreNetworkState,021203H
        ARGFRAME XSTACK, 0, STACK
        LOCFRAME XSTACK, 9, STACK
        PUBLIC ZDApp_RestoreNwkKey
        FUNCTION ZDApp_RestoreNwkKey,0a1203H
        ARGFRAME XSTACK, 0, STACK
        LOCFRAME XSTACK, 37, STACK
        PUBLIC ZDApp_SaveNetworkStateEvt
        FUNCTION ZDApp_SaveNetworkStateEvt,0203H
        ARGFRAME XSTACK, 0, STACK
        PUBLIC ZDApp_SaveNwkKey
        FUNCTION ZDApp_SaveNwkKey,0a1203H
        ARGFRAME XSTACK, 9, STACK
        ARGFRAME IOVERLAY, 0, STATIC
        ARGFRAME DOVERLAY, 0, STATIC
        LOCFRAME XSTACK, 37, STACK
        PUBLIC ZDApp_SavedPollRate
        PUBLIC ZDApp_SecInit
        FUNCTION ZDApp_SecInit,021203H
        ARGFRAME XSTACK, 0, STACK
        LOCFRAME XSTACK, 9, STACK
        PUBLIC ZDApp_SendEventMsg
        FUNCTION ZDApp_SendEventMsg,021203H
        ARGFRAME XSTACK, 0, STACK
        LOCFRAME XSTACK, 9, STACK
        PUBLIC ZDApp_SendMsg
        FUNCTION ZDApp_SendMsg,0a1203H
        ARGFRAME XSTACK, 14, STACK
        ARGFRAME IOVERLAY, 0, STATIC
        ARGFRAME DOVERLAY, 0, STATIC
        LOCFRAME ISTACK, 1, STACK
        LOCFRAME XSTACK, 19, STACK
        PUBLIC ZDApp_StartJoiningCycle
        FUNCTION ZDApp_StartJoiningCycle,021203H
        ARGFRAME XSTACK, 0, STACK
        LOCFRAME ISTACK, 2, STACK
        PUBLIC ZDApp_StopJoiningCycle
        FUNCTION ZDApp_StopJoiningCycle,0203H
        ARGFRAME XSTACK, 0, STACK
        LOCFRAME ISTACK, 2, STACK
        PUBLIC ZDApp_epDesc
        PUBLIC ZDApp_event_loop
        FUNCTION ZDApp_event_loop,0a1203H
        ARGFRAME XSTACK, 0, STACK
        LOCFRAME XSTACK, 12, STACK
        PUBLIC ZDOInitDevice
        FUNCTION ZDOInitDevice,0a1203H
        ARGFRAME XSTACK, 9, STACK
        ARGFRAME IOVERLAY, 0, STATIC
        ARGFRAME DOVERLAY, 0, STATIC
        LOCFRAME XSTACK, 12, STACK
        PUBLIC ZDO_AddrChangeIndicationCB
        FUNCTION ZDO_AddrChangeIndicationCB,0a1203H
        ARGFRAME XSTACK, 0, STACK
        LOCFRAME XSTACK, 12, STACK
        PUBLIC ZDO_ConcentratorIndicationCB
        FUNCTION ZDO_ConcentratorIndicationCB,0203H
        ARGFRAME XSTACK, 0, STACK
        LOCFRAME ISTACK, 1, STACK
        LOCFRAME XSTACK, 14, STACK
        PUBLIC ZDO_DeregisterForZdoCB
        FUNCTION ZDO_DeregisterForZdoCB,0203H
        ARGFRAME XSTACK, 0, STACK
        LOCFRAME ISTACK, 2, STACK
        PUBLIC ZDO_JoinConfirmCB
        FUNCTION ZDO_JoinConfirmCB,021203H
        ARGFRAME XSTACK, 0, STACK
        LOCFRAME ISTACK, 1, STACK
        LOCFRAME XSTACK, 14, STACK
        PUBLIC ZDO_JoinIndicationCB
        FUNCTION ZDO_JoinIndicationCB,0203H
        ARGFRAME XSTACK, 1, STACK
        PUBLIC ZDO_LeaveCnf
        FUNCTION ZDO_LeaveCnf,0a1203H
        ARGFRAME XSTACK, 0, STACK
        LOCFRAME XSTACK, 10, STACK
        PUBLIC ZDO_LeaveInd
        FUNCTION ZDO_LeaveInd,0a1203H
        ARGFRAME XSTACK, 0, STACK
        LOCFRAME XSTACK, 10, STACK
        PUBLIC ZDO_ManytoOneFailureIndicationCB
        FUNCTION ZDO_ManytoOneFailureIndicationCB,021203H
        ARGFRAME XSTACK, 0, STACK
        LOCFRAME ISTACK, 2, STACK
        PUBLIC ZDO_NetworkDiscoveryConfirmCB
        FUNCTION ZDO_NetworkDiscoveryConfirmCB,021203H
        ARGFRAME XSTACK, 0, STACK
        LOCFRAME ISTACK, 3, STACK
        LOCFRAME XSTACK, 3, STACK
        PUBLIC ZDO_NetworkFormationConfirmCB
        FUNCTION ZDO_NetworkFormationConfirmCB,021203H
        ARGFRAME XSTACK, 0, STACK
        LOCFRAME XSTACK, 9, STACK
        PUBLIC ZDO_PollConfirmCB
        FUNCTION ZDO_PollConfirmCB,0203H
        ARGFRAME XSTACK, 0, STACK
        PUBLIC ZDO_RegisterForZdoCB
        FUNCTION ZDO_RegisterForZdoCB,0203H
        ARGFRAME XSTACK, 0, STACK
        LOCFRAME ISTACK, 2, STACK
        PUBLIC ZDO_SrcRtgIndCB
        FUNCTION ZDO_SrcRtgIndCB,0203H
        ARGFRAME XSTACK, 0, STACK
        LOCFRAME ISTACK, 1, STACK
        LOCFRAME XSTACK, 14, STACK
        PUBLIC ZDO_StartRouterConfirmCB
        FUNCTION ZDO_StartRouterConfirmCB,021203H
        ARGFRAME XSTACK, 0, STACK
        LOCFRAME XSTACK, 9, STACK
        PUBLIC ZDO_SyncIndicationCB
        FUNCTION ZDO_SyncIndicationCB,021203H
        ARGFRAME XSTACK, 0, STACK
        LOCFRAME XSTACK, 9, STACK
        PUBLIC ZDO_UpdateDeviceIndication
        FUNCTION ZDO_UpdateDeviceIndication,0203H
        ARGFRAME XSTACK, 0, STACK
        PUBLIC ZDO_UseExtendedPANID
        PUBLIC ZDO_beaconNotifyIndCB
        FUNCTION ZDO_beaconNotifyIndCB,0a1203H
        ARGFRAME XSTACK, 0, STACK
        LOCFRAME ISTACK, 1, STACK
        LOCFRAME XSTACK, 14, STACK
        PUBWEAK __Constant_1
        PUBWEAK __Constant_3e8
        PUBLIC _tmpRejoinState
        PUBLIC continueJoining
        PUBLIC devStartMode
        PUBLIC devState
        PUBLIC nwkFrameCounterChanges
        PUBLIC nwkStatus
        PUBLIC retryCnt
        PUBLIC zdappMgmtNwkDiscReqInProgress
        PUBLIC zdappMgmtNwkDiscRspAddr
        PUBLIC zdappMgmtNwkDiscRspTransSeq
        PUBLIC zdappMgmtNwkDiscStartIndex
        PUBLIC zdappMgmtSavedNwkState
        PUBLIC zdoCBFunc
        PUBLIC zdoDiscCounter
        
          CFI Names cfiNames0
          CFI StackFrame CFA_SP SP IDATA
          CFI StackFrame CFA_PSP16 PSP16 XDATA
          CFI StackFrame CFA_XSP16 XSP16 XDATA
          CFI StaticOverlayFrame CFA_IOVERLAY IOVERLAY
          CFI StaticOverlayFrame CFA_DOVERLAY DOVERLAY
          CFI Resource `PSW.CY`:1, `B.BR0`:1, `B.BR1`:1, `B.BR2`:1, `B.BR3`:1
          CFI Resource `B.BR4`:1, `B.BR5`:1, `B.BR6`:1, `B.BR7`:1, `VB.BR8`:1
          CFI Resource `VB.BR9`:1, `VB.BR10`:1, `VB.BR11`:1, `VB.BR12`:1
          CFI Resource `VB.BR13`:1, `VB.BR14`:1, `VB.BR15`:1, VB:8, B:8, A:8
          CFI Resource PSW:8, DPL0:8, DPH0:8, R0:8, R1:8, R2:8, R3:8, R4:8, R5:8
          CFI Resource R6:8, R7:8, V0:8, V1:8, V2:8, V3:8, V4:8, V5:8, V6:8, V7:8
          CFI Resource SP:8, PSPH:8, PSPL:8, PSP16:16, XSPH:8, XSPL:8, XSP16:16
          CFI VirtualResource ?RET:24
          CFI Resource ?BRET_EXT:8
          CFI VirtualResource ?RET_HIGH:8, ?RET_LOW:8
          CFI ResourceParts PSP16 PSPH, PSPL
          CFI ResourceParts XSP16 XSPH, XSPL
          CFI ResourceParts ?RET ?BRET_EXT, ?RET_HIGH, ?RET_LOW
          CFI EndNames cfiNames0
        
          CFI Common cfiCommon0 Using cfiNames0
          CFI CodeAlign 1
          CFI DataAlign -1
          CFI ReturnAddress ?RET CODE
          CFI CFA_DOVERLAY Used
          CFI CFA_IOVERLAY Used
          CFI CFA_SP SP+-3
          CFI CFA_PSP16 PSP16+0
          CFI CFA_XSP16 XSP16+0
          CFI `PSW.CY` SameValue
          CFI `B.BR0` SameValue
          CFI `B.BR1` SameValue
          CFI `B.BR2` SameValue
          CFI `B.BR3` SameValue
          CFI `B.BR4` SameValue
          CFI `B.BR5` SameValue
          CFI `B.BR6` SameValue
          CFI `B.BR7` SameValue
          CFI `VB.BR8` SameValue
          CFI `VB.BR9` SameValue
          CFI `VB.BR10` SameValue
          CFI `VB.BR11` SameValue
          CFI `VB.BR12` SameValue
          CFI `VB.BR13` SameValue
          CFI `VB.BR14` SameValue
          CFI `VB.BR15` SameValue
          CFI VB SameValue
          CFI B Undefined
          CFI A Undefined
          CFI PSW SameValue
          CFI DPL0 SameValue
          CFI DPH0 SameValue
          CFI R0 Undefined
          CFI R1 Undefined
          CFI R2 Undefined
          CFI R3 Undefined
          CFI R4 Undefined
          CFI R5 Undefined
          CFI R6 SameValue
          CFI R7 SameValue
          CFI V0 SameValue
          CFI V1 SameValue
          CFI V2 SameValue
          CFI V3 SameValue
          CFI V4 SameValue
          CFI V5 SameValue
          CFI V6 SameValue
          CFI V7 SameValue
          CFI PSPH Undefined
          CFI PSPL Undefined
          CFI XSPH Undefined
          CFI XSPL Undefined
          CFI ?RET Concat
          CFI ?BRET_EXT Frame(CFA_SP, 3)
          CFI ?RET_HIGH Frame(CFA_SP, 2)
          CFI ?RET_LOW Frame(CFA_SP, 1)
          CFI EndCommon cfiCommon0
        
        
          CFI Common cfiCommon1 Using cfiNames0
          CFI CodeAlign 1
          CFI DataAlign -1
          CFI ReturnAddress ?RET CODE
          CFI CFA_DOVERLAY Used
          CFI CFA_IOVERLAY Used
          CFI CFA_SP SP+-2
          CFI CFA_PSP16 PSP16+0
          CFI CFA_XSP16 XSP16+0
          CFI `PSW.CY` SameValue
          CFI `B.BR0` SameValue
          CFI `B.BR1` SameValue
          CFI `B.BR2` SameValue
          CFI `B.BR3` SameValue
          CFI `B.BR4` SameValue
          CFI `B.BR5` SameValue
          CFI `B.BR6` SameValue
          CFI `B.BR7` SameValue
          CFI `VB.BR8` SameValue
          CFI `VB.BR9` SameValue
          CFI `VB.BR10` SameValue
          CFI `VB.BR11` SameValue
          CFI `VB.BR12` SameValue
          CFI `VB.BR13` SameValue
          CFI `VB.BR14` SameValue
          CFI `VB.BR15` SameValue
          CFI VB SameValue
          CFI B SameValue
          CFI A SameValue
          CFI PSW SameValue
          CFI DPL0 SameValue
          CFI DPH0 SameValue
          CFI R0 SameValue
          CFI R1 SameValue
          CFI R2 SameValue
          CFI R3 SameValue
          CFI R4 SameValue
          CFI R5 SameValue
          CFI R6 SameValue
          CFI R7 SameValue
          CFI V0 SameValue
          CFI V1 SameValue
          CFI V2 SameValue
          CFI V3 SameValue
          CFI V4 SameValue
          CFI V5 SameValue
          CFI V6 SameValue
          CFI V7 SameValue
          CFI PSPH Undefined
          CFI PSPL Undefined
          CFI XSPH Undefined
          CFI XSPL Undefined
          CFI ?RET Concat
          CFI ?BRET_EXT SameValue
          CFI ?RET_HIGH Frame(CFA_SP, 2)
          CFI ?RET_LOW Frame(CFA_SP, 1)
          CFI EndCommon cfiCommon1
        
APSME_HoldDataRequests SYMBOL "APSME_HoldDataRequests"
??APSME_HoldDataRequests?relay SYMBOL "?relay", APSME_HoldDataRequests
HalLedBlink         SYMBOL "HalLedBlink"
??HalLedBlink?relay SYMBOL "?relay", HalLedBlink
HalLedSet           SYMBOL "HalLedSet"
??HalLedSet?relay   SYMBOL "?relay", HalLedSet
NLME_GetCoordShortAddr SYMBOL "NLME_GetCoordShortAddr"
??NLME_GetCoordShortAddr?relay SYMBOL "?relay", NLME_GetCoordShortAddr
NLME_GetEnergyThreshold SYMBOL "NLME_GetEnergyThreshold"
??NLME_GetEnergyThreshold?relay SYMBOL "?relay", NLME_GetEnergyThreshold
NLME_GetExtAddr     SYMBOL "NLME_GetExtAddr"
??NLME_GetExtAddr?relay SYMBOL "?relay", NLME_GetExtAddr
NLME_GetShortAddr   SYMBOL "NLME_GetShortAddr"
??NLME_GetShortAddr?relay SYMBOL "?relay", NLME_GetShortAddr
NLME_InitNV         SYMBOL "NLME_InitNV"
??NLME_InitNV?relay SYMBOL "?relay", NLME_InitNV
NLME_JoinRequest    SYMBOL "NLME_JoinRequest"
??NLME_JoinRequest?relay SYMBOL "?relay", NLME_JoinRequest
NLME_NetworkDiscoveryRequest SYMBOL "NLME_NetworkDiscoveryRequest"
??NLME_NetworkDiscoveryRequest?relay SYMBOL "?relay", NLME_NetworkDiscoveryRequest
NLME_NwkDiscTerm    SYMBOL "NLME_NwkDiscTerm"
??NLME_NwkDiscTerm?relay SYMBOL "?relay", NLME_NwkDiscTerm
NLME_ReJoinRequest  SYMBOL "NLME_ReJoinRequest"
??NLME_ReJoinRequest?relay SYMBOL "?relay", NLME_ReJoinRequest
NLME_RestoreFromNV  SYMBOL "NLME_RestoreFromNV"
??NLME_RestoreFromNV?relay SYMBOL "?relay", NLME_RestoreFromNV
NLME_SetBroadcastFilter SYMBOL "NLME_SetBroadcastFilter"
??NLME_SetBroadcastFilter?relay SYMBOL "?relay", NLME_SetBroadcastFilter
NLME_SetEnergyThreshold SYMBOL "NLME_SetEnergyThreshold"
??NLME_SetEnergyThreshold?relay SYMBOL "?relay", NLME_SetEnergyThreshold
NLME_SetPollRate    SYMBOL "NLME_SetPollRate"
??NLME_SetPollRate?relay SYMBOL "?relay", NLME_SetPollRate
NLME_SetQueuedPollRate SYMBOL "NLME_SetQueuedPollRate"
??NLME_SetQueuedPollRate?relay SYMBOL "?relay", NLME_SetQueuedPollRate
NLME_SetResponseRate SYMBOL "NLME_SetResponseRate"
??NLME_SetResponseRate?relay SYMBOL "?relay", NLME_SetResponseRate
RTG_MTORouteReq     SYMBOL "RTG_MTORouteReq"
??RTG_MTORouteReq?relay SYMBOL "?relay", RTG_MTORouteReq
RTG_RemoveRtgEntry  SYMBOL "RTG_RemoveRtgEntry"
??RTG_RemoveRtgEntry?relay SYMBOL "?relay", RTG_RemoveRtgEntry
SSP_ReadNwkActiveKey SYMBOL "SSP_ReadNwkActiveKey"
??SSP_ReadNwkActiveKey?relay SYMBOL "?relay", SSP_ReadNwkActiveKey
ZDConfig_InitDescriptors SYMBOL "ZDConfig_InitDescriptors"
??ZDConfig_InitDescriptors?relay SYMBOL "?relay", ZDConfig_InitDescriptors
ZDO_Init            SYMBOL "ZDO_Init"
??ZDO_Init?relay    SYMBOL "?relay", ZDO_Init
ZDO_ParseAddrRsp    SYMBOL "ZDO_ParseAddrRsp"
??ZDO_ParseAddrRsp?relay SYMBOL "?relay", ZDO_ParseAddrRsp
ZDO_ParseBindUnbindReq SYMBOL "ZDO_ParseBindUnbindReq"
??ZDO_ParseBindUnbindReq?relay SYMBOL "?relay", ZDO_ParseBindUnbindReq
ZDO_ProcessBindUnbindReq SYMBOL "ZDO_ProcessBindUnbindReq"
??ZDO_ProcessBindUnbindReq?relay SYMBOL "?relay", ZDO_ProcessBindUnbindReq
ZDO_RegisterForZDOMsg SYMBOL "ZDO_RegisterForZDOMsg"
??ZDO_RegisterForZDOMsg?relay SYMBOL "?relay", ZDO_RegisterForZDOMsg
ZDO_StartDevice     SYMBOL "ZDO_StartDevice"
??ZDO_StartDevice?relay SYMBOL "?relay", ZDO_StartDevice
ZDO_UpdateAddrManager SYMBOL "ZDO_UpdateAddrManager"
??ZDO_UpdateAddrManager?relay SYMBOL "?relay", ZDO_UpdateAddrManager
ZDO_UpdateNwkStatus SYMBOL "ZDO_UpdateNwkStatus"
??ZDO_UpdateNwkStatus?relay SYMBOL "?relay", ZDO_UpdateNwkStatus
ZDP_DeviceAnnce     SYMBOL "ZDP_DeviceAnnce"
??ZDP_DeviceAnnce?relay SYMBOL "?relay", ZDP_DeviceAnnce
ZDP_GenericRsp      SYMBOL "ZDP_GenericRsp"
??ZDP_GenericRsp?relay SYMBOL "?relay", ZDP_GenericRsp
ZDP_IncomingData    SYMBOL "ZDP_IncomingData"
??ZDP_IncomingData?relay SYMBOL "?relay", ZDP_IncomingData
ZDSecMgrAddrClear   SYMBOL "ZDSecMgrAddrClear"
??ZDSecMgrAddrClear?relay SYMBOL "?relay", ZDSecMgrAddrClear
ZDSecMgrDeviceRemoveByExtAddr SYMBOL "ZDSecMgrDeviceRemoveByExtAddr"
??ZDSecMgrDeviceRemoveByExtAddr?relay SYMBOL "?relay", ZDSecMgrDeviceRemoveByExtAddr
ZDSecMgrInit        SYMBOL "ZDSecMgrInit"
??ZDSecMgrInit?relay SYMBOL "?relay", ZDSecMgrInit
ZDSecMgrSaveTCLinkKey SYMBOL "ZDSecMgrSaveTCLinkKey"
??ZDSecMgrSaveTCLinkKey?relay SYMBOL "?relay", ZDSecMgrSaveTCLinkKey
ZDSecMgrSwitchKeyInd SYMBOL "ZDSecMgrSwitchKeyInd"
??ZDSecMgrSwitchKeyInd?relay SYMBOL "?relay", ZDSecMgrSwitchKeyInd
ZDSecMgrTransportKeyInd SYMBOL "ZDSecMgrTransportKeyInd"
??ZDSecMgrTransportKeyInd?relay SYMBOL "?relay", ZDSecMgrTransportKeyInd
ZMacSetReq          SYMBOL "ZMacSetReq"
??ZMacSetReq?relay  SYMBOL "?relay", ZMacSetReq
afRegister          SYMBOL "afRegister"
??afRegister?relay  SYMBOL "?relay", afRegister
afSetMatch          SYMBOL "afSetMatch"
??afSetMatch?relay  SYMBOL "?relay", afSetMatch
nwkNeighborInitTable SYMBOL "nwkNeighborInitTable"
??nwkNeighborInitTable?relay SYMBOL "?relay", nwkNeighborInitTable
nwkNeighborRemove   SYMBOL "nwkNeighborRemove"
??nwkNeighborRemove?relay SYMBOL "?relay", nwkNeighborRemove
nwk_ExtPANIDValid   SYMBOL "nwk_ExtPANIDValid"
??nwk_ExtPANIDValid?relay SYMBOL "?relay", nwk_ExtPANIDValid
nwk_getNwkDescList  SYMBOL "nwk_getNwkDescList"
??nwk_getNwkDescList?relay SYMBOL "?relay", nwk_getNwkDescList
osal_get_timeoutEx  SYMBOL "osal_get_timeoutEx"
??osal_get_timeoutEx?relay SYMBOL "?relay", osal_get_timeoutEx
osal_mem_alloc      SYMBOL "osal_mem_alloc"
??osal_mem_alloc?relay SYMBOL "?relay", osal_mem_alloc
osal_mem_free       SYMBOL "osal_mem_free"
??osal_mem_free?relay SYMBOL "?relay", osal_mem_free
osal_memcpy         SYMBOL "osal_memcpy"
??osal_memcpy?relay SYMBOL "?relay", osal_memcpy
osal_memset         SYMBOL "osal_memset"
??osal_memset?relay SYMBOL "?relay", osal_memset
osal_msg_allocate   SYMBOL "osal_msg_allocate"
??osal_msg_allocate?relay SYMBOL "?relay", osal_msg_allocate
osal_msg_deallocate SYMBOL "osal_msg_deallocate"
??osal_msg_deallocate?relay SYMBOL "?relay", osal_msg_deallocate
osal_msg_receive    SYMBOL "osal_msg_receive"
??osal_msg_receive?relay SYMBOL "?relay", osal_msg_receive
osal_msg_send       SYMBOL "osal_msg_send"
??osal_msg_send?relay SYMBOL "?relay", osal_msg_send
osal_nv_item_init   SYMBOL "osal_nv_item_init"
??osal_nv_item_init?relay SYMBOL "?relay", osal_nv_item_init
osal_nv_read        SYMBOL "osal_nv_read"
??osal_nv_read?relay SYMBOL "?relay", osal_nv_read
osal_nv_write       SYMBOL "osal_nv_write"
??osal_nv_write?relay SYMBOL "?relay", osal_nv_write
osal_pwrmgr_device  SYMBOL "osal_pwrmgr_device"
??osal_pwrmgr_device?relay SYMBOL "?relay", osal_pwrmgr_device
osal_rand           SYMBOL "osal_rand"
??osal_rand?relay   SYMBOL "?relay", osal_rand
osal_set_event      SYMBOL "osal_set_event"
??osal_set_event?relay SYMBOL "?relay", osal_set_event
osal_start_timerEx  SYMBOL "osal_start_timerEx"
??osal_start_timerEx?relay SYMBOL "?relay", osal_start_timerEx
osal_stop_timerEx   SYMBOL "osal_stop_timerEx"
??osal_stop_timerEx?relay SYMBOL "?relay", osal_stop_timerEx
sAddrExtCmp         SYMBOL "sAddrExtCmp"
??sAddrExtCmp?relay SYMBOL "?relay", sAddrExtCmp
sAddrExtCpy         SYMBOL "sAddrExtCpy"
??sAddrExtCpy?relay SYMBOL "?relay", sAddrExtCpy
zgInitItems         SYMBOL "zgInitItems"
??zgInitItems?relay SYMBOL "?relay", zgInitItems
zgReadStartupOptions SYMBOL "zgReadStartupOptions"
??zgReadStartupOptions?relay SYMBOL "?relay", zgReadStartupOptions
zgWriteStartupOptions SYMBOL "zgWriteStartupOptions"
??zgWriteStartupOptions?relay SYMBOL "?relay", zgWriteStartupOptions
AddrMgrWriteNVRequest SYMBOL "AddrMgrWriteNVRequest"
??AddrMgrWriteNVRequest?relay SYMBOL "?relay", AddrMgrWriteNVRequest
ZDAppCheckForHoldKey SYMBOL "ZDAppCheckForHoldKey"
??ZDAppCheckForHoldKey?relay SYMBOL "?relay", ZDAppCheckForHoldKey
ZDAppDetermineDeviceType SYMBOL "ZDAppDetermineDeviceType"
??ZDAppDetermineDeviceType?relay SYMBOL "?relay", ZDAppDetermineDeviceType
ZDApp_AnnounceNewAddress SYMBOL "ZDApp_AnnounceNewAddress"
??ZDApp_AnnounceNewAddress?relay SYMBOL "?relay", ZDApp_AnnounceNewAddress
ZDApp_ChangeMatchDescRespPermission SYMBOL "ZDApp_ChangeMatchDescRespPermission"
??ZDApp_ChangeMatchDescRespPermission?relay SYMBOL "?relay", ZDApp_ChangeMatchDescRespPermission
ZDApp_CoordStartPANIDConflictCB SYMBOL "ZDApp_CoordStartPANIDConflictCB"
??ZDApp_CoordStartPANIDConflictCB?relay SYMBOL "?relay", ZDApp_CoordStartPANIDConflictCB
ZDApp_DeviceAuthEvt SYMBOL "ZDApp_DeviceAuthEvt"
??ZDApp_DeviceAuthEvt?relay SYMBOL "?relay", ZDApp_DeviceAuthEvt
ZDApp_DeviceConfigured SYMBOL "ZDApp_DeviceConfigured"
??ZDApp_DeviceConfigured?relay SYMBOL "?relay", ZDApp_DeviceConfigured
ZDApp_InMsgCB       SYMBOL "ZDApp_InMsgCB"
??ZDApp_InMsgCB?relay SYMBOL "?relay", ZDApp_InMsgCB
ZDApp_Init          SYMBOL "ZDApp_Init"
??ZDApp_Init?relay  SYMBOL "?relay", ZDApp_Init
ZDApp_InitUserDesc  SYMBOL "ZDApp_InitUserDesc"
??ZDApp_InitUserDesc?relay SYMBOL "?relay", ZDApp_InitUserDesc
ZDApp_InitZdoCBFunc SYMBOL "ZDApp_InitZdoCBFunc"
??ZDApp_InitZdoCBFunc?relay SYMBOL "?relay", ZDApp_InitZdoCBFunc
ZDApp_JoinReq       SYMBOL "ZDApp_JoinReq"
??ZDApp_JoinReq?relay SYMBOL "?relay", ZDApp_JoinReq
ZDApp_LeaveCtrlBypass SYMBOL "ZDApp_LeaveCtrlBypass"
??ZDApp_LeaveCtrlBypass?relay SYMBOL "?relay", ZDApp_LeaveCtrlBypass
ZDApp_LeaveCtrlInit SYMBOL "ZDApp_LeaveCtrlInit"
??ZDApp_LeaveCtrlInit?relay SYMBOL "?relay", ZDApp_LeaveCtrlInit
ZDApp_LeaveCtrlReset SYMBOL "ZDApp_LeaveCtrlReset"
??ZDApp_LeaveCtrlReset?relay SYMBOL "?relay", ZDApp_LeaveCtrlReset
ZDApp_LeaveCtrlSet  SYMBOL "ZDApp_LeaveCtrlSet"
??ZDApp_LeaveCtrlSet?relay SYMBOL "?relay", ZDApp_LeaveCtrlSet
ZDApp_LeaveCtrlStartup SYMBOL "ZDApp_LeaveCtrlStartup"
??ZDApp_LeaveCtrlStartup?relay SYMBOL "?relay", ZDApp_LeaveCtrlStartup
ZDApp_LeaveReset    SYMBOL "ZDApp_LeaveReset"
??ZDApp_LeaveReset?relay SYMBOL "?relay", ZDApp_LeaveReset
ZDApp_LeaveUpdate   SYMBOL "ZDApp_LeaveUpdate"
??ZDApp_LeaveUpdate?relay SYMBOL "?relay", ZDApp_LeaveUpdate
ZDApp_NVUpdate      SYMBOL "ZDApp_NVUpdate"
??ZDApp_NVUpdate?relay SYMBOL "?relay", ZDApp_NVUpdate
ZDApp_NetworkDiscoveryReq SYMBOL "ZDApp_NetworkDiscoveryReq"
??ZDApp_NetworkDiscoveryReq?relay SYMBOL "?relay", ZDApp_NetworkDiscoveryReq
ZDApp_NetworkInit   SYMBOL "ZDApp_NetworkInit"
??ZDApp_NetworkInit?relay SYMBOL "?relay", ZDApp_NetworkInit
ZDApp_NetworkStartEvt SYMBOL "ZDApp_NetworkStartEvt"
??ZDApp_NetworkStartEvt?relay SYMBOL "?relay", ZDApp_NetworkStartEvt
ZDApp_NodeProfileSync SYMBOL "ZDApp_NodeProfileSync"
??ZDApp_NodeProfileSync?relay SYMBOL "?relay", ZDApp_NodeProfileSync
ZDApp_NwkDescListProcessing SYMBOL "ZDApp_NwkDescListProcessing"
??ZDApp_NwkDescListProcessing?relay SYMBOL "?relay", ZDApp_NwkDescListProcessing
ZDApp_NwkStateUpdateCB SYMBOL "ZDApp_NwkStateUpdateCB"
??ZDApp_NwkStateUpdateCB?relay SYMBOL "?relay", ZDApp_NwkStateUpdateCB
ZDApp_ProcessMsgCBs SYMBOL "ZDApp_ProcessMsgCBs"
??ZDApp_ProcessMsgCBs?relay SYMBOL "?relay", ZDApp_ProcessMsgCBs
ZDApp_ProcessNetworkJoin SYMBOL "ZDApp_ProcessNetworkJoin"
??ZDApp_ProcessNetworkJoin?relay SYMBOL "?relay", ZDApp_ProcessNetworkJoin
ZDApp_ProcessOSALMsg SYMBOL "ZDApp_ProcessOSALMsg"
??ZDApp_ProcessOSALMsg?relay SYMBOL "?relay", ZDApp_ProcessOSALMsg
ZDApp_ProcessSecEvent SYMBOL "ZDApp_ProcessSecEvent"
??ZDApp_ProcessSecEvent?relay SYMBOL "?relay", ZDApp_ProcessSecEvent
ZDApp_ProcessSecMsg SYMBOL "ZDApp_ProcessSecMsg"
??ZDApp_ProcessSecMsg?relay SYMBOL "?relay", ZDApp_ProcessSecMsg
ZDApp_ReadNetworkRestoreState SYMBOL "ZDApp_ReadNetworkRestoreState"
??ZDApp_ReadNetworkRestoreState?relay SYMBOL "?relay", ZDApp_ReadNetworkRestoreState
ZDApp_RegisterCBs   SYMBOL "ZDApp_RegisterCBs"
??ZDApp_RegisterCBs?relay SYMBOL "?relay", ZDApp_RegisterCBs
ZDApp_ResetNwkKey   SYMBOL "ZDApp_ResetNwkKey"
??ZDApp_ResetNwkKey?relay SYMBOL "?relay", ZDApp_ResetNwkKey
ZDApp_ResetTimerCancel SYMBOL "ZDApp_ResetTimerCancel"
??ZDApp_ResetTimerCancel?relay SYMBOL "?relay", ZDApp_ResetTimerCancel
ZDApp_ResetTimerStart SYMBOL "ZDApp_ResetTimerStart"
??ZDApp_ResetTimerStart?relay SYMBOL "?relay", ZDApp_ResetTimerStart
ZDApp_RestoreNetworkState SYMBOL "ZDApp_RestoreNetworkState"
??ZDApp_RestoreNetworkState?relay SYMBOL "?relay", ZDApp_RestoreNetworkState
ZDApp_RestoreNwkKey SYMBOL "ZDApp_RestoreNwkKey"
??ZDApp_RestoreNwkKey?relay SYMBOL "?relay", ZDApp_RestoreNwkKey
ZDApp_SaveNetworkStateEvt SYMBOL "ZDApp_SaveNetworkStateEvt"
??ZDApp_SaveNetworkStateEvt?relay SYMBOL "?relay", ZDApp_SaveNetworkStateEvt
ZDApp_SaveNwkKey    SYMBOL "ZDApp_SaveNwkKey"
??ZDApp_SaveNwkKey?relay SYMBOL "?relay", ZDApp_SaveNwkKey
ZDApp_SecInit       SYMBOL "ZDApp_SecInit"
??ZDApp_SecInit?relay SYMBOL "?relay", ZDApp_SecInit
ZDApp_SendEventMsg  SYMBOL "ZDApp_SendEventMsg"
??ZDApp_SendEventMsg?relay SYMBOL "?relay", ZDApp_SendEventMsg
ZDApp_SendMsg       SYMBOL "ZDApp_SendMsg"
??ZDApp_SendMsg?relay SYMBOL "?relay", ZDApp_SendMsg
ZDApp_StartJoiningCycle SYMBOL "ZDApp_StartJoiningCycle"
??ZDApp_StartJoiningCycle?relay SYMBOL "?relay", ZDApp_StartJoiningCycle
ZDApp_StopJoiningCycle SYMBOL "ZDApp_StopJoiningCycle"
??ZDApp_StopJoiningCycle?relay SYMBOL "?relay", ZDApp_StopJoiningCycle
ZDApp_event_loop    SYMBOL "ZDApp_event_loop"
??ZDApp_event_loop?relay SYMBOL "?relay", ZDApp_event_loop
ZDOInitDevice       SYMBOL "ZDOInitDevice"
??ZDOInitDevice?relay SYMBOL "?relay", ZDOInitDevice
ZDO_AddrChangeIndicationCB SYMBOL "ZDO_AddrChangeIndicationCB"
??ZDO_AddrChangeIndicationCB?relay SYMBOL "?relay", ZDO_AddrChangeIndicationCB
ZDO_ConcentratorIndicationCB SYMBOL "ZDO_ConcentratorIndicationCB"
??ZDO_ConcentratorIndicationCB?relay SYMBOL "?relay", ZDO_ConcentratorIndicationCB
ZDO_DeregisterForZdoCB SYMBOL "ZDO_DeregisterForZdoCB"
??ZDO_DeregisterForZdoCB?relay SYMBOL "?relay", ZDO_DeregisterForZdoCB
ZDO_JoinConfirmCB   SYMBOL "ZDO_JoinConfirmCB"
??ZDO_JoinConfirmCB?relay SYMBOL "?relay", ZDO_JoinConfirmCB
ZDO_JoinIndicationCB SYMBOL "ZDO_JoinIndicationCB"
??ZDO_JoinIndicationCB?relay SYMBOL "?relay", ZDO_JoinIndicationCB
ZDO_LeaveCnf        SYMBOL "ZDO_LeaveCnf"
??ZDO_LeaveCnf?relay SYMBOL "?relay", ZDO_LeaveCnf
ZDO_LeaveInd        SYMBOL "ZDO_LeaveInd"
??ZDO_LeaveInd?relay SYMBOL "?relay", ZDO_LeaveInd
ZDO_ManytoOneFailureIndicationCB SYMBOL "ZDO_ManytoOneFailureIndicationCB"
??ZDO_ManytoOneFailureIndicationCB?relay SYMBOL "?relay", ZDO_ManytoOneFailureIndicationCB
ZDO_NetworkDiscoveryConfirmCB SYMBOL "ZDO_NetworkDiscoveryConfirmCB"
??ZDO_NetworkDiscoveryConfirmCB?relay SYMBOL "?relay", ZDO_NetworkDiscoveryConfirmCB
ZDO_NetworkFormationConfirmCB SYMBOL "ZDO_NetworkFormationConfirmCB"
??ZDO_NetworkFormationConfirmCB?relay SYMBOL "?relay", ZDO_NetworkFormationConfirmCB
ZDO_PollConfirmCB   SYMBOL "ZDO_PollConfirmCB"
??ZDO_PollConfirmCB?relay SYMBOL "?relay", ZDO_PollConfirmCB
ZDO_RegisterForZdoCB SYMBOL "ZDO_RegisterForZdoCB"
??ZDO_RegisterForZdoCB?relay SYMBOL "?relay", ZDO_RegisterForZdoCB
ZDO_SrcRtgIndCB     SYMBOL "ZDO_SrcRtgIndCB"
??ZDO_SrcRtgIndCB?relay SYMBOL "?relay", ZDO_SrcRtgIndCB
ZDO_StartRouterConfirmCB SYMBOL "ZDO_StartRouterConfirmCB"
??ZDO_StartRouterConfirmCB?relay SYMBOL "?relay", ZDO_StartRouterConfirmCB
ZDO_SyncIndicationCB SYMBOL "ZDO_SyncIndicationCB"
??ZDO_SyncIndicationCB?relay SYMBOL "?relay", ZDO_SyncIndicationCB
ZDO_UpdateDeviceIndication SYMBOL "ZDO_UpdateDeviceIndication"
??ZDO_UpdateDeviceIndication?relay SYMBOL "?relay", ZDO_UpdateDeviceIndication
ZDO_beaconNotifyIndCB SYMBOL "ZDO_beaconNotifyIndCB"
??ZDO_beaconNotifyIndCB?relay SYMBOL "?relay", ZDO_beaconNotifyIndCB

        EXTERN ??APSME_HoldDataRequests?relay
        FUNCTION ??APSME_HoldDataRequests?relay,00H
        EXTERN ??HalLedBlink?relay
        FUNCTION ??HalLedBlink?relay,00H
        EXTERN ??HalLedSet?relay
        FUNCTION ??HalLedSet?relay,00H
        EXTERN ??NLME_GetCoordShortAddr?relay
        FUNCTION ??NLME_GetCoordShortAddr?relay,00H
        EXTERN ??NLME_GetEnergyThreshold?relay
        FUNCTION ??NLME_GetEnergyThreshold?relay,00H
        EXTERN ??NLME_GetExtAddr?relay
        FUNCTION ??NLME_GetExtAddr?relay,00H
        EXTERN ??NLME_GetShortAddr?relay
        FUNCTION ??NLME_GetShortAddr?relay,00H
        EXTERN ??NLME_InitNV?relay
        FUNCTION ??NLME_InitNV?relay,00H
        EXTERN ??NLME_JoinRequest?relay
        FUNCTION ??NLME_JoinRequest?relay,00H
        EXTERN ??NLME_NetworkDiscoveryRequest?relay
        FUNCTION ??NLME_NetworkDiscoveryRequest?relay,00H
        EXTERN ??NLME_NwkDiscTerm?relay
        FUNCTION ??NLME_NwkDiscTerm?relay,00H
        EXTERN ??NLME_ReJoinRequest?relay
        FUNCTION ??NLME_ReJoinRequest?relay,00H
        EXTERN ??NLME_RestoreFromNV?relay
        FUNCTION ??NLME_RestoreFromNV?relay,00H
        EXTERN ??NLME_SetBroadcastFilter?relay
        FUNCTION ??NLME_SetBroadcastFilter?relay,00H
        EXTERN ??NLME_SetEnergyThreshold?relay
        FUNCTION ??NLME_SetEnergyThreshold?relay,00H
        EXTERN ??NLME_SetPollRate?relay
        FUNCTION ??NLME_SetPollRate?relay,00H
        EXTERN ??NLME_SetQueuedPollRate?relay
        FUNCTION ??NLME_SetQueuedPollRate?relay,00H
        EXTERN ??NLME_SetResponseRate?relay
        FUNCTION ??NLME_SetResponseRate?relay,00H
        EXTERN ??RTG_MTORouteReq?relay
        FUNCTION ??RTG_MTORouteReq?relay,00H
        EXTERN ??RTG_RemoveRtgEntry?relay
        FUNCTION ??RTG_RemoveRtgEntry?relay,00H
        EXTERN ??SSP_ReadNwkActiveKey?relay
        FUNCTION ??SSP_ReadNwkActiveKey?relay,00H
        EXTERN ??ZDConfig_InitDescriptors?relay
        FUNCTION ??ZDConfig_InitDescriptors?relay,00H
        EXTERN ??ZDO_Init?relay
        FUNCTION ??ZDO_Init?relay,00H
        EXTERN ??ZDO_ParseAddrRsp?relay
        FUNCTION ??ZDO_ParseAddrRsp?relay,00H
        EXTERN ??ZDO_ParseBindUnbindReq?relay
        FUNCTION ??ZDO_ParseBindUnbindReq?relay,00H
        EXTERN ??ZDO_ProcessBindUnbindReq?relay
        FUNCTION ??ZDO_ProcessBindUnbindReq?relay,00H
        EXTERN ??ZDO_RegisterForZDOMsg?relay
        FUNCTION ??ZDO_RegisterForZDOMsg?relay,00H
        EXTERN ??ZDO_StartDevice?relay
        FUNCTION ??ZDO_StartDevice?relay,00H
        EXTERN ??ZDO_UpdateAddrManager?relay
        FUNCTION ??ZDO_UpdateAddrManager?relay,00H
        EXTERN ??ZDO_UpdateNwkStatus?relay
        FUNCTION ??ZDO_UpdateNwkStatus?relay,00H
        EXTERN ??ZDP_DeviceAnnce?relay
        FUNCTION ??ZDP_DeviceAnnce?relay,00H
        EXTERN ??ZDP_GenericRsp?relay
        FUNCTION ??ZDP_GenericRsp?relay,00H
        EXTERN ??ZDP_IncomingData?relay
        FUNCTION ??ZDP_IncomingData?relay,00H
        EXTERN ??ZDSecMgrAddrClear?relay
        FUNCTION ??ZDSecMgrAddrClear?relay,00H
        EXTERN ??ZDSecMgrDeviceRemoveByExtAddr?relay
        FUNCTION ??ZDSecMgrDeviceRemoveByExtAddr?relay,00H
        EXTERN ??ZDSecMgrInit?relay
        FUNCTION ??ZDSecMgrInit?relay,00H
        EXTERN ??ZDSecMgrSaveTCLinkKey?relay
        FUNCTION ??ZDSecMgrSaveTCLinkKey?relay,00H
        EXTERN ??ZDSecMgrSwitchKeyInd?relay
        FUNCTION ??ZDSecMgrSwitchKeyInd?relay,00H
        EXTERN ??ZDSecMgrTransportKeyInd?relay
        FUNCTION ??ZDSecMgrTransportKeyInd?relay,00H
        EXTERN ??ZMacSetReq?relay
        FUNCTION ??ZMacSetReq?relay,00H
        EXTERN ??afRegister?relay
        FUNCTION ??afRegister?relay,00H
        EXTERN ??afSetMatch?relay
        FUNCTION ??afSetMatch?relay,00H
        EXTERN ??nwkNeighborInitTable?relay
        FUNCTION ??nwkNeighborInitTable?relay,00H
        EXTERN ??nwkNeighborRemove?relay
        FUNCTION ??nwkNeighborRemove?relay,00H
        EXTERN ??nwk_ExtPANIDValid?relay
        FUNCTION ??nwk_ExtPANIDValid?relay,00H
        EXTERN ??nwk_getNwkDescList?relay
        FUNCTION ??nwk_getNwkDescList?relay,00H
        EXTERN ??osal_get_timeoutEx?relay
        FUNCTION ??osal_get_timeoutEx?relay,00H
        EXTERN ??osal_mem_alloc?relay
        FUNCTION ??osal_mem_alloc?relay,00H
        EXTERN ??osal_mem_free?relay
        FUNCTION ??osal_mem_free?relay,00H
        EXTERN ??osal_memcpy?relay
        FUNCTION ??osal_memcpy?relay,00H
        EXTERN ??osal_memset?relay
        FUNCTION ??osal_memset?relay,00H
        EXTERN ??osal_msg_allocate?relay
        FUNCTION ??osal_msg_allocate?relay,00H
        EXTERN ??osal_msg_deallocate?relay
        FUNCTION ??osal_msg_deallocate?relay,00H
        EXTERN ??osal_msg_receive?relay
        FUNCTION ??osal_msg_receive?relay,00H
        EXTERN ??osal_msg_send?relay
        FUNCTION ??osal_msg_send?relay,00H
        EXTERN ??osal_nv_item_init?relay
        FUNCTION ??osal_nv_item_init?relay,00H
        EXTERN ??osal_nv_read?relay
        FUNCTION ??osal_nv_read?relay,00H
        EXTERN ??osal_nv_write?relay
        FUNCTION ??osal_nv_write?relay,00H
        EXTERN ??osal_pwrmgr_device?relay
        FUNCTION ??osal_pwrmgr_device?relay,00H
        EXTERN ??osal_rand?relay
        FUNCTION ??osal_rand?relay,00H
        EXTERN ??osal_set_event?relay
        FUNCTION ??osal_set_event?relay,00H
        EXTERN ??osal_start_timerEx?relay
        FUNCTION ??osal_start_timerEx?relay,00H
        EXTERN ??osal_stop_timerEx?relay
        FUNCTION ??osal_stop_timerEx?relay,00H
        EXTERN ??sAddrExtCmp?relay
        FUNCTION ??sAddrExtCmp?relay,00H
        EXTERN ??sAddrExtCpy?relay
        FUNCTION ??sAddrExtCpy?relay,00H
        EXTERN ??zgInitItems?relay
        FUNCTION ??zgInitItems?relay,00H
        EXTERN ??zgReadStartupOptions?relay
        FUNCTION ??zgReadStartupOptions?relay,00H
        EXTERN ??zgWriteStartupOptions?relay
        FUNCTION ??zgWriteStartupOptions?relay,00H
        EXTERN AIB_apsUseExtendedPANID
        EXTERN AIB_apsUseInsecureJoin
        EXTERN APSME_HoldDataRequests
        FUNCTION APSME_HoldDataRequests,0202H
        ARGFRAME ISTACK, 0, STACK
        ARGFRAME PSTACK, 0, STACK
        ARGFRAME XSTACK, 10, STACK
        ARGFRAME IOVERLAY, 0, STATIC
        ARGFRAME DOVERLAY, 0, STATIC
        EXTERN HalLedBlink
        FUNCTION HalLedBlink,0202H
        ARGFRAME ISTACK, 0, STACK
        ARGFRAME PSTACK, 0, STACK
        ARGFRAME XSTACK, 9, STACK
        ARGFRAME IOVERLAY, 0, STATIC
        ARGFRAME DOVERLAY, 0, STATIC
        EXTERN HalLedSet
        FUNCTION HalLedSet,0202H
        ARGFRAME ISTACK, 0, STACK
        ARGFRAME PSTACK, 0, STACK
        ARGFRAME XSTACK, 14, STACK
        ARGFRAME IOVERLAY, 0, STATIC
        ARGFRAME DOVERLAY, 0, STATIC
        EXTERN NLME_GetCoordShortAddr
        FUNCTION NLME_GetCoordShortAddr,0202H
        ARGFRAME ISTACK, 0, STACK
        ARGFRAME PSTACK, 0, STACK
        ARGFRAME XSTACK, 10, STACK
        ARGFRAME IOVERLAY, 0, STATIC
        ARGFRAME DOVERLAY, 0, STATIC
        EXTERN NLME_GetEnergyThreshold
        FUNCTION NLME_GetEnergyThreshold,0202H
        ARGFRAME ISTACK, 2, STACK
        ARGFRAME PSTACK, 0, STACK
        ARGFRAME XSTACK, 0, STACK
        ARGFRAME IOVERLAY, 0, STATIC
        ARGFRAME DOVERLAY, 0, STATIC
        EXTERN NLME_GetExtAddr
        FUNCTION NLME_GetExtAddr,0202H
        ARGFRAME ISTACK, 0, STACK
        ARGFRAME PSTACK, 0, STACK
        ARGFRAME XSTACK, 10, STACK
        ARGFRAME IOVERLAY, 0, STATIC
        ARGFRAME DOVERLAY, 0, STATIC
        EXTERN NLME_GetShortAddr
        FUNCTION NLME_GetShortAddr,0202H
        ARGFRAME ISTACK, 0, STACK
        ARGFRAME PSTACK, 0, STACK
        ARGFRAME XSTACK, 12, STACK
        ARGFRAME IOVERLAY, 0, STATIC
        ARGFRAME DOVERLAY, 0, STATIC
        EXTERN NLME_InitNV
        FUNCTION NLME_InitNV,0202H
        ARGFRAME ISTACK, 0, STACK
        ARGFRAME PSTACK, 0, STACK
        ARGFRAME XSTACK, 9, STACK
        ARGFRAME IOVERLAY, 0, STATIC
        ARGFRAME DOVERLAY, 0, STATIC
        EXTERN NLME_JoinRequest
        FUNCTION NLME_JoinRequest,0202H
        ARGFRAME ISTACK, 0, STACK
        ARGFRAME PSTACK, 0, STACK
        ARGFRAME XSTACK, 16, STACK
        ARGFRAME IOVERLAY, 0, STATIC
        ARGFRAME DOVERLAY, 0, STATIC
        EXTERN NLME_NetworkDiscoveryRequest
        FUNCTION NLME_NetworkDiscoveryRequest,0202H
        ARGFRAME ISTACK, 0, STACK
        ARGFRAME PSTACK, 0, STACK
        ARGFRAME XSTACK, 12, STACK
        ARGFRAME IOVERLAY, 0, STATIC
        ARGFRAME DOVERLAY, 0, STATIC
        EXTERN NLME_NwkDiscTerm
        FUNCTION NLME_NwkDiscTerm,0202H
        ARGFRAME ISTACK, 0, STACK
        ARGFRAME PSTACK, 0, STACK
        ARGFRAME XSTACK, 12, STACK
        ARGFRAME IOVERLAY, 0, STATIC
        ARGFRAME DOVERLAY, 0, STATIC
        EXTERN NLME_ReJoinRequest
        FUNCTION NLME_ReJoinRequest,0202H
        ARGFRAME ISTACK, 0, STACK
        ARGFRAME PSTACK, 0, STACK
        ARGFRAME XSTACK, 11, STACK
        ARGFRAME IOVERLAY, 0, STATIC
        ARGFRAME DOVERLAY, 0, STATIC
        EXTERN NLME_RestoreFromNV
        FUNCTION NLME_RestoreFromNV,0202H
        ARGFRAME ISTACK, 0, STACK
        ARGFRAME PSTACK, 0, STACK
        ARGFRAME XSTACK, 9, STACK
        ARGFRAME IOVERLAY, 0, STATIC
        ARGFRAME DOVERLAY, 0, STATIC
        EXTERN NLME_SetBroadcastFilter
        FUNCTION NLME_SetBroadcastFilter,0202H
        ARGFRAME ISTACK, 0, STACK
        ARGFRAME PSTACK, 0, STACK
        ARGFRAME XSTACK, 12, STACK
        ARGFRAME IOVERLAY, 0, STATIC
        ARGFRAME DOVERLAY, 0, STATIC
        EXTERN NLME_SetEnergyThreshold
        FUNCTION NLME_SetEnergyThreshold,0202H
        ARGFRAME ISTACK, 2, STACK
        ARGFRAME PSTACK, 0, STACK
        ARGFRAME XSTACK, 0, STACK
        ARGFRAME IOVERLAY, 0, STATIC
        ARGFRAME DOVERLAY, 0, STATIC
        EXTERN NLME_SetPollRate
        FUNCTION NLME_SetPollRate,0202H
        ARGFRAME ISTACK, 2, STACK
        ARGFRAME PSTACK, 0, STACK
        ARGFRAME XSTACK, 12, STACK
        ARGFRAME IOVERLAY, 0, STATIC
        ARGFRAME DOVERLAY, 0, STATIC
        EXTERN NLME_SetQueuedPollRate
        FUNCTION NLME_SetQueuedPollRate,0202H
        ARGFRAME ISTACK, 0, STACK
        ARGFRAME PSTACK, 0, STACK
        ARGFRAME XSTACK, 12, STACK
        ARGFRAME IOVERLAY, 0, STATIC
        ARGFRAME DOVERLAY, 0, STATIC
        EXTERN NLME_SetResponseRate
        FUNCTION NLME_SetResponseRate,0202H
        ARGFRAME ISTACK, 0, STACK
        ARGFRAME PSTACK, 0, STACK
        ARGFRAME XSTACK, 12, STACK
        ARGFRAME IOVERLAY, 0, STATIC
        ARGFRAME DOVERLAY, 0, STATIC
        EXTERN NWK_TaskID
        EXTERN NwkDescList
        EXTERN Onboard_soft_reset
        FUNCTION Onboard_soft_reset,0202H
        ARGFRAME ISTACK, 0, STACK
        ARGFRAME PSTACK, 0, STACK
        ARGFRAME XSTACK, 12, STACK
        ARGFRAME IOVERLAY, 0, STATIC
        ARGFRAME DOVERLAY, 0, STATIC
        EXTERN RTG_MTORouteReq
        FUNCTION RTG_MTORouteReq,0202H
        ARGFRAME ISTACK, 2, STACK
        ARGFRAME PSTACK, 0, STACK
        ARGFRAME XSTACK, 0, STACK
        ARGFRAME IOVERLAY, 0, STATIC
        ARGFRAME DOVERLAY, 0, STATIC
        EXTERN RTG_RemoveRtgEntry
        FUNCTION RTG_RemoveRtgEntry,0202H
        ARGFRAME ISTACK, 0, STACK
        ARGFRAME PSTACK, 0, STACK
        ARGFRAME XSTACK, 20, STACK
        ARGFRAME IOVERLAY, 0, STATIC
        ARGFRAME DOVERLAY, 0, STATIC
        EXTERN SSP_ReadNwkActiveKey
        FUNCTION SSP_ReadNwkActiveKey,0202H
        ARGFRAME ISTACK, 0, STACK
        ARGFRAME PSTACK, 0, STACK
        ARGFRAME XSTACK, 33, STACK
        ARGFRAME IOVERLAY, 0, STATIC
        ARGFRAME DOVERLAY, 0, STATIC
        EXTERN ZDConfig_InitDescriptors
        FUNCTION ZDConfig_InitDescriptors,0202H
        ARGFRAME ISTACK, 0, STACK
        ARGFRAME PSTACK, 0, STACK
        ARGFRAME XSTACK, 12, STACK
        ARGFRAME IOVERLAY, 0, STATIC
        ARGFRAME DOVERLAY, 0, STATIC
        EXTERN ZDO_Config_Node_Descriptor
        EXTERN ZDO_Init
        FUNCTION ZDO_Init,0202H
        ARGFRAME ISTACK, 0, STACK
        ARGFRAME PSTACK, 0, STACK
        ARGFRAME XSTACK, 9, STACK
        ARGFRAME IOVERLAY, 0, STATIC
        ARGFRAME DOVERLAY, 0, STATIC
        EXTERN ZDO_ParseAddrRsp
        FUNCTION ZDO_ParseAddrRsp,0202H
        ARGFRAME ISTACK, 0, STACK
        ARGFRAME PSTACK, 0, STACK
        ARGFRAME XSTACK, 31, STACK
        ARGFRAME IOVERLAY, 0, STATIC
        ARGFRAME DOVERLAY, 0, STATIC
        EXTERN ZDO_ParseBindUnbindReq
        FUNCTION ZDO_ParseBindUnbindReq,0202H
        ARGFRAME ISTACK, 0, STACK
        ARGFRAME PSTACK, 0, STACK
        ARGFRAME XSTACK, 31, STACK
        ARGFRAME IOVERLAY, 0, STATIC
        ARGFRAME DOVERLAY, 0, STATIC
        EXTERN ZDO_ProcessBindUnbindReq
        FUNCTION ZDO_ProcessBindUnbindReq,0202H
        ARGFRAME ISTACK, 0, STACK
        ARGFRAME PSTACK, 0, STACK
        ARGFRAME XSTACK, 31, STACK
        ARGFRAME IOVERLAY, 0, STATIC
        ARGFRAME DOVERLAY, 0, STATIC
        EXTERN ZDO_RegisterForZDOMsg
        FUNCTION ZDO_RegisterForZDOMsg,0202H
        ARGFRAME ISTACK, 2, STACK
        ARGFRAME PSTACK, 0, STACK
        ARGFRAME XSTACK, 0, STACK
        ARGFRAME IOVERLAY, 0, STATIC
        ARGFRAME DOVERLAY, 0, STATIC
        EXTERN ZDO_StartDevice
        FUNCTION ZDO_StartDevice,0202H
        ARGFRAME ISTACK, 0, STACK
        ARGFRAME PSTACK, 0, STACK
        ARGFRAME XSTACK, 12, STACK
        ARGFRAME IOVERLAY, 0, STATIC
        ARGFRAME DOVERLAY, 0, STATIC
        EXTERN ZDO_UpdateAddrManager
        FUNCTION ZDO_UpdateAddrManager,0202H
        ARGFRAME ISTACK, 0, STACK
        ARGFRAME PSTACK, 0, STACK
        ARGFRAME XSTACK, 31, STACK
        ARGFRAME IOVERLAY, 0, STATIC
        ARGFRAME DOVERLAY, 0, STATIC
        EXTERN ZDO_UpdateNwkStatus
        FUNCTION ZDO_UpdateNwkStatus,0202H
        ARGFRAME ISTACK, 0, STACK
        ARGFRAME PSTACK, 0, STACK
        ARGFRAME XSTACK, 12, STACK
        ARGFRAME IOVERLAY, 0, STATIC
        ARGFRAME DOVERLAY, 0, STATIC
        EXTERN ZDP_DeviceAnnce
        FUNCTION ZDP_DeviceAnnce,0202H
        ARGFRAME ISTACK, 0, STACK
        ARGFRAME PSTACK, 0, STACK
        ARGFRAME XSTACK, 11, STACK
        ARGFRAME IOVERLAY, 0, STATIC
        ARGFRAME DOVERLAY, 0, STATIC
        EXTERN ZDP_GenericRsp
        FUNCTION ZDP_GenericRsp,0202H
        ARGFRAME ISTACK, 0, STACK
        ARGFRAME PSTACK, 0, STACK
        ARGFRAME XSTACK, 14, STACK
        ARGFRAME IOVERLAY, 0, STATIC
        ARGFRAME DOVERLAY, 0, STATIC
        EXTERN ZDP_IncomingData
        FUNCTION ZDP_IncomingData,0202H
        ARGFRAME ISTACK, 0, STACK
        ARGFRAME PSTACK, 0, STACK
        ARGFRAME XSTACK, 11, STACK
        ARGFRAME IOVERLAY, 0, STATIC
        ARGFRAME DOVERLAY, 0, STATIC
        EXTERN ZDSecMgrAddrClear
        FUNCTION ZDSecMgrAddrClear,0202H
        ARGFRAME ISTACK, 0, STACK
        ARGFRAME PSTACK, 0, STACK
        ARGFRAME XSTACK, 20, STACK
        ARGFRAME IOVERLAY, 0, STATIC
        ARGFRAME DOVERLAY, 0, STATIC
        EXTERN ZDSecMgrDeviceRemoveByExtAddr
        FUNCTION ZDSecMgrDeviceRemoveByExtAddr,0202H
        ARGFRAME ISTACK, 0, STACK
        ARGFRAME PSTACK, 0, STACK
        ARGFRAME XSTACK, 20, STACK
        ARGFRAME IOVERLAY, 0, STATIC
        ARGFRAME DOVERLAY, 0, STATIC
        EXTERN ZDSecMgrInit
        FUNCTION ZDSecMgrInit,0202H
        ARGFRAME ISTACK, 0, STACK
        ARGFRAME PSTACK, 0, STACK
        ARGFRAME XSTACK, 12, STACK
        ARGFRAME IOVERLAY, 0, STATIC
        ARGFRAME DOVERLAY, 0, STATIC
        EXTERN ZDSecMgrSaveTCLinkKey
        FUNCTION ZDSecMgrSaveTCLinkKey,0202H
        ARGFRAME ISTACK, 0, STACK
        ARGFRAME PSTACK, 0, STACK
        ARGFRAME XSTACK, 9, STACK
        ARGFRAME IOVERLAY, 0, STATIC
        ARGFRAME DOVERLAY, 0, STATIC
        EXTERN ZDSecMgrSwitchKeyInd
        FUNCTION ZDSecMgrSwitchKeyInd,0202H
        ARGFRAME ISTACK, 2, STACK
        ARGFRAME PSTACK, 0, STACK
        ARGFRAME XSTACK, 0, STACK
        ARGFRAME IOVERLAY, 0, STATIC
        ARGFRAME DOVERLAY, 0, STATIC
        EXTERN ZDSecMgrTransportKeyInd
        FUNCTION ZDSecMgrTransportKeyInd,0202H
        ARGFRAME ISTACK, 2, STACK
        ARGFRAME PSTACK, 0, STACK
        ARGFRAME XSTACK, 0, STACK
        ARGFRAME IOVERLAY, 0, STATIC
        ARGFRAME DOVERLAY, 0, STATIC
        EXTERN ZMacSetReq
        FUNCTION ZMacSetReq,0202H
        ARGFRAME ISTACK, 0, STACK
        ARGFRAME PSTACK, 0, STACK
        ARGFRAME XSTACK, 12, STACK
        ARGFRAME IOVERLAY, 0, STATIC
        ARGFRAME DOVERLAY, 0, STATIC
        EXTERN _NIB
        EXTERN afRegister
        FUNCTION afRegister,0202H
        ARGFRAME ISTACK, 0, STACK
        ARGFRAME PSTACK, 0, STACK
        ARGFRAME XSTACK, 9, STACK
        ARGFRAME IOVERLAY, 0, STATIC
        ARGFRAME DOVERLAY, 0, STATIC
        EXTERN afSetMatch
        FUNCTION afSetMatch,0202H
        ARGFRAME ISTACK, 0, STACK
        ARGFRAME PSTACK, 0, STACK
        ARGFRAME XSTACK, 9, STACK
        ARGFRAME IOVERLAY, 0, STATIC
        ARGFRAME DOVERLAY, 0, STATIC
        EXTERN epList
        EXTERN gMIN_TREE_LINK_COST
        EXTERN nwkFrameCounter
        EXTERN nwkNeighborInitTable
        FUNCTION nwkNeighborInitTable,0202H
        ARGFRAME ISTACK, 0, STACK
        ARGFRAME PSTACK, 0, STACK
        ARGFRAME XSTACK, 12, STACK
        ARGFRAME IOVERLAY, 0, STATIC
        ARGFRAME DOVERLAY, 0, STATIC
        EXTERN nwkNeighborRemove
        FUNCTION nwkNeighborRemove,0202H
        ARGFRAME ISTACK, 0, STACK
        ARGFRAME PSTACK, 0, STACK
        ARGFRAME XSTACK, 20, STACK
        ARGFRAME IOVERLAY, 0, STATIC
        ARGFRAME DOVERLAY, 0, STATIC
        EXTERN nwk_ExtPANIDValid
        FUNCTION nwk_ExtPANIDValid,0202H
        ARGFRAME ISTACK, 2, STACK
        ARGFRAME PSTACK, 0, STACK
        ARGFRAME XSTACK, 14, STACK
        ARGFRAME IOVERLAY, 0, STATIC
        ARGFRAME DOVERLAY, 0, STATIC
        EXTERN nwk_getNwkDescList
        FUNCTION nwk_getNwkDescList,0202H
        ARGFRAME ISTACK, 0, STACK
        ARGFRAME PSTACK, 0, STACK
        ARGFRAME XSTACK, 14, STACK
        ARGFRAME IOVERLAY, 0, STATIC
        ARGFRAME DOVERLAY, 0, STATIC
        EXTERN osal_get_timeoutEx
        FUNCTION osal_get_timeoutEx,0202H
        ARGFRAME ISTACK, 2, STACK
        ARGFRAME PSTACK, 0, STACK
        ARGFRAME XSTACK, 0, STACK
        ARGFRAME IOVERLAY, 0, STATIC
        ARGFRAME DOVERLAY, 0, STATIC
        EXTERN osal_mem_alloc
        FUNCTION osal_mem_alloc,0202H
        ARGFRAME ISTACK, 0, STACK
        ARGFRAME PSTACK, 0, STACK
        ARGFRAME XSTACK, 14, STACK
        ARGFRAME IOVERLAY, 0, STATIC
        ARGFRAME DOVERLAY, 0, STATIC
        EXTERN osal_mem_free
        FUNCTION osal_mem_free,0202H
        ARGFRAME ISTACK, 0, STACK
        ARGFRAME PSTACK, 0, STACK
        ARGFRAME XSTACK, 31, STACK
        ARGFRAME IOVERLAY, 0, STATIC
        ARGFRAME DOVERLAY, 0, STATIC
        EXTERN osal_memcpy
        FUNCTION osal_memcpy,0202H
        ARGFRAME ISTACK, 0, STACK
        ARGFRAME PSTACK, 0, STACK
        ARGFRAME XSTACK, 23, STACK
        ARGFRAME IOVERLAY, 0, STATIC
        ARGFRAME DOVERLAY, 0, STATIC
        EXTERN osal_memset
        FUNCTION osal_memset,0202H
        ARGFRAME ISTACK, 0, STACK
        ARGFRAME PSTACK, 0, STACK
        ARGFRAME XSTACK, 33, STACK
        ARGFRAME IOVERLAY, 0, STATIC
        ARGFRAME DOVERLAY, 0, STATIC
        EXTERN osal_msg_allocate
        FUNCTION osal_msg_allocate,0202H
        ARGFRAME ISTACK, 0, STACK
        ARGFRAME PSTACK, 0, STACK
        ARGFRAME XSTACK, 16, STACK
        ARGFRAME IOVERLAY, 0, STATIC
        ARGFRAME DOVERLAY, 0, STATIC
        EXTERN osal_msg_deallocate
        FUNCTION osal_msg_deallocate,0202H
        ARGFRAME ISTACK, 0, STACK
        ARGFRAME PSTACK, 0, STACK
        ARGFRAME XSTACK, 12, STACK
        ARGFRAME IOVERLAY, 0, STATIC
        ARGFRAME DOVERLAY, 0, STATIC
        EXTERN osal_msg_receive
        FUNCTION osal_msg_receive,0202H
        ARGFRAME ISTACK, 0, STACK
        ARGFRAME PSTACK, 0, STACK
        ARGFRAME XSTACK, 12, STACK
        ARGFRAME IOVERLAY, 0, STATIC
        ARGFRAME DOVERLAY, 0, STATIC
        EXTERN osal_msg_send
        FUNCTION osal_msg_send,0202H
        ARGFRAME ISTACK, 0, STACK
        ARGFRAME PSTACK, 0, STACK
        ARGFRAME XSTACK, 16, STACK
        ARGFRAME IOVERLAY, 0, STATIC
        ARGFRAME DOVERLAY, 0, STATIC
        EXTERN osal_nv_item_init
        FUNCTION osal_nv_item_init,0202H
        ARGFRAME ISTACK, 0, STACK
        ARGFRAME PSTACK, 0, STACK
        ARGFRAME XSTACK, 29, STACK
        ARGFRAME IOVERLAY, 0, STATIC
        ARGFRAME DOVERLAY, 0, STATIC
        EXTERN osal_nv_read
        FUNCTION osal_nv_read,0202H
        ARGFRAME ISTACK, 0, STACK
        ARGFRAME PSTACK, 0, STACK
        ARGFRAME XSTACK, 37, STACK
        ARGFRAME IOVERLAY, 0, STATIC
        ARGFRAME DOVERLAY, 0, STATIC
        EXTERN osal_nv_write
        FUNCTION osal_nv_write,0202H
        ARGFRAME ISTACK, 0, STACK
        ARGFRAME PSTACK, 0, STACK
        ARGFRAME XSTACK, 37, STACK
        ARGFRAME IOVERLAY, 0, STATIC
        ARGFRAME DOVERLAY, 0, STATIC
        EXTERN osal_pwrmgr_device
        FUNCTION osal_pwrmgr_device,0202H
        ARGFRAME ISTACK, 2, STACK
        ARGFRAME PSTACK, 0, STACK
        ARGFRAME XSTACK, 0, STACK
        ARGFRAME IOVERLAY, 0, STATIC
        ARGFRAME DOVERLAY, 0, STATIC
        EXTERN osal_rand
        FUNCTION osal_rand,0202H
        ARGFRAME ISTACK, 0, STACK
        ARGFRAME PSTACK, 0, STACK
        ARGFRAME XSTACK, 12, STACK
        ARGFRAME IOVERLAY, 0, STATIC
        ARGFRAME DOVERLAY, 0, STATIC
        EXTERN osal_set_event
        FUNCTION osal_set_event,0202H
        ARGFRAME ISTACK, 2, STACK
        ARGFRAME PSTACK, 0, STACK
        ARGFRAME XSTACK, 12, STACK
        ARGFRAME IOVERLAY, 0, STATIC
        ARGFRAME DOVERLAY, 0, STATIC
        EXTERN osal_start_timerEx
        FUNCTION osal_start_timerEx,0202H
        ARGFRAME ISTACK, 2, STACK
        ARGFRAME PSTACK, 0, STACK
        ARGFRAME XSTACK, 12, STACK
        ARGFRAME IOVERLAY, 0, STATIC
        ARGFRAME DOVERLAY, 0, STATIC
        EXTERN osal_stop_timerEx
        FUNCTION osal_stop_timerEx,0202H
        ARGFRAME ISTACK, 2, STACK
        ARGFRAME PSTACK, 0, STACK
        ARGFRAME XSTACK, 0, STACK
        ARGFRAME IOVERLAY, 0, STATIC
        ARGFRAME DOVERLAY, 0, STATIC
        EXTERN pbindRemoveDev
        EXTERN sAddrExtCmp
        FUNCTION sAddrExtCmp,0202H
        ARGFRAME ISTACK, 0, STACK
        ARGFRAME PSTACK, 0, STACK
        ARGFRAME XSTACK, 14, STACK
        ARGFRAME IOVERLAY, 0, STATIC
        ARGFRAME DOVERLAY, 0, STATIC
        EXTERN sAddrExtCpy
        FUNCTION sAddrExtCpy,0202H
        ARGFRAME ISTACK, 0, STACK
        ARGFRAME PSTACK, 0, STACK
        ARGFRAME XSTACK, 14, STACK
        ARGFRAME IOVERLAY, 0, STATIC
        ARGFRAME DOVERLAY, 0, STATIC
        EXTERN zgConcentratorEnable
        EXTERN zgConfigPANID
        EXTERN zgDefaultStartingScanDuration
        EXTERN zgDeviceLogicalType
        EXTERN zgInitItems
        FUNCTION zgInitItems,0202H
        ARGFRAME ISTACK, 0, STACK
        ARGFRAME PSTACK, 0, STACK
        ARGFRAME XSTACK, 12, STACK
        ARGFRAME IOVERLAY, 0, STATIC
        ARGFRAME DOVERLAY, 0, STATIC
        EXTERN zgReadStartupOptions
        FUNCTION zgReadStartupOptions,0202H
        ARGFRAME ISTACK, 0, STACK
        ARGFRAME PSTACK, 0, STACK
        ARGFRAME XSTACK, 9, STACK
        ARGFRAME IOVERLAY, 0, STATIC
        ARGFRAME DOVERLAY, 0, STATIC
        EXTERN zgStackProfile
        EXTERN zgWriteStartupOptions
        FUNCTION zgWriteStartupOptions,0202H
        ARGFRAME ISTACK, 0, STACK
        ARGFRAME PSTACK, 0, STACK
        ARGFRAME XSTACK, 12, STACK
        ARGFRAME IOVERLAY, 0, STATIC
        ARGFRAME DOVERLAY, 0, STATIC

// D:\简宝山\寿县17-09-01 25\程序\无线节点程序\code\Components\stack\zdo\ZDApp.c
//    1 /**************************************************************************************************
//    2   Filename:       ZDApp.c
//    3   Revised:        $Date: 2012-02-16 16:04:32 -0800 (Thu, 16 Feb 2012) $
//    4   Revision:       $Revision: 29348 $
//    5 
//    6   Description:    This file contains the interface to the Zigbee Device Application. This is the
//    7                   Application part that the user can change. This also contains the Task functions.
//    8 
//    9 
//   10   Copyright 2004-2012 Texas Instruments Incorporated. All rights reserved.
//   11 
//   12   IMPORTANT: Your use of this Software is limited to those specific rights
//   13   granted under the terms of a software license agreement between the user
//   14   who downloaded the software, his/her employer (which must be your employer)
//   15   and Texas Instruments Incorporated (the "License").  You may not use this
//   16   Software unless you agree to abide by the terms of the License. The License
//   17   limits your use, and you acknowledge, that the Software may not be modified,
//   18   copied or distributed unless embedded on a Texas Instruments microcontroller
//   19   or used solely and exclusively in conjunction with a Texas Instruments radio
//   20   frequency transceiver, which is integrated into your product.  Other than for
//   21   the foregoing purpose, you may not use, reproduce, copy, prepare derivative
//   22   works of, modify, distribute, perform, display or sell this Software and/or
//   23   its documentation for any purpose.
//   24 
//   25   YOU FURTHER ACKNOWLEDGE AND AGREE THAT THE SOFTWARE AND DOCUMENTATION ARE
//   26   PROVIDED AS IS WITHOUT WARRANTY OF ANY KIND, EITHER EXPRESS OR IMPLIED,
//   27   INCLUDING WITHOUT LIMITATION, ANY WARRANTY OF MERCHANTABILITY, TITLE,
//   28   NON-INFRINGEMENT AND FITNESS FOR A PARTICULAR PURPOSE. IN NO EVENT SHALL
//   29   TEXAS INSTRUMENTS OR ITS LICENSORS BE LIABLE OR OBLIGATED UNDER CONTRACT,
//   30   NEGLIGENCE, STRICT LIABILITY, CONTRIBUTION, BREACH OF WARRANTY, OR OTHER
//   31   LEGAL EQUITABLE THEORY ANY DIRECT OR INDIRECT DAMAGES OR EXPENSES
//   32   INCLUDING BUT NOT LIMITED TO ANY INCIDENTAL, SPECIAL, INDIRECT, PUNITIVE
//   33   OR CONSEQUENTIAL DAMAGES, LOST PROFITS OR LOST DATA, COST OF PROCUREMENT
//   34   OF SUBSTITUTE GOODS, TECHNOLOGY, SERVICES, OR ANY CLAIMS BY THIRD PARTIES
//   35   (INCLUDING BUT NOT LIMITED TO ANY DEFENSE THEREOF), OR OTHER SIMILAR COSTS.
//   36 
//   37   Should you have any questions regarding your right to use this Software,
//   38   contact Texas Instruments Incorporated at www.TI.com.
//   39 **************************************************************************************************/
//   40 
//   41 /*********************************************************************
//   42  * INCLUDES
//   43  */
//   44 
//   45 #include "ZComDef.h"
//   46 #include "ZMac.h"
//   47 #include "OSAL.h"
//   48 #include "OSAL_Tasks.h"
//   49 #include "OSAL_PwrMgr.h"
//   50 #include "OSAL_Nv.h"
//   51 #include "AF.h"
//   52 #include "APSMEDE.h"
//   53 #include "NLMEDE.h"
//   54 #include "AddrMgr.h"
//   55 #include "ZDProfile.h"
//   56 #include "ZDObject.h"
//   57 #include "ZDConfig.h"
//   58 #include "ZDSecMgr.h"
//   59 #include "ZDApp.h"
//   60 #include "DebugTrace.h"
//   61 #include "nwk_util.h"
//   62 #include "OnBoard.h"
//   63 #include "ZGlobals.h"
//   64 #include "ZDNwkMgr.h"
//   65 #include "rtg.h"
//   66 
//   67 #include "ssp.h"
//   68 
//   69 /* HAL */
//   70 #include "hal_led.h"
//   71 #include "hal_lcd.h"
//   72 #include "hal_key.h"
//   73 
//   74 #if defined( MT_MAC_FUNC ) || defined( MT_MAC_CB_FUNC )
//   75   #error "ERROR! MT_MAC functionalities should be disabled on ZDO devices"
//   76 #endif
//   77 
//   78 /*********************************************************************
//   79  * CONSTANTS
//   80  */
//   81 
//   82 #if !defined( NWK_START_DELAY )
//   83   #define NWK_START_DELAY             100   // in milliseconds
//   84 #endif
//   85 
//   86 #if !defined( LEAVE_RESET_DELAY )
//   87   #define LEAVE_RESET_DELAY           5000  // in milliseconds
//   88 #endif
//   89 
//   90 // Init ZDO, but hold and wait for application to start the joining or
//   91 // forming network
//   92 #define ZDO_INIT_HOLD_NWK_START       0xFFFF
//   93 
//   94 #if !defined( EXTENDED_JOINING_RANDOM_MASK )
//   95   #define EXTENDED_JOINING_RANDOM_MASK 0x007F
//   96 #endif
//   97 
//   98 #if !defined( BEACON_REQUEST_DELAY )
//   99   #define BEACON_REQUEST_DELAY        100   // in milliseconds
//  100 #endif
//  101 
//  102 #if !defined( BEACON_REQ_DELAY_MASK )
//  103   #define BEACON_REQ_DELAY_MASK       0x007F
//  104 #endif
//  105 
//  106 #define MAX_RESUME_RETRY            3
//  107 
//  108 #define MAX_DEVICE_UNAUTH_TIMEOUT   5000  // 5 seconds
//  109 
//  110 // Beacon Order Settings (see NLMEDE.h)
//  111 #define DEFAULT_BEACON_ORDER        BEACON_ORDER_NO_BEACONS
//  112 #define DEFAULT_SUPERFRAME_ORDER    DEFAULT_BEACON_ORDER
//  113 
//  114 #if !defined( MAX_NWK_FRAMECOUNTER_CHANGES )
//  115   // The number of times the frame counter can change before
//  116   // saving to NV
//  117   #define MAX_NWK_FRAMECOUNTER_CHANGES    1000
//  118 #endif
//  119 
//  120 // Leave control bits
//  121 #define ZDAPP_LEAVE_CTRL_INIT 0
//  122 #define ZDAPP_LEAVE_CTRL_SET  1
//  123 #define ZDAPP_LEAVE_CTRL_RA   2
//  124 
//  125 // Address Manager Stub Implementation
//  126 #define ZDApp_NwkWriteNVRequest AddrMgrWriteNVRequest
//  127 
//  128 
//  129 #if !defined ZDO_NV_SAVE_RFDs
//  130 #define ZDO_NV_SAVE_RFDs  TRUE
//  131 #endif
//  132 
//  133 // Delay time before updating NWK NV data to force fewer writes during high activity.
//  134 #if ZDO_NV_SAVE_RFDs
//  135 #define ZDAPP_UPDATE_NWK_NV_TIME 700
//  136 #else
//  137 #define ZDAPP_UPDATE_NWK_NV_TIME 65000
//  138 #endif
//  139 
//  140 /*********************************************************************
//  141  * GLOBAL VARIABLES
//  142  */
//  143 
//  144 #if defined( LCD_SUPPORTED )
//  145   uint8 MatchRsps = 0;
//  146 #endif
//  147 

        RSEG XDATA_I:XDATA:NOROOT(0)
//  148 uint8 zdoDiscCounter = 1;
zdoDiscCounter:
        DATA8
        DS 1
        REQUIRE `?<Initializer for zdoDiscCounter>`
        REQUIRE __INIT_XDATA_I
//  149 

        RSEG XDATA_Z:XDATA:NOROOT(0)
        DATA8
//  150 zAddrType_t ZDAppNwkAddr;
ZDAppNwkAddr:
        DS 9
        REQUIRE __INIT_XDATA_Z
//  151 

        RSEG XDATA_Z:XDATA:NOROOT(0)
        DATA8
//  152 uint8 zdappMgmtNwkDiscRspTransSeq;
zdappMgmtNwkDiscRspTransSeq:
        DS 1
        REQUIRE __INIT_XDATA_Z

        RSEG XDATA_Z:XDATA:NOROOT(0)
        DATA8
//  153 uint8 zdappMgmtNwkDiscReqInProgress = FALSE;
zdappMgmtNwkDiscReqInProgress:
        DS 1
        REQUIRE __INIT_XDATA_Z

        RSEG XDATA_Z:XDATA:NOROOT(0)
        DATA8
//  154 zAddrType_t zdappMgmtNwkDiscRspAddr;
zdappMgmtNwkDiscRspAddr:
        DS 9
        REQUIRE __INIT_XDATA_Z

        RSEG XDATA_Z:XDATA:NOROOT(0)
        DATA8
//  155 uint8 zdappMgmtNwkDiscStartIndex;
zdappMgmtNwkDiscStartIndex:
        DS 1
        REQUIRE __INIT_XDATA_Z

        RSEG XDATA_Z:XDATA:NOROOT(0)
        DATA8
//  156 uint8 zdappMgmtSavedNwkState;
zdappMgmtSavedNwkState:
        DS 1
        REQUIRE __INIT_XDATA_Z
//  157 

        RSEG XDATA_Z:XDATA:NOROOT(0)
        DATA16
//  158 uint16 nwkFrameCounterChanges = 0;
nwkFrameCounterChanges:
        DS 2
        REQUIRE __INIT_XDATA_Z

        RSEG XDATA_I:XDATA:NOROOT(0)
//  159 uint8 continueJoining = TRUE;
continueJoining:
        DATA8
        DS 1
        REQUIRE `?<Initializer for continueJoining>`
        REQUIRE __INIT_XDATA_I
//  160 

        RSEG XDATA_Z:XDATA:NOROOT(0)
        DATA8
//  161 uint8  _tmpRejoinState;
_tmpRejoinState:
        DS 1
        REQUIRE __INIT_XDATA_Z
//  162 
//  163 // The extended PanID used in ZDO layer for rejoin.

        RSEG XDATA_Z:XDATA:NOROOT(0)
        DATA8
//  164 uint8 ZDO_UseExtendedPANID[Z_EXTADDR_LEN];
ZDO_UseExtendedPANID:
        DS 8
        REQUIRE __INIT_XDATA_Z
//  165 

        RSEG XDATA_Z:XDATA:NOROOT(0)
        DATA8
//  166 pfnZdoCb zdoCBFunc[MAX_ZDO_CB_FUNC];
zdoCBFunc:
        DS 14
        REQUIRE __INIT_XDATA_Z
//  167 
//  168 /*********************************************************************
//  169  * EXTERNAL VARIABLES
//  170  */
//  171 
//  172 /*********************************************************************
//  173  * EXTERNAL FUNCTIONS
//  174  */
//  175 
//  176 /*********************************************************************
//  177  * LOCAL FUNCTIONS
//  178  */
//  179 
//  180 void ZDApp_NetworkStartEvt( void );
//  181 void ZDApp_DeviceAuthEvt( void );
//  182 void ZDApp_SaveNetworkStateEvt( void );
//  183 
//  184 uint8 ZDApp_ReadNetworkRestoreState( void );
//  185 uint8 ZDApp_RestoreNetworkState( void );
//  186 void ZDAppDetermineDeviceType( void );
//  187 void ZDApp_InitUserDesc( void );
//  188 void ZDAppCheckForHoldKey( void );
//  189 void ZDApp_ProcessOSALMsg( osal_event_hdr_t *msgPtr );
//  190 void ZDApp_ProcessNetworkJoin( void );
//  191 void ZDApp_SetCoordAddress( uint8 endPoint, uint8 dstEP );
//  192 uint8 ZDApp_RestoreNwkKey( void );
//  193 networkDesc_t* ZDApp_NwkDescListProcessing(void);
//  194 
//  195 void ZDApp_SecInit( uint8 state );
//  196 UINT16 ZDApp_ProcessSecEvent( uint8 task_id, UINT16 events );
//  197 void ZDApp_ProcessSecMsg( osal_event_hdr_t *msgPtr );
//  198 
//  199 void ZDApp_SendMsg( uint8 taskID, uint8 cmd, uint8 len, uint8 *buf );
//  200 
//  201 void ZDApp_ResetTimerStart( uint16 delay );
//  202 void ZDApp_ResetTimerCancel( void );
//  203 void ZDApp_LeaveCtrlInit( void );
//  204 void ZDApp_LeaveCtrlSet( uint8 ra );
//  205 uint8 ZDApp_LeaveCtrlBypass( void );
//  206 void ZDApp_LeaveCtrlStartup( devStates_t* state, uint16* startDelay );
//  207 void ZDApp_LeaveUpdate( uint16 nwkAddr, uint8* extAddr,
//  208                         uint8 removeChildren );
//  209 void ZDApp_NodeProfileSync( uint8 stackProfile );
//  210 void ZDApp_ProcessMsgCBs( zdoIncomingMsg_t *inMsg );
//  211 void ZDApp_RegisterCBs( void );
//  212 void ZDApp_InitZdoCBFunc(void);
//  213 
//  214 /*********************************************************************
//  215  * LOCAL VARIABLES
//  216  */
//  217 

        RSEG XDATA_Z:XDATA:NOROOT(0)
        DATA8
//  218 uint8 ZDAppTaskID;
ZDAppTaskID:
        DS 1
        REQUIRE __INIT_XDATA_Z

        RSEG XDATA_Z:XDATA:NOROOT(0)
        DATA8
//  219 uint8 nwkStatus;
nwkStatus:
        DS 1
        REQUIRE __INIT_XDATA_Z

        RSEG XDATA_Z:XDATA:NOROOT(0)
        DATA16
//  220 endPointDesc_t *ZDApp_AutoFindMode_epDesc = (endPointDesc_t *)NULL;
ZDApp_AutoFindMode_epDesc:
        DS 2
        REQUIRE __INIT_XDATA_Z

        RSEG XDATA_Z:XDATA:NOROOT(0)
        DATA8
//  221 uint8 ZDApp_LeaveCtrl;
ZDApp_LeaveCtrl:
        DS 1
        REQUIRE __INIT_XDATA_Z
//  222 
//  223 #if defined( HOLD_AUTO_START )
//  224   devStates_t devState = DEV_HOLD;
//  225 #else

        RSEG XDATA_I:XDATA:NOROOT(0)
//  226   devStates_t devState = DEV_INIT;
devState:
        DATA8
        DS 1
        REQUIRE `?<Initializer for devState>`
        REQUIRE __INIT_XDATA_I
//  227 #endif
//  228 
//  229 #if ( ZG_BUILD_RTRONLY_TYPE ) || ( ZG_BUILD_ENDDEVICE_TYPE )

        RSEG XDATA_Z:XDATA:NOROOT(0)
        DATA8
//  230   devStartModes_t devStartMode = MODE_JOIN;     // Assume joining
devStartMode:
        DS 1
        REQUIRE __INIT_XDATA_Z
//  231   //devStartModes_t devStartMode = MODE_RESUME; // if already "directly joined"
//  232                         // to parent. Set to make the device do an Orphan scan.
//  233 #else
//  234   // Set the default to coodinator
//  235   devStartModes_t devStartMode = MODE_HARD;
//  236 #endif
//  237 

        RSEG XDATA_Z:XDATA:NOROOT(0)
        DATA8
//  238 uint8 retryCnt;
retryCnt:
        DS 1
        REQUIRE __INIT_XDATA_Z
//  239 

        RSEG XDATA_I:XDATA:NOROOT(0)
//  240 endPointDesc_t ZDApp_epDesc =
ZDApp_epDesc:
        DATA8
        DS 6
        REQUIRE `?<Initializer for ZDApp_epDesc>`
        REQUIRE __INIT_XDATA_I
//  241 {
//  242   ZDO_EP,
//  243   &ZDAppTaskID,
//  244   (SimpleDescriptionFormat_t *)NULL,  // No Simple description for ZDO
//  245   (afNetworkLatencyReq_t)0            // No Network Latency req
//  246 };
//  247 

        RSEG XDATA_I:XDATA:NOROOT(0)
//  248 uint16 ZDApp_SavedPollRate = POLL_RATE;
ZDApp_SavedPollRate:
        DATA16
        DS 2
        REQUIRE `?<Initializer for ZDApp_SavedPollRate>`
        REQUIRE __INIT_XDATA_I
//  249 
//  250 /*********************************************************************
//  251  * @fn      ZDApp_Init
//  252  *
//  253  * @brief   ZDApp Initialization function.
//  254  *
//  255  * @param   task_id - ZDApp Task ID
//  256  *
//  257  * @return  None
//  258  */

        RSEG BANKED_CODE:CODE:NOROOT(0)
//  259 void ZDApp_Init( uint8 task_id )
ZDApp_Init:
          CFI Block cfiBlock0 Using cfiCommon0
          CFI Function ZDApp_Init
        CODE
//  260 {
        FUNCALL ZDApp_Init, NLME_GetExtAddr
        LOCFRAME ISTACK, 0, STACK
        LOCFRAME PSTACK, 0, STACK
        LOCFRAME XSTACK, 9, STACK
        LOCFRAME IOVERLAY, 0, STATIC
        LOCFRAME DOVERLAY, 0, STATIC
        ARGFRAME ISTACK, 0, STACK
        ARGFRAME PSTACK, 0, STACK
        ARGFRAME XSTACK, 9, STACK
        ARGFRAME IOVERLAY, 0, STATIC
        ARGFRAME DOVERLAY, 0, STATIC
        FUNCALL ZDApp_Init, ZDO_Init
        LOCFRAME ISTACK, 0, STACK
        LOCFRAME PSTACK, 0, STACK
        LOCFRAME XSTACK, 9, STACK
        LOCFRAME IOVERLAY, 0, STATIC
        LOCFRAME DOVERLAY, 0, STATIC
        ARGFRAME ISTACK, 0, STACK
        ARGFRAME PSTACK, 0, STACK
        ARGFRAME XSTACK, 9, STACK
        ARGFRAME IOVERLAY, 0, STATIC
        ARGFRAME DOVERLAY, 0, STATIC
        FUNCALL ZDApp_Init, afRegister
        LOCFRAME ISTACK, 0, STACK
        LOCFRAME PSTACK, 0, STACK
        LOCFRAME XSTACK, 9, STACK
        LOCFRAME IOVERLAY, 0, STATIC
        LOCFRAME DOVERLAY, 0, STATIC
        ARGFRAME ISTACK, 0, STACK
        ARGFRAME PSTACK, 0, STACK
        ARGFRAME XSTACK, 9, STACK
        ARGFRAME IOVERLAY, 0, STATIC
        ARGFRAME DOVERLAY, 0, STATIC
        FUNCALL ZDApp_Init, ZDOInitDevice
        LOCFRAME ISTACK, 0, STACK
        LOCFRAME PSTACK, 0, STACK
        LOCFRAME XSTACK, 9, STACK
        LOCFRAME IOVERLAY, 0, STATIC
        LOCFRAME DOVERLAY, 0, STATIC
        ARGFRAME ISTACK, 0, STACK
        ARGFRAME PSTACK, 0, STACK
        ARGFRAME XSTACK, 9, STACK
        ARGFRAME IOVERLAY, 0, STATIC
        ARGFRAME DOVERLAY, 0, STATIC
        FUNCALL ZDApp_Init, ZDOInitDevice
        LOCFRAME ISTACK, 0, STACK
        LOCFRAME PSTACK, 0, STACK
        LOCFRAME XSTACK, 9, STACK
        LOCFRAME IOVERLAY, 0, STATIC
        LOCFRAME DOVERLAY, 0, STATIC
        ARGFRAME ISTACK, 0, STACK
        ARGFRAME PSTACK, 0, STACK
        ARGFRAME XSTACK, 9, STACK
        ARGFRAME IOVERLAY, 0, STATIC
        ARGFRAME DOVERLAY, 0, STATIC
        FUNCALL ZDApp_Init, HalLedBlink
        LOCFRAME ISTACK, 0, STACK
        LOCFRAME PSTACK, 0, STACK
        LOCFRAME XSTACK, 9, STACK
        LOCFRAME IOVERLAY, 0, STATIC
        LOCFRAME DOVERLAY, 0, STATIC
        ARGFRAME ISTACK, 0, STACK
        ARGFRAME PSTACK, 0, STACK
        ARGFRAME XSTACK, 9, STACK
        ARGFRAME IOVERLAY, 0, STATIC
        ARGFRAME DOVERLAY, 0, STATIC
        FUNCALL ZDApp_Init, ZDApp_InitZdoCBFunc
        LOCFRAME ISTACK, 0, STACK
        LOCFRAME PSTACK, 0, STACK
        LOCFRAME XSTACK, 9, STACK
        LOCFRAME IOVERLAY, 0, STATIC
        LOCFRAME DOVERLAY, 0, STATIC
        ARGFRAME ISTACK, 0, STACK
        ARGFRAME PSTACK, 0, STACK
        ARGFRAME XSTACK, 9, STACK
        ARGFRAME IOVERLAY, 0, STATIC
        ARGFRAME DOVERLAY, 0, STATIC
        FUNCALL ZDApp_Init, ZDApp_RegisterCBs
        LOCFRAME ISTACK, 0, STACK
        LOCFRAME PSTACK, 0, STACK
        LOCFRAME XSTACK, 9, STACK
        LOCFRAME IOVERLAY, 0, STATIC
        LOCFRAME DOVERLAY, 0, STATIC
        ARGFRAME ISTACK, 0, STACK
        ARGFRAME PSTACK, 0, STACK
        ARGFRAME XSTACK, 9, STACK
        ARGFRAME IOVERLAY, 0, STATIC
        ARGFRAME DOVERLAY, 0, STATIC
        MOV     A,#-0x9
        LCALL   ?BANKED_ENTER_XDATA
          CFI DPH0 load(1, XDATA, add(CFA_XSP16, literal(-1)))
          CFI DPL0 load(1, XDATA, add(CFA_XSP16, literal(-2)))
          CFI ?BRET_EXT load(1, XDATA, add(CFA_XSP16, literal(-3)))
          CFI ?RET_HIGH load(1, XDATA, add(CFA_XSP16, literal(-4)))
          CFI ?RET_LOW load(1, XDATA, add(CFA_XSP16, literal(-5)))
          CFI R7 load(1, XDATA, add(CFA_XSP16, literal(-6)))
          CFI V0 load(1, XDATA, add(CFA_XSP16, literal(-7)))
          CFI VB load(1, XDATA, add(CFA_XSP16, literal(-8)))
          CFI R6 load(1, XDATA, add(CFA_XSP16, literal(-9)))
          CFI CFA_SP SP+0
          CFI CFA_XSP16 add(XSP16, 9)
        ; Saved register size: 9
        ; Auto size: 0
        MOV     A,R1
//  261   // Save the task ID
//  262   ZDAppTaskID = task_id;
        MOV     DPTR,#ZDAppTaskID
        MOVX    @DPTR,A
//  263 
//  264   // Initialize the ZDO global device short address storage
//  265   ZDAppNwkAddr.addrMode = Addr16Bit;//点播模式
        MOV     DPTR,#ZDAppNwkAddr + 8
        MOV     A,#0x2
        MOVX    @DPTR,A
//  266   ZDAppNwkAddr.addr.shortAddr = INVALID_NODE_ADDR;//无效节点地址
        MOV     DPTR,#ZDAppNwkAddr
        MOV     A,#-0x2
        MOVX    @DPTR,A
        INC     DPTR
        INC     A
        MOVX    @DPTR,A
//  267   (void)NLME_GetExtAddr();  // Load the saveExtAddr pointer.
        ; Setup parameters for call to function NLME_GetExtAddr
        LCALL   ??NLME_GetExtAddr?relay; Banked call to: NLME_GetExtAddr
//  268 
//  269   // Check for manual "Hold Auto Start"
//  270   ZDAppCheckForHoldKey();
//  271 
//  272   // Initialize ZDO items and setup the device - type of device to create.
//  273   ZDO_Init();
        ; Setup parameters for call to function ZDO_Init
        LCALL   ??ZDO_Init?relay     ; Banked call to: ZDO_Init
//  274 
//  275   // Register the endpoint description with the AF
//  276   // This task doesn't have a Simple description, but we still need
//  277   // to register the endpoint.
//  278   afRegister( (endPointDesc_t *)&ZDApp_epDesc );
        ; Setup parameters for call to function afRegister
        MOV     R2,#ZDApp_epDesc & 0xff
        MOV     R3,#(ZDApp_epDesc >> 8) & 0xff
        LCALL   ??afRegister?relay   ; Banked call to: afRegister
//  279 
//  280 #if defined( ZDO_USERDESC_RESPONSE )
//  281   ZDApp_InitUserDesc();
//  282 #endif // ZDO_USERDESC_RESPONSE
//  283 
//  284   // Start the device?
//  285   if ( devState != DEV_HOLD )//devState初始值为DEV_INIT，即在初始化ZDA层时，就执行该条语句
        MOV     DPTR,#devState
        MOVX    A,@DPTR
        JZ      ??ZDApp_Init_0
//  286   {
//  287     ZDOInitDevice( 0 );//设备初始化
        ; Setup parameters for call to function ZDOInitDevice
        MOV     R2,#0x0
        MOV     R3,#0x0
        LCALL   ??ZDOInitDevice?relay; Banked call to: ZDOInitDevice
        SJMP    ??ZDApp_Init_1
//  288   }
//  289   else
//  290   {
//  291     ZDOInitDevice( ZDO_INIT_HOLD_NWK_START );
??ZDApp_Init_0:
        ; Setup parameters for call to function ZDOInitDevice
        MOV     R2,#-0x1
        MOV     R3,#-0x1
        LCALL   ??ZDOInitDevice?relay; Banked call to: ZDOInitDevice
//  292     // Blink LED to indicate HOLD_START
//  293     HalLedBlink ( HAL_LED_4, 0, 50, 500 );
        ; Setup parameters for call to function HalLedBlink
        MOV     R4,#-0xc
        MOV     R5,#0x1
        MOV     R3,#0x32
        MOV     R2,#0x0
        MOV     R1,#0x8
        LCALL   ??HalLedBlink?relay  ; Banked call to: HalLedBlink
//  294   }
//  295 
//  296   // Initialize the ZDO callback function pointers zdoCBFunc[]
//  297   ZDApp_InitZdoCBFunc();
??ZDApp_Init_1:
        ; Setup parameters for call to function ZDApp_InitZdoCBFunc
        LCALL   ??ZDApp_InitZdoCBFunc?relay; Banked call to: ZDApp_InitZdoCBFunc
//  298 
//  299   ZDApp_RegisterCBs();
        ; Setup parameters for call to function ZDApp_RegisterCBs
        LCALL   ??ZDApp_RegisterCBs?relay; Banked call to: ZDApp_RegisterCBs
//  300 } /* ZDApp_Init() */
        LJMP    ??Subroutine42_0 & 0xFFFF
          CFI EndBlock cfiBlock0
//  301 
//  302 /*********************************************************************
//  303  * @fn          ZDApp_SecInit
//  304  *
//  305  * @brief       ZDApp initialize security.
//  306  *
//  307  * @param       state - device initialization state
//  308  *
//  309  * @return      none
//  310  */

        RSEG BANKED_CODE:CODE:NOROOT(0)
//  311 void ZDApp_SecInit( uint8 state )
ZDApp_SecInit:
          CFI Block cfiBlock1 Using cfiCommon0
          CFI Function ZDApp_SecInit
        CODE
//  312 {
        FUNCALL ZDApp_SecInit, ZDSecMgrInit
        LOCFRAME ISTACK, 0, STACK
        LOCFRAME PSTACK, 0, STACK
        LOCFRAME XSTACK, 9, STACK
        LOCFRAME IOVERLAY, 0, STATIC
        LOCFRAME DOVERLAY, 0, STATIC
        ARGFRAME ISTACK, 0, STACK
        ARGFRAME PSTACK, 0, STACK
        ARGFRAME XSTACK, 9, STACK
        ARGFRAME IOVERLAY, 0, STATIC
        ARGFRAME DOVERLAY, 0, STATIC
        MOV     A,#-0x9
        LCALL   ?BANKED_ENTER_XDATA
          CFI DPH0 load(1, XDATA, add(CFA_XSP16, literal(-1)))
          CFI DPL0 load(1, XDATA, add(CFA_XSP16, literal(-2)))
          CFI ?BRET_EXT load(1, XDATA, add(CFA_XSP16, literal(-3)))
          CFI ?RET_HIGH load(1, XDATA, add(CFA_XSP16, literal(-4)))
          CFI ?RET_LOW load(1, XDATA, add(CFA_XSP16, literal(-5)))
          CFI R7 load(1, XDATA, add(CFA_XSP16, literal(-6)))
          CFI V0 load(1, XDATA, add(CFA_XSP16, literal(-7)))
          CFI VB load(1, XDATA, add(CFA_XSP16, literal(-8)))
          CFI R6 load(1, XDATA, add(CFA_XSP16, literal(-9)))
          CFI CFA_SP SP+0
          CFI CFA_XSP16 add(XSP16, 9)
        ; Saved register size: 9
        ; Auto size: 0
//  313   uint8 zgPreConfigKey[SEC_KEY_LEN];
//  314 
//  315   if ( ZG_SECURE_ENABLED && ZG_BUILD_COORDINATOR_TYPE && ZG_DEVICE_COORDINATOR_TYPE )
//  316   {
//  317     // Set the Trust Center bit
//  318     ZDO_Config_Node_Descriptor.ServerMask |= PRIM_TRUST_CENTER;
//  319   }
//  320 
//  321   if ( ZG_CHECK_SECURITY_MODE == ZG_SECURITY_PRO_HIGH )
//  322   {
//  323     ZDO_Config_Node_Descriptor.CapabilityFlags |= CAPINFO_SECURITY_CAPABLE;
//  324   }
//  325 
//  326   // Initialize ZigBee Device Security Manager
//  327   ZDSecMgrInit(state);
        ; Setup parameters for call to function ZDSecMgrInit
        LCALL   ??ZDSecMgrInit?relay ; Banked call to: ZDSecMgrInit
//  328 
//  329   if ( ZG_SECURE_ENABLED )
//  330   {
//  331     if ( state != ZDO_INITDEV_RESTORED_NETWORK_STATE )
//  332     {
//  333       nwkFrameCounter = 0;
//  334 
//  335       if( _NIB.nwkKeyLoaded == FALSE )
//  336       {
//  337         if ( ( ZG_BUILD_COORDINATOR_TYPE && ZG_DEVICE_COORDINATOR_TYPE          ) ||
//  338              ( ( zgSecurityMode == ZG_SECURITY_RESIDENTIAL ) && zgPreConfigKeys )    )
//  339         {
//  340             ZDSecMgrReadKeyFromNv(ZCD_NV_PRECFGKEY, zgPreConfigKey);
//  341             SSP_UpdateNwkKey( zgPreConfigKey, 0);
//  342             SSP_SwitchNwkKey( 0 );
//  343 
//  344             // clear local copy of key
//  345             osal_memset(zgPreConfigKey, 0x00, SEC_KEY_LEN);
//  346         }
//  347       }
//  348     }
//  349   }
//  350 }
        LJMP    ??Subroutine42_0 & 0xFFFF
          CFI EndBlock cfiBlock1
//  351 
//  352 /*********************************************************************
//  353  * @fn      ZDApp_event_loop()
//  354  *
//  355  * @brief   Main event loop for Zigbee device objects task. This function
//  356  *          should be called at periodic intervals.
//  357  *
//  358  * @param   task_id - Task ID
//  359  * @param   events  - Bitmap of events
//  360  *
//  361  * @return  none
//  362  */

        RSEG BANKED_CODE:CODE:NOROOT(0)
//  363 UINT16 ZDApp_event_loop( uint8 task_id, UINT16 events )
ZDApp_event_loop:
          CFI Block cfiBlock2 Using cfiCommon0
          CFI Function ZDApp_event_loop
        CODE
//  364 {
        FUNCALL ZDApp_event_loop, osal_set_event
        LOCFRAME ISTACK, 0, STACK
        LOCFRAME PSTACK, 0, STACK
        LOCFRAME XSTACK, 12, STACK
        LOCFRAME IOVERLAY, 0, STATIC
        LOCFRAME DOVERLAY, 0, STATIC
        ARGFRAME ISTACK, 0, STACK
        ARGFRAME PSTACK, 0, STACK
        ARGFRAME XSTACK, 12, STACK
        ARGFRAME IOVERLAY, 0, STATIC
        ARGFRAME DOVERLAY, 0, STATIC
        FUNCALL ZDApp_event_loop, ZDO_StartDevice
        LOCFRAME ISTACK, 0, STACK
        LOCFRAME PSTACK, 0, STACK
        LOCFRAME XSTACK, 12, STACK
        LOCFRAME IOVERLAY, 0, STATIC
        LOCFRAME DOVERLAY, 0, STATIC
        ARGFRAME ISTACK, 0, STACK
        ARGFRAME PSTACK, 0, STACK
        ARGFRAME XSTACK, 12, STACK
        ARGFRAME IOVERLAY, 0, STATIC
        ARGFRAME DOVERLAY, 0, STATIC
        FUNCALL ZDApp_event_loop, ZDApp_ProcessOSALMsg
        LOCFRAME ISTACK, 0, STACK
        LOCFRAME PSTACK, 0, STACK
        LOCFRAME XSTACK, 12, STACK
        LOCFRAME IOVERLAY, 0, STATIC
        LOCFRAME DOVERLAY, 0, STATIC
        ARGFRAME ISTACK, 0, STACK
        ARGFRAME PSTACK, 0, STACK
        ARGFRAME XSTACK, 12, STACK
        ARGFRAME IOVERLAY, 0, STATIC
        ARGFRAME DOVERLAY, 0, STATIC
        FUNCALL ZDApp_event_loop, osal_msg_deallocate
        LOCFRAME ISTACK, 0, STACK
        LOCFRAME PSTACK, 0, STACK
        LOCFRAME XSTACK, 12, STACK
        LOCFRAME IOVERLAY, 0, STATIC
        LOCFRAME DOVERLAY, 0, STATIC
        ARGFRAME ISTACK, 0, STACK
        ARGFRAME PSTACK, 0, STACK
        ARGFRAME XSTACK, 12, STACK
        ARGFRAME IOVERLAY, 0, STATIC
        ARGFRAME DOVERLAY, 0, STATIC
        FUNCALL ZDApp_event_loop, osal_msg_receive
        LOCFRAME ISTACK, 0, STACK
        LOCFRAME PSTACK, 0, STACK
        LOCFRAME XSTACK, 12, STACK
        LOCFRAME IOVERLAY, 0, STATIC
        LOCFRAME DOVERLAY, 0, STATIC
        ARGFRAME ISTACK, 0, STACK
        ARGFRAME PSTACK, 0, STACK
        ARGFRAME XSTACK, 12, STACK
        ARGFRAME IOVERLAY, 0, STATIC
        ARGFRAME DOVERLAY, 0, STATIC
        FUNCALL ZDApp_event_loop, ZDO_UpdateNwkStatus
        LOCFRAME ISTACK, 0, STACK
        LOCFRAME PSTACK, 0, STACK
        LOCFRAME XSTACK, 12, STACK
        LOCFRAME IOVERLAY, 0, STATIC
        LOCFRAME DOVERLAY, 0, STATIC
        ARGFRAME ISTACK, 0, STACK
        ARGFRAME PSTACK, 0, STACK
        ARGFRAME XSTACK, 12, STACK
        ARGFRAME IOVERLAY, 0, STATIC
        ARGFRAME DOVERLAY, 0, STATIC
        FUNCALL ZDApp_event_loop, osal_start_timerEx
        LOCFRAME ISTACK, 0, STACK
        LOCFRAME PSTACK, 0, STACK
        LOCFRAME XSTACK, 12, STACK
        LOCFRAME IOVERLAY, 0, STATIC
        LOCFRAME DOVERLAY, 0, STATIC
        ARGFRAME ISTACK, 0, STACK
        ARGFRAME PSTACK, 0, STACK
        ARGFRAME XSTACK, 12, STACK
        ARGFRAME IOVERLAY, 0, STATIC
        ARGFRAME DOVERLAY, 0, STATIC
        FUNCALL ZDApp_event_loop, zgWriteStartupOptions
        LOCFRAME ISTACK, 0, STACK
        LOCFRAME PSTACK, 0, STACK
        LOCFRAME XSTACK, 12, STACK
        LOCFRAME IOVERLAY, 0, STATIC
        LOCFRAME DOVERLAY, 0, STATIC
        ARGFRAME ISTACK, 0, STACK
        ARGFRAME PSTACK, 0, STACK
        ARGFRAME XSTACK, 12, STACK
        ARGFRAME IOVERLAY, 0, STATIC
        ARGFRAME DOVERLAY, 0, STATIC
        FUNCALL ZDApp_event_loop, Onboard_soft_reset
        LOCFRAME ISTACK, 0, STACK
        LOCFRAME PSTACK, 0, STACK
        LOCFRAME XSTACK, 12, STACK
        LOCFRAME IOVERLAY, 0, STATIC
        LOCFRAME DOVERLAY, 0, STATIC
        ARGFRAME ISTACK, 0, STACK
        ARGFRAME PSTACK, 0, STACK
        ARGFRAME XSTACK, 12, STACK
        ARGFRAME IOVERLAY, 0, STATIC
        ARGFRAME DOVERLAY, 0, STATIC
        REQUIRE ?V0
        REQUIRE ?V1
        REQUIRE ?V2
        REQUIRE ?V3
        MOV     A,#-0xc
        LCALL   ?BANKED_ENTER_XDATA
          CFI DPH0 load(1, XDATA, add(CFA_XSP16, literal(-1)))
          CFI DPL0 load(1, XDATA, add(CFA_XSP16, literal(-2)))
          CFI ?BRET_EXT load(1, XDATA, add(CFA_XSP16, literal(-3)))
          CFI ?RET_HIGH load(1, XDATA, add(CFA_XSP16, literal(-4)))
          CFI ?RET_LOW load(1, XDATA, add(CFA_XSP16, literal(-5)))
          CFI R7 load(1, XDATA, add(CFA_XSP16, literal(-6)))
          CFI V3 load(1, XDATA, add(CFA_XSP16, literal(-7)))
          CFI V2 load(1, XDATA, add(CFA_XSP16, literal(-8)))
          CFI V1 load(1, XDATA, add(CFA_XSP16, literal(-9)))
          CFI V0 load(1, XDATA, add(CFA_XSP16, literal(-10)))
          CFI VB load(1, XDATA, add(CFA_XSP16, literal(-11)))
          CFI R6 load(1, XDATA, add(CFA_XSP16, literal(-12)))
          CFI CFA_SP SP+0
          CFI CFA_XSP16 add(XSP16, 12)
        ; Saved register size: 12
        ; Auto size: 0
        MOV     A,R2
        MOV     R6,A
        MOV     A,R3
        MOV     R7,A
//  365   uint8 *msg_ptr;
//  366 
//  367   if ( events & SYS_EVENT_MSG )
        ANL     A,#0x80
        JNZ     ??ZDApp_event_loop_0
//  368   {
//  369     while ( (msg_ptr = osal_msg_receive( ZDAppTaskID )) )
//  370     {
//  371       ZDApp_ProcessOSALMsg( (osal_event_hdr_t *)msg_ptr );
//  372 
//  373       // Release the memory
//  374       osal_msg_deallocate( msg_ptr );
//  375     }
//  376 
//  377     // Return unprocessed events
//  378     return (events ^ SYS_EVENT_MSG);
//  379   }
//  380 
//  381   if ( events & ZDO_NETWORK_INIT )  //网络初始化事件处理
        MOV     A,R6
        MOV     C,0xE0 /* A   */.0
        JNC     ??ZDApp_event_loop_1
//  382   {
//  383     // Initialize apps and start the network
//  384     devState = DEV_INIT;
        MOV     DPTR,#devState
        MOV     A,#0x1
        LCALL   ??Subroutine37_0 & 0xFFFF
//  385     osal_set_event( ZDAppTaskID, ZDO_STATE_CHANGE_EVT );
??CrossCallReturnLabel_48:
        LCALL   ??osal_set_event?relay; Banked call to: osal_set_event
//  386 
//  387     //设备逻辑类型，启动模式，信标时间，超帧长度，启动设备
//  388     ZDO_StartDevice( (uint8)ZDO_Config_Node_Descriptor.LogicalType, devStartMode,
//  389                      DEFAULT_BEACON_ORDER, DEFAULT_SUPERFRAME_ORDER );
        ; Setup parameters for call to function ZDO_StartDevice
        MOV     R4,#0xf
        MOV     R3,#0xf
        MOV     DPTR,#devStartMode
        MOVX    A,@DPTR
        MOV     R2,A
        MOV     DPTR,#ZDO_Config_Node_Descriptor
        MOVX    A,@DPTR
        ANL     A,#0x7
        MOV     R1,A
        LCALL   ??ZDO_StartDevice?relay; Banked call to: ZDO_StartDevice
//  390 
//  391     // Return unprocessed events
//  392     return (events ^ ZDO_NETWORK_INIT);
        MOV     A,R6
        XRL     A,#0x1
        SJMP    ??ZDApp_event_loop_2
//  393   }
??ZDApp_event_loop_3:
        ; Setup parameters for call to function ZDApp_ProcessOSALMsg
        LCALL   ??ZDApp_ProcessOSALMsg?relay; Banked call to: ZDApp_ProcessOSALMsg
        ; Setup parameters for call to function osal_msg_deallocate
        MOV     R2,?V0
        MOV     R3,?V1
        LCALL   ??osal_msg_deallocate?relay; Banked call to: osal_msg_deallocate
??ZDApp_event_loop_0:
        ; Setup parameters for call to function osal_msg_receive
        MOV     DPTR,#ZDAppTaskID
        MOVX    A,@DPTR
        MOV     R1,A
        LCALL   ??osal_msg_receive?relay; Banked call to: osal_msg_receive
        MOV     ?V0,R2
        MOV     ?V1,R3
        MOV     A,R2
        ORL     A,?V1
        JNZ     ??ZDApp_event_loop_3
        MOV     A,R6
        MOV     R2,A
        MOV     A,R7
        XRL     A,#0x80
        SJMP    ??ZDApp_event_loop_4
//  394 
//  395   if ( ZSTACK_ROUTER_BUILD )
//  396   {
//  397     if ( events & ZDO_NETWORK_START )
//  398     {
//  399       ZDApp_NetworkStartEvt();
//  400 
//  401       // Return unprocessed events
//  402       return (events ^ ZDO_NETWORK_START);
//  403     }
//  404 
//  405     if ( events & ZDO_ROUTER_START )
//  406     {
//  407       if ( nwkStatus == ZSuccess )
//  408       {
//  409         if ( devState == DEV_END_DEVICE )
//  410           devState = DEV_ROUTER;
//  411 
//  412         osal_pwrmgr_device( PWRMGR_ALWAYS_ON );
//  413       }
//  414       else
//  415       {
//  416         // remain as end device!!
//  417       }
//  418       osal_set_event( ZDAppTaskID, ZDO_STATE_CHANGE_EVT );
//  419 
//  420       // Return unprocessed events
//  421       return (events ^ ZDO_ROUTER_START);
//  422     }
//  423   }
//  424 
//  425   if ( events & ZDO_STATE_CHANGE_EVT )
??ZDApp_event_loop_1:
        ANL     A,#0x10
        JZ      ??ZDApp_event_loop_5
//  426   {
//  427     ZDO_UpdateNwkStatus( devState );
        ; Setup parameters for call to function ZDO_UpdateNwkStatus
        MOV     DPTR,#devState
        MOVX    A,@DPTR
        MOV     R1,A
        LCALL   ??ZDO_UpdateNwkStatus?relay; Banked call to: ZDO_UpdateNwkStatus
//  428 
//  429     // At start up, do one MTO route discovery if the device is a concentrator
//  430     if ( zgConcentratorEnable == TRUE )
        MOV     DPTR,#zgConcentratorEnable
        MOVX    A,@DPTR
        XRL     A,#0x1
        JNZ     ??ZDApp_event_loop_6
//  431     {
//  432       // Start next event
//  433       osal_start_timerEx( NWK_TaskID, NWK_MTO_RTG_REQ_EVT, 100 );
        ; Setup parameters for call to function osal_start_timerEx
        MOV     R4,#0x64
        MOV     R5,#0x0
        MOV     R2,#0x0
        MOV     R3,#0x8
        MOV     DPTR,#NWK_TaskID
        MOVX    A,@DPTR
        MOV     R1,A
        LCALL   ??osal_start_timerEx?relay; Banked call to: osal_start_timerEx
//  434     }
//  435 
//  436     // Return unprocessed events
//  437     return (events ^ ZDO_STATE_CHANGE_EVT);
??ZDApp_event_loop_6:
        MOV     A,R6
        XRL     A,#0x10
??ZDApp_event_loop_2:
        MOV     R2,A
        MOV     A,R7
        SJMP    ??ZDApp_event_loop_4
//  438   }
//  439 
//  440   if ( events & ZDO_COMMAND_CNF )
??ZDApp_event_loop_5:
        MOV     A,R6
        ANL     A,#0x8
        JZ      ??ZDApp_event_loop_7
//  441   {
//  442     // User defined logic
//  443 
//  444     // Return unprocessed events
//  445     return (events ^ ZDO_COMMAND_CNF);
        MOV     A,R6
        XRL     A,#0x8
        MOV     R2,A
        SJMP    ??ZDApp_event_loop_8
//  446   }
//  447 
//  448   if ( events & ZDO_NWK_UPDATE_NV )
??ZDApp_event_loop_7:
        MOV     A,R7
        ANL     A,#0x2
        JZ      ??ZDApp_event_loop_9
//  449   {
//  450     ZDApp_SaveNetworkStateEvt();
//  451 
//  452     // Return unprocessed events
//  453     return (events ^ ZDO_NWK_UPDATE_NV);
        MOV     A,R7
        XRL     A,#0x2
??ZDApp_event_loop_4:
        MOV     R3,A
        SJMP    ??ZDApp_event_loop_8
//  454   }
//  455 
//  456   if ( events & ZDO_DEVICE_RESET )
??ZDApp_event_loop_9:
        MOV     A,R6
        ANL     A,#0x4
        JZ      ??ZDApp_event_loop_10
//  457   {
//  458 #ifdef ZBA_FALLBACK_NWKKEY
//  459     if ( devState == DEV_END_DEVICE_UNAUTH )
//  460     {
//  461       ZDSecMgrFallbackNwkKey();
//  462     }
//  463     else
//  464 #endif
//  465     {
//  466       // Set the NV startup option to force a "new" join.
//  467       zgWriteStartupOptions( ZG_STARTUP_SET, ZCD_STARTOPT_DEFAULT_NETWORK_STATE );
        ; Setup parameters for call to function zgWriteStartupOptions
        MOV     R2,#0x2
        MOV     R1,#-0x1
        LCALL   ??zgWriteStartupOptions?relay; Banked call to: zgWriteStartupOptions
//  468 
//  469       // The device has been in the UNAUTH state, so reset
//  470       // Note: there will be no return from this call
//  471       SystemResetSoft();
        ; Setup parameters for call to function Onboard_soft_reset
        LCALL   Onboard_soft_reset & 0xFFFF
//  472     }
//  473   }
//  474 
//  475   if ( ZG_SECURE_ENABLED )
//  476   {
//  477     return ( ZDApp_ProcessSecEvent( task_id, events ) );
//  478   }
//  479   else
//  480   {
//  481     // Discard or make more handlers
//  482     return 0;
??ZDApp_event_loop_10:
        MOV     R2,#0x0
        MOV     R3,#0x0
//  483   }
??ZDApp_event_loop_8:
        SJMP    ??Subroutine36_0
          CFI EndBlock cfiBlock2
//  484 }

        RSEG BANKED_CODE:CODE:NOROOT(0)
?Subroutine1:
          CFI Block cfiBlock3 Using cfiCommon0
          CFI NoFunction
          CFI CFA_SP SP+0
          CFI CFA_XSP16 add(XSP16, 33)
          CFI VB load(1, XDATA, add(CFA_XSP16, literal(-11)))
          CFI DPL0 load(1, XDATA, add(CFA_XSP16, literal(-2)))
          CFI DPH0 load(1, XDATA, add(CFA_XSP16, literal(-1)))
          CFI R6 load(1, XDATA, add(CFA_XSP16, literal(-12)))
          CFI R7 load(1, XDATA, add(CFA_XSP16, literal(-6)))
          CFI V0 load(1, XDATA, add(CFA_XSP16, literal(-10)))
          CFI V1 load(1, XDATA, add(CFA_XSP16, literal(-9)))
          CFI V2 load(1, XDATA, add(CFA_XSP16, literal(-8)))
          CFI V3 load(1, XDATA, add(CFA_XSP16, literal(-7)))
          CFI ?BRET_EXT load(1, XDATA, add(CFA_XSP16, literal(-3)))
          CFI ?RET_HIGH load(1, XDATA, add(CFA_XSP16, literal(-4)))
          CFI ?RET_LOW load(1, XDATA, add(CFA_XSP16, literal(-5)))
        MOV     A,#0x15
          CFI EndBlock cfiBlock3
        REQUIRE ??Subroutine35_0
        ; // Fall through to label ??Subroutine35_0

        RSEG BANKED_CODE:CODE:NOROOT(0)
??Subroutine35_0:
          CFI Block cfiBlock4 Using cfiCommon0
          CFI NoFunction
          CFI CFA_SP SP+0
          CFI CFA_XSP16 add(XSP16, 16)
          CFI VB load(1, XDATA, add(CFA_XSP16, literal(-11)))
          CFI DPL0 load(1, XDATA, add(CFA_XSP16, literal(-2)))
          CFI DPH0 load(1, XDATA, add(CFA_XSP16, literal(-1)))
          CFI R6 load(1, XDATA, add(CFA_XSP16, literal(-12)))
          CFI R7 load(1, XDATA, add(CFA_XSP16, literal(-6)))
          CFI V0 load(1, XDATA, add(CFA_XSP16, literal(-10)))
          CFI V1 load(1, XDATA, add(CFA_XSP16, literal(-9)))
          CFI V2 load(1, XDATA, add(CFA_XSP16, literal(-8)))
          CFI V3 load(1, XDATA, add(CFA_XSP16, literal(-7)))
          CFI ?BRET_EXT load(1, XDATA, add(CFA_XSP16, literal(-3)))
          CFI ?RET_HIGH load(1, XDATA, add(CFA_XSP16, literal(-4)))
          CFI ?RET_LOW load(1, XDATA, add(CFA_XSP16, literal(-5)))
          CFI Invalid
        LCALL   ?DEALLOC_XSTACK8
          CFI EndBlock cfiBlock4
        REQUIRE ??Subroutine36_0
        ; // Fall through to label ??Subroutine36_0

        RSEG BANKED_CODE:CODE:NOROOT(0)
??Subroutine36_0:
          CFI Block cfiBlock5 Using cfiCommon0
          CFI NoFunction
          CFI CFA_SP SP+0
          CFI CFA_XSP16 add(XSP16, 12)
          CFI VB load(1, XDATA, add(CFA_XSP16, literal(-11)))
          CFI DPL0 load(1, XDATA, add(CFA_XSP16, literal(-2)))
          CFI DPH0 load(1, XDATA, add(CFA_XSP16, literal(-1)))
          CFI R6 load(1, XDATA, add(CFA_XSP16, literal(-12)))
          CFI R7 load(1, XDATA, add(CFA_XSP16, literal(-6)))
          CFI V0 load(1, XDATA, add(CFA_XSP16, literal(-10)))
          CFI V1 load(1, XDATA, add(CFA_XSP16, literal(-9)))
          CFI V2 load(1, XDATA, add(CFA_XSP16, literal(-8)))
          CFI V3 load(1, XDATA, add(CFA_XSP16, literal(-7)))
          CFI ?BRET_EXT load(1, XDATA, add(CFA_XSP16, literal(-3)))
          CFI ?RET_HIGH load(1, XDATA, add(CFA_XSP16, literal(-4)))
          CFI ?RET_LOW load(1, XDATA, add(CFA_XSP16, literal(-5)))
        MOV     R7,#0x4
        LJMP    ?BANKED_LEAVE_XDATA
          CFI EndBlock cfiBlock5
//  485 
//  486 /*********************************************************************
//  487  * @fn      ZDApp_ProcessSecEvent()
//  488  *
//  489  * @brief   Process incoming security events.
//  490  *
//  491  * @param   task_id - Task ID
//  492  * @param   events  - Bitmap of events
//  493  *
//  494  * @return  none
//  495  */

        RSEG BANKED_CODE:CODE:NOROOT(0)
//  496 UINT16 ZDApp_ProcessSecEvent( uint8 task_id, UINT16 events )
ZDApp_ProcessSecEvent:
          CFI Block cfiBlock6 Using cfiCommon0
          CFI Function ZDApp_ProcessSecEvent
        CODE
//  497 {
        FUNCALL ZDApp_ProcessSecEvent, ZDApp_DeviceAuthEvt
        LOCFRAME ISTACK, 0, STACK
        LOCFRAME PSTACK, 0, STACK
        LOCFRAME XSTACK, 9, STACK
        LOCFRAME IOVERLAY, 0, STATIC
        LOCFRAME DOVERLAY, 0, STATIC
        ARGFRAME ISTACK, 0, STACK
        ARGFRAME PSTACK, 0, STACK
        ARGFRAME XSTACK, 9, STACK
        ARGFRAME IOVERLAY, 0, STATIC
        ARGFRAME DOVERLAY, 0, STATIC
        FUNCALL ZDApp_ProcessSecEvent, ZDApp_SaveNwkKey
        LOCFRAME ISTACK, 0, STACK
        LOCFRAME PSTACK, 0, STACK
        LOCFRAME XSTACK, 9, STACK
        LOCFRAME IOVERLAY, 0, STATIC
        LOCFRAME DOVERLAY, 0, STATIC
        ARGFRAME ISTACK, 0, STACK
        ARGFRAME PSTACK, 0, STACK
        ARGFRAME XSTACK, 9, STACK
        ARGFRAME IOVERLAY, 0, STATIC
        ARGFRAME DOVERLAY, 0, STATIC
        FUNCALL ZDApp_ProcessSecEvent, ZDSecMgrSaveTCLinkKey
        LOCFRAME ISTACK, 0, STACK
        LOCFRAME PSTACK, 0, STACK
        LOCFRAME XSTACK, 9, STACK
        LOCFRAME IOVERLAY, 0, STATIC
        LOCFRAME DOVERLAY, 0, STATIC
        ARGFRAME ISTACK, 0, STACK
        ARGFRAME PSTACK, 0, STACK
        ARGFRAME XSTACK, 9, STACK
        ARGFRAME IOVERLAY, 0, STATIC
        ARGFRAME DOVERLAY, 0, STATIC
        MOV     A,#-0x9
        LCALL   ?BANKED_ENTER_XDATA
          CFI DPH0 load(1, XDATA, add(CFA_XSP16, literal(-1)))
          CFI DPL0 load(1, XDATA, add(CFA_XSP16, literal(-2)))
          CFI ?BRET_EXT load(1, XDATA, add(CFA_XSP16, literal(-3)))
          CFI ?RET_HIGH load(1, XDATA, add(CFA_XSP16, literal(-4)))
          CFI ?RET_LOW load(1, XDATA, add(CFA_XSP16, literal(-5)))
          CFI R7 load(1, XDATA, add(CFA_XSP16, literal(-6)))
          CFI V0 load(1, XDATA, add(CFA_XSP16, literal(-7)))
          CFI VB load(1, XDATA, add(CFA_XSP16, literal(-8)))
          CFI R6 load(1, XDATA, add(CFA_XSP16, literal(-9)))
          CFI CFA_SP SP+0
          CFI CFA_XSP16 add(XSP16, 9)
        ; Saved register size: 9
        ; Auto size: 0
        MOV     A,R2
        MOV     R6,A
        MOV     A,R3
        MOV     R7,A
//  498   (void)task_id;  // Intentionally unreferenced parameter
//  499 
//  500   if ( ZSTACK_ROUTER_BUILD )
//  501   {
//  502     if ( events & ZDO_NEW_DEVICE )
//  503     {
//  504       // process the new device event
//  505       if ( ZDSecMgrNewDeviceEvent() == TRUE )
//  506       {
//  507         osal_start_timerEx( ZDAppTaskID, ZDO_NEW_DEVICE, 1000 );
//  508       }
//  509 
//  510       // Return unprocessed events
//  511       return (events ^ ZDO_NEW_DEVICE);
//  512     }
//  513   }
//  514 
//  515   if ( (ZG_CHECK_SECURITY_MODE == ZG_SECURITY_PRO_HIGH)
//  516       || (ZG_CHECK_SECURITY_MODE == ZG_SECURITY_SE_STANDARD) )
//  517   {
//  518     if ( ZG_BUILD_COORDINATOR_TYPE && ZG_DEVICE_COORDINATOR_TYPE )
//  519     {
//  520       if ( events & ZDO_SECMGR_EVENT )
//  521       {
//  522         ZDSecMgrEvent();
//  523 
//  524         // Return unprocessed events
//  525         return (events ^ ZDO_SECMGR_EVENT);
//  526       }
//  527     }
//  528   }
//  529 
//  530   if ( events & ZDO_DEVICE_AUTH )
        MOV     A,R6
        ANL     A,#0x80
        JZ      ??ZDApp_ProcessSecEvent_0
//  531   {
//  532     ZDApp_DeviceAuthEvt();
        ; Setup parameters for call to function ZDApp_DeviceAuthEvt
        LCALL   ??ZDApp_DeviceAuthEvt?relay; Banked call to: ZDApp_DeviceAuthEvt
//  533 
//  534     // Return unprocessed events
//  535     return (events ^ ZDO_DEVICE_AUTH);
        MOV     A,R6
        XRL     A,#0x80
        MOV     R2,A
        MOV     A,R7
        SJMP    ??ZDApp_ProcessSecEvent_1
//  536   }
//  537 
//  538   if ( events & ZDO_FRAMECOUNTER_CHANGE )
??ZDApp_ProcessSecEvent_0:
        MOV     A,R7
        ANL     A,#0x4
        JZ      ??ZDApp_ProcessSecEvent_2
//  539   {
//  540     if ( nwkFrameCounterChanges++ > MAX_NWK_FRAMECOUNTER_CHANGES )
        MOV     DPTR,#nwkFrameCounterChanges
        LCALL   ??Subroutine43_0 & 0xFFFF
??CrossCallReturnLabel_56:
        MOV     A,R0
        ADD     A,#0x1
        MOV     R2,A
        CLR     A
        ADDC    A,R1
        MOV     R3,A
        MOV     DPTR,#nwkFrameCounterChanges
        LCALL   ??Subroutine48_0 & 0xFFFF
??CrossCallReturnLabel_80:
        CLR     C
        MOV     A,R0
        SUBB    A,#-0x17
        MOV     A,R1
        SUBB    A,#0x3
        JC      ??ZDApp_ProcessSecEvent_3
//  541     {
//  542       ZDApp_SaveNwkKey();
        ; Setup parameters for call to function ZDApp_SaveNwkKey
        LCALL   ??ZDApp_SaveNwkKey?relay; Banked call to: ZDApp_SaveNwkKey
//  543     }
//  544 
//  545     // Return unprocessed events
//  546     return (events ^ ZDO_FRAMECOUNTER_CHANGE);
??ZDApp_ProcessSecEvent_3:
        MOV     A,R6
        MOV     R2,A
        MOV     A,R7
        XRL     A,#0x4
        SJMP    ??ZDApp_ProcessSecEvent_1
//  547   }
//  548 
//  549   if ( events & ZDO_APS_FRAMECOUNTER_CHANGE )
??ZDApp_ProcessSecEvent_2:
        MOV     A,R7
        ANL     A,#0x10
        JZ      ??ZDApp_ProcessSecEvent_4
//  550   {
//  551 #if defined (NV_RESTORE)
//  552     ZDSecMgrSaveApsLinkKey();
//  553 #endif // (NV_RESTORE)
//  554 
//  555     // Return unprocessed events
//  556     return (events ^ ZDO_APS_FRAMECOUNTER_CHANGE);
        MOV     A,R7
        XRL     A,#0x10
        SJMP    ??ZDApp_ProcessSecEvent_1
//  557   }
//  558 
//  559   if ( events & ZDO_TCLK_FRAMECOUNTER_CHANGE )
??ZDApp_ProcessSecEvent_4:
        MOV     A,R7
        ANL     A,#0x8
        JZ      ??ZDApp_ProcessSecEvent_5
//  560   {
//  561     ZDSecMgrSaveTCLinkKey();
        ; Setup parameters for call to function ZDSecMgrSaveTCLinkKey
        LCALL   ??ZDSecMgrSaveTCLinkKey?relay; Banked call to: ZDSecMgrSaveTCLinkKey
//  562 
//  563     // Return unprocessed events
//  564     return (events ^ ZDO_TCLK_FRAMECOUNTER_CHANGE);
        MOV     A,R6
        MOV     R2,A
        MOV     A,R7
        XRL     A,#0x8
??ZDApp_ProcessSecEvent_1:
        MOV     R3,A
        SJMP    ??ZDApp_ProcessSecEvent_6
//  565   }
//  566 
//  567   // Discard or make more handlers
//  568   return 0;
??ZDApp_ProcessSecEvent_5:
        MOV     R2,#0x0
        MOV     R3,#0x0
??ZDApp_ProcessSecEvent_6:
        LJMP    ??Subroutine42_0 & 0xFFFF
          CFI EndBlock cfiBlock6
//  569 }
//  570 
//  571 /*********************************************************************
//  572  * Application Functions
//  573  */
//  574 
//  575 /*********************************************************************
//  576  * @fn      ZDOInitDevice
//  577  *
//  578  * @brief   Start the device in the network.  This function will read
//  579  *   ZCD_NV_STARTUP_OPTION (NV item) to determine whether or not to
//  580  *   restore the network state of the device.
//  581  *在网络里启动设备，根据ZCD_NV_STARTUP_OPTION(NV item) 决定是否保存设备的网络状态
//  582  *
//  583  * @param   startDelay - timeDelay to start device (in milliseconds).
//  584  *                       There is a jitter added to this delay:
//  585  *                       ((NWK_START_DELAY + startDelay)
//  586  *                       + (osal_rand() & EXTENDED_JOINING_RANDOM_MASK))
//  587  *                       When startDelay is set to ZDO_INIT_HOLD_NWK_START
//  588  *                       this function will hold the network init. Application
//  589  *                       can start the device.
//  590  *
//  591  * NOTE:    If the application would like to force a "new" join, the
//  592  *          application should set the ZCD_STARTOPT_DEFAULT_NETWORK_STATE
//  593  *          bit in the ZCD_NV_STARTUP_OPTION NV item before calling
//  594  *          this function. "new" join means to not restore the network
//  595  *          state of the device. Use zgWriteStartupOptions() to set these
//  596  *          options.
//  597  *
//  598  * @return
//  599  *    ZDO_INITDEV_RESTORED_NETWORK_STATE  - The device's network state was
//  600  *          restored.
//  601  *    ZDO_INITDEV_NEW_NETWORK_STATE - The network state was initialized.
//  602  *          This could mean that ZCD_NV_STARTUP_OPTION said to not restore, or
//  603  *          it could mean that there was no network state to restore.
//  604  *    ZDO_INITDEV_LEAVE_NOT_STARTED - Before the reset, a network leave was issued
//  605  *          with the rejoin option set to TRUE.  So, the device was not
//  606  *          started in the network (one time only).  The next time this
//  607  *          function is called it will start.
//  608  */

        RSEG BANKED_CODE:CODE:NOROOT(0)
//  609 uint8 ZDOInitDevice( uint16 startDelay )
ZDOInitDevice:
          CFI Block cfiBlock7 Using cfiCommon0
          CFI Function ZDOInitDevice
        CODE
//  610 {
        FUNCALL ZDOInitDevice, zgInitItems
        LOCFRAME ISTACK, 0, STACK
        LOCFRAME PSTACK, 0, STACK
        LOCFRAME XSTACK, 12, STACK
        LOCFRAME IOVERLAY, 0, STATIC
        LOCFRAME DOVERLAY, 0, STATIC
        ARGFRAME ISTACK, 0, STACK
        ARGFRAME PSTACK, 0, STACK
        ARGFRAME XSTACK, 12, STACK
        ARGFRAME IOVERLAY, 0, STATIC
        ARGFRAME DOVERLAY, 0, STATIC
        FUNCALL ZDOInitDevice, ZDConfig_InitDescriptors
        LOCFRAME ISTACK, 0, STACK
        LOCFRAME PSTACK, 0, STACK
        LOCFRAME XSTACK, 12, STACK
        LOCFRAME IOVERLAY, 0, STATIC
        LOCFRAME DOVERLAY, 0, STATIC
        ARGFRAME ISTACK, 0, STACK
        ARGFRAME PSTACK, 0, STACK
        ARGFRAME XSTACK, 12, STACK
        ARGFRAME IOVERLAY, 0, STATIC
        ARGFRAME DOVERLAY, 0, STATIC
        FUNCALL ZDOInitDevice, ZDAppDetermineDeviceType
        LOCFRAME ISTACK, 0, STACK
        LOCFRAME PSTACK, 0, STACK
        LOCFRAME XSTACK, 12, STACK
        LOCFRAME IOVERLAY, 0, STATIC
        LOCFRAME DOVERLAY, 0, STATIC
        ARGFRAME ISTACK, 0, STACK
        ARGFRAME PSTACK, 0, STACK
        ARGFRAME XSTACK, 12, STACK
        ARGFRAME IOVERLAY, 0, STATIC
        ARGFRAME DOVERLAY, 0, STATIC
        FUNCALL ZDOInitDevice, osal_rand
        LOCFRAME ISTACK, 0, STACK
        LOCFRAME PSTACK, 0, STACK
        LOCFRAME XSTACK, 12, STACK
        LOCFRAME IOVERLAY, 0, STATIC
        LOCFRAME DOVERLAY, 0, STATIC
        ARGFRAME ISTACK, 0, STACK
        ARGFRAME PSTACK, 0, STACK
        ARGFRAME XSTACK, 12, STACK
        ARGFRAME IOVERLAY, 0, STATIC
        ARGFRAME DOVERLAY, 0, STATIC
        FUNCALL ZDOInitDevice, ZDSecMgrInit
        LOCFRAME ISTACK, 0, STACK
        LOCFRAME PSTACK, 0, STACK
        LOCFRAME XSTACK, 12, STACK
        LOCFRAME IOVERLAY, 0, STATIC
        LOCFRAME DOVERLAY, 0, STATIC
        ARGFRAME ISTACK, 0, STACK
        ARGFRAME PSTACK, 0, STACK
        ARGFRAME XSTACK, 12, STACK
        ARGFRAME IOVERLAY, 0, STATIC
        ARGFRAME DOVERLAY, 0, STATIC
        FUNCALL ZDOInitDevice, ZDApp_LeaveCtrlInit
        LOCFRAME ISTACK, 0, STACK
        LOCFRAME PSTACK, 0, STACK
        LOCFRAME XSTACK, 12, STACK
        LOCFRAME IOVERLAY, 0, STATIC
        LOCFRAME DOVERLAY, 0, STATIC
        ARGFRAME ISTACK, 0, STACK
        ARGFRAME PSTACK, 0, STACK
        ARGFRAME XSTACK, 12, STACK
        ARGFRAME IOVERLAY, 0, STATIC
        ARGFRAME DOVERLAY, 0, STATIC
        FUNCALL ZDOInitDevice, ZDApp_LeaveCtrlStartup
        LOCFRAME ISTACK, 0, STACK
        LOCFRAME PSTACK, 0, STACK
        LOCFRAME XSTACK, 12, STACK
        LOCFRAME IOVERLAY, 0, STATIC
        LOCFRAME DOVERLAY, 0, STATIC
        ARGFRAME ISTACK, 0, STACK
        ARGFRAME PSTACK, 0, STACK
        ARGFRAME XSTACK, 12, STACK
        ARGFRAME IOVERLAY, 0, STATIC
        ARGFRAME DOVERLAY, 0, STATIC
        FUNCALL ZDOInitDevice, zgWriteStartupOptions
        LOCFRAME ISTACK, 0, STACK
        LOCFRAME PSTACK, 0, STACK
        LOCFRAME XSTACK, 12, STACK
        LOCFRAME IOVERLAY, 0, STATIC
        LOCFRAME DOVERLAY, 0, STATIC
        ARGFRAME ISTACK, 0, STACK
        ARGFRAME PSTACK, 0, STACK
        ARGFRAME XSTACK, 12, STACK
        ARGFRAME IOVERLAY, 0, STATIC
        ARGFRAME DOVERLAY, 0, STATIC
        FUNCALL ZDOInitDevice, osal_set_event
        LOCFRAME ISTACK, 0, STACK
        LOCFRAME PSTACK, 0, STACK
        LOCFRAME XSTACK, 12, STACK
        LOCFRAME IOVERLAY, 0, STATIC
        LOCFRAME DOVERLAY, 0, STATIC
        ARGFRAME ISTACK, 0, STACK
        ARGFRAME PSTACK, 0, STACK
        ARGFRAME XSTACK, 12, STACK
        ARGFRAME IOVERLAY, 0, STATIC
        ARGFRAME DOVERLAY, 0, STATIC
        FUNCALL ZDOInitDevice, ZDApp_NetworkInit
        LOCFRAME ISTACK, 0, STACK
        LOCFRAME PSTACK, 0, STACK
        LOCFRAME XSTACK, 12, STACK
        LOCFRAME IOVERLAY, 0, STATIC
        LOCFRAME DOVERLAY, 0, STATIC
        ARGFRAME ISTACK, 0, STACK
        ARGFRAME PSTACK, 0, STACK
        ARGFRAME XSTACK, 12, STACK
        ARGFRAME IOVERLAY, 0, STATIC
        ARGFRAME DOVERLAY, 0, STATIC
        FUNCALL ZDOInitDevice, NLME_SetBroadcastFilter
        LOCFRAME ISTACK, 0, STACK
        LOCFRAME PSTACK, 0, STACK
        LOCFRAME XSTACK, 12, STACK
        LOCFRAME IOVERLAY, 0, STATIC
        LOCFRAME DOVERLAY, 0, STATIC
        ARGFRAME ISTACK, 0, STACK
        ARGFRAME PSTACK, 0, STACK
        ARGFRAME XSTACK, 12, STACK
        ARGFRAME IOVERLAY, 0, STATIC
        ARGFRAME DOVERLAY, 0, STATIC
        REQUIRE ?V0
        REQUIRE ?V1
        MOV     A,#-0xa
        LCALL   ?BANKED_ENTER_XDATA
          CFI DPH0 load(1, XDATA, add(CFA_XSP16, literal(-1)))
          CFI DPL0 load(1, XDATA, add(CFA_XSP16, literal(-2)))
          CFI ?BRET_EXT load(1, XDATA, add(CFA_XSP16, literal(-3)))
          CFI ?RET_HIGH load(1, XDATA, add(CFA_XSP16, literal(-4)))
          CFI ?RET_LOW load(1, XDATA, add(CFA_XSP16, literal(-5)))
          CFI R7 load(1, XDATA, add(CFA_XSP16, literal(-6)))
          CFI V1 load(1, XDATA, add(CFA_XSP16, literal(-7)))
          CFI V0 load(1, XDATA, add(CFA_XSP16, literal(-8)))
          CFI VB load(1, XDATA, add(CFA_XSP16, literal(-9)))
          CFI R6 load(1, XDATA, add(CFA_XSP16, literal(-10)))
          CFI CFA_SP SP+0
          CFI CFA_XSP16 add(XSP16, 10)
        ; Saved register size: 10
        ; Auto size: 2
        MOV     A,#-0x2
        LCALL   ?ALLOC_XSTACK8
          CFI CFA_XSP16 add(XSP16, 12)
        LCALL   ?Subroutine12 & 0xFFFF
//  611   uint8 networkStateNV = ZDO_INITDEV_NEW_NETWORK_STATE;
//  612   uint16 extendedDelay = 0;
//  613 
//  614   if ( devState == DEV_HOLD )
??CrossCallReturnLabel_85:
        MOV     DPTR,#devState
        MOVX    A,@DPTR
        JNZ     ??ZDOInitDevice_0
//  615   {
//  616     // Initialize the RAM items table, in case an NV item has been updated.
//  617     zgInitItems( FALSE );
        ; Setup parameters for call to function zgInitItems
        MOV     R1,#0x0
        LCALL   ??zgInitItems?relay  ; Banked call to: zgInitItems
//  618   }
//  619 
//  620   ZDConfig_InitDescriptors();
??ZDOInitDevice_0:
        ; Setup parameters for call to function ZDConfig_InitDescriptors
        LCALL   ??ZDConfig_InitDescriptors?relay; Banked call to: ZDConfig_InitDescriptors
//  621   //devtag.071807.todo - fix this temporary solution
//  622   _NIB.CapabilityFlags = ZDO_Config_Node_Descriptor.CapabilityFlags;
        MOV     DPTR,#ZDO_Config_Node_Descriptor + 2
        MOVX    A,@DPTR
        MOV     DPTR,#_NIB + 14
        MOVX    @DPTR,A
//  623 
//  624 #if defined ( NV_RESTORE )
//  625   // Get Keypad directly to see if a reset nv is needed.
//  626   // Hold down the SW_BYPASS_NV key (defined in OnBoard.h)
//  627   // while booting to skip past NV Restore.
//  628   if ( HalKeyRead() == SW_BYPASS_NV )
//  629     networkStateNV = ZDO_INITDEV_NEW_NETWORK_STATE;
//  630   else
//  631   {
//  632     // Determine if NV should be restored
//  633     networkStateNV = ZDApp_ReadNetworkRestoreState();
//  634   }
//  635 
//  636   if ( networkStateNV == ZDO_INITDEV_RESTORED_NETWORK_STATE )
//  637   {
//  638     networkStateNV = ZDApp_RestoreNetworkState();
//  639   }
//  640   else
//  641   {
//  642     // Wipe out the network state in NV
//  643     NLME_InitNV();
//  644     NLME_SetDefaultNV();
//  645     // clear NWK key values
//  646     ZDSecMgrClearNVKeyValues();
//  647   }
//  648 #endif
//  649 
//  650   if ( networkStateNV == ZDO_INITDEV_NEW_NETWORK_STATE )
//  651   {
//  652     ZDAppDetermineDeviceType();
        ; Setup parameters for call to function ZDAppDetermineDeviceType
        LCALL   ??ZDAppDetermineDeviceType?relay; Banked call to: ZDAppDetermineDeviceType
//  653 
//  654     // Only delay if joining network - not restoring network state
//  655     extendedDelay = (uint16)((NWK_START_DELAY + startDelay)
//  656               + (osal_rand() & EXTENDED_JOINING_RANDOM_MASK));
        ; Setup parameters for call to function osal_rand
        LCALL   ??osal_rand?relay    ; Banked call to: osal_rand
        MOV     DPL,?XSP + 0
        MOV     DPH,?XSP + 1
        MOV     A,R2
        ANL     A,#0x7f
        MOV     R0,A
        MOVX    A,@DPTR
        ADD     A,R0
        MOV     R0,A
        INC     DPTR
        MOVX    A,@DPTR
        ADDC    A,#0x0
        MOV     R1,A
        MOV     A,R0
        ADD     A,#0x64
        MOV     R6,A
        CLR     A
        ADDC    A,R1
        MOV     R7,A
//  657   }
//  658 
//  659   // Initialize the security for type of device
//  660   ZDApp_SecInit( networkStateNV );
        ; Setup parameters for call to function ZDSecMgrInit
        MOV     R1,#0x1
        LCALL   ??ZDSecMgrInit?relay ; Banked call to: ZDSecMgrInit
//  661 
//  662   if( ZDO_INIT_HOLD_NWK_START != startDelay )
        MOV     DPL,?XSP + 0
        MOV     DPH,?XSP + 1
        MOVX    A,@DPTR
        CPL     A
        JNZ     ??ZDOInitDevice_1
        INC     DPTR
        MOVX    A,@DPTR
        CPL     A
??ZDOInitDevice_1:
        JZ      ??ZDOInitDevice_2
//  663   {
//  664     devState = DEV_INIT;    // Remove the Hold state
        MOV     DPTR,#devState
        MOV     A,#0x1
        MOVX    @DPTR,A
//  665 
//  666     // Initialize leave control logic
//  667     ZDApp_LeaveCtrlInit();
        ; Setup parameters for call to function ZDApp_LeaveCtrlInit
        LCALL   ??ZDApp_LeaveCtrlInit?relay; Banked call to: ZDApp_LeaveCtrlInit
//  668 
//  669     // Check leave control reset settings
//  670     ZDApp_LeaveCtrlStartup( &devState, &startDelay );
        ; Setup parameters for call to function ZDApp_LeaveCtrlStartup
        MOV     R4,?XSP + 0
        MOV     R5,?XSP + 1
        MOV     R2,#devState & 0xff
        MOV     R3,#(devState >> 8) & 0xff
        LCALL   ??ZDApp_LeaveCtrlStartup?relay; Banked call to: ZDApp_LeaveCtrlStartup
//  671 
//  672     // Leave may make the hold state come back
//  673     if ( devState == DEV_HOLD )
        MOV     DPTR,#devState
        MOVX    A,@DPTR
        JNZ     ??ZDOInitDevice_3
//  674     {
//  675       // Set the NV startup option to force a "new" join.
//  676       zgWriteStartupOptions( ZG_STARTUP_SET, ZCD_STARTOPT_DEFAULT_NETWORK_STATE );
        ; Setup parameters for call to function zgWriteStartupOptions
        MOV     R2,#0x2
        MOV     R1,#-0x1
        LCALL   ??zgWriteStartupOptions?relay; Banked call to: zgWriteStartupOptions
//  677 
//  678       // Notify the applications
//  679       osal_set_event( ZDAppTaskID, ZDO_STATE_CHANGE_EVT );
        ; Setup parameters for call to function osal_set_event
        MOV     R2,#0x10
        MOV     R3,#0x0
        MOV     DPTR,#ZDAppTaskID
        MOVX    A,@DPTR
        MOV     R1,A
        LCALL   ??osal_set_event?relay; Banked call to: osal_set_event
//  680 
//  681       return ( ZDO_INITDEV_LEAVE_NOT_STARTED );   // Don't join - (one time).
        MOV     R1,#0x2
        SJMP    ??ZDOInitDevice_4
//  682     }
//  683 
//  684     // Trigger the network start  网络初始化
//  685     ZDApp_NetworkInit( extendedDelay );
??ZDOInitDevice_3:
        ; Setup parameters for call to function ZDApp_NetworkInit
        MOV     A,R6
        MOV     R2,A
        MOV     A,R7
        MOV     R3,A
        LCALL   ??ZDApp_NetworkInit?relay; Banked call to: ZDApp_NetworkInit
//  686   }
//  687 
//  688   // set broadcast address mask to support broadcast filtering
//  689   NLME_SetBroadcastFilter( ZDO_Config_Node_Descriptor.CapabilityFlags );
??ZDOInitDevice_2:
        ; Setup parameters for call to function NLME_SetBroadcastFilter
        MOV     DPTR,#ZDO_Config_Node_Descriptor + 2
        MOVX    A,@DPTR
        MOV     R1,A
        LCALL   ??NLME_SetBroadcastFilter?relay; Banked call to: NLME_SetBroadcastFilter
//  690 
//  691   return ( networkStateNV );
        MOV     R1,#0x1
          CFI EndBlock cfiBlock7
??ZDOInitDevice_4:
        REQUIRE ?Subroutine7
        ; // Fall through to label ?Subroutine7
//  692 }

        RSEG BANKED_CODE:CODE:NOROOT(0)
?Subroutine7:
          CFI Block cfiBlock8 Using cfiCommon0
          CFI NoFunction
          CFI CFA_SP SP+0
          CFI CFA_XSP16 add(XSP16, 12)
          CFI VB load(1, XDATA, add(CFA_XSP16, literal(-9)))
          CFI DPL0 load(1, XDATA, add(CFA_XSP16, literal(-2)))
          CFI DPH0 load(1, XDATA, add(CFA_XSP16, literal(-1)))
          CFI R6 load(1, XDATA, add(CFA_XSP16, literal(-10)))
          CFI R7 load(1, XDATA, add(CFA_XSP16, literal(-6)))
          CFI V0 load(1, XDATA, add(CFA_XSP16, literal(-8)))
          CFI V1 load(1, XDATA, add(CFA_XSP16, literal(-7)))
          CFI ?BRET_EXT load(1, XDATA, add(CFA_XSP16, literal(-3)))
          CFI ?RET_HIGH load(1, XDATA, add(CFA_XSP16, literal(-4)))
          CFI ?RET_LOW load(1, XDATA, add(CFA_XSP16, literal(-5)))
        MOV     A,#0x2
        LJMP    ??Subroutine40_0 & 0xFFFF
          CFI EndBlock cfiBlock8
//  693 
//  694 /*********************************************************************
//  695  * @fn      ZDApp_ReadNetworkRestoreState
//  696  *
//  697  * @brief   Read the ZCD_NV_STARTUP_OPTION NV Item to state whether
//  698  *          or not to restore the network state.
//  699  *          If the read value has the ZCD_STARTOPT_DEFAULT_NETWORK_STATE
//  700  *          bit set return the ZDO_INITDEV_NEW_NETWORK_STATE.
//  701  *
//  702  * @param   none
//  703  *
//  704  * @return  ZDO_INITDEV_NEW_NETWORK_STATE
//  705  *          or ZDO_INITDEV_RESTORED_NETWORK_STATE based on whether or
//  706  *          not ZCD_STARTOPT_DEFAULT_NETWORK_STATE bit is set in
//  707  *          ZCD_NV_STARTUP_OPTION
//  708  */

        RSEG BANKED_CODE:CODE:NOROOT(0)
//  709 uint8 ZDApp_ReadNetworkRestoreState( void )
ZDApp_ReadNetworkRestoreState:
          CFI Block cfiBlock9 Using cfiCommon0
          CFI Function ZDApp_ReadNetworkRestoreState
        CODE
//  710 {
        FUNCALL ZDApp_ReadNetworkRestoreState, zgReadStartupOptions
        LOCFRAME ISTACK, 0, STACK
        LOCFRAME PSTACK, 0, STACK
        LOCFRAME XSTACK, 9, STACK
        LOCFRAME IOVERLAY, 0, STATIC
        LOCFRAME DOVERLAY, 0, STATIC
        ARGFRAME ISTACK, 0, STACK
        ARGFRAME PSTACK, 0, STACK
        ARGFRAME XSTACK, 9, STACK
        ARGFRAME IOVERLAY, 0, STATIC
        ARGFRAME DOVERLAY, 0, STATIC
        MOV     A,#-0x9
        LCALL   ?BANKED_ENTER_XDATA
          CFI DPH0 load(1, XDATA, add(CFA_XSP16, literal(-1)))
          CFI DPL0 load(1, XDATA, add(CFA_XSP16, literal(-2)))
          CFI ?BRET_EXT load(1, XDATA, add(CFA_XSP16, literal(-3)))
          CFI ?RET_HIGH load(1, XDATA, add(CFA_XSP16, literal(-4)))
          CFI ?RET_LOW load(1, XDATA, add(CFA_XSP16, literal(-5)))
          CFI R7 load(1, XDATA, add(CFA_XSP16, literal(-6)))
          CFI V0 load(1, XDATA, add(CFA_XSP16, literal(-7)))
          CFI VB load(1, XDATA, add(CFA_XSP16, literal(-8)))
          CFI R6 load(1, XDATA, add(CFA_XSP16, literal(-9)))
          CFI CFA_SP SP+0
          CFI CFA_XSP16 add(XSP16, 9)
        ; Saved register size: 9
        ; Auto size: 0
//  711   uint8 networkStateNV = ZDO_INITDEV_RESTORED_NETWORK_STATE;
        MOV     R6,#0x0
//  712 
//  713   // Look for the New Network State option.
//  714   if ( zgReadStartupOptions() & ZCD_STARTOPT_DEFAULT_NETWORK_STATE )
        ; Setup parameters for call to function zgReadStartupOptions
        LCALL   ??zgReadStartupOptions?relay; Banked call to: zgReadStartupOptions
        MOV     A,R1
        MOV     C,0xE0 /* A   */.1
        JNC     ??ZDApp_ReadNetworkRestoreState_0
//  715   {
//  716     networkStateNV = ZDO_INITDEV_NEW_NETWORK_STATE;
        INC     R6
//  717   }
//  718 
//  719   return ( networkStateNV );
??ZDApp_ReadNetworkRestoreState_0:
        MOV     A,R6
        MOV     R1,A
        LJMP    ??Subroutine42_0 & 0xFFFF
          CFI EndBlock cfiBlock9
//  720 }
//  721 
//  722 /*********************************************************************
//  723  * @fn      ZDAppDetermineDeviceType()
//  724  *
//  725  * @brief   Determines the type of device to start.
//  726  *
//  727  *          Looks at zgDeviceLogicalType and determines what type of
//  728  *          device to start.  The types are:
//  729  *            ZG_DEVICETYPE_COORDINATOR
//  730  *            ZG_DEVICETYPE_ROUTER
//  731  *            ZG_DEVICETYPE_ENDDEVICE
//  732  *
//  733  * @param   none
//  734  *
//  735  * @return  none
//  736  */

        RSEG BANKED_CODE:CODE:NOROOT(0)
//  737 void ZDAppDetermineDeviceType( void )
ZDAppDetermineDeviceType:
          CFI Block cfiBlock10 Using cfiCommon0
          CFI Function ZDAppDetermineDeviceType
        CODE
//  738 {
        FUNCALL ZDAppDetermineDeviceType, nwk_ExtPANIDValid
        LOCFRAME ISTACK, 2, STACK
        LOCFRAME PSTACK, 0, STACK
        LOCFRAME XSTACK, 0, STACK
        LOCFRAME IOVERLAY, 0, STATIC
        LOCFRAME DOVERLAY, 0, STATIC
        ARGFRAME ISTACK, 2, STACK
        ARGFRAME PSTACK, 0, STACK
        ARGFRAME XSTACK, 0, STACK
        ARGFRAME IOVERLAY, 0, STATIC
        ARGFRAME DOVERLAY, 0, STATIC
        PUSH    DPL
          CFI DPL0 Frame(CFA_SP, 4)
          CFI CFA_SP SP+-4
        PUSH    DPH
          CFI DPH0 Frame(CFA_SP, 5)
          CFI CFA_SP SP+-5
        ; Saved register size: 2
        ; Auto size: 0
//  739   if ( zgDeviceLogicalType == ZG_DEVICETYPE_COORDINATOR )
        MOV     DPTR,#zgDeviceLogicalType
        MOVX    A,@DPTR
        JNZ     ??ZDAppDetermineDeviceType_0
//  740   {
//  741     devStartMode = MODE_HARD;     // Start as a coordinator
        MOV     DPTR,#devStartMode
        MOV     A,#0x2
        MOVX    @DPTR,A
//  742     ZDO_Config_Node_Descriptor.LogicalType = NODETYPE_COORDINATOR;
        MOV     DPTR,#ZDO_Config_Node_Descriptor
        MOVX    A,@DPTR
        ANL     A,#0xf8
        SJMP    ??ZDAppDetermineDeviceType_1
//  743   }
//  744   else
//  745   {
//  746     if ( zgDeviceLogicalType == ZG_DEVICETYPE_ROUTER  )
??ZDAppDetermineDeviceType_0:
        XRL     A,#0x1
        JNZ     ??ZDAppDetermineDeviceType_2
//  747       ZDO_Config_Node_Descriptor.LogicalType = NODETYPE_ROUTER;
        MOV     DPTR,#ZDO_Config_Node_Descriptor
        MOVX    A,@DPTR
        ANL     A,#0xf8
        ORL     A,#0x1
        SJMP    ??ZDAppDetermineDeviceType_3
//  748     else if ( zgDeviceLogicalType == ZG_DEVICETYPE_ENDDEVICE )
??ZDAppDetermineDeviceType_2:
        MOVX    A,@DPTR
        XRL     A,#0x2
        JNZ     ??ZDAppDetermineDeviceType_4
//  749       ZDO_Config_Node_Descriptor.LogicalType = NODETYPE_DEVICE;
        MOV     DPTR,#ZDO_Config_Node_Descriptor
        MOVX    A,@DPTR
        ANL     A,#0xf8
        ORL     A,#0x2
??ZDAppDetermineDeviceType_3:
        MOVX    @DPTR,A
//  750 
//  751     // If AIB_apsUseExtendedPANID is set to a non-zero value by commissioning
//  752     // The device shall do rejoin the network. Otherwise, do normal join
//  753     if ( nwk_ExtPANIDValid( AIB_apsUseExtendedPANID ) == false )
??ZDAppDetermineDeviceType_4:
        ; Setup parameters for call to function nwk_ExtPANIDValid
        MOV     R2,#AIB_apsUseExtendedPANID & 0xff
        MOV     R3,#(AIB_apsUseExtendedPANID >> 8) & 0xff
        LCALL   ??nwk_ExtPANIDValid?relay; Banked call to: nwk_ExtPANIDValid
        MOV     A,R1
        MOV     DPTR,#devStartMode
        JNZ     ??ZDAppDetermineDeviceType_5
//  754     {
//  755       devStartMode = MODE_JOIN;     // Assume joining
        CLR     A
        SJMP    ??ZDAppDetermineDeviceType_1
//  756     }
//  757     else
//  758     {
//  759       devStartMode = MODE_REJOIN;
??ZDAppDetermineDeviceType_5:
        MOV     A,#0x3
??ZDAppDetermineDeviceType_1:
        MOVX    @DPTR,A
//  760     }
//  761   }
//  762 }
        LJMP    ?Subroutine3 & 0xFFFF
          CFI EndBlock cfiBlock10
//  763 
//  764 /*********************************************************************
//  765  * @fn      ZDApp_NetworkStartEvt()
//  766  *
//  767  * @brief   Process the Network Start Event
//  768  *
//  769  * @param   none
//  770  *
//  771  * @return  none
//  772  */

        RSEG BANKED_CODE:CODE:NOROOT(0)
//  773 void ZDApp_NetworkStartEvt( void )
ZDApp_NetworkStartEvt:
          CFI Block cfiBlock11 Using cfiCommon0
          CFI Function ZDApp_NetworkStartEvt
        CODE
//  774 {
        FUNCALL ZDApp_NetworkStartEvt, osal_pwrmgr_device
        LOCFRAME ISTACK, 2, STACK
        LOCFRAME PSTACK, 0, STACK
        LOCFRAME XSTACK, 0, STACK
        LOCFRAME IOVERLAY, 0, STATIC
        LOCFRAME DOVERLAY, 0, STATIC
        ARGFRAME ISTACK, 2, STACK
        ARGFRAME PSTACK, 0, STACK
        ARGFRAME XSTACK, 0, STACK
        ARGFRAME IOVERLAY, 0, STATIC
        ARGFRAME DOVERLAY, 0, STATIC
        FUNCALL ZDApp_NetworkStartEvt, osal_set_event
        LOCFRAME ISTACK, 2, STACK
        LOCFRAME PSTACK, 0, STACK
        LOCFRAME XSTACK, 0, STACK
        LOCFRAME IOVERLAY, 0, STATIC
        LOCFRAME DOVERLAY, 0, STATIC
        ARGFRAME ISTACK, 2, STACK
        ARGFRAME PSTACK, 0, STACK
        ARGFRAME XSTACK, 0, STACK
        ARGFRAME IOVERLAY, 0, STATIC
        ARGFRAME DOVERLAY, 0, STATIC
        FUNCALL ZDApp_NetworkStartEvt, NLME_GetEnergyThreshold
        LOCFRAME ISTACK, 2, STACK
        LOCFRAME PSTACK, 0, STACK
        LOCFRAME XSTACK, 0, STACK
        LOCFRAME IOVERLAY, 0, STATIC
        LOCFRAME DOVERLAY, 0, STATIC
        ARGFRAME ISTACK, 2, STACK
        ARGFRAME PSTACK, 0, STACK
        ARGFRAME XSTACK, 0, STACK
        ARGFRAME IOVERLAY, 0, STATIC
        ARGFRAME DOVERLAY, 0, STATIC
        FUNCALL ZDApp_NetworkStartEvt, NLME_GetEnergyThreshold
        LOCFRAME ISTACK, 2, STACK
        LOCFRAME PSTACK, 0, STACK
        LOCFRAME XSTACK, 0, STACK
        LOCFRAME IOVERLAY, 0, STATIC
        LOCFRAME DOVERLAY, 0, STATIC
        ARGFRAME ISTACK, 2, STACK
        ARGFRAME PSTACK, 0, STACK
        ARGFRAME XSTACK, 0, STACK
        ARGFRAME IOVERLAY, 0, STATIC
        ARGFRAME DOVERLAY, 0, STATIC
        FUNCALL ZDApp_NetworkStartEvt, NLME_SetEnergyThreshold
        LOCFRAME ISTACK, 2, STACK
        LOCFRAME PSTACK, 0, STACK
        LOCFRAME XSTACK, 0, STACK
        LOCFRAME IOVERLAY, 0, STATIC
        LOCFRAME DOVERLAY, 0, STATIC
        ARGFRAME ISTACK, 2, STACK
        ARGFRAME PSTACK, 0, STACK
        ARGFRAME XSTACK, 0, STACK
        ARGFRAME IOVERLAY, 0, STATIC
        ARGFRAME DOVERLAY, 0, STATIC
        FUNCALL ZDApp_NetworkStartEvt, osal_set_event
        LOCFRAME ISTACK, 2, STACK
        LOCFRAME PSTACK, 0, STACK
        LOCFRAME XSTACK, 0, STACK
        LOCFRAME IOVERLAY, 0, STATIC
        LOCFRAME DOVERLAY, 0, STATIC
        ARGFRAME ISTACK, 2, STACK
        ARGFRAME PSTACK, 0, STACK
        ARGFRAME XSTACK, 0, STACK
        ARGFRAME IOVERLAY, 0, STATIC
        ARGFRAME DOVERLAY, 0, STATIC
        FUNCALL ZDApp_NetworkStartEvt, osal_set_event
        LOCFRAME ISTACK, 2, STACK
        LOCFRAME PSTACK, 0, STACK
        LOCFRAME XSTACK, 0, STACK
        LOCFRAME IOVERLAY, 0, STATIC
        LOCFRAME DOVERLAY, 0, STATIC
        ARGFRAME ISTACK, 2, STACK
        ARGFRAME PSTACK, 0, STACK
        ARGFRAME XSTACK, 0, STACK
        ARGFRAME IOVERLAY, 0, STATIC
        ARGFRAME DOVERLAY, 0, STATIC
        PUSH    DPL
          CFI DPL0 Frame(CFA_SP, 4)
          CFI CFA_SP SP+-4
        PUSH    DPH
          CFI DPH0 Frame(CFA_SP, 5)
          CFI CFA_SP SP+-5
        ; Saved register size: 2
        ; Auto size: 0
//  775   if ( nwkStatus == ZSuccess )
        MOV     DPTR,#nwkStatus
        MOVX    A,@DPTR
        JNZ     ??ZDApp_NetworkStartEvt_0
//  776   {
//  777     // Successfully started a ZigBee network
//  778     if ( devState == DEV_COORD_STARTING )
        MOV     DPTR,#devState
        MOVX    A,@DPTR
        XRL     A,#0x8
        JNZ     ??ZDApp_NetworkStartEvt_1
//  779     {
//  780       devState = DEV_ZB_COORD;
        MOV     A,#0x9
        MOVX    @DPTR,A
//  781     }
//  782 
//  783     osal_pwrmgr_device( PWRMGR_ALWAYS_ON );
??ZDApp_NetworkStartEvt_1:
        ; Setup parameters for call to function osal_pwrmgr_device
        MOV     R1,#0x0
        LCALL   ??osal_pwrmgr_device?relay; Banked call to: osal_pwrmgr_device
//  784     osal_set_event( ZDAppTaskID, ZDO_STATE_CHANGE_EVT );
        ; Setup parameters for call to function osal_set_event
        SJMP    ??ZDApp_NetworkStartEvt_2
//  785   }
//  786   else
//  787   {
//  788     // Try again with a higher energy threshold !!
//  789     if ( ( NLME_GetEnergyThreshold() + ENERGY_SCAN_INCREMENT ) < 0xff )
??ZDApp_NetworkStartEvt_0:
        ; Setup parameters for call to function NLME_GetEnergyThreshold
        LCALL   ??NLME_GetEnergyThreshold?relay; Banked call to: NLME_GetEnergyThreshold
        MOV     A,R1
        MOV     R1,#0x0
        ADD     A,#0x10
        JNC     ??ZDApp_NetworkStartEvt_3
        INC     R1
??ZDApp_NetworkStartEvt_3:
        CLR     C
        SUBB    A,#-0x1
        MOV     A,R1
        SUBB    A,#0x0
        MOV     C,0xD0 /* PSW */.2
        XRL     A,PSW
        RLC     A
        JNC     ??ZDApp_NetworkStartEvt_4
//  790     {
//  791       NLME_SetEnergyThreshold( (uint8)(NLME_GetEnergyThreshold() + ENERGY_SCAN_INCREMENT) );
        ; Setup parameters for call to function NLME_SetEnergyThreshold
        ; Setup parameters for call to function NLME_GetEnergyThreshold
        LCALL   ??NLME_GetEnergyThreshold?relay; Banked call to: NLME_GetEnergyThreshold
        MOV     A,R1
        ADD     A,#0x10
        MOV     R1,A
        LCALL   ??NLME_SetEnergyThreshold?relay; Banked call to: NLME_SetEnergyThreshold
//  792       osal_set_event( ZDAppTaskID, ZDO_NETWORK_INIT );
        ; Setup parameters for call to function osal_set_event
        MOV     R2,#0x1
        SJMP    ??ZDApp_NetworkStartEvt_5
//  793     }
//  794     else
//  795     {
//  796       // Failed to start network. Enter a dormant state (until user intervenes)
//  797       devState = DEV_INIT;
??ZDApp_NetworkStartEvt_4:
        MOV     DPTR,#devState
        MOV     A,#0x1
        MOVX    @DPTR,A
//  798       osal_set_event( ZDAppTaskID, ZDO_STATE_CHANGE_EVT );
        ; Setup parameters for call to function osal_set_event
??ZDApp_NetworkStartEvt_2:
        MOV     R2,#0x10
??ZDApp_NetworkStartEvt_5:
        MOV     R3,#0x0
        MOV     DPTR,#ZDAppTaskID
        MOVX    A,@DPTR
        MOV     R1,A
        LCALL   ??osal_set_event?relay; Banked call to: osal_set_event
//  799     }
//  800   }
//  801 }
        LJMP    ?Subroutine3 & 0xFFFF
          CFI EndBlock cfiBlock11
//  802 
//  803 /*********************************************************************
//  804  * @fn      ZDApp_DeviceAuthEvt()
//  805  *
//  806  * @brief   Process the Device Authentic Event
//  807  *
//  808  * @param   none
//  809  *
//  810  * @return  none
//  811  */

        RSEG BANKED_CODE:CODE:NOROOT(0)
//  812 void ZDApp_DeviceAuthEvt( void )
ZDApp_DeviceAuthEvt:
          CFI Block cfiBlock12 Using cfiCommon0
          CFI Function ZDApp_DeviceAuthEvt
        CODE
//  813 {
        FUNCALL ZDApp_DeviceAuthEvt, ZDApp_ResetTimerCancel
        LOCFRAME ISTACK, 2, STACK
        LOCFRAME PSTACK, 0, STACK
        LOCFRAME XSTACK, 0, STACK
        LOCFRAME IOVERLAY, 0, STATIC
        LOCFRAME DOVERLAY, 0, STATIC
        ARGFRAME ISTACK, 2, STACK
        ARGFRAME PSTACK, 0, STACK
        ARGFRAME XSTACK, 0, STACK
        ARGFRAME IOVERLAY, 0, STATIC
        ARGFRAME DOVERLAY, 0, STATIC
        FUNCALL ZDApp_DeviceAuthEvt, osal_set_event
        LOCFRAME ISTACK, 2, STACK
        LOCFRAME PSTACK, 0, STACK
        LOCFRAME XSTACK, 0, STACK
        LOCFRAME IOVERLAY, 0, STATIC
        LOCFRAME DOVERLAY, 0, STATIC
        ARGFRAME ISTACK, 2, STACK
        ARGFRAME PSTACK, 0, STACK
        ARGFRAME XSTACK, 0, STACK
        ARGFRAME IOVERLAY, 0, STATIC
        ARGFRAME DOVERLAY, 0, STATIC
        FUNCALL ZDApp_DeviceAuthEvt, ZDApp_SaveNwkKey
        LOCFRAME ISTACK, 2, STACK
        LOCFRAME PSTACK, 0, STACK
        LOCFRAME XSTACK, 0, STACK
        LOCFRAME IOVERLAY, 0, STATIC
        LOCFRAME DOVERLAY, 0, STATIC
        ARGFRAME ISTACK, 2, STACK
        ARGFRAME PSTACK, 0, STACK
        ARGFRAME XSTACK, 0, STACK
        ARGFRAME IOVERLAY, 0, STATIC
        ARGFRAME DOVERLAY, 0, STATIC
        FUNCALL ZDApp_DeviceAuthEvt, ZDApp_AnnounceNewAddress
        LOCFRAME ISTACK, 2, STACK
        LOCFRAME PSTACK, 0, STACK
        LOCFRAME XSTACK, 0, STACK
        LOCFRAME IOVERLAY, 0, STATIC
        LOCFRAME DOVERLAY, 0, STATIC
        ARGFRAME ISTACK, 2, STACK
        ARGFRAME PSTACK, 0, STACK
        ARGFRAME XSTACK, 0, STACK
        ARGFRAME IOVERLAY, 0, STATIC
        ARGFRAME DOVERLAY, 0, STATIC
        FUNCALL ZDApp_DeviceAuthEvt, NLME_SetPollRate
        LOCFRAME ISTACK, 2, STACK
        LOCFRAME PSTACK, 0, STACK
        LOCFRAME XSTACK, 0, STACK
        LOCFRAME IOVERLAY, 0, STATIC
        LOCFRAME DOVERLAY, 0, STATIC
        ARGFRAME ISTACK, 2, STACK
        ARGFRAME PSTACK, 0, STACK
        ARGFRAME XSTACK, 0, STACK
        ARGFRAME IOVERLAY, 0, STATIC
        ARGFRAME DOVERLAY, 0, STATIC
        PUSH    DPL
          CFI DPL0 Frame(CFA_SP, 4)
          CFI CFA_SP SP+-4
        PUSH    DPH
          CFI DPH0 Frame(CFA_SP, 5)
          CFI CFA_SP SP+-5
        ; Saved register size: 2
        ; Auto size: 0
//  814   // received authentication from trust center
//  815   if ( devState == DEV_END_DEVICE_UNAUTH )
        MOV     DPTR,#devState
        MOVX    A,@DPTR
        XRL     A,#0x5
        JNZ     ??ZDApp_DeviceAuthEvt_0
//  816   {
//  817     // Stop the reset timer so it doesn't reset
//  818     ZDApp_ResetTimerCancel();
        ; Setup parameters for call to function ZDApp_ResetTimerCancel
        LCALL   ??ZDApp_ResetTimerCancel?relay; Banked call to: ZDApp_ResetTimerCancel
//  819 
//  820     devState = DEV_END_DEVICE;
        LCALL   ?Subroutine9 & 0xFFFF
//  821     osal_set_event( ZDAppTaskID, ZDO_STATE_CHANGE_EVT );
??CrossCallReturnLabel_46:
        LCALL   ??osal_set_event?relay; Banked call to: osal_set_event
//  822 
//  823     // Set the Power Manager Device
//  824 #if defined ( POWER_SAVING )
//  825     osal_pwrmgr_device( PWRMGR_BATTERY );
//  826 #endif
//  827 
//  828     if ( ZSTACK_ROUTER_BUILD )
//  829     {
//  830       if ( ZDO_Config_Node_Descriptor.LogicalType != NODETYPE_DEVICE )
//  831       {
//  832         // NOTE: first two parameters are not used, see NLMEDE.h for details
//  833         NLME_StartRouterRequest( 0, 0, false );
//  834       }
//  835     }
//  836 
//  837     // Notify to save info into NV
//  838     ZDApp_NVUpdate();
//  839 
//  840     // Save off the security
//  841     ZDApp_SaveNwkKey();
        ; Setup parameters for call to function ZDApp_SaveNwkKey
        LCALL   ??ZDApp_SaveNwkKey?relay; Banked call to: ZDApp_SaveNwkKey
//  842 
//  843     ZDApp_AnnounceNewAddress();
        ; Setup parameters for call to function ZDApp_AnnounceNewAddress
        LCALL   ??ZDApp_AnnounceNewAddress?relay; Banked call to: ZDApp_AnnounceNewAddress
//  844 
//  845     if ( (ZDO_Config_Node_Descriptor.CapabilityFlags & CAPINFO_RCVR_ON_IDLE) == 0 )
        MOV     DPTR,#ZDO_Config_Node_Descriptor + 2
        MOVX    A,@DPTR
        MOV     C,0xE0 /* A   */.3
        JC      ??ZDApp_DeviceAuthEvt_0
//  846     {
//  847       NLME_SetPollRate( ZDApp_SavedPollRate );
        ; Setup parameters for call to function NLME_SetPollRate
        MOV     DPTR,#ZDApp_SavedPollRate
        LCALL   ??Subroutine39_0 & 0xFFFF
//  848     }
//  849   }
??CrossCallReturnLabel_52:
        LCALL   ??NLME_SetPollRate?relay; Banked call to: NLME_SetPollRate
//  850   else
//  851   {
//  852     ZDApp_NVUpdate();
//  853   }
//  854 }
??ZDApp_DeviceAuthEvt_0:
        LJMP    ?Subroutine3 & 0xFFFF
          CFI EndBlock cfiBlock12

        RSEG BANKED_CODE:CODE:NOROOT(0)
?Subroutine9:
          CFI Block cfiCond13 Using cfiCommon0
          CFI Function ZDApp_DeviceAuthEvt
          CFI Conditional ??CrossCallReturnLabel_46
          CFI DPL0 Frame(CFA_SP, 4)
          CFI DPH0 Frame(CFA_SP, 5)
          CFI CFA_SP SP+-7
          CFI Block cfiCond14 Using cfiCommon0
          CFI (cfiCond14) Function ZDApp_ProcessNetworkJoin
          CFI (cfiCond14) Conditional ??CrossCallReturnLabel_47
          CFI (cfiCond14) R6 load(1, XDATA, add(CFA_XSP16, literal(-10)))
          CFI (cfiCond14) VB load(1, XDATA, add(CFA_XSP16, literal(-9)))
          CFI (cfiCond14) V0 load(1, XDATA, add(CFA_XSP16, literal(-8)))
          CFI (cfiCond14) V1 load(1, XDATA, add(CFA_XSP16, literal(-7)))
          CFI (cfiCond14) R7 load(1, XDATA, add(CFA_XSP16, literal(-6)))
          CFI (cfiCond14) ?RET_LOW load(1, XDATA, add(CFA_XSP16, literal(-5)))
          CFI (cfiCond14) ?RET_HIGH load(1, XDATA, add(CFA_XSP16, literal(-4)))
          CFI (cfiCond14) ?BRET_EXT load(1, XDATA, add(CFA_XSP16, literal(-3)))
          CFI (cfiCond14) DPL0 load(1, XDATA, add(CFA_XSP16, literal(-2)))
          CFI (cfiCond14) DPH0 load(1, XDATA, add(CFA_XSP16, literal(-1)))
          CFI (cfiCond14) CFA_SP SP+-2
          CFI (cfiCond14) CFA_XSP16 add(XSP16, 12)
          CFI Block cfiPicker15 Using cfiCommon1
          CFI (cfiPicker15) NoFunction
          CFI (cfiPicker15) Picker
        MOV     DPTR,#devState
        MOV     A,#0x6
          CFI EndBlock cfiCond13
          CFI EndBlock cfiCond14
          CFI EndBlock cfiPicker15
        REQUIRE ??Subroutine37_0
        ; // Fall through to label ??Subroutine37_0

        RSEG BANKED_CODE:CODE:NOROOT(0)
??Subroutine37_0:
          CFI Block cfiCond16 Using cfiCommon0
          CFI Function ZDApp_event_loop
          CFI Conditional ??CrossCallReturnLabel_48
          CFI R6 load(1, XDATA, add(CFA_XSP16, literal(-12)))
          CFI VB load(1, XDATA, add(CFA_XSP16, literal(-11)))
          CFI V0 load(1, XDATA, add(CFA_XSP16, literal(-10)))
          CFI V1 load(1, XDATA, add(CFA_XSP16, literal(-9)))
          CFI V2 load(1, XDATA, add(CFA_XSP16, literal(-8)))
          CFI V3 load(1, XDATA, add(CFA_XSP16, literal(-7)))
          CFI R7 load(1, XDATA, add(CFA_XSP16, literal(-6)))
          CFI ?RET_LOW load(1, XDATA, add(CFA_XSP16, literal(-5)))
          CFI ?RET_HIGH load(1, XDATA, add(CFA_XSP16, literal(-4)))
          CFI ?BRET_EXT load(1, XDATA, add(CFA_XSP16, literal(-3)))
          CFI DPL0 load(1, XDATA, add(CFA_XSP16, literal(-2)))
          CFI DPH0 load(1, XDATA, add(CFA_XSP16, literal(-1)))
          CFI CFA_SP SP+-2
          CFI CFA_XSP16 add(XSP16, 12)
          CFI Block cfiCond17 Using cfiCommon0
          CFI (cfiCond17) Function ZDApp_DeviceAuthEvt
          CFI (cfiCond17) Conditional ??CrossCallReturnLabel_46
          CFI (cfiCond17) DPL0 Frame(CFA_SP, 4)
          CFI (cfiCond17) DPH0 Frame(CFA_SP, 5)
          CFI (cfiCond17) CFA_SP SP+-7
          CFI Block cfiCond18 Using cfiCommon0
          CFI (cfiCond18) Function ZDApp_ProcessNetworkJoin
          CFI (cfiCond18) Conditional ??CrossCallReturnLabel_47
          CFI (cfiCond18) R6 load(1, XDATA, add(CFA_XSP16, literal(-10)))
          CFI (cfiCond18) VB load(1, XDATA, add(CFA_XSP16, literal(-9)))
          CFI (cfiCond18) V0 load(1, XDATA, add(CFA_XSP16, literal(-8)))
          CFI (cfiCond18) V1 load(1, XDATA, add(CFA_XSP16, literal(-7)))
          CFI (cfiCond18) R7 load(1, XDATA, add(CFA_XSP16, literal(-6)))
          CFI (cfiCond18) ?RET_LOW load(1, XDATA, add(CFA_XSP16, literal(-5)))
          CFI (cfiCond18) ?RET_HIGH load(1, XDATA, add(CFA_XSP16, literal(-4)))
          CFI (cfiCond18) ?BRET_EXT load(1, XDATA, add(CFA_XSP16, literal(-3)))
          CFI (cfiCond18) DPL0 load(1, XDATA, add(CFA_XSP16, literal(-2)))
          CFI (cfiCond18) DPH0 load(1, XDATA, add(CFA_XSP16, literal(-1)))
          CFI (cfiCond18) CFA_SP SP+-2
          CFI (cfiCond18) CFA_XSP16 add(XSP16, 12)
          CFI Block cfiPicker19 Using cfiCommon1
          CFI (cfiPicker19) NoFunction
          CFI (cfiPicker19) Picker
        MOVX    @DPTR,A
        ; Setup parameters for call to function osal_set_event
        ; Setup parameters for call to function osal_set_event
        ; Setup parameters for call to function osal_set_event
        MOV     R2,#0x10
        MOV     R3,#0x0
        MOV     DPTR,#ZDAppTaskID
        MOVX    A,@DPTR
        MOV     R1,A
        RET
          CFI EndBlock cfiCond16
          CFI EndBlock cfiCond17
          CFI EndBlock cfiCond18
          CFI EndBlock cfiPicker19
//  855 
//  856 /*********************************************************************
//  857  * @fn      ZDApp_SaveNetworkStateEvt()
//  858  *
//  859  * @brief   Process the Save the Network State Event
//  860  *
//  861  * @param   none
//  862  *
//  863  * @return  none
//  864  */

        RSEG BANKED_CODE:CODE:NOROOT(0)
//  865 void ZDApp_SaveNetworkStateEvt( void )
ZDApp_SaveNetworkStateEvt:
          CFI Block cfiBlock20 Using cfiCommon0
          CFI Function ZDApp_SaveNetworkStateEvt
        CODE
//  866 {
        ; Saved register size: 0
        ; Auto size: 0
//  867 #if defined ( NV_RESTORE )
//  868  #if defined ( NV_TURN_OFF_RADIO )
//  869   // Turn off the radio's receiver during an NV update
//  870   uint8 RxOnIdle;
//  871   uint8 x = false;
//  872   ZMacGetReq( ZMacRxOnIdle, &RxOnIdle );
//  873   ZMacSetReq( ZMacRxOnIdle, &x );
//  874  #endif
//  875 
//  876   // Update the Network State in NV
//  877   NLME_UpdateNV( NWK_NV_NIB_ENABLE        |
//  878                  NWK_NV_DEVICELIST_ENABLE |
//  879                  NWK_NV_BINDING_ENABLE    |
//  880                  NWK_NV_ADDRMGR_ENABLE );
//  881 
//  882   // Reset the NV startup option to resume from NV by
//  883   // clearing the "New" join option.
//  884   zgWriteStartupOptions( FALSE, ZCD_STARTOPT_DEFAULT_NETWORK_STATE );
//  885 
//  886  #if defined ( NV_TURN_OFF_RADIO )
//  887   ZMacSetReq( ZMacRxOnIdle, &RxOnIdle );
//  888  #endif
//  889 #endif  // NV_RESTORE
//  890 }
        LJMP    ?BRET
          CFI EndBlock cfiBlock20
//  891 
//  892 /*********************************************************************
//  893  * @fn      ZDApp_RestoreNetworkState()
//  894  *
//  895  * @brief   This function will restore the network state of the
//  896  *          device if the network state is stored in NV.
//  897  *
//  898  * @param   none
//  899  *
//  900  * @return
//  901  *    ZDO_INITDEV_RESTORED_NETWORK_STATE  - The device's network state was
//  902  *          restored.
//  903  *    ZDO_INITDEV_NEW_NETWORK_STATE - The network state was not used.
//  904  *          This could mean that zgStartupOption said to not restore, or
//  905  *          it could mean that there was no network state to restore.
//  906  *
//  907  */

        RSEG BANKED_CODE:CODE:NOROOT(0)
//  908 uint8 ZDApp_RestoreNetworkState( void )
ZDApp_RestoreNetworkState:
          CFI Block cfiBlock21 Using cfiCommon0
          CFI Function ZDApp_RestoreNetworkState
        CODE
//  909 {
        FUNCALL ZDApp_RestoreNetworkState, NLME_InitNV
        LOCFRAME ISTACK, 0, STACK
        LOCFRAME PSTACK, 0, STACK
        LOCFRAME XSTACK, 9, STACK
        LOCFRAME IOVERLAY, 0, STATIC
        LOCFRAME DOVERLAY, 0, STATIC
        ARGFRAME ISTACK, 0, STACK
        ARGFRAME PSTACK, 0, STACK
        ARGFRAME XSTACK, 9, STACK
        ARGFRAME IOVERLAY, 0, STATIC
        ARGFRAME DOVERLAY, 0, STATIC
        FUNCALL ZDApp_RestoreNetworkState, NLME_RestoreFromNV
        LOCFRAME ISTACK, 0, STACK
        LOCFRAME PSTACK, 0, STACK
        LOCFRAME XSTACK, 9, STACK
        LOCFRAME IOVERLAY, 0, STATIC
        LOCFRAME DOVERLAY, 0, STATIC
        ARGFRAME ISTACK, 0, STACK
        ARGFRAME PSTACK, 0, STACK
        ARGFRAME XSTACK, 9, STACK
        ARGFRAME IOVERLAY, 0, STATIC
        ARGFRAME DOVERLAY, 0, STATIC
        FUNCALL ZDApp_RestoreNetworkState, NLME_GetShortAddr
        LOCFRAME ISTACK, 0, STACK
        LOCFRAME PSTACK, 0, STACK
        LOCFRAME XSTACK, 9, STACK
        LOCFRAME IOVERLAY, 0, STATIC
        LOCFRAME DOVERLAY, 0, STATIC
        ARGFRAME ISTACK, 0, STACK
        ARGFRAME PSTACK, 0, STACK
        ARGFRAME XSTACK, 9, STACK
        ARGFRAME IOVERLAY, 0, STATIC
        ARGFRAME DOVERLAY, 0, STATIC
        FUNCALL ZDApp_RestoreNetworkState, sAddrExtCpy
        LOCFRAME ISTACK, 0, STACK
        LOCFRAME PSTACK, 0, STACK
        LOCFRAME XSTACK, 9, STACK
        LOCFRAME IOVERLAY, 0, STATIC
        LOCFRAME DOVERLAY, 0, STATIC
        ARGFRAME ISTACK, 0, STACK
        ARGFRAME PSTACK, 0, STACK
        ARGFRAME XSTACK, 9, STACK
        ARGFRAME IOVERLAY, 0, STATIC
        ARGFRAME DOVERLAY, 0, STATIC
        MOV     A,#-0x9
        LCALL   ?BANKED_ENTER_XDATA
          CFI DPH0 load(1, XDATA, add(CFA_XSP16, literal(-1)))
          CFI DPL0 load(1, XDATA, add(CFA_XSP16, literal(-2)))
          CFI ?BRET_EXT load(1, XDATA, add(CFA_XSP16, literal(-3)))
          CFI ?RET_HIGH load(1, XDATA, add(CFA_XSP16, literal(-4)))
          CFI ?RET_LOW load(1, XDATA, add(CFA_XSP16, literal(-5)))
          CFI R7 load(1, XDATA, add(CFA_XSP16, literal(-6)))
          CFI V0 load(1, XDATA, add(CFA_XSP16, literal(-7)))
          CFI VB load(1, XDATA, add(CFA_XSP16, literal(-8)))
          CFI R6 load(1, XDATA, add(CFA_XSP16, literal(-9)))
          CFI CFA_SP SP+0
          CFI CFA_XSP16 add(XSP16, 9)
        ; Saved register size: 9
        ; Auto size: 0
//  910   uint8 nvStat;
//  911 
//  912   // Initialize NWK NV items
//  913   nvStat = NLME_InitNV();
        ; Setup parameters for call to function NLME_InitNV
        LCALL   ??NLME_InitNV?relay  ; Banked call to: NLME_InitNV
        MOV     A,R1
        MOV     R6,A
//  914 
//  915   if ( nvStat != NV_OPER_FAILED )
        MOV     A,#0xa
        XRL     A,R6
        JZ      ??ZDApp_RestoreNetworkState_0
//  916   {
//  917     if ( NLME_RestoreFromNV() )
        ; Setup parameters for call to function NLME_RestoreFromNV
        LCALL   ??NLME_RestoreFromNV?relay; Banked call to: NLME_RestoreFromNV
        MOV     A,R1
        JZ      ??ZDApp_RestoreNetworkState_0
//  918     {
//  919       // Are we a coordinator
//  920       ZDAppNwkAddr.addr.shortAddr = NLME_GetShortAddr();
        ; Setup parameters for call to function NLME_GetShortAddr
        LCALL   ??NLME_GetShortAddr?relay; Banked call to: NLME_GetShortAddr
        MOV     DPTR,#ZDAppNwkAddr
        LCALL   ??Subroutine48_0 & 0xFFFF
//  921       if ( ZDAppNwkAddr.addr.shortAddr == 0 )
??CrossCallReturnLabel_81:
        MOV     DPTR,#ZDAppNwkAddr
        LCALL   ?Subroutine14 & 0xFFFF
??CrossCallReturnLabel_6:
        JNZ     ??ZDApp_RestoreNetworkState_1
//  922         ZDO_Config_Node_Descriptor.LogicalType = NODETYPE_COORDINATOR;
        MOV     DPTR,#ZDO_Config_Node_Descriptor
        MOVX    A,@DPTR
        ANL     A,#0xf8
        MOVX    @DPTR,A
//  923       devStartMode = MODE_RESUME;
??ZDApp_RestoreNetworkState_1:
        MOV     DPTR,#devStartMode
        MOV     A,#0x1
        LCALL   ?Subroutine13 & 0xFFFF
//  924       osal_cpyExtAddr( ZDO_UseExtendedPANID, _NIB.extendedPANID );
//  925     }
//  926     else
//  927       nvStat = NV_ITEM_UNINIT;
//  928 
//  929     if ( ZG_SECURE_ENABLED )
//  930     {
//  931       nwkFrameCounterChanges = 0;
//  932 
//  933       if ( ZG_BUILD_COORDINATOR_TYPE && ZG_DEVICE_COORDINATOR_TYPE )
//  934       {
//  935         ZDApp_RestoreNwkKey();
//  936       }
//  937     }
//  938 
//  939     // The default for RxOnWhenIdle is true for Routers and false for end devices
//  940     // [setup in the NLME_RestoreFromNV()].  Change it here if you want something
//  941     // other than default.
//  942   }
??CrossCallReturnLabel_4:
        LCALL   ??sAddrExtCpy?relay  ; Banked call to: sAddrExtCpy
//  943 
//  944   if ( nvStat == ZSUCCESS )
        MOV     A,R6
        JNZ     ??ZDApp_RestoreNetworkState_0
//  945     return ( ZDO_INITDEV_RESTORED_NETWORK_STATE );
        MOV     R1,#0x0
        SJMP    ??ZDApp_RestoreNetworkState_2
//  946   else
//  947     return ( ZDO_INITDEV_NEW_NETWORK_STATE );
??ZDApp_RestoreNetworkState_0:
        MOV     R1,#0x1
??ZDApp_RestoreNetworkState_2:
        LJMP    ??Subroutine42_0 & 0xFFFF
          CFI EndBlock cfiBlock21
//  948 }
//  949 
//  950 /*********************************************************************
//  951  * @fn      ZDApp_InitUserDesc()
//  952  *
//  953  * @brief   Initialize the User Descriptor, the descriptor is read from NV
//  954  *          when needed.  If you want to initialize the User descriptor to
//  955  *          something other than all zero, do it here.
//  956  *
//  957  * @param   none
//  958  *
//  959  * @return  none
//  960  */

        RSEG BANKED_CODE:CODE:NOROOT(0)
//  961 void ZDApp_InitUserDesc( void )
ZDApp_InitUserDesc:
          CFI Block cfiBlock22 Using cfiCommon0
          CFI Function ZDApp_InitUserDesc
        CODE
//  962 {
        FUNCALL ZDApp_InitUserDesc, osal_memset
        LOCFRAME ISTACK, 0, STACK
        LOCFRAME PSTACK, 0, STACK
        LOCFRAME XSTACK, 27, STACK
        LOCFRAME IOVERLAY, 0, STATIC
        LOCFRAME DOVERLAY, 0, STATIC
        ARGFRAME ISTACK, 0, STACK
        ARGFRAME PSTACK, 0, STACK
        ARGFRAME XSTACK, 27, STACK
        ARGFRAME IOVERLAY, 0, STATIC
        ARGFRAME DOVERLAY, 0, STATIC
        FUNCALL ZDApp_InitUserDesc, osal_nv_item_init
        LOCFRAME ISTACK, 0, STACK
        LOCFRAME PSTACK, 0, STACK
        LOCFRAME XSTACK, 29, STACK
        LOCFRAME IOVERLAY, 0, STATIC
        LOCFRAME DOVERLAY, 0, STATIC
        ARGFRAME ISTACK, 0, STACK
        ARGFRAME PSTACK, 0, STACK
        ARGFRAME XSTACK, 29, STACK
        ARGFRAME IOVERLAY, 0, STATIC
        ARGFRAME DOVERLAY, 0, STATIC
        FUNCALL ZDApp_InitUserDesc, osal_nv_read
        LOCFRAME ISTACK, 0, STACK
        LOCFRAME PSTACK, 0, STACK
        LOCFRAME XSTACK, 31, STACK
        LOCFRAME IOVERLAY, 0, STATIC
        LOCFRAME DOVERLAY, 0, STATIC
        ARGFRAME ISTACK, 0, STACK
        ARGFRAME PSTACK, 0, STACK
        ARGFRAME XSTACK, 31, STACK
        ARGFRAME IOVERLAY, 0, STATIC
        ARGFRAME DOVERLAY, 0, STATIC
        REQUIRE ?V0
        REQUIRE ?V1
        MOV     A,#-0xa
        LCALL   ?BANKED_ENTER_XDATA
          CFI DPH0 load(1, XDATA, add(CFA_XSP16, literal(-1)))
          CFI DPL0 load(1, XDATA, add(CFA_XSP16, literal(-2)))
          CFI ?BRET_EXT load(1, XDATA, add(CFA_XSP16, literal(-3)))
          CFI ?RET_HIGH load(1, XDATA, add(CFA_XSP16, literal(-4)))
          CFI ?RET_LOW load(1, XDATA, add(CFA_XSP16, literal(-5)))
          CFI R7 load(1, XDATA, add(CFA_XSP16, literal(-6)))
          CFI V1 load(1, XDATA, add(CFA_XSP16, literal(-7)))
          CFI V0 load(1, XDATA, add(CFA_XSP16, literal(-8)))
          CFI VB load(1, XDATA, add(CFA_XSP16, literal(-9)))
          CFI R6 load(1, XDATA, add(CFA_XSP16, literal(-10)))
          CFI CFA_SP SP+0
          CFI CFA_XSP16 add(XSP16, 10)
        ; Saved register size: 10
        ; Auto size: 17
        MOV     A,#-0x11
        LCALL   ?ALLOC_XSTACK8
          CFI CFA_XSP16 add(XSP16, 27)
//  963   UserDescriptorFormat_t ZDO_DefaultUserDescriptor;
//  964 
//  965   // Initialize the User Descriptor, the descriptor is read from NV
//  966   // when needed.  If you want to initialize the User descriptor to something
//  967   // other than all zero, do it here.
//  968   osal_memset( &ZDO_DefaultUserDescriptor, 0, sizeof( UserDescriptorFormat_t ) );
        ; Setup parameters for call to function osal_memset
        MOV     R4,#0x11
        MOV     R5,#0x0
        MOV     R1,#0x0
        MOV     R2,?XSP + 0
        MOV     R3,?XSP + 1
        LCALL   ??osal_memset?relay  ; Banked call to: osal_memset
//  969   if ( ZSUCCESS == osal_nv_item_init( ZCD_NV_USERDESC,
//  970          sizeof(UserDescriptorFormat_t), (void*)&ZDO_DefaultUserDescriptor ) )
        ; Setup parameters for call to function osal_nv_item_init
        MOV     R0,?XSP + 0
        MOV     R1,?XSP + 1
        MOV     ?V0,R0
        MOV     ?V1,R1
        MOV     R0,#?V0
        LCALL   ?PUSH_XSTACK_I_TWO
          CFI CFA_XSP16 add(XSP16, 29)
        MOV     R4,#0x11
        MOV     R5,#0x0
        MOV     R2,#-0x7f
        MOV     R3,#0x0
        LCALL   ??osal_nv_item_init?relay; Banked call to: osal_nv_item_init
        MOV     A,#0x2
        LCALL   ?DEALLOC_XSTACK8
          CFI CFA_XSP16 add(XSP16, 27)
        MOV     A,R1
        JNZ     ??ZDApp_InitUserDesc_0
//  971   {
//  972     if ( ZSUCCESS == osal_nv_read( ZCD_NV_USERDESC, 0,
//  973          sizeof(UserDescriptorFormat_t), (void*)&ZDO_DefaultUserDescriptor ) )
        ; Setup parameters for call to function osal_nv_read
        MOV     R0,#?V0
        LCALL   ?PUSH_XSTACK_I_TWO
          CFI CFA_XSP16 add(XSP16, 29)
        MOV     ?V0,#0x11
        MOV     ?V1,#0x0
        MOV     R0,#?V0
        LCALL   ?PUSH_XSTACK_I_TWO
          CFI CFA_XSP16 add(XSP16, 31)
        MOV     R4,#0x0
        MOV     R5,#0x0
        MOV     R2,#-0x7f
        MOV     R3,#0x0
        LCALL   ??osal_nv_read?relay ; Banked call to: osal_nv_read
        MOV     A,#0x4
        LCALL   ?DEALLOC_XSTACK8
          CFI CFA_XSP16 add(XSP16, 27)
        MOV     A,R1
        JNZ     ??ZDApp_InitUserDesc_0
//  974     {
//  975       if ( ZDO_DefaultUserDescriptor.len != 0 )
        MOV     DPL,?XSP + 0
        MOV     DPH,?XSP + 1
        MOVX    A,@DPTR
        JZ      ??ZDApp_InitUserDesc_0
//  976       {
//  977         ZDO_Config_Node_Descriptor.UserDescAvail = TRUE;
        MOV     DPTR,#ZDO_Config_Node_Descriptor
        MOVX    A,@DPTR
        SETB    0xE0 /* A   */.4
        MOVX    @DPTR,A
//  978       }
//  979     }
//  980   }
//  981 }
??ZDApp_InitUserDesc_0:
        MOV     A,#0x11
        LJMP    ??Subroutine40_0 & 0xFFFF
          CFI EndBlock cfiBlock22
//  982 
//  983 /*********************************************************************
//  984  * @fn      ZDAppCheckForHoldKey()
//  985  *
//  986  * @brief   Check for key to set the device into Hold Auto Start
//  987  *
//  988  * @param   none
//  989  *
//  990  * @return  none
//  991  */

        RSEG BANKED_CODE:CODE:NOROOT(0)
//  992 void ZDAppCheckForHoldKey( void )
ZDAppCheckForHoldKey:
          CFI Block cfiBlock23 Using cfiCommon0
          CFI Function ZDAppCheckForHoldKey
        CODE
//  993 {
        ; Saved register size: 0
        ; Auto size: 0
//  994 #if (defined HAL_KEY) && (HAL_KEY == TRUE)
//  995   // Get Keypad directly to see if a HOLD_START is needed.
//  996   // Hold down the SW_BYPASS_START key (see OnBoard.h)
//  997   // while booting to avoid starting up the device.
//  998   if ( HalKeyRead () == SW_BYPASS_START)
//  999   {
// 1000     // Change the device state to HOLD on start up
// 1001     devState = DEV_HOLD;
// 1002   }
// 1003 #endif // HAL_KEY
// 1004 }
        LJMP    ?BRET
          CFI EndBlock cfiBlock23
// 1005 
// 1006 /*********************************************************************
// 1007  * @fn      ZDApp_ProcessOSALMsg()
// 1008  *
// 1009  * @brief   Process the incoming task message.
// 1010  *
// 1011  * @param   msgPtr - message to process
// 1012  *
// 1013  * @return  none
// 1014  */

        RSEG BANKED_CODE:CODE:NOROOT(0)
// 1015 void ZDApp_ProcessOSALMsg( osal_event_hdr_t *msgPtr )
ZDApp_ProcessOSALMsg:
          CFI Block cfiBlock24 Using cfiCommon0
          CFI Function ZDApp_ProcessOSALMsg
        CODE
// 1016 {
        FUNCALL ZDApp_ProcessOSALMsg, ZDP_IncomingData
        LOCFRAME ISTACK, 0, STACK
        LOCFRAME PSTACK, 0, STACK
        LOCFRAME XSTACK, 11, STACK
        LOCFRAME IOVERLAY, 0, STATIC
        LOCFRAME DOVERLAY, 0, STATIC
        ARGFRAME ISTACK, 0, STACK
        ARGFRAME PSTACK, 0, STACK
        ARGFRAME XSTACK, 11, STACK
        ARGFRAME IOVERLAY, 0, STATIC
        ARGFRAME DOVERLAY, 0, STATIC
        FUNCALL ZDApp_ProcessOSALMsg, ZDApp_ProcessMsgCBs
        LOCFRAME ISTACK, 0, STACK
        LOCFRAME PSTACK, 0, STACK
        LOCFRAME XSTACK, 11, STACK
        LOCFRAME IOVERLAY, 0, STATIC
        LOCFRAME DOVERLAY, 0, STATIC
        ARGFRAME ISTACK, 0, STACK
        ARGFRAME PSTACK, 0, STACK
        ARGFRAME XSTACK, 11, STACK
        ARGFRAME IOVERLAY, 0, STATIC
        ARGFRAME DOVERLAY, 0, STATIC
        FUNCALL ZDApp_ProcessOSALMsg, ZDApp_NwkDescListProcessing
        LOCFRAME ISTACK, 0, STACK
        LOCFRAME PSTACK, 0, STACK
        LOCFRAME XSTACK, 11, STACK
        LOCFRAME IOVERLAY, 0, STATIC
        LOCFRAME DOVERLAY, 0, STATIC
        ARGFRAME ISTACK, 0, STACK
        ARGFRAME PSTACK, 0, STACK
        ARGFRAME XSTACK, 11, STACK
        ARGFRAME IOVERLAY, 0, STATIC
        ARGFRAME DOVERLAY, 0, STATIC
        FUNCALL ZDApp_ProcessOSALMsg, ZDApp_NodeProfileSync
        LOCFRAME ISTACK, 0, STACK
        LOCFRAME PSTACK, 0, STACK
        LOCFRAME XSTACK, 11, STACK
        LOCFRAME IOVERLAY, 0, STATIC
        LOCFRAME DOVERLAY, 0, STATIC
        ARGFRAME ISTACK, 0, STACK
        ARGFRAME PSTACK, 0, STACK
        ARGFRAME XSTACK, 11, STACK
        ARGFRAME IOVERLAY, 0, STATIC
        ARGFRAME DOVERLAY, 0, STATIC
        FUNCALL ZDApp_ProcessOSALMsg, NLME_JoinRequest
        LOCFRAME ISTACK, 0, STACK
        LOCFRAME PSTACK, 0, STACK
        LOCFRAME XSTACK, 15, STACK
        LOCFRAME IOVERLAY, 0, STATIC
        LOCFRAME DOVERLAY, 0, STATIC
        ARGFRAME ISTACK, 0, STACK
        ARGFRAME PSTACK, 0, STACK
        ARGFRAME XSTACK, 15, STACK
        ARGFRAME IOVERLAY, 0, STATIC
        ARGFRAME DOVERLAY, 0, STATIC
        FUNCALL ZDApp_ProcessOSALMsg, osal_rand
        LOCFRAME ISTACK, 0, STACK
        LOCFRAME PSTACK, 0, STACK
        LOCFRAME XSTACK, 11, STACK
        LOCFRAME IOVERLAY, 0, STATIC
        LOCFRAME DOVERLAY, 0, STATIC
        ARGFRAME ISTACK, 0, STACK
        ARGFRAME PSTACK, 0, STACK
        ARGFRAME XSTACK, 11, STACK
        ARGFRAME IOVERLAY, 0, STATIC
        ARGFRAME DOVERLAY, 0, STATIC
        FUNCALL ZDApp_ProcessOSALMsg, ZDApp_NetworkInit
        LOCFRAME ISTACK, 0, STACK
        LOCFRAME PSTACK, 0, STACK
        LOCFRAME XSTACK, 11, STACK
        LOCFRAME IOVERLAY, 0, STATIC
        LOCFRAME DOVERLAY, 0, STATIC
        ARGFRAME ISTACK, 0, STACK
        ARGFRAME PSTACK, 0, STACK
        ARGFRAME XSTACK, 11, STACK
        ARGFRAME IOVERLAY, 0, STATIC
        ARGFRAME DOVERLAY, 0, STATIC
        FUNCALL ZDApp_ProcessOSALMsg, osal_rand
        LOCFRAME ISTACK, 0, STACK
        LOCFRAME PSTACK, 0, STACK
        LOCFRAME XSTACK, 11, STACK
        LOCFRAME IOVERLAY, 0, STATIC
        LOCFRAME DOVERLAY, 0, STATIC
        ARGFRAME ISTACK, 0, STACK
        ARGFRAME PSTACK, 0, STACK
        ARGFRAME XSTACK, 11, STACK
        ARGFRAME IOVERLAY, 0, STATIC
        ARGFRAME DOVERLAY, 0, STATIC
        FUNCALL ZDApp_ProcessOSALMsg, ZMacSetReq
        LOCFRAME ISTACK, 0, STACK
        LOCFRAME PSTACK, 0, STACK
        LOCFRAME XSTACK, 11, STACK
        LOCFRAME IOVERLAY, 0, STATIC
        LOCFRAME DOVERLAY, 0, STATIC
        ARGFRAME ISTACK, 0, STACK
        ARGFRAME PSTACK, 0, STACK
        ARGFRAME XSTACK, 11, STACK
        ARGFRAME IOVERLAY, 0, STATIC
        ARGFRAME DOVERLAY, 0, STATIC
        FUNCALL ZDApp_ProcessOSALMsg, ZMacSetReq
        LOCFRAME ISTACK, 0, STACK
        LOCFRAME PSTACK, 0, STACK
        LOCFRAME XSTACK, 11, STACK
        LOCFRAME IOVERLAY, 0, STATIC
        LOCFRAME DOVERLAY, 0, STATIC
        ARGFRAME ISTACK, 0, STACK
        ARGFRAME PSTACK, 0, STACK
        ARGFRAME XSTACK, 11, STACK
        ARGFRAME IOVERLAY, 0, STATIC
        ARGFRAME DOVERLAY, 0, STATIC
        FUNCALL ZDApp_ProcessOSALMsg, ZMacSetReq
        LOCFRAME ISTACK, 0, STACK
        LOCFRAME PSTACK, 0, STACK
        LOCFRAME XSTACK, 11, STACK
        LOCFRAME IOVERLAY, 0, STATIC
        LOCFRAME DOVERLAY, 0, STATIC
        ARGFRAME ISTACK, 0, STACK
        ARGFRAME PSTACK, 0, STACK
        ARGFRAME XSTACK, 11, STACK
        ARGFRAME IOVERLAY, 0, STATIC
        ARGFRAME DOVERLAY, 0, STATIC
        FUNCALL ZDApp_ProcessOSALMsg, NLME_ReJoinRequest
        LOCFRAME ISTACK, 0, STACK
        LOCFRAME PSTACK, 0, STACK
        LOCFRAME XSTACK, 11, STACK
        LOCFRAME IOVERLAY, 0, STATIC
        LOCFRAME DOVERLAY, 0, STATIC
        ARGFRAME ISTACK, 0, STACK
        ARGFRAME PSTACK, 0, STACK
        ARGFRAME XSTACK, 11, STACK
        ARGFRAME IOVERLAY, 0, STATIC
        ARGFRAME DOVERLAY, 0, STATIC
        FUNCALL ZDApp_ProcessOSALMsg, osal_rand
        LOCFRAME ISTACK, 0, STACK
        LOCFRAME PSTACK, 0, STACK
        LOCFRAME XSTACK, 11, STACK
        LOCFRAME IOVERLAY, 0, STATIC
        LOCFRAME DOVERLAY, 0, STATIC
        ARGFRAME ISTACK, 0, STACK
        ARGFRAME PSTACK, 0, STACK
        ARGFRAME XSTACK, 11, STACK
        ARGFRAME IOVERLAY, 0, STATIC
        ARGFRAME DOVERLAY, 0, STATIC
        FUNCALL ZDApp_ProcessOSALMsg, ZDApp_NetworkInit
        LOCFRAME ISTACK, 0, STACK
        LOCFRAME PSTACK, 0, STACK
        LOCFRAME XSTACK, 11, STACK
        LOCFRAME IOVERLAY, 0, STATIC
        LOCFRAME DOVERLAY, 0, STATIC
        ARGFRAME ISTACK, 0, STACK
        ARGFRAME PSTACK, 0, STACK
        ARGFRAME XSTACK, 11, STACK
        ARGFRAME IOVERLAY, 0, STATIC
        ARGFRAME DOVERLAY, 0, STATIC
        FUNCALL ZDApp_ProcessOSALMsg, NLME_SetPollRate
        LOCFRAME ISTACK, 0, STACK
        LOCFRAME PSTACK, 0, STACK
        LOCFRAME XSTACK, 11, STACK
        LOCFRAME IOVERLAY, 0, STATIC
        LOCFRAME DOVERLAY, 0, STATIC
        ARGFRAME ISTACK, 0, STACK
        ARGFRAME PSTACK, 0, STACK
        ARGFRAME XSTACK, 11, STACK
        ARGFRAME IOVERLAY, 0, STATIC
        ARGFRAME DOVERLAY, 0, STATIC
        FUNCALL ZDApp_ProcessOSALMsg, NLME_SetQueuedPollRate
        LOCFRAME ISTACK, 0, STACK
        LOCFRAME PSTACK, 0, STACK
        LOCFRAME XSTACK, 11, STACK
        LOCFRAME IOVERLAY, 0, STATIC
        LOCFRAME DOVERLAY, 0, STATIC
        ARGFRAME ISTACK, 0, STACK
        ARGFRAME PSTACK, 0, STACK
        ARGFRAME XSTACK, 11, STACK
        ARGFRAME IOVERLAY, 0, STATIC
        ARGFRAME DOVERLAY, 0, STATIC
        FUNCALL ZDApp_ProcessOSALMsg, NLME_SetResponseRate
        LOCFRAME ISTACK, 0, STACK
        LOCFRAME PSTACK, 0, STACK
        LOCFRAME XSTACK, 11, STACK
        LOCFRAME IOVERLAY, 0, STATIC
        LOCFRAME DOVERLAY, 0, STATIC
        ARGFRAME ISTACK, 0, STACK
        ARGFRAME PSTACK, 0, STACK
        ARGFRAME XSTACK, 11, STACK
        ARGFRAME IOVERLAY, 0, STATIC
        ARGFRAME DOVERLAY, 0, STATIC
        FUNCALL ZDApp_ProcessOSALMsg, osal_rand
        LOCFRAME ISTACK, 0, STACK
        LOCFRAME PSTACK, 0, STACK
        LOCFRAME XSTACK, 11, STACK
        LOCFRAME IOVERLAY, 0, STATIC
        LOCFRAME DOVERLAY, 0, STATIC
        ARGFRAME ISTACK, 0, STACK
        ARGFRAME PSTACK, 0, STACK
        ARGFRAME XSTACK, 11, STACK
        ARGFRAME IOVERLAY, 0, STATIC
        ARGFRAME DOVERLAY, 0, STATIC
        FUNCALL ZDApp_ProcessOSALMsg, ZDApp_NetworkInit
        LOCFRAME ISTACK, 0, STACK
        LOCFRAME PSTACK, 0, STACK
        LOCFRAME XSTACK, 11, STACK
        LOCFRAME IOVERLAY, 0, STATIC
        LOCFRAME DOVERLAY, 0, STATIC
        ARGFRAME ISTACK, 0, STACK
        ARGFRAME PSTACK, 0, STACK
        ARGFRAME XSTACK, 11, STACK
        ARGFRAME IOVERLAY, 0, STATIC
        ARGFRAME DOVERLAY, 0, STATIC
        FUNCALL ZDApp_ProcessOSALMsg, ZDApp_ProcessNetworkJoin
        LOCFRAME ISTACK, 0, STACK
        LOCFRAME PSTACK, 0, STACK
        LOCFRAME XSTACK, 11, STACK
        LOCFRAME IOVERLAY, 0, STATIC
        LOCFRAME DOVERLAY, 0, STATIC
        ARGFRAME ISTACK, 0, STACK
        ARGFRAME PSTACK, 0, STACK
        ARGFRAME XSTACK, 11, STACK
        ARGFRAME IOVERLAY, 0, STATIC
        ARGFRAME DOVERLAY, 0, STATIC
        FUNCALL ZDApp_ProcessOSALMsg, sAddrExtCpy
        LOCFRAME ISTACK, 0, STACK
        LOCFRAME PSTACK, 0, STACK
        LOCFRAME XSTACK, 11, STACK
        LOCFRAME IOVERLAY, 0, STATIC
        LOCFRAME DOVERLAY, 0, STATIC
        ARGFRAME ISTACK, 0, STACK
        ARGFRAME PSTACK, 0, STACK
        ARGFRAME XSTACK, 11, STACK
        ARGFRAME IOVERLAY, 0, STATIC
        ARGFRAME DOVERLAY, 0, STATIC
        FUNCALL ZDApp_ProcessOSALMsg, ZDApp_NetworkInit
        LOCFRAME ISTACK, 0, STACK
        LOCFRAME PSTACK, 0, STACK
        LOCFRAME XSTACK, 11, STACK
        LOCFRAME IOVERLAY, 0, STATIC
        LOCFRAME DOVERLAY, 0, STATIC
        ARGFRAME ISTACK, 0, STACK
        ARGFRAME PSTACK, 0, STACK
        ARGFRAME XSTACK, 11, STACK
        ARGFRAME IOVERLAY, 0, STATIC
        ARGFRAME DOVERLAY, 0, STATIC
        REQUIRE ?V0
        REQUIRE ?V1
        MOV     A,#-0xa
        LCALL   ?BANKED_ENTER_XDATA
          CFI DPH0 load(1, XDATA, add(CFA_XSP16, literal(-1)))
          CFI DPL0 load(1, XDATA, add(CFA_XSP16, literal(-2)))
          CFI ?BRET_EXT load(1, XDATA, add(CFA_XSP16, literal(-3)))
          CFI ?RET_HIGH load(1, XDATA, add(CFA_XSP16, literal(-4)))
          CFI ?RET_LOW load(1, XDATA, add(CFA_XSP16, literal(-5)))
          CFI R7 load(1, XDATA, add(CFA_XSP16, literal(-6)))
          CFI V1 load(1, XDATA, add(CFA_XSP16, literal(-7)))
          CFI V0 load(1, XDATA, add(CFA_XSP16, literal(-8)))
          CFI VB load(1, XDATA, add(CFA_XSP16, literal(-9)))
          CFI R6 load(1, XDATA, add(CFA_XSP16, literal(-10)))
          CFI CFA_SP SP+0
          CFI CFA_XSP16 add(XSP16, 10)
        ; Saved register size: 10
        ; Auto size: 1
        MOV     A,#-0x1
        LCALL   ?ALLOC_XSTACK8
          CFI CFA_XSP16 add(XSP16, 11)
// 1017   // Data Confirmation message fields
// 1018   uint8 sentEP;       // This should always be 0
// 1019   uint8 sentStatus;
// 1020   afDataConfirm_t *afDataConfirm;
// 1021   uint8 tmp;
// 1022 
// 1023   switch ( msgPtr->event )
        MOV     DPL,R2
        MOV     DPH,R3
        MOVX    A,@DPTR
        DEC     A
        JZ      ??ZDApp_ProcessOSALMsg_0
        DEC     A
        JNZ     $+5
        LJMP    ??ZDApp_ProcessOSALMsg_1 & 0xFFFF
        DEC     A
        JNZ     $+5
        LJMP    ??ZDApp_ProcessOSALMsg_2 & 0xFFFF
        ADD     A,#-0x17
        JZ      ??ZDApp_ProcessOSALMsg_3
        ADD     A,#0x47
        JZ      ??ZDApp_ProcessOSALMsg_4
        LJMP    ??ZDApp_ProcessOSALMsg_5 & 0xFFFF
// 1024   {
// 1025     // Incoming ZDO Message
// 1026     case AF_INCOMING_MSG_CMD:
// 1027       ZDP_IncomingData( (afIncomingMSGPacket_t *)msgPtr );
??ZDApp_ProcessOSALMsg_3:
        ; Setup parameters for call to function ZDP_IncomingData
        LCALL   ??ZDP_IncomingData?relay; Banked call to: ZDP_IncomingData
// 1028       break;
        LJMP    ??ZDApp_ProcessOSALMsg_5 & 0xFFFF
// 1029 
// 1030     case ZDO_CB_MSG:
// 1031       ZDApp_ProcessMsgCBs( (zdoIncomingMsg_t *)msgPtr );
??ZDApp_ProcessOSALMsg_4:
        ; Setup parameters for call to function ZDApp_ProcessMsgCBs
        LCALL   ??ZDApp_ProcessMsgCBs?relay; Banked call to: ZDApp_ProcessMsgCBs
// 1032       break;
        LJMP    ??ZDApp_ProcessOSALMsg_5 & 0xFFFF
// 1033 
// 1034     case AF_DATA_CONFIRM_CMD:
// 1035       // This message is received as a confirmation of a data packet sent.
// 1036       // The status is of ZStatus_t type [defined in NLMEDE.h]
// 1037       // The message fields are defined in AF.h
// 1038       afDataConfirm = (afDataConfirm_t *)msgPtr;
// 1039       sentEP = afDataConfirm->endpoint;
// 1040       sentStatus = afDataConfirm->hdr.status;
// 1041 
// 1042       // Action taken when confirmation is received.
// 1043 #if defined ( ZIGBEE_FREQ_AGILITY )
// 1044       if ( pZDNwkMgr_ProcessDataConfirm )
// 1045         pZDNwkMgr_ProcessDataConfirm( afDataConfirm );
// 1046 #endif
// 1047       (void)sentEP;
// 1048       (void)sentStatus;
// 1049       break;
// 1050 
// 1051     case ZDO_NWK_DISC_CNF:
// 1052       if (devState != DEV_NWK_DISC)
??ZDApp_ProcessOSALMsg_0:
        MOV     DPTR,#devState
        MOVX    A,@DPTR
        XRL     A,#0x2
        JZ      $+5
        LJMP    ??ZDApp_ProcessOSALMsg_5 & 0xFFFF
// 1053         break;
// 1054 
// 1055       if ( ZG_BUILD_JOINING_TYPE && ZG_DEVICE_JOINING_TYPE )
        MOV     DPTR,#zgDeviceLogicalType
        MOVX    A,@DPTR
        XRL     A,#0x1
        JZ      ??ZDApp_ProcessOSALMsg_6
        MOVX    A,@DPTR
        XRL     A,#0x2
        JZ      $+5
        LJMP    ??ZDApp_ProcessOSALMsg_5 & 0xFFFF
// 1056       {
// 1057         // Process the network discovery scan results and choose a parent
// 1058         // device to join/rejoin itself
// 1059         networkDesc_t *pChosenNwk;
// 1060         if ( ( (pChosenNwk = ZDApp_NwkDescListProcessing()) != NULL ) && (zdoDiscCounter > NUM_DISC_ATTEMPTS) )
??ZDApp_ProcessOSALMsg_6:
        ; Setup parameters for call to function ZDApp_NwkDescListProcessing
        LCALL   ??ZDApp_NwkDescListProcessing?relay; Banked call to: ZDApp_NwkDescListProcessing
        MOV     ?V0,R2
        MOV     ?V1,R3
        MOV     R6,?V0
        MOV     R7,?V1
        MOV     A,R6
        ORL     A,R7
        JNZ     $+5
        LJMP    ??ZDApp_ProcessOSALMsg_7 & 0xFFFF
        MOV     DPTR,#zdoDiscCounter
        MOVX    A,@DPTR
        CLR     C
        SUBB    A,#0x3
        JNC     $+5
        LJMP    ??ZDApp_ProcessOSALMsg_7 & 0xFFFF
// 1061         {
// 1062           if ( devStartMode == MODE_JOIN )
        MOV     DPTR,#devStartMode
        MOVX    A,@DPTR
        JNZ     ??ZDApp_ProcessOSALMsg_8
// 1063           {
// 1064             devState = DEV_NWK_JOINING;
        MOV     DPTR,#devState
        MOV     A,#0x3
        LCALL   ?Subroutine10 & 0xFFFF
// 1065 
// 1066             ZDApp_NodeProfileSync( pChosenNwk->stackProfile);
??CrossCallReturnLabel_0:
        MOVX    A,@DPTR
        MOV     R1,A
        LCALL   ??ZDApp_NodeProfileSync?relay; Banked call to: ZDApp_NodeProfileSync
// 1067 
// 1068             if ( NLME_JoinRequest( pChosenNwk->extendedPANID, pChosenNwk->panId,
// 1069                                   pChosenNwk->logicalChannel,
// 1070                                   ZDO_Config_Node_Descriptor.CapabilityFlags,
// 1071                                   pChosenNwk->chosenRouter, pChosenNwk->chosenRouterDepth ) != ZSuccess )
        ; Setup parameters for call to function NLME_JoinRequest
        MOV     DPL,R6
        MOV     DPH,R7
        INC     DPTR
        INC     DPTR
        INC     DPTR
        INC     DPTR
        INC     DPTR
        INC     DPTR
        INC     DPTR
        INC     DPTR
        INC     DPTR
        INC     DPTR
        MOVX    A,@DPTR
        MOV     ?V0,A
        MOV     R0,#?V0
        LCALL   ?PUSH_XSTACK_I_ONE
          CFI CFA_XSP16 add(XSP16, 12)
        MOV     DPL,R6
        MOV     DPH,R7
        INC     DPTR
        INC     DPTR
        INC     DPTR
        INC     DPTR
        INC     DPTR
        INC     DPTR
        INC     DPTR
        LCALL   ?PUSH_XSTACK8_X_TWO
          CFI CFA_XSP16 add(XSP16, 14)
        MOV     DPTR,#ZDO_Config_Node_Descriptor + 2
        MOVX    A,@DPTR
        MOV     ?V0,A
        MOV     R0,#?V0
        LCALL   ?PUSH_XSTACK_I_ONE
          CFI CFA_XSP16 add(XSP16, 15)
        MOV     DPL,R6
        MOV     DPH,R7
        INC     DPTR
        INC     DPTR
        MOVX    A,@DPTR
        MOV     R1,A
        MOV     DPL,R6
        MOV     DPH,R7
        MOVX    A,@DPTR
        MOV     R4,A
        INC     DPTR
        MOVX    A,@DPTR
        LCALL   ?Subroutine25 & 0xFFFF
// 1072             {
// 1073               ZDApp_NetworkInit( (uint16)(NWK_START_DELAY
// 1074                                           + ((uint16)(osal_rand()& EXTENDED_JOINING_RANDOM_MASK))) );
// 1075             }
// 1076           } // if ( devStartMode == MODE_JOIN )
??CrossCallReturnLabel_50:
        LCALL   ??NLME_JoinRequest?relay; Banked call to: NLME_JoinRequest
        MOV     A,#0x4
        LCALL   ?DEALLOC_XSTACK8
          CFI CFA_XSP16 add(XSP16, 11)
        SJMP    ??ZDApp_ProcessOSALMsg_9
// 1077           else if ( devStartMode == MODE_REJOIN )
??ZDApp_ProcessOSALMsg_8:
        XRL     A,#0x3
        JNZ     ??ZDApp_ProcessOSALMsg_10
// 1078           {
// 1079             devState = DEV_NWK_REJOIN;
        MOV     DPTR,#devState
        MOV     A,#0x4
        MOVX    @DPTR,A
// 1080 
// 1081             // Before trying to do rejoin, check if the device has a valid short address
// 1082             // If not, generate a random short address for itself
// 1083             if ( _NIB.nwkDevAddress == INVALID_NODE_ADDR )
        MOV     DPTR,#_NIB + 20
        MOVX    A,@DPTR
        XRL     A,#0xfe
        JNZ     ??ZDApp_ProcessOSALMsg_11
        INC     DPTR
        MOVX    A,@DPTR
        CPL     A
??ZDApp_ProcessOSALMsg_11:
        JNZ     ??ZDApp_ProcessOSALMsg_12
// 1084             {
// 1085               _NIB.nwkDevAddress = osal_rand();
        ; Setup parameters for call to function osal_rand
        LCALL   ??osal_rand?relay    ; Banked call to: osal_rand
        MOV     DPTR,#_NIB + 20
        LCALL   ??Subroutine48_0 & 0xFFFF
// 1086               ZMacSetReq( ZMacShortAddress, (byte*)&_NIB.nwkDevAddress );
??CrossCallReturnLabel_82:
        ; Setup parameters for call to function ZMacSetReq
        MOV     R2,#(_NIB + 20) & 0xff
        MOV     R3,#((_NIB + 20) >> 8) & 0xff
        MOV     R1,#0x53
        LCALL   ??ZMacSetReq?relay   ; Banked call to: ZMacSetReq
// 1087             }
// 1088 
// 1089             if ( ZG_SECURE_ENABLED )
// 1090             {
// 1091               ZDApp_RestoreNwkKey();
// 1092             }
// 1093 
// 1094             // Check if the device has a valid PanID, if not, set it to the discovered Pan
// 1095             if ( _NIB.nwkPanId == INVALID_PAN_ID )
??ZDApp_ProcessOSALMsg_12:
        MOV     DPTR,#_NIB + 33
        MOVX    A,@DPTR
        XRL     A,#0xfe
        JNZ     ??ZDApp_ProcessOSALMsg_13
        INC     DPTR
        MOVX    A,@DPTR
        CPL     A
??ZDApp_ProcessOSALMsg_13:
        JNZ     ??ZDApp_ProcessOSALMsg_14
// 1096             {
// 1097               _NIB.nwkPanId = pChosenNwk->panId;
        LCALL   ?Subroutine16 & 0xFFFF
??CrossCallReturnLabel_60:
        MOV     DPTR,#_NIB + 33
        MOV     A,R0
        MOVX    @DPTR,A
        INC     DPTR
        MOV     A,R1
        MOVX    @DPTR,A
// 1098               ZMacSetReq( ZMacPanId, (byte*)&(_NIB.nwkPanId) );
        ; Setup parameters for call to function ZMacSetReq
        MOV     R2,#(_NIB + 33) & 0xff
        MOV     R3,#((_NIB + 33) >> 8) & 0xff
        MOV     R1,#0x50
        LCALL   ??ZMacSetReq?relay   ; Banked call to: ZMacSetReq
// 1099             }
// 1100 
// 1101             tmp = true;
??ZDApp_ProcessOSALMsg_14:
        MOV     DPL,?XSP + 0
        MOV     DPH,?XSP + 1
        MOV     A,#0x1
        MOVX    @DPTR,A
// 1102             ZMacSetReq( ZMacRxOnIdle, &tmp ); // Set receiver always on during rejoin
        ; Setup parameters for call to function ZMacSetReq
        MOV     R2,?XSP + 0
        MOV     R3,?XSP + 1
        MOV     R1,#0x52
        LCALL   ??ZMacSetReq?relay   ; Banked call to: ZMacSetReq
// 1103             if ( NLME_ReJoinRequest( ZDO_UseExtendedPANID, pChosenNwk->logicalChannel) != ZSuccess )
        ; Setup parameters for call to function NLME_ReJoinRequest
        MOV     DPL,R6
        MOV     DPH,R7
        INC     DPTR
        INC     DPTR
        MOVX    A,@DPTR
        MOV     R1,A
        MOV     R2,#ZDO_UseExtendedPANID & 0xff
        MOV     R3,#(ZDO_UseExtendedPANID >> 8) & 0xff
        LCALL   ??NLME_ReJoinRequest?relay; Banked call to: NLME_ReJoinRequest
??ZDApp_ProcessOSALMsg_9:
        MOV     A,R1
        JZ      ??ZDApp_ProcessOSALMsg_10
// 1104             {
// 1105               ZDApp_NetworkInit( (uint16)(NWK_START_DELAY
// 1106                                           + ((uint16)(osal_rand()& EXTENDED_JOINING_RANDOM_MASK))) );
        ; Setup parameters for call to function ZDApp_NetworkInit
        ; Setup parameters for call to function osal_rand
        LCALL   ??osal_rand?relay    ; Banked call to: osal_rand
        MOV     A,R2
        ANL     A,#0x7f
        ADD     A,#0x64
        MOV     R2,A
        MOV     R3,#0x0
        LCALL   ??ZDApp_NetworkInit?relay; Banked call to: ZDApp_NetworkInit
// 1107             }
// 1108           } // else if ( devStartMode == MODE_REJOIN )
// 1109 
// 1110           if ( ZDO_Config_Node_Descriptor.CapabilityFlags & CAPINFO_RCVR_ON_IDLE )
??ZDApp_ProcessOSALMsg_10:
        MOV     DPTR,#ZDO_Config_Node_Descriptor + 2
        MOVX    A,@DPTR
        MOV     C,0xE0 /* A   */.3
        JNC     ??ZDApp_ProcessOSALMsg_5
// 1111           {
// 1112             // The receiver is on, turn network layer polling off.
// 1113             NLME_SetPollRate( 0 );
        ; Setup parameters for call to function NLME_SetPollRate
        MOV     R2,#0x0
        MOV     R3,#0x0
        LCALL   ??NLME_SetPollRate?relay; Banked call to: NLME_SetPollRate
// 1114             NLME_SetQueuedPollRate( 0 );
        ; Setup parameters for call to function NLME_SetQueuedPollRate
        MOV     R2,#0x0
        MOV     R3,#0x0
        LCALL   ??NLME_SetQueuedPollRate?relay; Banked call to: NLME_SetQueuedPollRate
// 1115             NLME_SetResponseRate( 0 );
        ; Setup parameters for call to function NLME_SetResponseRate
        MOV     R2,#0x0
        MOV     R3,#0x0
        LCALL   ??NLME_SetResponseRate?relay; Banked call to: NLME_SetResponseRate
        SJMP    ??ZDApp_ProcessOSALMsg_5
// 1116           }
// 1117           else
// 1118           {
// 1119             if ( (ZG_SECURE_ENABLED) && (devStartMode == MODE_JOIN) )
// 1120             {
// 1121               ZDApp_SavedPollRate = zgPollRate;
// 1122               NLME_SetPollRate( zgRejoinPollRate );
// 1123             }
// 1124           }
// 1125         }
// 1126         else
// 1127         {
// 1128           if ( continueJoining )
??ZDApp_ProcessOSALMsg_7:
        MOV     DPTR,#continueJoining
        MOVX    A,@DPTR
        JZ      ??ZDApp_ProcessOSALMsg_5
// 1129           {
// 1130     #if defined ( MANAGED_SCAN )
// 1131             ZDApp_NetworkInit( MANAGEDSCAN_DELAY_BETWEEN_SCANS );
// 1132     #else
// 1133             zdoDiscCounter++;
        MOV     DPTR,#zdoDiscCounter
        MOVX    A,@DPTR
        INC     A
        MOVX    @DPTR,A
// 1134             ZDApp_NetworkInit( (uint16)(BEACON_REQUEST_DELAY
// 1135                   + ((uint16)(osal_rand()& BEACON_REQ_DELAY_MASK))) );
        ; Setup parameters for call to function ZDApp_NetworkInit
        ; Setup parameters for call to function osal_rand
        LCALL   ??osal_rand?relay    ; Banked call to: osal_rand
        MOV     A,R2
        ADD     A,#0x64
        MOV     R2,A
        CLR     A
        ADDC    A,#0x0
        MOV     R3,A
        SJMP    ??ZDApp_ProcessOSALMsg_15
// 1136     #endif
// 1137           }
// 1138         }
// 1139       }
// 1140       break;
// 1141 
// 1142     case ZDO_NWK_JOIN_IND:
// 1143       if ( ZG_BUILD_JOINING_TYPE && ZG_DEVICE_JOINING_TYPE )
??ZDApp_ProcessOSALMsg_1:
        MOV     DPTR,#zgDeviceLogicalType
        MOVX    A,@DPTR
        XRL     A,#0x1
        JZ      ??ZDApp_ProcessOSALMsg_16
        MOVX    A,@DPTR
        XRL     A,#0x2
        JNZ     ??ZDApp_ProcessOSALMsg_5
// 1144       {
// 1145         ZDApp_ProcessNetworkJoin();
??ZDApp_ProcessOSALMsg_16:
        ; Setup parameters for call to function ZDApp_ProcessNetworkJoin
        LCALL   ??ZDApp_ProcessNetworkJoin?relay; Banked call to: ZDApp_ProcessNetworkJoin
        SJMP    ??ZDApp_ProcessOSALMsg_5
// 1146       }
// 1147       break;
// 1148 
// 1149     case ZDO_NWK_JOIN_REQ:
// 1150       if ( ZG_BUILD_JOINING_TYPE && ZG_DEVICE_JOINING_TYPE )
??ZDApp_ProcessOSALMsg_2:
        MOV     DPTR,#zgDeviceLogicalType
        MOVX    A,@DPTR
        XRL     A,#0x1
        JZ      ??ZDApp_ProcessOSALMsg_17
        MOVX    A,@DPTR
        XRL     A,#0x2
        JNZ     ??ZDApp_ProcessOSALMsg_5
// 1151       {
// 1152         retryCnt = 0;
??ZDApp_ProcessOSALMsg_17:
        MOV     DPTR,#retryCnt
        CLR     A
        MOVX    @DPTR,A
// 1153         devStartMode = MODE_RESUME;
        MOV     DPTR,#devStartMode
        INC     A
        MOVX    @DPTR,A
// 1154         _tmpRejoinState = true;
        MOV     DPTR,#_tmpRejoinState
        LCALL   ?Subroutine13 & 0xFFFF
// 1155         osal_cpyExtAddr( ZDO_UseExtendedPANID, _NIB.extendedPANID );
??CrossCallReturnLabel_5:
        LCALL   ??sAddrExtCpy?relay  ; Banked call to: sAddrExtCpy
// 1156         zgDefaultStartingScanDuration = BEACON_ORDER_60_MSEC;
        MOV     DPTR,#zgDefaultStartingScanDuration
        MOV     A,#0x2
        MOVX    @DPTR,A
// 1157         ZDApp_NetworkInit( 0 );
        ; Setup parameters for call to function ZDApp_NetworkInit
        MOV     R2,#0x0
        MOV     R3,#0x0
??ZDApp_ProcessOSALMsg_15:
        LCALL   ??ZDApp_NetworkInit?relay; Banked call to: ZDApp_NetworkInit
// 1158       }
// 1159       break;
// 1160 
// 1161     default:
// 1162       if ( ZG_SECURE_ENABLED )
// 1163         ZDApp_ProcessSecMsg( msgPtr );
// 1164       break;
// 1165   }
// 1166 
// 1167 }
??ZDApp_ProcessOSALMsg_5:
        MOV     A,#0x1
        LJMP    ??Subroutine40_0 & 0xFFFF
          CFI EndBlock cfiBlock24

        RSEG BANKED_CODE:CODE:NOROOT(0)
?Subroutine25:
          CFI Block cfiCond25 Using cfiCommon0
          CFI Function ZDApp_ProcessOSALMsg
          CFI Conditional ??CrossCallReturnLabel_50
          CFI R6 load(1, XDATA, add(CFA_XSP16, literal(-10)))
          CFI VB load(1, XDATA, add(CFA_XSP16, literal(-9)))
          CFI V0 load(1, XDATA, add(CFA_XSP16, literal(-8)))
          CFI V1 load(1, XDATA, add(CFA_XSP16, literal(-7)))
          CFI R7 load(1, XDATA, add(CFA_XSP16, literal(-6)))
          CFI ?RET_LOW load(1, XDATA, add(CFA_XSP16, literal(-5)))
          CFI ?RET_HIGH load(1, XDATA, add(CFA_XSP16, literal(-4)))
          CFI ?BRET_EXT load(1, XDATA, add(CFA_XSP16, literal(-3)))
          CFI DPL0 load(1, XDATA, add(CFA_XSP16, literal(-2)))
          CFI DPH0 load(1, XDATA, add(CFA_XSP16, literal(-1)))
          CFI CFA_SP SP+-2
          CFI CFA_XSP16 add(XSP16, 15)
          CFI Block cfiCond26 Using cfiCommon0
          CFI (cfiCond26) Function ZDO_beaconNotifyIndCB
          CFI (cfiCond26) Conditional ??CrossCallReturnLabel_51
          CFI (cfiCond26) R6 load(1, XDATA, add(CFA_XSP16, literal(-14)))
          CFI (cfiCond26) VB load(1, XDATA, add(CFA_XSP16, literal(-13)))
          CFI (cfiCond26) V0 load(1, XDATA, add(CFA_XSP16, literal(-12)))
          CFI (cfiCond26) V1 load(1, XDATA, add(CFA_XSP16, literal(-11)))
          CFI (cfiCond26) V2 load(1, XDATA, add(CFA_XSP16, literal(-10)))
          CFI (cfiCond26) V3 load(1, XDATA, add(CFA_XSP16, literal(-9)))
          CFI (cfiCond26) V4 load(1, XDATA, add(CFA_XSP16, literal(-8)))
          CFI (cfiCond26) V5 load(1, XDATA, add(CFA_XSP16, literal(-7)))
          CFI (cfiCond26) R7 load(1, XDATA, add(CFA_XSP16, literal(-6)))
          CFI (cfiCond26) ?RET_LOW load(1, XDATA, add(CFA_XSP16, literal(-5)))
          CFI (cfiCond26) ?RET_HIGH load(1, XDATA, add(CFA_XSP16, literal(-4)))
          CFI (cfiCond26) ?BRET_EXT load(1, XDATA, add(CFA_XSP16, literal(-3)))
          CFI (cfiCond26) DPL0 load(1, XDATA, add(CFA_XSP16, literal(-2)))
          CFI (cfiCond26) DPH0 load(1, XDATA, add(CFA_XSP16, literal(-1)))
          CFI (cfiCond26) CFA_SP SP+-2
          CFI (cfiCond26) CFA_XSP16 add(XSP16, 14)
          CFI Block cfiPicker27 Using cfiCommon1
          CFI (cfiPicker27) NoFunction
          CFI (cfiPicker27) Picker
        MOV     R5,A
          CFI EndBlock cfiCond25
          CFI EndBlock cfiCond26
          CFI EndBlock cfiPicker27
        REQUIRE ??Subroutine38_0
        ; // Fall through to label ??Subroutine38_0

        RSEG BANKED_CODE:CODE:NOROOT(0)
??Subroutine38_0:
          CFI Block cfiCond28 Using cfiCommon0
          CFI Function ZDO_beaconNotifyIndCB
          CFI Conditional ??CrossCallReturnLabel_49
          CFI R6 load(1, XDATA, add(CFA_XSP16, literal(-14)))
          CFI VB load(1, XDATA, add(CFA_XSP16, literal(-13)))
          CFI V0 load(1, XDATA, add(CFA_XSP16, literal(-12)))
          CFI V1 load(1, XDATA, add(CFA_XSP16, literal(-11)))
          CFI V2 load(1, XDATA, add(CFA_XSP16, literal(-10)))
          CFI V3 load(1, XDATA, add(CFA_XSP16, literal(-9)))
          CFI V4 load(1, XDATA, add(CFA_XSP16, literal(-8)))
          CFI V5 load(1, XDATA, add(CFA_XSP16, literal(-7)))
          CFI R7 load(1, XDATA, add(CFA_XSP16, literal(-6)))
          CFI ?RET_LOW load(1, XDATA, add(CFA_XSP16, literal(-5)))
          CFI ?RET_HIGH load(1, XDATA, add(CFA_XSP16, literal(-4)))
          CFI ?BRET_EXT load(1, XDATA, add(CFA_XSP16, literal(-3)))
          CFI DPL0 load(1, XDATA, add(CFA_XSP16, literal(-2)))
          CFI DPH0 load(1, XDATA, add(CFA_XSP16, literal(-1)))
          CFI CFA_SP SP+-2
          CFI CFA_XSP16 add(XSP16, 14)
          CFI Block cfiCond29 Using cfiCommon0
          CFI (cfiCond29) Function ZDApp_ProcessOSALMsg
          CFI (cfiCond29) Conditional ??CrossCallReturnLabel_50
          CFI (cfiCond29) R6 load(1, XDATA, add(CFA_XSP16, literal(-10)))
          CFI (cfiCond29) VB load(1, XDATA, add(CFA_XSP16, literal(-9)))
          CFI (cfiCond29) V0 load(1, XDATA, add(CFA_XSP16, literal(-8)))
          CFI (cfiCond29) V1 load(1, XDATA, add(CFA_XSP16, literal(-7)))
          CFI (cfiCond29) R7 load(1, XDATA, add(CFA_XSP16, literal(-6)))
          CFI (cfiCond29) ?RET_LOW load(1, XDATA, add(CFA_XSP16, literal(-5)))
          CFI (cfiCond29) ?RET_HIGH load(1, XDATA, add(CFA_XSP16, literal(-4)))
          CFI (cfiCond29) ?BRET_EXT load(1, XDATA, add(CFA_XSP16, literal(-3)))
          CFI (cfiCond29) DPL0 load(1, XDATA, add(CFA_XSP16, literal(-2)))
          CFI (cfiCond29) DPH0 load(1, XDATA, add(CFA_XSP16, literal(-1)))
          CFI (cfiCond29) CFA_SP SP+-2
          CFI (cfiCond29) CFA_XSP16 add(XSP16, 15)
          CFI Block cfiCond30 Using cfiCommon0
          CFI (cfiCond30) Function ZDO_beaconNotifyIndCB
          CFI (cfiCond30) Conditional ??CrossCallReturnLabel_51
          CFI (cfiCond30) R6 load(1, XDATA, add(CFA_XSP16, literal(-14)))
          CFI (cfiCond30) VB load(1, XDATA, add(CFA_XSP16, literal(-13)))
          CFI (cfiCond30) V0 load(1, XDATA, add(CFA_XSP16, literal(-12)))
          CFI (cfiCond30) V1 load(1, XDATA, add(CFA_XSP16, literal(-11)))
          CFI (cfiCond30) V2 load(1, XDATA, add(CFA_XSP16, literal(-10)))
          CFI (cfiCond30) V3 load(1, XDATA, add(CFA_XSP16, literal(-9)))
          CFI (cfiCond30) V4 load(1, XDATA, add(CFA_XSP16, literal(-8)))
          CFI (cfiCond30) V5 load(1, XDATA, add(CFA_XSP16, literal(-7)))
          CFI (cfiCond30) R7 load(1, XDATA, add(CFA_XSP16, literal(-6)))
          CFI (cfiCond30) ?RET_LOW load(1, XDATA, add(CFA_XSP16, literal(-5)))
          CFI (cfiCond30) ?RET_HIGH load(1, XDATA, add(CFA_XSP16, literal(-4)))
          CFI (cfiCond30) ?BRET_EXT load(1, XDATA, add(CFA_XSP16, literal(-3)))
          CFI (cfiCond30) DPL0 load(1, XDATA, add(CFA_XSP16, literal(-2)))
          CFI (cfiCond30) DPH0 load(1, XDATA, add(CFA_XSP16, literal(-1)))
          CFI (cfiCond30) CFA_SP SP+-2
          CFI (cfiCond30) CFA_XSP16 add(XSP16, 14)
          CFI Block cfiPicker31 Using cfiCommon1
          CFI (cfiPicker31) NoFunction
          CFI (cfiPicker31) Picker
        MOV     A,R6
        ADD     A,#0xb
        MOV     R2,A
        CLR     A
        ADDC    A,R7
        MOV     R3,A
        RET
          CFI EndBlock cfiCond28
          CFI EndBlock cfiCond29
          CFI EndBlock cfiCond30
          CFI EndBlock cfiPicker31

        RSEG BANKED_CODE:CODE:NOROOT(0)
?Subroutine13:
          CFI Block cfiCond32 Using cfiCommon0
          CFI Function ZDApp_RestoreNetworkState
          CFI Conditional ??CrossCallReturnLabel_4
          CFI R6 load(1, XDATA, add(CFA_XSP16, literal(-9)))
          CFI VB load(1, XDATA, add(CFA_XSP16, literal(-8)))
          CFI V0 load(1, XDATA, add(CFA_XSP16, literal(-7)))
          CFI R7 load(1, XDATA, add(CFA_XSP16, literal(-6)))
          CFI ?RET_LOW load(1, XDATA, add(CFA_XSP16, literal(-5)))
          CFI ?RET_HIGH load(1, XDATA, add(CFA_XSP16, literal(-4)))
          CFI ?BRET_EXT load(1, XDATA, add(CFA_XSP16, literal(-3)))
          CFI DPL0 load(1, XDATA, add(CFA_XSP16, literal(-2)))
          CFI DPH0 load(1, XDATA, add(CFA_XSP16, literal(-1)))
          CFI CFA_SP SP+-2
          CFI CFA_XSP16 add(XSP16, 9)
          CFI Block cfiCond33 Using cfiCommon0
          CFI (cfiCond33) Function ZDApp_ProcessOSALMsg
          CFI (cfiCond33) Conditional ??CrossCallReturnLabel_5
          CFI (cfiCond33) R6 load(1, XDATA, add(CFA_XSP16, literal(-10)))
          CFI (cfiCond33) VB load(1, XDATA, add(CFA_XSP16, literal(-9)))
          CFI (cfiCond33) V0 load(1, XDATA, add(CFA_XSP16, literal(-8)))
          CFI (cfiCond33) V1 load(1, XDATA, add(CFA_XSP16, literal(-7)))
          CFI (cfiCond33) R7 load(1, XDATA, add(CFA_XSP16, literal(-6)))
          CFI (cfiCond33) ?RET_LOW load(1, XDATA, add(CFA_XSP16, literal(-5)))
          CFI (cfiCond33) ?RET_HIGH load(1, XDATA, add(CFA_XSP16, literal(-4)))
          CFI (cfiCond33) ?BRET_EXT load(1, XDATA, add(CFA_XSP16, literal(-3)))
          CFI (cfiCond33) DPL0 load(1, XDATA, add(CFA_XSP16, literal(-2)))
          CFI (cfiCond33) DPH0 load(1, XDATA, add(CFA_XSP16, literal(-1)))
          CFI (cfiCond33) CFA_SP SP+-2
          CFI (cfiCond33) CFA_XSP16 add(XSP16, 11)
          CFI Block cfiPicker34 Using cfiCommon1
          CFI (cfiPicker34) NoFunction
          CFI (cfiPicker34) Picker
        MOVX    @DPTR,A
        ; Setup parameters for call to function sAddrExtCpy
        ; Setup parameters for call to function sAddrExtCpy
        MOV     R4,#(_NIB + 53) & 0xff
        MOV     R5,#((_NIB + 53) >> 8) & 0xff
        MOV     R2,#ZDO_UseExtendedPANID & 0xff
        MOV     R3,#(ZDO_UseExtendedPANID >> 8) & 0xff
        RET
          CFI EndBlock cfiCond32
          CFI EndBlock cfiCond33
          CFI EndBlock cfiPicker34
// 1168 
// 1169 /*********************************************************************
// 1170  * @fn      ZDApp_ProcessMsgCBs()
// 1171  *
// 1172  * @brief   Process response messages
// 1173  *
// 1174  * @param   none
// 1175  *
// 1176  * @return  none
// 1177  */

        RSEG BANKED_CODE:CODE:NOROOT(0)
// 1178 void ZDApp_ProcessMsgCBs( zdoIncomingMsg_t *inMsg )
ZDApp_ProcessMsgCBs:
          CFI Block cfiBlock35 Using cfiCommon0
          CFI Function ZDApp_ProcessMsgCBs
        CODE
// 1179 {
        FUNCALL ZDApp_ProcessMsgCBs, ZDO_ParseAddrRsp
        LOCFRAME ISTACK, 0, STACK
        LOCFRAME PSTACK, 0, STACK
        LOCFRAME XSTACK, 31, STACK
        LOCFRAME IOVERLAY, 0, STATIC
        LOCFRAME DOVERLAY, 0, STATIC
        ARGFRAME ISTACK, 0, STACK
        ARGFRAME PSTACK, 0, STACK
        ARGFRAME XSTACK, 31, STACK
        ARGFRAME IOVERLAY, 0, STATIC
        ARGFRAME DOVERLAY, 0, STATIC
        FUNCALL ZDApp_ProcessMsgCBs, ZDO_UpdateAddrManager
        LOCFRAME ISTACK, 0, STACK
        LOCFRAME PSTACK, 0, STACK
        LOCFRAME XSTACK, 31, STACK
        LOCFRAME IOVERLAY, 0, STATIC
        LOCFRAME DOVERLAY, 0, STATIC
        ARGFRAME ISTACK, 0, STACK
        ARGFRAME PSTACK, 0, STACK
        ARGFRAME XSTACK, 31, STACK
        ARGFRAME IOVERLAY, 0, STATIC
        ARGFRAME DOVERLAY, 0, STATIC
        FUNCALL ZDApp_ProcessMsgCBs, osal_mem_free
        LOCFRAME ISTACK, 0, STACK
        LOCFRAME PSTACK, 0, STACK
        LOCFRAME XSTACK, 31, STACK
        LOCFRAME IOVERLAY, 0, STATIC
        LOCFRAME DOVERLAY, 0, STATIC
        ARGFRAME ISTACK, 0, STACK
        ARGFRAME PSTACK, 0, STACK
        ARGFRAME XSTACK, 31, STACK
        ARGFRAME IOVERLAY, 0, STATIC
        ARGFRAME DOVERLAY, 0, STATIC
        FUNCALL ZDApp_ProcessMsgCBs, ZDO_ParseBindUnbindReq
        LOCFRAME ISTACK, 0, STACK
        LOCFRAME PSTACK, 0, STACK
        LOCFRAME XSTACK, 31, STACK
        LOCFRAME IOVERLAY, 0, STATIC
        LOCFRAME DOVERLAY, 0, STATIC
        ARGFRAME ISTACK, 0, STACK
        ARGFRAME PSTACK, 0, STACK
        ARGFRAME XSTACK, 31, STACK
        ARGFRAME IOVERLAY, 0, STATIC
        ARGFRAME DOVERLAY, 0, STATIC
        FUNCALL ZDApp_ProcessMsgCBs, ZDO_ProcessBindUnbindReq
        LOCFRAME ISTACK, 0, STACK
        LOCFRAME PSTACK, 0, STACK
        LOCFRAME XSTACK, 31, STACK
        LOCFRAME IOVERLAY, 0, STATIC
        LOCFRAME DOVERLAY, 0, STATIC
        ARGFRAME ISTACK, 0, STACK
        ARGFRAME PSTACK, 0, STACK
        ARGFRAME XSTACK, 31, STACK
        ARGFRAME IOVERLAY, 0, STATIC
        ARGFRAME DOVERLAY, 0, STATIC
        REQUIRE ?V0
        REQUIRE ?V1
        MOV     A,#-0xa
        LCALL   ?BANKED_ENTER_XDATA
          CFI DPH0 load(1, XDATA, add(CFA_XSP16, literal(-1)))
          CFI DPL0 load(1, XDATA, add(CFA_XSP16, literal(-2)))
          CFI ?BRET_EXT load(1, XDATA, add(CFA_XSP16, literal(-3)))
          CFI ?RET_HIGH load(1, XDATA, add(CFA_XSP16, literal(-4)))
          CFI ?RET_LOW load(1, XDATA, add(CFA_XSP16, literal(-5)))
          CFI R7 load(1, XDATA, add(CFA_XSP16, literal(-6)))
          CFI V1 load(1, XDATA, add(CFA_XSP16, literal(-7)))
          CFI V0 load(1, XDATA, add(CFA_XSP16, literal(-8)))
          CFI VB load(1, XDATA, add(CFA_XSP16, literal(-9)))
          CFI R6 load(1, XDATA, add(CFA_XSP16, literal(-10)))
          CFI CFA_SP SP+0
          CFI CFA_XSP16 add(XSP16, 10)
        ; Saved register size: 10
        ; Auto size: 21
        MOV     A,#-0x15
        LCALL   ?ALLOC_XSTACK8
          CFI CFA_XSP16 add(XSP16, 31)
        MOV     A,R2
        MOV     R6,A
        MOV     A,R3
        MOV     R7,A
// 1180   switch ( inMsg->clusterID )
        LCALL   ?Subroutine22 & 0xFFFF
??CrossCallReturnLabel_22:
        MOV     ?V1,A
        MOV     R0,#?V0
        LCALL   ?US_SWITCH_SPARSE
`?<Jumptable for ZDApp_ProcessMsgCBs>_0`:
        DATA
        DATA16
        DATA
        DATA16
        DATA
        DATA16
        DW        2
        DATA
        DATA16
        DATA
        DATA16
        DATA
        DATA16
        DW        33
        DATA
        DATA16
        DATA
        DATA16
        DW        34
        DATA
        DATA16
        DATA
        DATA16
        DATA
        DATA16
        DW        ??ZDApp_ProcessMsgCBs_0
        DATA
        DATA16
        DATA
        DATA16
        DATA
        DATA16
        DW        32768
        DATA
        DATA16
        DATA
        DATA16
        DW        32769
        DATA
        DATA16
        DATA
        DATA16
        DATA
        DATA16
        DW        ??ZDApp_ProcessMsgCBs_1
        DATA
        DATA16
        DATA
        DATA16
        DATA
        DATA16
        DW        0
        DATA
        DATA16
        DATA
        DATA16
        DW        ??ZDApp_ProcessMsgCBs_2
        CODE
// 1181   {
// 1182 #if defined ( ZDO_NWKADDR_REQUEST ) || defined ( ZDO_IEEEADDR_REQUEST ) || defined ( REFLECTOR )
// 1183     case NWK_addr_rsp:
// 1184     case IEEE_addr_rsp:
// 1185       {
// 1186         ZDO_NwkIEEEAddrResp_t *pAddrRsp;
// 1187         pAddrRsp = ZDO_ParseAddrRsp( inMsg );
??ZDApp_ProcessMsgCBs_1:
        ; Setup parameters for call to function ZDO_ParseAddrRsp
        LCALL   ??ZDO_ParseAddrRsp?relay; Banked call to: ZDO_ParseAddrRsp
        MOV     ?V0,R2
        MOV     ?V1,R3
        MOV     R6,?V0
        MOV     R7,?V1
// 1188         if ( pAddrRsp )
        MOV     A,R6
        ORL     A,R7
        JZ      ??ZDApp_ProcessMsgCBs_2
// 1189         {
// 1190           if ( pAddrRsp->status == ZSuccess )
        MOV     DPL,R6
        MOV     DPH,R7
        MOVX    A,@DPTR
        JNZ     ??ZDApp_ProcessMsgCBs_3
// 1191           {
// 1192             ZDO_UpdateAddrManager( pAddrRsp->nwkAddr, pAddrRsp->extAddr );
        ; Setup parameters for call to function ZDO_UpdateAddrManager
        MOV     A,R6
        ADD     A,#0x3
        MOV     R4,A
        CLR     A
        ADDC    A,R7
        MOV     R5,A
        LCALL   ?Subroutine20 & 0xFFFF
// 1193           }
??CrossCallReturnLabel_54:
        LCALL   ??ZDO_UpdateAddrManager?relay; Banked call to: ZDO_UpdateAddrManager
// 1194           osal_mem_free( pAddrRsp );
??ZDApp_ProcessMsgCBs_3:
        ; Setup parameters for call to function osal_mem_free
        MOV     A,R6
        MOV     R2,A
        MOV     A,R7
        MOV     R3,A
        LCALL   ??osal_mem_free?relay; Banked call to: osal_mem_free
        SJMP    ??ZDApp_ProcessMsgCBs_2
// 1195         }
// 1196       }
// 1197       break;
// 1198 #endif
// 1199 
// 1200 #if defined ( REFLECTOR )
// 1201     case Bind_req:
// 1202     case Unbind_req:
// 1203       {
// 1204         ZDO_BindUnbindReq_t bindReq;
// 1205         ZDO_ParseBindUnbindReq( inMsg, &bindReq );
??ZDApp_ProcessMsgCBs_0:
        ; Setup parameters for call to function ZDO_ParseBindUnbindReq
        MOV     R4,?XSP + 0
        MOV     R5,?XSP + 1
        LCALL   ??ZDO_ParseBindUnbindReq?relay; Banked call to: ZDO_ParseBindUnbindReq
// 1206         ZDO_ProcessBindUnbindReq( inMsg, &bindReq );
        ; Setup parameters for call to function ZDO_ProcessBindUnbindReq
        MOV     R4,?XSP + 0
        MOV     R5,?XSP + 1
        MOV     A,R6
        MOV     R2,A
        MOV     A,R7
        MOV     R3,A
        LCALL   ??ZDO_ProcessBindUnbindReq?relay; Banked call to: ZDO_ProcessBindUnbindReq
          CFI EndBlock cfiBlock35
// 1207       }
// 1208       break;
// 1209 #endif
// 1210 
// 1211 #if ( ZG_BUILD_COORDINATOR_TYPE )
// 1212     case Bind_rsp:
// 1213     case Unbind_rsp:
// 1214       if (ZG_DEVICE_COORDINATOR_TYPE && matchED)
// 1215       {
// 1216         ZDMatchSendState(
// 1217              (uint8)((inMsg->clusterID == Bind_rsp) ? ZDMATCH_REASON_BIND_RSP : ZDMATCH_REASON_UNBIND_RSP),
// 1218              ZDO_ParseBindRsp(inMsg), inMsg->TransSeq );
// 1219       }
// 1220       break;
// 1221 
// 1222     case End_Device_Bind_req:
// 1223       if (ZG_DEVICE_COORDINATOR_TYPE)
// 1224       {
// 1225         ZDEndDeviceBind_t bindReq;
// 1226         ZDO_ParseEndDeviceBindReq( inMsg, &bindReq );
// 1227         ZDO_MatchEndDeviceBind( &bindReq );
// 1228 
// 1229         // Freeing the cluster lists - if allocated.
// 1230         if ( bindReq.numInClusters )
// 1231           osal_mem_free( bindReq.inClusters );
// 1232         if ( bindReq.numOutClusters )
// 1233           osal_mem_free( bindReq.outClusters );
// 1234       }
// 1235       break;
// 1236 #endif
// 1237   }
// 1238 }
??ZDApp_ProcessMsgCBs_2:
        REQUIRE ?Subroutine8
        ; // Fall through to label ?Subroutine8

        RSEG BANKED_CODE:CODE:NOROOT(0)
?Subroutine8:
          CFI Block cfiBlock36 Using cfiCommon0
          CFI NoFunction
          CFI CFA_SP SP+0
          CFI CFA_XSP16 add(XSP16, 31)
          CFI VB load(1, XDATA, add(CFA_XSP16, literal(-9)))
          CFI DPL0 load(1, XDATA, add(CFA_XSP16, literal(-2)))
          CFI DPH0 load(1, XDATA, add(CFA_XSP16, literal(-1)))
          CFI R6 load(1, XDATA, add(CFA_XSP16, literal(-10)))
          CFI R7 load(1, XDATA, add(CFA_XSP16, literal(-6)))
          CFI V0 load(1, XDATA, add(CFA_XSP16, literal(-8)))
          CFI V1 load(1, XDATA, add(CFA_XSP16, literal(-7)))
          CFI ?BRET_EXT load(1, XDATA, add(CFA_XSP16, literal(-3)))
          CFI ?RET_HIGH load(1, XDATA, add(CFA_XSP16, literal(-4)))
          CFI ?RET_LOW load(1, XDATA, add(CFA_XSP16, literal(-5)))
        MOV     A,#0x15
        LJMP    ??Subroutine40_0 & 0xFFFF
          CFI EndBlock cfiBlock36

        RSEG BANKED_CODE:CODE:NOROOT(0)
?Subroutine20:
          CFI Block cfiCond37 Using cfiCommon0
          CFI Function ZDApp_ProcessMsgCBs
          CFI Conditional ??CrossCallReturnLabel_54
          CFI R6 load(1, XDATA, add(CFA_XSP16, literal(-10)))
          CFI VB load(1, XDATA, add(CFA_XSP16, literal(-9)))
          CFI V0 load(1, XDATA, add(CFA_XSP16, literal(-8)))
          CFI V1 load(1, XDATA, add(CFA_XSP16, literal(-7)))
          CFI R7 load(1, XDATA, add(CFA_XSP16, literal(-6)))
          CFI ?RET_LOW load(1, XDATA, add(CFA_XSP16, literal(-5)))
          CFI ?RET_HIGH load(1, XDATA, add(CFA_XSP16, literal(-4)))
          CFI ?BRET_EXT load(1, XDATA, add(CFA_XSP16, literal(-3)))
          CFI DPL0 load(1, XDATA, add(CFA_XSP16, literal(-2)))
          CFI DPH0 load(1, XDATA, add(CFA_XSP16, literal(-1)))
          CFI CFA_SP SP+-2
          CFI CFA_XSP16 add(XSP16, 31)
          CFI Block cfiCond38 Using cfiCommon0
          CFI (cfiCond38) Function ZDO_beaconNotifyIndCB
          CFI (cfiCond38) Conditional ??CrossCallReturnLabel_55
          CFI (cfiCond38) R6 load(1, XDATA, add(CFA_XSP16, literal(-14)))
          CFI (cfiCond38) VB load(1, XDATA, add(CFA_XSP16, literal(-13)))
          CFI (cfiCond38) V0 load(1, XDATA, add(CFA_XSP16, literal(-12)))
          CFI (cfiCond38) V1 load(1, XDATA, add(CFA_XSP16, literal(-11)))
          CFI (cfiCond38) V2 load(1, XDATA, add(CFA_XSP16, literal(-10)))
          CFI (cfiCond38) V3 load(1, XDATA, add(CFA_XSP16, literal(-9)))
          CFI (cfiCond38) V4 load(1, XDATA, add(CFA_XSP16, literal(-8)))
          CFI (cfiCond38) V5 load(1, XDATA, add(CFA_XSP16, literal(-7)))
          CFI (cfiCond38) R7 load(1, XDATA, add(CFA_XSP16, literal(-6)))
          CFI (cfiCond38) ?RET_LOW load(1, XDATA, add(CFA_XSP16, literal(-5)))
          CFI (cfiCond38) ?RET_HIGH load(1, XDATA, add(CFA_XSP16, literal(-4)))
          CFI (cfiCond38) ?BRET_EXT load(1, XDATA, add(CFA_XSP16, literal(-3)))
          CFI (cfiCond38) DPL0 load(1, XDATA, add(CFA_XSP16, literal(-2)))
          CFI (cfiCond38) DPH0 load(1, XDATA, add(CFA_XSP16, literal(-1)))
          CFI (cfiCond38) CFA_SP SP+-2
          CFI (cfiCond38) CFA_XSP16 add(XSP16, 14)
          CFI Block cfiPicker39 Using cfiCommon1
          CFI (cfiPicker39) NoFunction
          CFI (cfiPicker39) Picker
        INC     DPTR
          CFI EndBlock cfiCond37
          CFI EndBlock cfiCond38
          CFI EndBlock cfiPicker39
        REQUIRE ??Subroutine39_0
        ; // Fall through to label ??Subroutine39_0

        RSEG BANKED_CODE:CODE:NOROOT(0)
??Subroutine39_0:
          CFI Block cfiCond40 Using cfiCommon0
          CFI Function ZDApp_DeviceAuthEvt
          CFI Conditional ??CrossCallReturnLabel_52
          CFI DPL0 Frame(CFA_SP, 4)
          CFI DPH0 Frame(CFA_SP, 5)
          CFI CFA_SP SP+-7
          CFI Block cfiCond41 Using cfiCommon0
          CFI (cfiCond41) Function ZDO_LeaveInd
          CFI (cfiCond41) Conditional ??CrossCallReturnLabel_53
          CFI (cfiCond41) R6 load(1, XDATA, add(CFA_XSP16, literal(-10)))
          CFI (cfiCond41) VB load(1, XDATA, add(CFA_XSP16, literal(-9)))
          CFI (cfiCond41) V0 load(1, XDATA, add(CFA_XSP16, literal(-8)))
          CFI (cfiCond41) V1 load(1, XDATA, add(CFA_XSP16, literal(-7)))
          CFI (cfiCond41) R7 load(1, XDATA, add(CFA_XSP16, literal(-6)))
          CFI (cfiCond41) ?RET_LOW load(1, XDATA, add(CFA_XSP16, literal(-5)))
          CFI (cfiCond41) ?RET_HIGH load(1, XDATA, add(CFA_XSP16, literal(-4)))
          CFI (cfiCond41) ?BRET_EXT load(1, XDATA, add(CFA_XSP16, literal(-3)))
          CFI (cfiCond41) DPL0 load(1, XDATA, add(CFA_XSP16, literal(-2)))
          CFI (cfiCond41) DPH0 load(1, XDATA, add(CFA_XSP16, literal(-1)))
          CFI (cfiCond41) CFA_SP SP+-2
          CFI (cfiCond41) CFA_XSP16 add(XSP16, 10)
          CFI Block cfiCond42 Using cfiCommon0
          CFI (cfiCond42) Function ZDApp_ProcessMsgCBs
          CFI (cfiCond42) Conditional ??CrossCallReturnLabel_54
          CFI (cfiCond42) R6 load(1, XDATA, add(CFA_XSP16, literal(-10)))
          CFI (cfiCond42) VB load(1, XDATA, add(CFA_XSP16, literal(-9)))
          CFI (cfiCond42) V0 load(1, XDATA, add(CFA_XSP16, literal(-8)))
          CFI (cfiCond42) V1 load(1, XDATA, add(CFA_XSP16, literal(-7)))
          CFI (cfiCond42) R7 load(1, XDATA, add(CFA_XSP16, literal(-6)))
          CFI (cfiCond42) ?RET_LOW load(1, XDATA, add(CFA_XSP16, literal(-5)))
          CFI (cfiCond42) ?RET_HIGH load(1, XDATA, add(CFA_XSP16, literal(-4)))
          CFI (cfiCond42) ?BRET_EXT load(1, XDATA, add(CFA_XSP16, literal(-3)))
          CFI (cfiCond42) DPL0 load(1, XDATA, add(CFA_XSP16, literal(-2)))
          CFI (cfiCond42) DPH0 load(1, XDATA, add(CFA_XSP16, literal(-1)))
          CFI (cfiCond42) CFA_SP SP+-2
          CFI (cfiCond42) CFA_XSP16 add(XSP16, 31)
          CFI Block cfiCond43 Using cfiCommon0
          CFI (cfiCond43) Function ZDO_beaconNotifyIndCB
          CFI (cfiCond43) Conditional ??CrossCallReturnLabel_55
          CFI (cfiCond43) R6 load(1, XDATA, add(CFA_XSP16, literal(-14)))
          CFI (cfiCond43) VB load(1, XDATA, add(CFA_XSP16, literal(-13)))
          CFI (cfiCond43) V0 load(1, XDATA, add(CFA_XSP16, literal(-12)))
          CFI (cfiCond43) V1 load(1, XDATA, add(CFA_XSP16, literal(-11)))
          CFI (cfiCond43) V2 load(1, XDATA, add(CFA_XSP16, literal(-10)))
          CFI (cfiCond43) V3 load(1, XDATA, add(CFA_XSP16, literal(-9)))
          CFI (cfiCond43) V4 load(1, XDATA, add(CFA_XSP16, literal(-8)))
          CFI (cfiCond43) V5 load(1, XDATA, add(CFA_XSP16, literal(-7)))
          CFI (cfiCond43) R7 load(1, XDATA, add(CFA_XSP16, literal(-6)))
          CFI (cfiCond43) ?RET_LOW load(1, XDATA, add(CFA_XSP16, literal(-5)))
          CFI (cfiCond43) ?RET_HIGH load(1, XDATA, add(CFA_XSP16, literal(-4)))
          CFI (cfiCond43) ?BRET_EXT load(1, XDATA, add(CFA_XSP16, literal(-3)))
          CFI (cfiCond43) DPL0 load(1, XDATA, add(CFA_XSP16, literal(-2)))
          CFI (cfiCond43) DPH0 load(1, XDATA, add(CFA_XSP16, literal(-1)))
          CFI (cfiCond43) CFA_SP SP+-2
          CFI (cfiCond43) CFA_XSP16 add(XSP16, 14)
          CFI Block cfiPicker44 Using cfiCommon1
          CFI (cfiPicker44) NoFunction
          CFI (cfiPicker44) Picker
        MOVX    A,@DPTR
        MOV     R2,A
        INC     DPTR
        MOVX    A,@DPTR
        MOV     R3,A
        RET
          CFI EndBlock cfiCond40
          CFI EndBlock cfiCond41
          CFI EndBlock cfiCond42
          CFI EndBlock cfiCond43
          CFI EndBlock cfiPicker44
// 1239 
// 1240 /*********************************************************************
// 1241  * @fn      ZDApp_RegisterCBs()
// 1242  *
// 1243  * @brief   Process response messages
// 1244  *
// 1245  * @param   none
// 1246  *
// 1247  * @return  none
// 1248  */

        RSEG BANKED_CODE:CODE:NOROOT(0)
// 1249 void ZDApp_RegisterCBs( void )
ZDApp_RegisterCBs:
          CFI Block cfiBlock45 Using cfiCommon0
          CFI Function ZDApp_RegisterCBs
        CODE
// 1250 {
        FUNCALL ZDApp_RegisterCBs, ZDO_RegisterForZDOMsg
        LOCFRAME ISTACK, 2, STACK
        LOCFRAME PSTACK, 0, STACK
        LOCFRAME XSTACK, 0, STACK
        LOCFRAME IOVERLAY, 0, STATIC
        LOCFRAME DOVERLAY, 0, STATIC
        ARGFRAME ISTACK, 2, STACK
        ARGFRAME PSTACK, 0, STACK
        ARGFRAME XSTACK, 0, STACK
        ARGFRAME IOVERLAY, 0, STATIC
        ARGFRAME DOVERLAY, 0, STATIC
        FUNCALL ZDApp_RegisterCBs, ZDO_RegisterForZDOMsg
        LOCFRAME ISTACK, 2, STACK
        LOCFRAME PSTACK, 0, STACK
        LOCFRAME XSTACK, 0, STACK
        LOCFRAME IOVERLAY, 0, STATIC
        LOCFRAME DOVERLAY, 0, STATIC
        ARGFRAME ISTACK, 2, STACK
        ARGFRAME PSTACK, 0, STACK
        ARGFRAME XSTACK, 0, STACK
        ARGFRAME IOVERLAY, 0, STATIC
        ARGFRAME DOVERLAY, 0, STATIC
        FUNCALL ZDApp_RegisterCBs, ZDO_RegisterForZDOMsg
        LOCFRAME ISTACK, 2, STACK
        LOCFRAME PSTACK, 0, STACK
        LOCFRAME XSTACK, 0, STACK
        LOCFRAME IOVERLAY, 0, STATIC
        LOCFRAME DOVERLAY, 0, STATIC
        ARGFRAME ISTACK, 2, STACK
        ARGFRAME PSTACK, 0, STACK
        ARGFRAME XSTACK, 0, STACK
        ARGFRAME IOVERLAY, 0, STATIC
        ARGFRAME DOVERLAY, 0, STATIC
        FUNCALL ZDApp_RegisterCBs, ZDO_RegisterForZDOMsg
        LOCFRAME ISTACK, 2, STACK
        LOCFRAME PSTACK, 0, STACK
        LOCFRAME XSTACK, 0, STACK
        LOCFRAME IOVERLAY, 0, STATIC
        LOCFRAME DOVERLAY, 0, STATIC
        ARGFRAME ISTACK, 2, STACK
        ARGFRAME PSTACK, 0, STACK
        ARGFRAME XSTACK, 0, STACK
        ARGFRAME IOVERLAY, 0, STATIC
        ARGFRAME DOVERLAY, 0, STATIC
        PUSH    DPL
          CFI DPL0 Frame(CFA_SP, 4)
          CFI CFA_SP SP+-4
        PUSH    DPH
          CFI DPH0 Frame(CFA_SP, 5)
          CFI CFA_SP SP+-5
        ; Saved register size: 2
        ; Auto size: 0
// 1251 #if defined ( ZDO_IEEEADDR_REQUEST ) || defined ( REFLECTOR )
// 1252   ZDO_RegisterForZDOMsg( ZDAppTaskID, IEEE_addr_rsp );
        ; Setup parameters for call to function ZDO_RegisterForZDOMsg
        MOV     R2,#0x1
        MOV     R3,#-0x80
        MOV     DPTR,#ZDAppTaskID
        MOVX    A,@DPTR
        MOV     R1,A
        LCALL   ??ZDO_RegisterForZDOMsg?relay; Banked call to: ZDO_RegisterForZDOMsg
// 1253 #endif
// 1254 #if defined ( ZDO_NWKADDR_REQUEST ) || defined ( REFLECTOR )
// 1255   ZDO_RegisterForZDOMsg( ZDAppTaskID, NWK_addr_rsp );
        ; Setup parameters for call to function ZDO_RegisterForZDOMsg
        MOV     R2,#0x0
        MOV     R3,#-0x80
        MOV     DPTR,#ZDAppTaskID
        MOVX    A,@DPTR
        MOV     R1,A
        LCALL   ??ZDO_RegisterForZDOMsg?relay; Banked call to: ZDO_RegisterForZDOMsg
// 1256 #endif
// 1257 #if ZG_BUILD_COORDINATOR_TYPE
// 1258   ZDO_RegisterForZDOMsg( ZDAppTaskID, Bind_rsp );
// 1259   ZDO_RegisterForZDOMsg( ZDAppTaskID, Unbind_rsp );
// 1260   ZDO_RegisterForZDOMsg( ZDAppTaskID, End_Device_Bind_req );
// 1261 #endif
// 1262 #if defined ( REFLECTOR )
// 1263   ZDO_RegisterForZDOMsg( ZDAppTaskID, Bind_req );
        ; Setup parameters for call to function ZDO_RegisterForZDOMsg
        MOV     R2,#0x21
        MOV     R3,#0x0
        MOV     DPTR,#ZDAppTaskID
        MOVX    A,@DPTR
        MOV     R1,A
        LCALL   ??ZDO_RegisterForZDOMsg?relay; Banked call to: ZDO_RegisterForZDOMsg
// 1264   ZDO_RegisterForZDOMsg( ZDAppTaskID, Unbind_req );
        ; Setup parameters for call to function ZDO_RegisterForZDOMsg
        MOV     R2,#0x22
        MOV     R3,#0x0
        MOV     DPTR,#ZDAppTaskID
        MOVX    A,@DPTR
        MOV     R1,A
        LCALL   ??ZDO_RegisterForZDOMsg?relay; Banked call to: ZDO_RegisterForZDOMsg
// 1265 #endif
// 1266 }
        LJMP    ?Subroutine3 & 0xFFFF
          CFI EndBlock cfiBlock45
// 1267 
// 1268 /*********************************************************************
// 1269  * @fn      ZDApp_ProcessSecMsg()
// 1270  *
// 1271  * @brief   Process the incoming security message.
// 1272  *
// 1273  * @param   msgPtr - message to process
// 1274  *
// 1275  * @return  none
// 1276  */

        RSEG BANKED_CODE:CODE:NOROOT(0)
// 1277 void ZDApp_ProcessSecMsg( osal_event_hdr_t *msgPtr )
ZDApp_ProcessSecMsg:
          CFI Block cfiBlock46 Using cfiCommon0
          CFI Function ZDApp_ProcessSecMsg
        CODE
// 1278 {
        FUNCALL ZDApp_ProcessSecMsg, ZDSecMgrTransportKeyInd
        LOCFRAME ISTACK, 2, STACK
        LOCFRAME PSTACK, 0, STACK
        LOCFRAME XSTACK, 0, STACK
        LOCFRAME IOVERLAY, 0, STATIC
        LOCFRAME DOVERLAY, 0, STATIC
        ARGFRAME ISTACK, 2, STACK
        ARGFRAME PSTACK, 0, STACK
        ARGFRAME XSTACK, 0, STACK
        ARGFRAME IOVERLAY, 0, STATIC
        ARGFRAME DOVERLAY, 0, STATIC
        FUNCALL ZDApp_ProcessSecMsg, ZDSecMgrSwitchKeyInd
        LOCFRAME ISTACK, 2, STACK
        LOCFRAME PSTACK, 0, STACK
        LOCFRAME XSTACK, 0, STACK
        LOCFRAME IOVERLAY, 0, STATIC
        LOCFRAME DOVERLAY, 0, STATIC
        ARGFRAME ISTACK, 2, STACK
        ARGFRAME PSTACK, 0, STACK
        ARGFRAME XSTACK, 0, STACK
        ARGFRAME IOVERLAY, 0, STATIC
        ARGFRAME DOVERLAY, 0, STATIC
        PUSH    DPL
          CFI DPL0 Frame(CFA_SP, 4)
          CFI CFA_SP SP+-4
        PUSH    DPH
          CFI DPH0 Frame(CFA_SP, 5)
          CFI CFA_SP SP+-5
        ; Saved register size: 2
        ; Auto size: 0
// 1279   switch ( msgPtr->event )
        MOV     DPL,R2
        MOV     DPH,R3
        MOVX    A,@DPTR
        ADD     A,#-0x6
        JZ      ??ZDApp_ProcessSecMsg_0
        ADD     A,#-0x4
        JZ      ??ZDApp_ProcessSecMsg_1
        SJMP    ??ZDApp_ProcessSecMsg_2
// 1280   {
// 1281     case ZDO_ESTABLISH_KEY_CFM:
// 1282       if ( ZG_CHECK_SECURITY_MODE == ZG_SECURITY_PRO_HIGH )
// 1283       {
// 1284         ZDSecMgrEstablishKeyCfm( (ZDO_EstablishKeyCfm_t*)msgPtr );
// 1285       }
// 1286       break;
// 1287 
// 1288     case ZDO_ESTABLISH_KEY_IND:
// 1289       if ( ZG_CHECK_SECURITY_MODE == ZG_SECURITY_PRO_HIGH )
// 1290       {
// 1291         if ( ZG_BUILD_JOINING_TYPE && ZG_DEVICE_JOINING_TYPE )
// 1292         {
// 1293           ZDSecMgrEstablishKeyInd( (ZDO_EstablishKeyInd_t*)msgPtr );
// 1294         }
// 1295       }
// 1296       break;
// 1297 
// 1298     case ZDO_TRANSPORT_KEY_IND:
// 1299       if ( ZG_BUILD_JOINING_TYPE && ZG_DEVICE_JOINING_TYPE )
??ZDApp_ProcessSecMsg_0:
        MOV     DPTR,#zgDeviceLogicalType
        MOVX    A,@DPTR
        XRL     A,#0x1
        JZ      ??ZDApp_ProcessSecMsg_3
        MOVX    A,@DPTR
        XRL     A,#0x2
        JNZ     ??ZDApp_ProcessSecMsg_2
// 1300       {
// 1301         ZDSecMgrTransportKeyInd( (ZDO_TransportKeyInd_t*)msgPtr );
??ZDApp_ProcessSecMsg_3:
        ; Setup parameters for call to function ZDSecMgrTransportKeyInd
        LCALL   ??ZDSecMgrTransportKeyInd?relay; Banked call to: ZDSecMgrTransportKeyInd
        SJMP    ??ZDApp_ProcessSecMsg_2
// 1302       }
// 1303       break;
// 1304 
// 1305     case ZDO_UPDATE_DEVICE_IND:
// 1306       if ( ZG_BUILD_COORDINATOR_TYPE && ZG_DEVICE_COORDINATOR_TYPE )
// 1307       {
// 1308         ZDSecMgrUpdateDeviceInd( (ZDO_UpdateDeviceInd_t*)msgPtr );
// 1309       }
// 1310       break;
// 1311 
// 1312     case ZDO_REMOVE_DEVICE_IND:
// 1313       if ( ZG_BUILD_RTRONLY_TYPE && ( zgDeviceLogicalType == ZG_DEVICETYPE_ROUTER ) )
// 1314       {
// 1315         ZDSecMgrRemoveDeviceInd( (ZDO_RemoveDeviceInd_t*)msgPtr );
// 1316       }
// 1317       break;
// 1318 
// 1319     case ZDO_REQUEST_KEY_IND:
// 1320       if (( ZG_CHECK_SECURITY_MODE == ZG_SECURITY_PRO_HIGH ) ||
// 1321           ( ZG_CHECK_SECURITY_MODE == ZG_SECURITY_SE_STANDARD ))
// 1322       {
// 1323         if ( ZG_BUILD_COORDINATOR_TYPE && ZG_DEVICE_COORDINATOR_TYPE )
// 1324         {
// 1325           ZDSecMgrRequestKeyInd( (ZDO_RequestKeyInd_t*)msgPtr );
// 1326         }
// 1327       }
// 1328       break;
// 1329 
// 1330     case ZDO_SWITCH_KEY_IND:
// 1331       if ( ZG_BUILD_JOINING_TYPE && ZG_DEVICE_JOINING_TYPE )
??ZDApp_ProcessSecMsg_1:
        MOV     DPTR,#zgDeviceLogicalType
        MOVX    A,@DPTR
        XRL     A,#0x1
        JZ      ??ZDApp_ProcessSecMsg_4
        MOVX    A,@DPTR
        XRL     A,#0x2
        JNZ     ??ZDApp_ProcessSecMsg_2
// 1332       {
// 1333         ZDSecMgrSwitchKeyInd( (ZDO_SwitchKeyInd_t*)msgPtr );
??ZDApp_ProcessSecMsg_4:
        ; Setup parameters for call to function ZDSecMgrSwitchKeyInd
        LCALL   ??ZDSecMgrSwitchKeyInd?relay; Banked call to: ZDSecMgrSwitchKeyInd
// 1334       }
// 1335       break;
// 1336 
// 1337     case ZDO_AUTHENTICATE_IND:
// 1338       if ( ZG_CHECK_SECURITY_MODE == ZG_SECURITY_PRO_HIGH )
// 1339       {
// 1340         ZDSecMgrAuthenticateInd( (ZDO_AuthenticateInd_t*)msgPtr );
// 1341       }
// 1342       break;
// 1343 
// 1344     case ZDO_AUTHENTICATE_CFM:
// 1345       if ( ZG_CHECK_SECURITY_MODE == ZG_SECURITY_PRO_HIGH )
// 1346       {
// 1347         ZDSecMgrAuthenticateCfm( (ZDO_AuthenticateCfm_t*)msgPtr );
// 1348       }
// 1349       break;
// 1350 
// 1351     default:
// 1352       // Unsupported messages
// 1353       break;
// 1354   }
// 1355 }
??ZDApp_ProcessSecMsg_2:
        LJMP    ?Subroutine3 & 0xFFFF
          CFI EndBlock cfiBlock46
// 1356 
// 1357 /*********************************************************************
// 1358  * @fn      ZDApp_ProcessNetworkJoin()
// 1359  *
// 1360  * @brief
// 1361  *
// 1362  *   Save off the Network key information.
// 1363  *
// 1364  * @param   none
// 1365  *
// 1366  * @return  none
// 1367  */

        RSEG BANKED_CODE:CODE:NOROOT(0)
// 1368 void ZDApp_ProcessNetworkJoin( void )
ZDApp_ProcessNetworkJoin:
          CFI Block cfiBlock47 Using cfiCommon0
          CFI Function ZDApp_ProcessNetworkJoin
        CODE
// 1369 {
        FUNCALL ZDApp_ProcessNetworkJoin, osal_set_event
        LOCFRAME ISTACK, 0, STACK
        LOCFRAME PSTACK, 0, STACK
        LOCFRAME XSTACK, 12, STACK
        LOCFRAME IOVERLAY, 0, STATIC
        LOCFRAME DOVERLAY, 0, STATIC
        ARGFRAME ISTACK, 0, STACK
        ARGFRAME PSTACK, 0, STACK
        ARGFRAME XSTACK, 12, STACK
        ARGFRAME IOVERLAY, 0, STATIC
        ARGFRAME DOVERLAY, 0, STATIC
        FUNCALL ZDApp_ProcessNetworkJoin, ZDApp_AnnounceNewAddress
        LOCFRAME ISTACK, 0, STACK
        LOCFRAME PSTACK, 0, STACK
        LOCFRAME XSTACK, 12, STACK
        LOCFRAME IOVERLAY, 0, STATIC
        LOCFRAME DOVERLAY, 0, STATIC
        ARGFRAME ISTACK, 0, STACK
        ARGFRAME PSTACK, 0, STACK
        ARGFRAME XSTACK, 12, STACK
        ARGFRAME IOVERLAY, 0, STATIC
        ARGFRAME DOVERLAY, 0, STATIC
        FUNCALL ZDApp_ProcessNetworkJoin, NLME_GetShortAddr
        LOCFRAME ISTACK, 0, STACK
        LOCFRAME PSTACK, 0, STACK
        LOCFRAME XSTACK, 12, STACK
        LOCFRAME IOVERLAY, 0, STATIC
        LOCFRAME DOVERLAY, 0, STATIC
        ARGFRAME ISTACK, 0, STACK
        ARGFRAME PSTACK, 0, STACK
        ARGFRAME XSTACK, 12, STACK
        ARGFRAME IOVERLAY, 0, STATIC
        ARGFRAME DOVERLAY, 0, STATIC
        FUNCALL ZDApp_ProcessNetworkJoin, ZMacSetReq
        LOCFRAME ISTACK, 0, STACK
        LOCFRAME PSTACK, 0, STACK
        LOCFRAME XSTACK, 12, STACK
        LOCFRAME IOVERLAY, 0, STATIC
        LOCFRAME DOVERLAY, 0, STATIC
        ARGFRAME ISTACK, 0, STACK
        ARGFRAME PSTACK, 0, STACK
        ARGFRAME XSTACK, 12, STACK
        ARGFRAME IOVERLAY, 0, STATIC
        ARGFRAME DOVERLAY, 0, STATIC
        FUNCALL ZDApp_ProcessNetworkJoin, nwkNeighborInitTable
        LOCFRAME ISTACK, 0, STACK
        LOCFRAME PSTACK, 0, STACK
        LOCFRAME XSTACK, 12, STACK
        LOCFRAME IOVERLAY, 0, STATIC
        LOCFRAME DOVERLAY, 0, STATIC
        ARGFRAME ISTACK, 0, STACK
        ARGFRAME PSTACK, 0, STACK
        ARGFRAME XSTACK, 12, STACK
        ARGFRAME IOVERLAY, 0, STATIC
        ARGFRAME DOVERLAY, 0, STATIC
        FUNCALL ZDApp_ProcessNetworkJoin, NLME_NwkDiscTerm
        LOCFRAME ISTACK, 0, STACK
        LOCFRAME PSTACK, 0, STACK
        LOCFRAME XSTACK, 12, STACK
        LOCFRAME IOVERLAY, 0, STATIC
        LOCFRAME DOVERLAY, 0, STATIC
        ARGFRAME ISTACK, 0, STACK
        ARGFRAME PSTACK, 0, STACK
        ARGFRAME XSTACK, 12, STACK
        ARGFRAME IOVERLAY, 0, STATIC
        ARGFRAME DOVERLAY, 0, STATIC
        FUNCALL ZDApp_ProcessNetworkJoin, osal_rand
        LOCFRAME ISTACK, 0, STACK
        LOCFRAME PSTACK, 0, STACK
        LOCFRAME XSTACK, 12, STACK
        LOCFRAME IOVERLAY, 0, STATIC
        LOCFRAME DOVERLAY, 0, STATIC
        ARGFRAME ISTACK, 0, STACK
        ARGFRAME PSTACK, 0, STACK
        ARGFRAME XSTACK, 12, STACK
        ARGFRAME IOVERLAY, 0, STATIC
        ARGFRAME DOVERLAY, 0, STATIC
        FUNCALL ZDApp_ProcessNetworkJoin, ZDApp_NetworkInit
        LOCFRAME ISTACK, 0, STACK
        LOCFRAME PSTACK, 0, STACK
        LOCFRAME XSTACK, 12, STACK
        LOCFRAME IOVERLAY, 0, STATIC
        LOCFRAME DOVERLAY, 0, STATIC
        ARGFRAME ISTACK, 0, STACK
        ARGFRAME PSTACK, 0, STACK
        ARGFRAME XSTACK, 12, STACK
        ARGFRAME IOVERLAY, 0, STATIC
        ARGFRAME DOVERLAY, 0, STATIC
        FUNCALL ZDApp_ProcessNetworkJoin, osal_set_event
        LOCFRAME ISTACK, 0, STACK
        LOCFRAME PSTACK, 0, STACK
        LOCFRAME XSTACK, 12, STACK
        LOCFRAME IOVERLAY, 0, STATIC
        LOCFRAME DOVERLAY, 0, STATIC
        ARGFRAME ISTACK, 0, STACK
        ARGFRAME PSTACK, 0, STACK
        ARGFRAME XSTACK, 12, STACK
        ARGFRAME IOVERLAY, 0, STATIC
        ARGFRAME DOVERLAY, 0, STATIC
        FUNCALL ZDApp_ProcessNetworkJoin, NLME_SetPollRate
        LOCFRAME ISTACK, 0, STACK
        LOCFRAME PSTACK, 0, STACK
        LOCFRAME XSTACK, 12, STACK
        LOCFRAME IOVERLAY, 0, STATIC
        LOCFRAME DOVERLAY, 0, STATIC
        ARGFRAME ISTACK, 0, STACK
        ARGFRAME PSTACK, 0, STACK
        ARGFRAME XSTACK, 12, STACK
        ARGFRAME IOVERLAY, 0, STATIC
        ARGFRAME DOVERLAY, 0, STATIC
        FUNCALL ZDApp_ProcessNetworkJoin, NLME_SetQueuedPollRate
        LOCFRAME ISTACK, 0, STACK
        LOCFRAME PSTACK, 0, STACK
        LOCFRAME XSTACK, 12, STACK
        LOCFRAME IOVERLAY, 0, STATIC
        LOCFRAME DOVERLAY, 0, STATIC
        ARGFRAME ISTACK, 0, STACK
        ARGFRAME PSTACK, 0, STACK
        ARGFRAME XSTACK, 12, STACK
        ARGFRAME IOVERLAY, 0, STATIC
        ARGFRAME DOVERLAY, 0, STATIC
        FUNCALL ZDApp_ProcessNetworkJoin, NLME_SetResponseRate
        LOCFRAME ISTACK, 0, STACK
        LOCFRAME PSTACK, 0, STACK
        LOCFRAME XSTACK, 12, STACK
        LOCFRAME IOVERLAY, 0, STATIC
        LOCFRAME DOVERLAY, 0, STATIC
        ARGFRAME ISTACK, 0, STACK
        ARGFRAME PSTACK, 0, STACK
        ARGFRAME XSTACK, 12, STACK
        ARGFRAME IOVERLAY, 0, STATIC
        ARGFRAME DOVERLAY, 0, STATIC
        FUNCALL ZDApp_ProcessNetworkJoin, ZDApp_AnnounceNewAddress
        LOCFRAME ISTACK, 0, STACK
        LOCFRAME PSTACK, 0, STACK
        LOCFRAME XSTACK, 12, STACK
        LOCFRAME IOVERLAY, 0, STATIC
        LOCFRAME DOVERLAY, 0, STATIC
        ARGFRAME ISTACK, 0, STACK
        ARGFRAME PSTACK, 0, STACK
        ARGFRAME XSTACK, 12, STACK
        ARGFRAME IOVERLAY, 0, STATIC
        ARGFRAME DOVERLAY, 0, STATIC
        FUNCALL ZDApp_ProcessNetworkJoin, nwkNeighborInitTable
        LOCFRAME ISTACK, 0, STACK
        LOCFRAME PSTACK, 0, STACK
        LOCFRAME XSTACK, 12, STACK
        LOCFRAME IOVERLAY, 0, STATIC
        LOCFRAME DOVERLAY, 0, STATIC
        ARGFRAME ISTACK, 0, STACK
        ARGFRAME PSTACK, 0, STACK
        ARGFRAME XSTACK, 12, STACK
        ARGFRAME IOVERLAY, 0, STATIC
        ARGFRAME DOVERLAY, 0, STATIC
        FUNCALL ZDApp_ProcessNetworkJoin, NLME_NwkDiscTerm
        LOCFRAME ISTACK, 0, STACK
        LOCFRAME PSTACK, 0, STACK
        LOCFRAME XSTACK, 12, STACK
        LOCFRAME IOVERLAY, 0, STATIC
        LOCFRAME DOVERLAY, 0, STATIC
        ARGFRAME ISTACK, 0, STACK
        ARGFRAME PSTACK, 0, STACK
        ARGFRAME XSTACK, 12, STACK
        ARGFRAME IOVERLAY, 0, STATIC
        ARGFRAME DOVERLAY, 0, STATIC
        FUNCALL ZDApp_ProcessNetworkJoin, osal_rand
        LOCFRAME ISTACK, 0, STACK
        LOCFRAME PSTACK, 0, STACK
        LOCFRAME XSTACK, 12, STACK
        LOCFRAME IOVERLAY, 0, STATIC
        LOCFRAME DOVERLAY, 0, STATIC
        ARGFRAME ISTACK, 0, STACK
        ARGFRAME PSTACK, 0, STACK
        ARGFRAME XSTACK, 12, STACK
        ARGFRAME IOVERLAY, 0, STATIC
        ARGFRAME DOVERLAY, 0, STATIC
        FUNCALL ZDApp_ProcessNetworkJoin, ZDApp_NetworkInit
        LOCFRAME ISTACK, 0, STACK
        LOCFRAME PSTACK, 0, STACK
        LOCFRAME XSTACK, 12, STACK
        LOCFRAME IOVERLAY, 0, STATIC
        LOCFRAME DOVERLAY, 0, STATIC
        ARGFRAME ISTACK, 0, STACK
        ARGFRAME PSTACK, 0, STACK
        ARGFRAME XSTACK, 12, STACK
        ARGFRAME IOVERLAY, 0, STATIC
        ARGFRAME DOVERLAY, 0, STATIC
        FUNCALL ZDApp_ProcessNetworkJoin, ZDApp_AnnounceNewAddress
        LOCFRAME ISTACK, 0, STACK
        LOCFRAME PSTACK, 0, STACK
        LOCFRAME XSTACK, 12, STACK
        LOCFRAME IOVERLAY, 0, STATIC
        LOCFRAME DOVERLAY, 0, STATIC
        ARGFRAME ISTACK, 0, STACK
        ARGFRAME PSTACK, 0, STACK
        ARGFRAME XSTACK, 12, STACK
        ARGFRAME IOVERLAY, 0, STATIC
        ARGFRAME DOVERLAY, 0, STATIC
        FUNCALL ZDApp_ProcessNetworkJoin, osal_set_event
        LOCFRAME ISTACK, 0, STACK
        LOCFRAME PSTACK, 0, STACK
        LOCFRAME XSTACK, 12, STACK
        LOCFRAME IOVERLAY, 0, STATIC
        LOCFRAME DOVERLAY, 0, STATIC
        ARGFRAME ISTACK, 0, STACK
        ARGFRAME PSTACK, 0, STACK
        ARGFRAME XSTACK, 12, STACK
        ARGFRAME IOVERLAY, 0, STATIC
        ARGFRAME DOVERLAY, 0, STATIC
        REQUIRE ?V0
        REQUIRE ?V1
        MOV     A,#-0xa
        LCALL   ?BANKED_ENTER_XDATA
          CFI DPH0 load(1, XDATA, add(CFA_XSP16, literal(-1)))
          CFI DPL0 load(1, XDATA, add(CFA_XSP16, literal(-2)))
          CFI ?BRET_EXT load(1, XDATA, add(CFA_XSP16, literal(-3)))
          CFI ?RET_HIGH load(1, XDATA, add(CFA_XSP16, literal(-4)))
          CFI ?RET_LOW load(1, XDATA, add(CFA_XSP16, literal(-5)))
          CFI R7 load(1, XDATA, add(CFA_XSP16, literal(-6)))
          CFI V1 load(1, XDATA, add(CFA_XSP16, literal(-7)))
          CFI V0 load(1, XDATA, add(CFA_XSP16, literal(-8)))
          CFI VB load(1, XDATA, add(CFA_XSP16, literal(-9)))
          CFI R6 load(1, XDATA, add(CFA_XSP16, literal(-10)))
          CFI CFA_SP SP+0
          CFI CFA_XSP16 add(XSP16, 10)
        ; Saved register size: 10
        ; Auto size: 2
        MOV     A,#-0x2
        LCALL   ?ALLOC_XSTACK8
          CFI CFA_XSP16 add(XSP16, 12)
// 1370   if ( (devState == DEV_NWK_JOINING) ||
// 1371       ((devState == DEV_NWK_ORPHAN)  &&
// 1372        (ZDO_Config_Node_Descriptor.LogicalType == NODETYPE_ROUTER)) )
        MOV     DPTR,#devState
        MOVX    A,@DPTR
        XRL     A,#0x3
        JZ      ??ZDApp_ProcessNetworkJoin_0
        MOVX    A,@DPTR
        XRL     A,#0xa
        JZ      $+5
        LJMP    ??ZDApp_ProcessNetworkJoin_1 & 0xFFFF
        MOV     DPTR,#ZDO_Config_Node_Descriptor
        MOVX    A,@DPTR
        ANL     A,#0x7
        XRL     A,#0x1
        JZ      $+5
        LJMP    ??ZDApp_ProcessNetworkJoin_2 & 0xFFFF
// 1373   {
// 1374     // Result of a Join attempt by this device.
// 1375     if ( nwkStatus == ZSuccess )
??ZDApp_ProcessNetworkJoin_0:
        MOV     DPTR,#nwkStatus
        MOVX    A,@DPTR
        JNZ     ??ZDApp_ProcessNetworkJoin_3
// 1376     {
// 1377       osal_set_event( ZDAppTaskID, ZDO_STATE_CHANGE_EVT );
        ; Setup parameters for call to function osal_set_event
        MOV     R2,#0x10
        MOV     R3,#0x0
        MOV     DPTR,#ZDAppTaskID
        MOVX    A,@DPTR
        MOV     R1,A
        LCALL   ??osal_set_event?relay; Banked call to: osal_set_event
// 1378 
// 1379 #if defined ( POWER_SAVING )
// 1380       osal_pwrmgr_device( PWRMGR_BATTERY );
// 1381 #endif
// 1382 
// 1383       if ( ZG_SECURE_ENABLED && ( ZDApp_RestoreNwkKey() == false ) )
// 1384       {
// 1385         // wait for auth from trust center!!
// 1386         devState = DEV_END_DEVICE_UNAUTH;
// 1387 
// 1388         // Start the reset timer for MAX UNAUTH time
// 1389         ZDApp_ResetTimerStart( 10000 );//MAX_DEVICE_UNAUTH_TIMEOUT );
// 1390       }
// 1391       else
// 1392       {
// 1393         if ( ZSTACK_ROUTER_BUILD )
// 1394         {
// 1395           if ( devState == DEV_NWK_ORPHAN
// 1396             && ZDO_Config_Node_Descriptor.LogicalType != NODETYPE_DEVICE )
// 1397           {
// 1398             // Change NIB state to router for restore
// 1399             _NIB.nwkState = NWK_ROUTER;
// 1400           }
// 1401         }
// 1402 
// 1403         if ( devState == DEV_NWK_JOINING )
        MOV     DPTR,#devState
        MOVX    A,@DPTR
        XRL     A,#0x3
        JNZ     ??ZDApp_ProcessNetworkJoin_4
// 1404         {
// 1405           ZDApp_AnnounceNewAddress();
        ; Setup parameters for call to function ZDApp_AnnounceNewAddress
        LCALL   ??ZDApp_AnnounceNewAddress?relay; Banked call to: ZDApp_AnnounceNewAddress
// 1406         }
// 1407 
// 1408         devState = DEV_END_DEVICE;
??ZDApp_ProcessNetworkJoin_4:
        MOV     DPTR,#devState
        MOV     A,#0x6
        MOVX    @DPTR,A
// 1409         if ( ZSTACK_ROUTER_BUILD )
        LJMP    ??ZDApp_ProcessNetworkJoin_5 & 0xFFFF
// 1410         {
// 1411           // NOTE: first two parameters are not used, see NLMEDE.h for details
// 1412           if ( ZDO_Config_Node_Descriptor.LogicalType != NODETYPE_DEVICE )
// 1413           {
// 1414             NLME_StartRouterRequest( 0, 0, false );
// 1415           }
// 1416         }
// 1417       }
// 1418     }
// 1419     else
// 1420     {
// 1421       if ( (devStartMode == MODE_RESUME) && (++retryCnt >= MAX_RESUME_RETRY) )
??ZDApp_ProcessNetworkJoin_3:
        MOV     DPTR,#devStartMode
        MOVX    A,@DPTR
        XRL     A,#0x1
        JNZ     ??ZDApp_ProcessNetworkJoin_6
        MOV     DPTR,#retryCnt
        MOVX    A,@DPTR
        INC     A
        MOVX    @DPTR,A
        CLR     C
        SUBB    A,#0x3
        JC      ??ZDApp_ProcessNetworkJoin_6
// 1422       {
// 1423         if ( _NIB.nwkPanId == 0xFFFF || _NIB.nwkPanId == INVALID_PAN_ID )
        MOV     DPTR,#_NIB + 33
        MOVX    A,@DPTR
        CPL     A
        JNZ     ??ZDApp_ProcessNetworkJoin_7
        INC     DPTR
        MOVX    A,@DPTR
        CPL     A
??ZDApp_ProcessNetworkJoin_7:
        JZ      ??ZDApp_ProcessNetworkJoin_8
        MOV     DPTR,#_NIB + 33
        MOVX    A,@DPTR
        XRL     A,#0xfe
        JNZ     ??ZDApp_ProcessNetworkJoin_9
        INC     DPTR
        MOVX    A,@DPTR
        CPL     A
??ZDApp_ProcessNetworkJoin_9:
        JNZ     ??ZDApp_ProcessNetworkJoin_10
// 1424           devStartMode = MODE_JOIN;
??ZDApp_ProcessNetworkJoin_8:
        MOV     DPTR,#devStartMode
        CLR     A
        SJMP    ??ZDApp_ProcessNetworkJoin_11
// 1425         else
// 1426         {
// 1427           devStartMode = MODE_REJOIN;
??ZDApp_ProcessNetworkJoin_10:
        MOV     DPTR,#devStartMode
        MOV     A,#0x3
        MOVX    @DPTR,A
// 1428           _tmpRejoinState = true;
        MOV     DPTR,#_tmpRejoinState
        MOV     A,#0x1
??ZDApp_ProcessNetworkJoin_11:
        MOVX    @DPTR,A
// 1429         }
// 1430       }
// 1431 
// 1432       if ( (NLME_GetShortAddr() != INVALID_NODE_ADDR) ||
// 1433            (_NIB.nwkDevAddress != INVALID_NODE_ADDR) )
??ZDApp_ProcessNetworkJoin_6:
        ; Setup parameters for call to function NLME_GetShortAddr
        LCALL   ??NLME_GetShortAddr?relay; Banked call to: NLME_GetShortAddr
        MOV     ?V0,R2
        MOV     ?V1,R3
        MOV     A,#-0x2
        XRL     A,?V0
        JNZ     ??ZDApp_ProcessNetworkJoin_12
        MOV     A,#-0x1
        XRL     A,?V1
??ZDApp_ProcessNetworkJoin_12:
        JNZ     ??ZDApp_ProcessNetworkJoin_13
        MOV     DPTR,#_NIB + 20
        MOVX    A,@DPTR
        XRL     A,#0xfe
        JNZ     ??ZDApp_ProcessNetworkJoin_14
        INC     DPTR
        MOVX    A,@DPTR
        CPL     A
??ZDApp_ProcessNetworkJoin_14:
        JZ      ??ZDApp_ProcessNetworkJoin_15
// 1434       {
// 1435         uint16 addr = INVALID_NODE_ADDR;
??ZDApp_ProcessNetworkJoin_13:
        MOV     DPL,?XSP + 0
        MOV     DPH,?XSP + 1
        MOV     A,#-0x2
        MOVX    @DPTR,A
        INC     DPTR
        INC     A
        MOVX    @DPTR,A
// 1436         // Invalidate nwk addr so end device does not use in its data reqs.
// 1437         _NIB.nwkDevAddress = INVALID_NODE_ADDR;
        MOV     DPTR,#_NIB + 20
        DEC     A
        MOVX    @DPTR,A
        INC     DPTR
        INC     A
        MOVX    @DPTR,A
// 1438         ZMacSetReq( ZMacShortAddress, (uint8 *)&addr );
        ; Setup parameters for call to function ZMacSetReq
        MOV     R2,?XSP + 0
        MOV     R3,?XSP + 1
        MOV     R1,#0x53
        LCALL   ??ZMacSetReq?relay   ; Banked call to: ZMacSetReq
// 1439       }
// 1440 
// 1441       // Clear the neighbor Table and network discovery tables.
// 1442       nwkNeighborInitTable();
??ZDApp_ProcessNetworkJoin_15:
        ; Setup parameters for call to function nwkNeighborInitTable
        LCALL   ??nwkNeighborInitTable?relay; Banked call to: nwkNeighborInitTable
// 1443       NLME_NwkDiscTerm();
        ; Setup parameters for call to function NLME_NwkDiscTerm
        LCALL   ??NLME_NwkDiscTerm?relay; Banked call to: NLME_NwkDiscTerm
// 1444 
// 1445       zdoDiscCounter = 1;
        MOV     DPTR,#zdoDiscCounter
        MOV     A,#0x1
        MOVX    @DPTR,A
// 1446 
// 1447 //      ZDApp_NetworkInit( (uint16)
// 1448 //                         ((NWK_START_DELAY * (osal_rand() & 0x0F)) +
// 1449 //                          (NWK_START_DELAY * 5)) );
// 1450       ZDApp_NetworkInit( (uint16)(NWK_START_DELAY
// 1451            + ((uint16)(osal_rand()& EXTENDED_JOINING_RANDOM_MASK))) );
        ; Setup parameters for call to function ZDApp_NetworkInit
        ; Setup parameters for call to function osal_rand
        LJMP    ??ZDApp_ProcessNetworkJoin_16 & 0xFFFF
// 1452     }
// 1453   }
// 1454   else if ( devState == DEV_NWK_ORPHAN || devState == DEV_NWK_REJOIN )
??ZDApp_ProcessNetworkJoin_1:
        MOVX    A,@DPTR
        XRL     A,#0x4
        JZ      $+5
        LJMP    ??ZDApp_ProcessNetworkJoin_17 & 0xFFFF
// 1455   {
// 1456     // results of an orphaning attempt by this device
// 1457     if (nwkStatus == ZSuccess)
??ZDApp_ProcessNetworkJoin_2:
        MOV     DPTR,#nwkStatus
        MOVX    A,@DPTR
        JNZ     ??ZDApp_ProcessNetworkJoin_18
// 1458     {
// 1459       if ( ZG_SECURE_ENABLED )
// 1460       {
// 1461         ZDApp_RestoreNwkKey();
// 1462       }
// 1463 
// 1464       devState = DEV_END_DEVICE;
        LCALL   ?Subroutine9 & 0xFFFF
// 1465       osal_set_event( ZDAppTaskID, ZDO_STATE_CHANGE_EVT );
??CrossCallReturnLabel_47:
        LCALL   ??osal_set_event?relay; Banked call to: osal_set_event
// 1466       // setup Power Manager Device
// 1467 #if defined ( POWER_SAVING )
// 1468       osal_pwrmgr_device( PWRMGR_BATTERY );
// 1469 #endif
// 1470 
// 1471       if ( ZDO_Config_Node_Descriptor.CapabilityFlags & CAPINFO_RCVR_ON_IDLE )
        MOV     DPTR,#ZDO_Config_Node_Descriptor + 2
        MOVX    A,@DPTR
        MOV     C,0xE0 /* A   */.3
        JNC     ??ZDApp_ProcessNetworkJoin_19
// 1472       {
// 1473         // The receiver is on, turn network layer polling off.
// 1474         NLME_SetPollRate( 0 );
        ; Setup parameters for call to function NLME_SetPollRate
        MOV     R2,#0x0
        MOV     R3,#0x0
        LCALL   ??NLME_SetPollRate?relay; Banked call to: NLME_SetPollRate
// 1475         NLME_SetQueuedPollRate( 0 );
        ; Setup parameters for call to function NLME_SetQueuedPollRate
        MOV     R2,#0x0
        MOV     R3,#0x0
        LCALL   ??NLME_SetQueuedPollRate?relay; Banked call to: NLME_SetQueuedPollRate
// 1476         NLME_SetResponseRate( 0 );
        ; Setup parameters for call to function NLME_SetResponseRate
        MOV     R2,#0x0
        MOV     R3,#0x0
        LCALL   ??NLME_SetResponseRate?relay; Banked call to: NLME_SetResponseRate
// 1477       }
// 1478 
// 1479       if ( ZSTACK_ROUTER_BUILD )
// 1480       {
// 1481         // NOTE: first two parameters are not used, see NLMEDE.h for details
// 1482         if ( ZDO_Config_Node_Descriptor.LogicalType != NODETYPE_DEVICE )
// 1483         {
// 1484           NLME_StartRouterRequest( 0, 0, false );
// 1485         }
// 1486       }
// 1487 
// 1488       ZDApp_AnnounceNewAddress();
??ZDApp_ProcessNetworkJoin_19:
        ; Setup parameters for call to function ZDApp_AnnounceNewAddress
        LCALL   ??ZDApp_AnnounceNewAddress?relay; Banked call to: ZDApp_AnnounceNewAddress
        SJMP    ??ZDApp_ProcessNetworkJoin_5
// 1489     }
// 1490     else
// 1491     {
// 1492       if ( devStartMode == MODE_RESUME )
??ZDApp_ProcessNetworkJoin_18:
        MOV     DPTR,#devStartMode
        MOVX    A,@DPTR
        XRL     A,#0x1
        JNZ     ??ZDApp_ProcessNetworkJoin_20
// 1493       {
// 1494         if ( ++retryCnt <= MAX_RESUME_RETRY )
        MOV     DPTR,#retryCnt
        MOVX    A,@DPTR
        INC     A
        MOVX    @DPTR,A
        CLR     C
        SUBB    A,#0x4
        JNC     ??ZDApp_ProcessNetworkJoin_21
// 1495         {
// 1496           if ( _NIB.nwkPanId == 0xFFFF || _NIB.nwkPanId == INVALID_PAN_ID )
        MOV     DPTR,#_NIB + 33
        MOVX    A,@DPTR
        CPL     A
        JNZ     ??ZDApp_ProcessNetworkJoin_22
        INC     DPTR
        MOVX    A,@DPTR
        CPL     A
??ZDApp_ProcessNetworkJoin_22:
        JZ      ??ZDApp_ProcessNetworkJoin_23
        MOV     DPTR,#_NIB + 33
        MOVX    A,@DPTR
        XRL     A,#0xfe
        JNZ     ??ZDApp_ProcessNetworkJoin_24
        INC     DPTR
        MOVX    A,@DPTR
        CPL     A
??ZDApp_ProcessNetworkJoin_24:
        JZ      ??ZDApp_ProcessNetworkJoin_23
// 1497             devStartMode = MODE_JOIN;
// 1498           else
// 1499           {
// 1500             devStartMode = MODE_REJOIN;
        MOV     DPTR,#devStartMode
        MOV     A,#0x3
        MOVX    @DPTR,A
// 1501             _tmpRejoinState = true;
        MOV     DPTR,#_tmpRejoinState
        MOV     A,#0x1
        SJMP    ??ZDApp_ProcessNetworkJoin_25
// 1502           }
// 1503         }
// 1504         // Do a normal join to the network after certain times of rejoin retries
// 1505         else if( AIB_apsUseInsecureJoin == true )
??ZDApp_ProcessNetworkJoin_21:
        MOV     DPTR,#AIB_apsUseInsecureJoin
        MOVX    A,@DPTR
        XRL     A,#0x1
        JNZ     ??ZDApp_ProcessNetworkJoin_20
// 1506         {
// 1507           devStartMode = MODE_JOIN;
??ZDApp_ProcessNetworkJoin_23:
        MOV     DPTR,#devStartMode
        CLR     A
??ZDApp_ProcessNetworkJoin_25:
        MOVX    @DPTR,A
// 1508         }
// 1509       }
// 1510 
// 1511       // Clear the neighbor Table and network discovery tables.
// 1512       nwkNeighborInitTable();
??ZDApp_ProcessNetworkJoin_20:
        ; Setup parameters for call to function nwkNeighborInitTable
        LCALL   ??nwkNeighborInitTable?relay; Banked call to: nwkNeighborInitTable
// 1513       NLME_NwkDiscTerm();
        ; Setup parameters for call to function NLME_NwkDiscTerm
        LCALL   ??NLME_NwkDiscTerm?relay; Banked call to: NLME_NwkDiscTerm
// 1514 
// 1515       // setup a retry for later...
// 1516       ZDApp_NetworkInit( (uint16)(NWK_START_DELAY
// 1517            + (osal_rand()& EXTENDED_JOINING_RANDOM_MASK)) );
        ; Setup parameters for call to function ZDApp_NetworkInit
        ; Setup parameters for call to function osal_rand
??ZDApp_ProcessNetworkJoin_16:
        LCALL   ??osal_rand?relay    ; Banked call to: osal_rand
        MOV     A,R2
        ANL     A,#0x7f
        ADD     A,#0x64
        MOV     R2,A
        MOV     R3,#0x0
        LCALL   ??ZDApp_NetworkInit?relay; Banked call to: ZDApp_NetworkInit
        SJMP    ??ZDApp_ProcessNetworkJoin_5
// 1518     }
// 1519   }
// 1520 #if defined ( ZIGBEE_STOCHASTIC_ADDRESSING )
// 1521   else
// 1522   {
// 1523     // Assume from address conflict
// 1524     if ( _NIB.nwkAddrAlloc == NWK_ADDRESSING_STOCHASTIC )
??ZDApp_ProcessNetworkJoin_17:
        MOV     DPTR,#_NIB + 96
        MOVX    A,@DPTR
        XRL     A,#0x2
        JNZ     ??ZDApp_ProcessNetworkJoin_5
// 1525     {
// 1526       // Notify the network
// 1527       ZDApp_AnnounceNewAddress();
        ; Setup parameters for call to function ZDApp_AnnounceNewAddress
        LCALL   ??ZDApp_AnnounceNewAddress?relay; Banked call to: ZDApp_AnnounceNewAddress
// 1528 
// 1529       // Notify apps
// 1530       osal_set_event( ZDAppTaskID, ZDO_STATE_CHANGE_EVT );
        ; Setup parameters for call to function osal_set_event
        MOV     R2,#0x10
        MOV     R3,#0x0
        MOV     DPTR,#ZDAppTaskID
        MOVX    A,@DPTR
        MOV     R1,A
        LCALL   ??osal_set_event?relay; Banked call to: osal_set_event
// 1531     }
// 1532   }
// 1533 #endif
// 1534 }
??ZDApp_ProcessNetworkJoin_5:
        LJMP    ?Subroutine7 & 0xFFFF
          CFI EndBlock cfiBlock47
// 1535 
// 1536 /*********************************************************************
// 1537  * @fn      ZDApp_SaveNwkKey()
// 1538  *
// 1539  * @brief   Save off the Network key information.
// 1540  *
// 1541  * @param   none
// 1542  *
// 1543  * @return  none
// 1544  */

        RSEG BANKED_CODE:CODE:NOROOT(0)
// 1545 void ZDApp_SaveNwkKey( void )
ZDApp_SaveNwkKey:
          CFI Block cfiBlock48 Using cfiCommon0
          CFI Function ZDApp_SaveNwkKey
        CODE
// 1546 {
        FUNCALL ZDApp_SaveNwkKey, SSP_ReadNwkActiveKey
        LOCFRAME ISTACK, 0, STACK
        LOCFRAME PSTACK, 0, STACK
        LOCFRAME XSTACK, 33, STACK
        LOCFRAME IOVERLAY, 0, STATIC
        LOCFRAME DOVERLAY, 0, STATIC
        ARGFRAME ISTACK, 0, STACK
        ARGFRAME PSTACK, 0, STACK
        ARGFRAME XSTACK, 33, STACK
        ARGFRAME IOVERLAY, 0, STATIC
        ARGFRAME DOVERLAY, 0, STATIC
        FUNCALL ZDApp_SaveNwkKey, osal_nv_write
        LOCFRAME ISTACK, 0, STACK
        LOCFRAME PSTACK, 0, STACK
        LOCFRAME XSTACK, 37, STACK
        LOCFRAME IOVERLAY, 0, STATIC
        LOCFRAME DOVERLAY, 0, STATIC
        ARGFRAME ISTACK, 0, STACK
        ARGFRAME PSTACK, 0, STACK
        ARGFRAME XSTACK, 37, STACK
        ARGFRAME IOVERLAY, 0, STATIC
        ARGFRAME DOVERLAY, 0, STATIC
        FUNCALL ZDApp_SaveNwkKey, osal_memset
        LOCFRAME ISTACK, 0, STACK
        LOCFRAME PSTACK, 0, STACK
        LOCFRAME XSTACK, 33, STACK
        LOCFRAME IOVERLAY, 0, STATIC
        LOCFRAME DOVERLAY, 0, STATIC
        ARGFRAME ISTACK, 0, STACK
        ARGFRAME PSTACK, 0, STACK
        ARGFRAME XSTACK, 33, STACK
        ARGFRAME IOVERLAY, 0, STATIC
        ARGFRAME DOVERLAY, 0, STATIC
        REQUIRE ?V0
        REQUIRE ?V1
        REQUIRE ?V2
        REQUIRE ?V3
        MOV     A,#-0xc
        LCALL   ?BANKED_ENTER_XDATA
          CFI DPH0 load(1, XDATA, add(CFA_XSP16, literal(-1)))
          CFI DPL0 load(1, XDATA, add(CFA_XSP16, literal(-2)))
          CFI ?BRET_EXT load(1, XDATA, add(CFA_XSP16, literal(-3)))
          CFI ?RET_HIGH load(1, XDATA, add(CFA_XSP16, literal(-4)))
          CFI ?RET_LOW load(1, XDATA, add(CFA_XSP16, literal(-5)))
          CFI R7 load(1, XDATA, add(CFA_XSP16, literal(-6)))
          CFI V3 load(1, XDATA, add(CFA_XSP16, literal(-7)))
          CFI V2 load(1, XDATA, add(CFA_XSP16, literal(-8)))
          CFI V1 load(1, XDATA, add(CFA_XSP16, literal(-9)))
          CFI V0 load(1, XDATA, add(CFA_XSP16, literal(-10)))
          CFI VB load(1, XDATA, add(CFA_XSP16, literal(-11)))
          CFI R6 load(1, XDATA, add(CFA_XSP16, literal(-12)))
          CFI CFA_SP SP+0
          CFI CFA_XSP16 add(XSP16, 12)
        ; Saved register size: 12
        ; Auto size: 21
        MOV     A,#-0x15
        LCALL   ?ALLOC_XSTACK8
          CFI CFA_XSP16 add(XSP16, 33)
// 1547   nwkActiveKeyItems keyItems;
// 1548 
// 1549   SSP_ReadNwkActiveKey( &keyItems );
        ; Setup parameters for call to function SSP_ReadNwkActiveKey
        MOV     R2,?XSP + 0
        MOV     R3,?XSP + 1
        LCALL   ??SSP_ReadNwkActiveKey?relay; Banked call to: SSP_ReadNwkActiveKey
// 1550   keyItems.frameCounter++;
        MOV     DPTR,#__Constant_1
        MOV     R0,#?V0
        LCALL   ?L_MOV_X
        MOV     A,#0x11
        LCALL   ?XSTACK_DISP0_8
        MOV     R0,#?V0
        LCALL   ?L_ADD_TO_X
// 1551 
// 1552   osal_nv_write( ZCD_NV_NWKKEY, 0, sizeof( nwkActiveKeyItems ),
// 1553                 (void *)&keyItems );
        ; Setup parameters for call to function osal_nv_write
        MOV     R0,?XSP + 0
        MOV     R1,?XSP + 1
        MOV     ?V0,R0
        MOV     ?V1,R1
        MOV     R0,#?V0
        LCALL   ?PUSH_XSTACK_I_TWO
          CFI CFA_XSP16 add(XSP16, 35)
        MOV     ?V0,#0x15
        MOV     ?V1,#0x0
        MOV     R0,#?V0
        LCALL   ?PUSH_XSTACK_I_TWO
          CFI CFA_XSP16 add(XSP16, 37)
        MOV     R4,#0x0
        MOV     R5,#0x0
        MOV     R2,#-0x7e
        MOV     R3,#0x0
        LCALL   ??osal_nv_write?relay; Banked call to: osal_nv_write
        MOV     A,#0x4
        LCALL   ?DEALLOC_XSTACK8
          CFI CFA_XSP16 add(XSP16, 33)
// 1554 
// 1555   nwkFrameCounterChanges = 0;
        MOV     DPTR,#nwkFrameCounterChanges
        CLR     A
        MOVX    @DPTR,A
        INC     DPTR
        MOVX    @DPTR,A
// 1556 
// 1557   // Clear copy in RAM before return.
// 1558   osal_memset( &keyItems, 0x00, sizeof(keyItems) );
        ; Setup parameters for call to function osal_memset
        MOV     R4,#0x15
        MOV     R5,A
        MOV     R1,A
        MOV     R2,?XSP + 0
        MOV     R3,?XSP + 1
        LCALL   ??osal_memset?relay  ; Banked call to: osal_memset
// 1559 
// 1560 }
        LJMP    ?Subroutine1 & 0xFFFF
          CFI EndBlock cfiBlock48
// 1561 
// 1562 /*********************************************************************
// 1563  * @fn      ZDApp_ResetNwkKey()
// 1564  *
// 1565  * @brief   Reset the Network key information in NV.
// 1566  *
// 1567  * @param   none
// 1568  *
// 1569  * @return  none
// 1570  */

        RSEG BANKED_CODE:CODE:NOROOT(0)
// 1571 void ZDApp_ResetNwkKey( void )
ZDApp_ResetNwkKey:
          CFI Block cfiBlock49 Using cfiCommon0
          CFI Function ZDApp_ResetNwkKey
        CODE
// 1572 {
        FUNCALL ZDApp_ResetNwkKey, osal_memset
        LOCFRAME ISTACK, 0, STACK
        LOCFRAME PSTACK, 0, STACK
        LOCFRAME XSTACK, 31, STACK
        LOCFRAME IOVERLAY, 0, STATIC
        LOCFRAME DOVERLAY, 0, STATIC
        ARGFRAME ISTACK, 0, STACK
        ARGFRAME PSTACK, 0, STACK
        ARGFRAME XSTACK, 31, STACK
        ARGFRAME IOVERLAY, 0, STATIC
        ARGFRAME DOVERLAY, 0, STATIC
        FUNCALL ZDApp_ResetNwkKey, osal_nv_write
        LOCFRAME ISTACK, 0, STACK
        LOCFRAME PSTACK, 0, STACK
        LOCFRAME XSTACK, 35, STACK
        LOCFRAME IOVERLAY, 0, STATIC
        LOCFRAME DOVERLAY, 0, STATIC
        ARGFRAME ISTACK, 0, STACK
        ARGFRAME PSTACK, 0, STACK
        ARGFRAME XSTACK, 35, STACK
        ARGFRAME IOVERLAY, 0, STATIC
        ARGFRAME DOVERLAY, 0, STATIC
        REQUIRE ?V0
        REQUIRE ?V1
        MOV     A,#-0xa
        LCALL   ?BANKED_ENTER_XDATA
          CFI DPH0 load(1, XDATA, add(CFA_XSP16, literal(-1)))
          CFI DPL0 load(1, XDATA, add(CFA_XSP16, literal(-2)))
          CFI ?BRET_EXT load(1, XDATA, add(CFA_XSP16, literal(-3)))
          CFI ?RET_HIGH load(1, XDATA, add(CFA_XSP16, literal(-4)))
          CFI ?RET_LOW load(1, XDATA, add(CFA_XSP16, literal(-5)))
          CFI R7 load(1, XDATA, add(CFA_XSP16, literal(-6)))
          CFI V1 load(1, XDATA, add(CFA_XSP16, literal(-7)))
          CFI V0 load(1, XDATA, add(CFA_XSP16, literal(-8)))
          CFI VB load(1, XDATA, add(CFA_XSP16, literal(-9)))
          CFI R6 load(1, XDATA, add(CFA_XSP16, literal(-10)))
          CFI CFA_SP SP+0
          CFI CFA_XSP16 add(XSP16, 10)
        ; Saved register size: 10
        ; Auto size: 21
        MOV     A,#-0x15
        LCALL   ?ALLOC_XSTACK8
          CFI CFA_XSP16 add(XSP16, 31)
// 1573   nwkActiveKeyItems keyItems;
// 1574 
// 1575   osal_memset( &keyItems, 0, sizeof( nwkActiveKeyItems ) );
        ; Setup parameters for call to function osal_memset
        MOV     R4,#0x15
        MOV     R5,#0x0
        MOV     R1,#0x0
        MOV     R2,?XSP + 0
        MOV     R3,?XSP + 1
        LCALL   ??osal_memset?relay  ; Banked call to: osal_memset
// 1576   osal_nv_write( ZCD_NV_NWKKEY, 0, sizeof( nwkActiveKeyItems ),
// 1577                 (void *)&keyItems );
        ; Setup parameters for call to function osal_nv_write
        MOV     R0,?XSP + 0
        MOV     R1,?XSP + 1
        MOV     ?V0,R0
        MOV     ?V1,R1
        MOV     R0,#?V0
        LCALL   ?PUSH_XSTACK_I_TWO
          CFI CFA_XSP16 add(XSP16, 33)
        MOV     ?V0,#0x15
        MOV     ?V1,#0x0
        MOV     R0,#?V0
        LCALL   ?PUSH_XSTACK_I_TWO
          CFI CFA_XSP16 add(XSP16, 35)
        MOV     R4,#0x0
        MOV     R5,#0x0
        MOV     R2,#-0x7e
        MOV     R3,#0x0
        LCALL   ??osal_nv_write?relay; Banked call to: osal_nv_write
        MOV     A,#0x4
        LCALL   ?DEALLOC_XSTACK8
          CFI CFA_XSP16 add(XSP16, 31)
// 1578 }
        LJMP    ?Subroutine8 & 0xFFFF
          CFI EndBlock cfiBlock49

        RSEG BANKED_CODE:CODE:NOROOT(0)
?Subroutine2:
          CFI Block cfiBlock50 Using cfiCommon0
          CFI NoFunction
          CFI CFA_SP SP+0
          CFI CFA_XSP16 add(XSP16, 10)
          CFI VB load(1, XDATA, add(CFA_XSP16, literal(-9)))
          CFI DPL0 load(1, XDATA, add(CFA_XSP16, literal(-2)))
          CFI DPH0 load(1, XDATA, add(CFA_XSP16, literal(-1)))
          CFI R6 load(1, XDATA, add(CFA_XSP16, literal(-10)))
          CFI R7 load(1, XDATA, add(CFA_XSP16, literal(-6)))
          CFI V0 load(1, XDATA, add(CFA_XSP16, literal(-8)))
          CFI V1 load(1, XDATA, add(CFA_XSP16, literal(-7)))
          CFI ?BRET_EXT load(1, XDATA, add(CFA_XSP16, literal(-3)))
          CFI ?RET_HIGH load(1, XDATA, add(CFA_XSP16, literal(-4)))
          CFI ?RET_LOW load(1, XDATA, add(CFA_XSP16, literal(-5)))
        MOV     ?V0,#ZDApp_LeaveCtrl & 0xff
        MOV     ?V1,#(ZDApp_LeaveCtrl >> 8) & 0xff
        MOV     R0,#?V0
        LCALL   ?PUSH_XSTACK_I_TWO
          CFI CFA_XSP16 add(XSP16, 12)
        MOV     ?V0,#0x1
        MOV     ?V1,#0x0
        MOV     R0,#?V0
        LCALL   ?PUSH_XSTACK_I_TWO
          CFI CFA_XSP16 add(XSP16, 14)
        MOV     R4,#0x0
        MOV     R5,#0x0
        MOV     R2,#-0x7b
        MOV     R3,#0x0
        LCALL   ??osal_nv_write?relay; Banked call to: osal_nv_write
        MOV     A,#0x4
          CFI EndBlock cfiBlock50
        REQUIRE ??Subroutine40_0
        ; // Fall through to label ??Subroutine40_0

        RSEG BANKED_CODE:CODE:NOROOT(0)
??Subroutine40_0:
          CFI Block cfiBlock51 Using cfiCommon0
          CFI NoFunction
          CFI CFA_SP SP+0
          CFI CFA_XSP16 add(XSP16, 12)
          CFI VB load(1, XDATA, add(CFA_XSP16, literal(-9)))
          CFI DPL0 load(1, XDATA, add(CFA_XSP16, literal(-2)))
          CFI DPH0 load(1, XDATA, add(CFA_XSP16, literal(-1)))
          CFI R6 load(1, XDATA, add(CFA_XSP16, literal(-10)))
          CFI R7 load(1, XDATA, add(CFA_XSP16, literal(-6)))
          CFI V0 load(1, XDATA, add(CFA_XSP16, literal(-8)))
          CFI V1 load(1, XDATA, add(CFA_XSP16, literal(-7)))
          CFI ?BRET_EXT load(1, XDATA, add(CFA_XSP16, literal(-3)))
          CFI ?RET_HIGH load(1, XDATA, add(CFA_XSP16, literal(-4)))
          CFI ?RET_LOW load(1, XDATA, add(CFA_XSP16, literal(-5)))
          CFI Invalid
        LCALL   ?DEALLOC_XSTACK8
          CFI EndBlock cfiBlock51
        REQUIRE ??Subroutine41_0
        ; // Fall through to label ??Subroutine41_0

        RSEG BANKED_CODE:CODE:NOROOT(0)
??Subroutine41_0:
          CFI Block cfiBlock52 Using cfiCommon0
          CFI NoFunction
          CFI CFA_SP SP+0
          CFI CFA_XSP16 add(XSP16, 10)
          CFI VB load(1, XDATA, add(CFA_XSP16, literal(-9)))
          CFI DPL0 load(1, XDATA, add(CFA_XSP16, literal(-2)))
          CFI DPH0 load(1, XDATA, add(CFA_XSP16, literal(-1)))
          CFI R6 load(1, XDATA, add(CFA_XSP16, literal(-10)))
          CFI R7 load(1, XDATA, add(CFA_XSP16, literal(-6)))
          CFI V0 load(1, XDATA, add(CFA_XSP16, literal(-8)))
          CFI V1 load(1, XDATA, add(CFA_XSP16, literal(-7)))
          CFI ?BRET_EXT load(1, XDATA, add(CFA_XSP16, literal(-3)))
          CFI ?RET_HIGH load(1, XDATA, add(CFA_XSP16, literal(-4)))
          CFI ?RET_LOW load(1, XDATA, add(CFA_XSP16, literal(-5)))
        MOV     R7,#0x2
        LJMP    ?BANKED_LEAVE_XDATA
          CFI EndBlock cfiBlock52
// 1579 
// 1580 /*********************************************************************
// 1581  * @fn      ZDApp_RestoreNwkKey()
// 1582  *
// 1583  * @brief
// 1584  *
// 1585  *   Save off the Network key information.
// 1586  *
// 1587  * @param   none
// 1588  *
// 1589  * @return  true if restored from NV, false if not
// 1590  */

        RSEG BANKED_CODE:CODE:NOROOT(0)
// 1591 uint8 ZDApp_RestoreNwkKey( void )
ZDApp_RestoreNwkKey:
          CFI Block cfiBlock53 Using cfiCommon0
          CFI Function ZDApp_RestoreNwkKey
        CODE
// 1592 {
        FUNCALL ZDApp_RestoreNwkKey, osal_nv_read
        LOCFRAME ISTACK, 0, STACK
        LOCFRAME PSTACK, 0, STACK
        LOCFRAME XSTACK, 37, STACK
        LOCFRAME IOVERLAY, 0, STATIC
        LOCFRAME DOVERLAY, 0, STATIC
        ARGFRAME ISTACK, 0, STACK
        ARGFRAME PSTACK, 0, STACK
        ARGFRAME XSTACK, 37, STACK
        ARGFRAME IOVERLAY, 0, STATIC
        ARGFRAME DOVERLAY, 0, STATIC
        FUNCALL ZDApp_RestoreNwkKey, osal_memset
        LOCFRAME ISTACK, 0, STACK
        LOCFRAME PSTACK, 0, STACK
        LOCFRAME XSTACK, 33, STACK
        LOCFRAME IOVERLAY, 0, STATIC
        LOCFRAME DOVERLAY, 0, STATIC
        ARGFRAME ISTACK, 0, STACK
        ARGFRAME PSTACK, 0, STACK
        ARGFRAME XSTACK, 33, STACK
        ARGFRAME IOVERLAY, 0, STATIC
        ARGFRAME DOVERLAY, 0, STATIC
        REQUIRE ?V0
        REQUIRE ?V1
        REQUIRE ?V2
        REQUIRE ?V3
        MOV     A,#-0xc
        LCALL   ?BANKED_ENTER_XDATA
          CFI DPH0 load(1, XDATA, add(CFA_XSP16, literal(-1)))
          CFI DPL0 load(1, XDATA, add(CFA_XSP16, literal(-2)))
          CFI ?BRET_EXT load(1, XDATA, add(CFA_XSP16, literal(-3)))
          CFI ?RET_HIGH load(1, XDATA, add(CFA_XSP16, literal(-4)))
          CFI ?RET_LOW load(1, XDATA, add(CFA_XSP16, literal(-5)))
          CFI R7 load(1, XDATA, add(CFA_XSP16, literal(-6)))
          CFI V3 load(1, XDATA, add(CFA_XSP16, literal(-7)))
          CFI V2 load(1, XDATA, add(CFA_XSP16, literal(-8)))
          CFI V1 load(1, XDATA, add(CFA_XSP16, literal(-9)))
          CFI V0 load(1, XDATA, add(CFA_XSP16, literal(-10)))
          CFI VB load(1, XDATA, add(CFA_XSP16, literal(-11)))
          CFI R6 load(1, XDATA, add(CFA_XSP16, literal(-12)))
          CFI CFA_SP SP+0
          CFI CFA_XSP16 add(XSP16, 12)
        ; Saved register size: 12
        ; Auto size: 21
        MOV     A,#-0x15
        LCALL   ?ALLOC_XSTACK8
          CFI CFA_XSP16 add(XSP16, 33)
// 1593   nwkActiveKeyItems keyItems;
// 1594   uint8 ret = false;
        MOV     R6,#0x0
// 1595 
// 1596   if ( osal_nv_read( ZCD_NV_NWKKEY, 0, sizeof(nwkActiveKeyItems), (void*)&keyItems )
// 1597       == ZSUCCESS )
        ; Setup parameters for call to function osal_nv_read
        MOV     R0,?XSP + 0
        MOV     R1,?XSP + 1
        MOV     ?V0,R0
        MOV     ?V1,R1
        MOV     R0,#?V0
        LCALL   ?PUSH_XSTACK_I_TWO
          CFI CFA_XSP16 add(XSP16, 35)
        MOV     ?V0,#0x15
        MOV     ?V1,R6
        MOV     R0,#?V0
        LCALL   ?PUSH_XSTACK_I_TWO
          CFI CFA_XSP16 add(XSP16, 37)
        MOV     R4,#0x0
        MOV     R5,#0x0
        MOV     R2,#-0x7e
        MOV     R3,#0x0
        LCALL   ??osal_nv_read?relay ; Banked call to: osal_nv_read
        MOV     A,#0x4
        LCALL   ?DEALLOC_XSTACK8
          CFI CFA_XSP16 add(XSP16, 33)
        MOV     A,R1
        JNZ     ??ZDApp_RestoreNwkKey_0
// 1598   {
// 1599     if ( keyItems.frameCounter > 0 )
        MOV     A,#0x11
        LCALL   ?XSTACK_DISP0_8
        LCALL   ?XLOAD_R0123
        MOV     A,R0
        ORL     A,R1
        ORL     A,R2
        ORL     A,R3
        JZ      ??ZDApp_RestoreNwkKey_1
// 1600     {
// 1601       // Restore the key information
// 1602       keyItems.frameCounter += MAX_NWK_FRAMECOUNTER_CHANGES;
        MOV     DPTR,#__Constant_3e8
        MOV     R0,#?V0
        LCALL   ?L_MOV_X
        MOV     A,#0x11
        LCALL   ?XSTACK_DISP0_8
        MOV     R0,#?V0
        LCALL   ?L_ADD_TO_X
// 1603       nwkFrameCounter = keyItems.frameCounter;
        MOV     A,#0x11
        LCALL   ?XSTACK_DISP0_8
        LCALL   ?XLOAD_R0123
        MOV     DPTR,#nwkFrameCounter
        LCALL   ?XSTORE_R0123
// 1604       ret = true;
        INC     R6
// 1605     }
// 1606 
// 1607     // Force a save for the first frame counter increment
// 1608     nwkFrameCounterChanges = MAX_NWK_FRAMECOUNTER_CHANGES + 1;
??ZDApp_RestoreNwkKey_1:
        MOV     DPTR,#nwkFrameCounterChanges
        MOV     A,#-0x17
        MOVX    @DPTR,A
        INC     DPTR
        MOV     A,#0x3
        MOVX    @DPTR,A
// 1609   }
// 1610   // Clear copy in RAM before return.
// 1611   osal_memset( &keyItems, 0x00, sizeof(keyItems) );
??ZDApp_RestoreNwkKey_0:
        ; Setup parameters for call to function osal_memset
        MOV     R4,#0x15
        MOV     R5,#0x0
        MOV     R1,#0x0
        MOV     R2,?XSP + 0
        MOV     R3,?XSP + 1
        LCALL   ??osal_memset?relay  ; Banked call to: osal_memset
// 1612 
// 1613   return ( ret );
        MOV     A,R6
        MOV     R1,A
        LJMP    ?Subroutine1 & 0xFFFF
          CFI EndBlock cfiBlock53
// 1614 }
// 1615 
// 1616 /*********************************************************************
// 1617  * @fn      ZDApp_ResetTimerStart
// 1618  *
// 1619  * @brief   Start the reset timer.
// 1620  *
// 1621  * @param   delay - delay time(ms) before reset
// 1622  *
// 1623  * @return  none
// 1624  */

        RSEG BANKED_CODE:CODE:NOROOT(0)
// 1625 void ZDApp_ResetTimerStart( uint16 delay )
ZDApp_ResetTimerStart:
          CFI Block cfiBlock54 Using cfiCommon0
          CFI Function ZDApp_ResetTimerStart
        CODE
// 1626 {
        FUNCALL ZDApp_ResetTimerStart, osal_start_timerEx
        LOCFRAME ISTACK, 2, STACK
        LOCFRAME PSTACK, 0, STACK
        LOCFRAME XSTACK, 0, STACK
        LOCFRAME IOVERLAY, 0, STATIC
        LOCFRAME DOVERLAY, 0, STATIC
        ARGFRAME ISTACK, 2, STACK
        ARGFRAME PSTACK, 0, STACK
        ARGFRAME XSTACK, 0, STACK
        ARGFRAME IOVERLAY, 0, STATIC
        ARGFRAME DOVERLAY, 0, STATIC
        PUSH    DPL
          CFI DPL0 Frame(CFA_SP, 4)
          CFI CFA_SP SP+-4
        PUSH    DPH
          CFI DPH0 Frame(CFA_SP, 5)
          CFI CFA_SP SP+-5
        ; Saved register size: 2
        ; Auto size: 0
// 1627   // Start the rest timer
// 1628   osal_start_timerEx( ZDAppTaskID, ZDO_DEVICE_RESET, delay );
        ; Setup parameters for call to function osal_start_timerEx
        MOV     A,R2
        MOV     R4,A
        MOV     A,R3
        MOV     R5,A
        MOV     R2,#0x4
        MOV     R3,#0x0
        MOV     DPTR,#ZDAppTaskID
        MOVX    A,@DPTR
        MOV     R1,A
        LCALL   ??osal_start_timerEx?relay; Banked call to: osal_start_timerEx
// 1629 }
        LJMP    ?Subroutine3 & 0xFFFF
          CFI EndBlock cfiBlock54
// 1630 
// 1631 /*********************************************************************
// 1632  * @fn      ZDApp_ResetTimerCancel
// 1633  *
// 1634  * @brief   Cancel the reset timer.
// 1635  *
// 1636  * @param   none
// 1637  *
// 1638  * @return  none
// 1639  */

        RSEG BANKED_CODE:CODE:NOROOT(0)
// 1640 void ZDApp_ResetTimerCancel( void )
ZDApp_ResetTimerCancel:
          CFI Block cfiBlock55 Using cfiCommon0
          CFI Function ZDApp_ResetTimerCancel
        CODE
// 1641 {
        FUNCALL ZDApp_ResetTimerCancel, osal_stop_timerEx
        LOCFRAME ISTACK, 2, STACK
        LOCFRAME PSTACK, 0, STACK
        LOCFRAME XSTACK, 0, STACK
        LOCFRAME IOVERLAY, 0, STATIC
        LOCFRAME DOVERLAY, 0, STATIC
        ARGFRAME ISTACK, 2, STACK
        ARGFRAME PSTACK, 0, STACK
        ARGFRAME XSTACK, 0, STACK
        ARGFRAME IOVERLAY, 0, STATIC
        ARGFRAME DOVERLAY, 0, STATIC
        PUSH    DPL
          CFI DPL0 Frame(CFA_SP, 4)
          CFI CFA_SP SP+-4
        PUSH    DPH
          CFI DPH0 Frame(CFA_SP, 5)
          CFI CFA_SP SP+-5
        ; Saved register size: 2
        ; Auto size: 0
// 1642   // Cancel the reset timer
// 1643   osal_stop_timerEx( ZDAppTaskID, ZDO_DEVICE_RESET );
        ; Setup parameters for call to function osal_stop_timerEx
        MOV     R2,#0x4
        MOV     R3,#0x0
        MOV     DPTR,#ZDAppTaskID
        MOVX    A,@DPTR
        MOV     R1,A
        LCALL   ??osal_stop_timerEx?relay; Banked call to: osal_stop_timerEx
// 1644 }
        LJMP    ?Subroutine3 & 0xFFFF
          CFI EndBlock cfiBlock55
// 1645 
// 1646 /*********************************************************************
// 1647  * @fn      ZDApp_LeaveCtrlInit
// 1648  *
// 1649  * @brief   Initialize the leave control logic.
// 1650  *
// 1651  * @param   none
// 1652  *
// 1653  * @return  none
// 1654  */

        RSEG BANKED_CODE:CODE:NOROOT(0)
// 1655 void ZDApp_LeaveCtrlInit( void )
ZDApp_LeaveCtrlInit:
          CFI Block cfiBlock56 Using cfiCommon0
          CFI Function ZDApp_LeaveCtrlInit
        CODE
// 1656 {
        FUNCALL ZDApp_LeaveCtrlInit, osal_nv_item_init
        LOCFRAME ISTACK, 0, STACK
        LOCFRAME PSTACK, 0, STACK
        LOCFRAME XSTACK, 12, STACK
        LOCFRAME IOVERLAY, 0, STATIC
        LOCFRAME DOVERLAY, 0, STATIC
        ARGFRAME ISTACK, 0, STACK
        ARGFRAME PSTACK, 0, STACK
        ARGFRAME XSTACK, 12, STACK
        ARGFRAME IOVERLAY, 0, STATIC
        ARGFRAME DOVERLAY, 0, STATIC
        FUNCALL ZDApp_LeaveCtrlInit, osal_nv_read
        LOCFRAME ISTACK, 0, STACK
        LOCFRAME PSTACK, 0, STACK
        LOCFRAME XSTACK, 14, STACK
        LOCFRAME IOVERLAY, 0, STATIC
        LOCFRAME DOVERLAY, 0, STATIC
        ARGFRAME ISTACK, 0, STACK
        ARGFRAME PSTACK, 0, STACK
        ARGFRAME XSTACK, 14, STACK
        ARGFRAME IOVERLAY, 0, STATIC
        ARGFRAME DOVERLAY, 0, STATIC
        REQUIRE ?V0
        REQUIRE ?V1
        MOV     A,#-0xa
        LCALL   ?BANKED_ENTER_XDATA
          CFI DPH0 load(1, XDATA, add(CFA_XSP16, literal(-1)))
          CFI DPL0 load(1, XDATA, add(CFA_XSP16, literal(-2)))
          CFI ?BRET_EXT load(1, XDATA, add(CFA_XSP16, literal(-3)))
          CFI ?RET_HIGH load(1, XDATA, add(CFA_XSP16, literal(-4)))
          CFI ?RET_LOW load(1, XDATA, add(CFA_XSP16, literal(-5)))
          CFI R7 load(1, XDATA, add(CFA_XSP16, literal(-6)))
          CFI V1 load(1, XDATA, add(CFA_XSP16, literal(-7)))
          CFI V0 load(1, XDATA, add(CFA_XSP16, literal(-8)))
          CFI VB load(1, XDATA, add(CFA_XSP16, literal(-9)))
          CFI R6 load(1, XDATA, add(CFA_XSP16, literal(-10)))
          CFI CFA_SP SP+0
          CFI CFA_XSP16 add(XSP16, 10)
        ; Saved register size: 10
        ; Auto size: 0
// 1657   uint8 status;
// 1658 
// 1659 
// 1660   // Initialize control state
// 1661   ZDApp_LeaveCtrl = ZDAPP_LEAVE_CTRL_INIT;
        MOV     DPTR,#ZDApp_LeaveCtrl
        CLR     A
        MOVX    @DPTR,A
// 1662 
// 1663   status = osal_nv_item_init( ZCD_NV_LEAVE_CTRL,
// 1664                               sizeof(ZDApp_LeaveCtrl),
// 1665                               &ZDApp_LeaveCtrl );
// 1666 
// 1667   if ( status == ZSUCCESS )
        ; Setup parameters for call to function osal_nv_item_init
        MOV     ?V0,#ZDApp_LeaveCtrl & 0xff
        MOV     ?V1,#(ZDApp_LeaveCtrl >> 8) & 0xff
        MOV     R0,#?V0
        LCALL   ?PUSH_XSTACK_I_TWO
          CFI CFA_XSP16 add(XSP16, 12)
        MOV     R4,#0x1
        MOV     R5,#0x0
        MOV     R2,#-0x7b
        MOV     R3,#0x0
        LCALL   ??osal_nv_item_init?relay; Banked call to: osal_nv_item_init
        MOV     A,#0x2
        LCALL   ?DEALLOC_XSTACK8
          CFI CFA_XSP16 add(XSP16, 10)
        MOV     A,R1
        JNZ     ??ZDApp_LeaveCtrlInit_0
// 1668   {
// 1669     // Read saved control
// 1670     osal_nv_read( ZCD_NV_LEAVE_CTRL,
// 1671                   0,
// 1672                   sizeof( uint8 ),
// 1673                   &ZDApp_LeaveCtrl);
        ; Setup parameters for call to function osal_nv_read
        MOV     R0,#?V0
        LCALL   ?PUSH_XSTACK_I_TWO
          CFI CFA_XSP16 add(XSP16, 12)
        MOV     ?V0,#0x1
        MOV     ?V1,#0x0
        MOV     R0,#?V0
        LCALL   ?PUSH_XSTACK_I_TWO
          CFI CFA_XSP16 add(XSP16, 14)
        MOV     R4,#0x0
        MOV     R5,#0x0
        MOV     R2,#-0x7b
        MOV     R3,#0x0
        LCALL   ??osal_nv_read?relay ; Banked call to: osal_nv_read
        MOV     A,#0x4
        LCALL   ?DEALLOC_XSTACK8
          CFI CFA_XSP16 add(XSP16, 10)
// 1674   }
// 1675 }
??ZDApp_LeaveCtrlInit_0:
        LJMP    ??Subroutine41_0 & 0xFFFF
          CFI EndBlock cfiBlock56
// 1676 
// 1677 /*********************************************************************
// 1678  * @fn      ZDApp_LeaveCtrlSet
// 1679  *
// 1680  * @brief   Set the leave control logic.
// 1681  *
// 1682  * @param   ra - reassociate flag
// 1683  *
// 1684  * @return  none
// 1685  */

        RSEG BANKED_CODE:CODE:NOROOT(0)
// 1686 void ZDApp_LeaveCtrlSet( uint8 ra )
ZDApp_LeaveCtrlSet:
          CFI Block cfiBlock57 Using cfiCommon0
          CFI Function ZDApp_LeaveCtrlSet
        CODE
// 1687 {
        FUNCALL ZDApp_LeaveCtrlSet, osal_nv_write
        LOCFRAME ISTACK, 0, STACK
        LOCFRAME PSTACK, 0, STACK
        LOCFRAME XSTACK, 14, STACK
        LOCFRAME IOVERLAY, 0, STATIC
        LOCFRAME DOVERLAY, 0, STATIC
        ARGFRAME ISTACK, 0, STACK
        ARGFRAME PSTACK, 0, STACK
        ARGFRAME XSTACK, 14, STACK
        ARGFRAME IOVERLAY, 0, STATIC
        ARGFRAME DOVERLAY, 0, STATIC
        REQUIRE ?V0
        REQUIRE ?V1
        MOV     A,#-0xa
        LCALL   ?BANKED_ENTER_XDATA
          CFI DPH0 load(1, XDATA, add(CFA_XSP16, literal(-1)))
          CFI DPL0 load(1, XDATA, add(CFA_XSP16, literal(-2)))
          CFI ?BRET_EXT load(1, XDATA, add(CFA_XSP16, literal(-3)))
          CFI ?RET_HIGH load(1, XDATA, add(CFA_XSP16, literal(-4)))
          CFI ?RET_LOW load(1, XDATA, add(CFA_XSP16, literal(-5)))
          CFI R7 load(1, XDATA, add(CFA_XSP16, literal(-6)))
          CFI V1 load(1, XDATA, add(CFA_XSP16, literal(-7)))
          CFI V0 load(1, XDATA, add(CFA_XSP16, literal(-8)))
          CFI VB load(1, XDATA, add(CFA_XSP16, literal(-9)))
          CFI R6 load(1, XDATA, add(CFA_XSP16, literal(-10)))
          CFI CFA_SP SP+0
          CFI CFA_XSP16 add(XSP16, 10)
        ; Saved register size: 10
        ; Auto size: 0
        MOV     A,R1
        MOV     R6,A
// 1688   ZDApp_LeaveCtrl = ZDAPP_LEAVE_CTRL_SET;
        MOV     DPTR,#ZDApp_LeaveCtrl
        MOV     A,#0x1
        MOVX    @DPTR,A
// 1689 
// 1690   if ( ra == TRUE )
        XRL     A,R6
        JNZ     ??ZDApp_LeaveCtrlSet_0
// 1691   {
// 1692     ZDApp_LeaveCtrl |= ZDAPP_LEAVE_CTRL_RA;
        MOV     A,#0x3
        MOVX    @DPTR,A
// 1693   }
// 1694 
// 1695   // Write the leave control
// 1696   osal_nv_write( ZCD_NV_LEAVE_CTRL,
// 1697                  0,
// 1698                  sizeof( uint8 ),
// 1699                  &ZDApp_LeaveCtrl);
??ZDApp_LeaveCtrlSet_0:
        ; Setup parameters for call to function osal_nv_write
        LJMP    ?Subroutine2 & 0xFFFF
          CFI EndBlock cfiBlock57
// 1700 }
// 1701 
// 1702 /*********************************************************************
// 1703  * @fn      ZDApp_LeaveCtrlReset
// 1704  *
// 1705  * @brief   Re-initialize the leave control logic.
// 1706  *
// 1707  * @param   none
// 1708  *
// 1709  * @return  none
// 1710  */

        RSEG BANKED_CODE:CODE:NOROOT(0)
// 1711 void ZDApp_LeaveCtrlReset( void )
ZDApp_LeaveCtrlReset:
          CFI Block cfiBlock58 Using cfiCommon0
          CFI Function ZDApp_LeaveCtrlReset
        CODE
// 1712 {
        FUNCALL ZDApp_LeaveCtrlReset, osal_nv_write
        LOCFRAME ISTACK, 0, STACK
        LOCFRAME PSTACK, 0, STACK
        LOCFRAME XSTACK, 14, STACK
        LOCFRAME IOVERLAY, 0, STATIC
        LOCFRAME DOVERLAY, 0, STATIC
        ARGFRAME ISTACK, 0, STACK
        ARGFRAME PSTACK, 0, STACK
        ARGFRAME XSTACK, 14, STACK
        ARGFRAME IOVERLAY, 0, STATIC
        ARGFRAME DOVERLAY, 0, STATIC
        REQUIRE ?V0
        REQUIRE ?V1
        MOV     A,#-0xa
        LCALL   ?BANKED_ENTER_XDATA
          CFI DPH0 load(1, XDATA, add(CFA_XSP16, literal(-1)))
          CFI DPL0 load(1, XDATA, add(CFA_XSP16, literal(-2)))
          CFI ?BRET_EXT load(1, XDATA, add(CFA_XSP16, literal(-3)))
          CFI ?RET_HIGH load(1, XDATA, add(CFA_XSP16, literal(-4)))
          CFI ?RET_LOW load(1, XDATA, add(CFA_XSP16, literal(-5)))
          CFI R7 load(1, XDATA, add(CFA_XSP16, literal(-6)))
          CFI V1 load(1, XDATA, add(CFA_XSP16, literal(-7)))
          CFI V0 load(1, XDATA, add(CFA_XSP16, literal(-8)))
          CFI VB load(1, XDATA, add(CFA_XSP16, literal(-9)))
          CFI R6 load(1, XDATA, add(CFA_XSP16, literal(-10)))
          CFI CFA_SP SP+0
          CFI CFA_XSP16 add(XSP16, 10)
        ; Saved register size: 10
        ; Auto size: 0
// 1713   // Set leave control to initialized state
// 1714   ZDApp_LeaveCtrl = ZDAPP_LEAVE_CTRL_INIT;
        MOV     DPTR,#ZDApp_LeaveCtrl
        CLR     A
        MOVX    @DPTR,A
// 1715 
// 1716   // Write initialized control
// 1717   osal_nv_write( ZCD_NV_LEAVE_CTRL,
// 1718                 0,
// 1719                 sizeof( uint8 ),
// 1720                 &ZDApp_LeaveCtrl);
        ; Setup parameters for call to function osal_nv_write
        LJMP    ?Subroutine2 & 0xFFFF
          CFI EndBlock cfiBlock58
// 1721 }
// 1722 
// 1723 /*********************************************************************
// 1724  * @fn      ZDApp_LeaveCtrlBypass
// 1725  *
// 1726  * @brief   Check if NV restore should be skipped during a leave reset.
// 1727  *
// 1728  * @param   none
// 1729  *
// 1730  * @return  uint8 - (TRUE bypass:FALSE do not bypass)
// 1731  */

        RSEG BANKED_CODE:CODE:NOROOT(0)
// 1732 uint8 ZDApp_LeaveCtrlBypass( void )
ZDApp_LeaveCtrlBypass:
          CFI Block cfiBlock59 Using cfiCommon0
          CFI Function ZDApp_LeaveCtrlBypass
        CODE
// 1733 {
        PUSH    DPL
          CFI DPL0 Frame(CFA_SP, 4)
          CFI CFA_SP SP+-4
        PUSH    DPH
          CFI DPH0 Frame(CFA_SP, 5)
          CFI CFA_SP SP+-5
        ; Saved register size: 2
        ; Auto size: 0
// 1734   uint8 bypass;
// 1735 
// 1736   if ( ZDApp_LeaveCtrl & ZDAPP_LEAVE_CTRL_SET )
// 1737   {
// 1738     bypass = TRUE;
// 1739   }
// 1740   else
// 1741   {
// 1742     bypass = FALSE;
// 1743   }
// 1744 
// 1745   return bypass;
        MOV     DPTR,#ZDApp_LeaveCtrl
        MOVX    A,@DPTR
        MOV     C,0xE0 /* A   */.0
        CLR     A
        RLC     A
        MOV     R1,A
        LJMP    ?Subroutine3 & 0xFFFF
          CFI EndBlock cfiBlock59
// 1746 }
// 1747 
// 1748 /*********************************************************************
// 1749  * @fn      ZDApp_LeaveCtrlStartup
// 1750  *
// 1751  * @brief   Check for startup conditions during a leave reset.
// 1752  *
// 1753  * @param   state      - devState_t determined by leave control logic
// 1754  * @param   startDelay - startup delay
// 1755  *
// 1756  * @return  none
// 1757  */

        RSEG BANKED_CODE:CODE:NOROOT(0)
// 1758 void ZDApp_LeaveCtrlStartup( devStates_t* state, uint16* startDelay )
ZDApp_LeaveCtrlStartup:
          CFI Block cfiBlock60 Using cfiCommon0
          CFI Function ZDApp_LeaveCtrlStartup
        CODE
// 1759 {
        FUNCALL ZDApp_LeaveCtrlStartup, ZDApp_LeaveCtrlReset
        LOCFRAME ISTACK, 2, STACK
        LOCFRAME PSTACK, 0, STACK
        LOCFRAME XSTACK, 0, STACK
        LOCFRAME IOVERLAY, 0, STATIC
        LOCFRAME DOVERLAY, 0, STATIC
        ARGFRAME ISTACK, 2, STACK
        ARGFRAME PSTACK, 0, STACK
        ARGFRAME XSTACK, 0, STACK
        ARGFRAME IOVERLAY, 0, STATIC
        ARGFRAME DOVERLAY, 0, STATIC
        PUSH    DPL
          CFI DPL0 Frame(CFA_SP, 4)
          CFI CFA_SP SP+-4
        PUSH    DPH
          CFI DPH0 Frame(CFA_SP, 5)
          CFI CFA_SP SP+-5
        ; Saved register size: 2
        ; Auto size: 0
// 1760   *startDelay = 0;
        MOV     DPL,R4
        MOV     DPH,R5
        CLR     A
        MOVX    @DPTR,A
        INC     DPTR
        MOVX    @DPTR,A
// 1761 
// 1762   if ( ZDApp_LeaveCtrl & ZDAPP_LEAVE_CTRL_SET )
        MOV     DPTR,#ZDApp_LeaveCtrl
        MOVX    A,@DPTR
        MOV     C,0xE0 /* A   */.0
        JNC     ??ZDApp_LeaveCtrlStartup_0
// 1763   {
// 1764     if ( ZDApp_LeaveCtrl & ZDAPP_LEAVE_CTRL_RA )
        MOV     C,0xE0 /* A   */.1
        JNC     ??ZDApp_LeaveCtrlStartup_1
// 1765     {
// 1766       *startDelay = LEAVE_RESET_DELAY;
        MOV     DPL,R4
        MOV     DPH,R5
        MOV     A,#-0x78
        MOVX    @DPTR,A
        INC     DPTR
        MOV     A,#0x13
        SJMP    ??ZDApp_LeaveCtrlStartup_2
// 1767     }
// 1768     else
// 1769     {
// 1770       *state = DEV_HOLD;
??ZDApp_LeaveCtrlStartup_1:
        MOV     DPL,R2
        MOV     DPH,R3
        CLR     A
??ZDApp_LeaveCtrlStartup_2:
        MOVX    @DPTR,A
// 1771     }
// 1772 
// 1773     // Reset leave control logic
// 1774     ZDApp_LeaveCtrlReset();
        ; Setup parameters for call to function ZDApp_LeaveCtrlReset
        LCALL   ??ZDApp_LeaveCtrlReset?relay; Banked call to: ZDApp_LeaveCtrlReset
// 1775   }
// 1776 }
??ZDApp_LeaveCtrlStartup_0:
        LJMP    ?Subroutine3 & 0xFFFF
          CFI EndBlock cfiBlock60
// 1777 
// 1778 /*********************************************************************
// 1779  * @fn      ZDApp_LeaveReset
// 1780  *
// 1781  * @brief   Setup a device reset due to a leave indication/confirm.
// 1782  *
// 1783  * @param   ra - reassociate flag
// 1784  *
// 1785  * @return  none
// 1786  */

        RSEG BANKED_CODE:CODE:NOROOT(0)
// 1787 void ZDApp_LeaveReset( uint8 ra )
ZDApp_LeaveReset:
          CFI Block cfiBlock61 Using cfiCommon0
          CFI Function ZDApp_LeaveReset
        CODE
// 1788 {
        FUNCALL ZDApp_LeaveReset, ZDApp_LeaveCtrlSet
        LOCFRAME ISTACK, 0, STACK
        LOCFRAME PSTACK, 0, STACK
        LOCFRAME XSTACK, 9, STACK
        LOCFRAME IOVERLAY, 0, STATIC
        LOCFRAME DOVERLAY, 0, STATIC
        ARGFRAME ISTACK, 0, STACK
        ARGFRAME PSTACK, 0, STACK
        ARGFRAME XSTACK, 9, STACK
        ARGFRAME IOVERLAY, 0, STATIC
        ARGFRAME DOVERLAY, 0, STATIC
        FUNCALL ZDApp_LeaveReset, ZDApp_ResetTimerStart
        LOCFRAME ISTACK, 0, STACK
        LOCFRAME PSTACK, 0, STACK
        LOCFRAME XSTACK, 9, STACK
        LOCFRAME IOVERLAY, 0, STATIC
        LOCFRAME DOVERLAY, 0, STATIC
        ARGFRAME ISTACK, 0, STACK
        ARGFRAME PSTACK, 0, STACK
        ARGFRAME XSTACK, 9, STACK
        ARGFRAME IOVERLAY, 0, STATIC
        ARGFRAME DOVERLAY, 0, STATIC
        MOV     A,#-0x9
        LCALL   ?BANKED_ENTER_XDATA
          CFI DPH0 load(1, XDATA, add(CFA_XSP16, literal(-1)))
          CFI DPL0 load(1, XDATA, add(CFA_XSP16, literal(-2)))
          CFI ?BRET_EXT load(1, XDATA, add(CFA_XSP16, literal(-3)))
          CFI ?RET_HIGH load(1, XDATA, add(CFA_XSP16, literal(-4)))
          CFI ?RET_LOW load(1, XDATA, add(CFA_XSP16, literal(-5)))
          CFI R7 load(1, XDATA, add(CFA_XSP16, literal(-6)))
          CFI V0 load(1, XDATA, add(CFA_XSP16, literal(-7)))
          CFI VB load(1, XDATA, add(CFA_XSP16, literal(-8)))
          CFI R6 load(1, XDATA, add(CFA_XSP16, literal(-9)))
          CFI CFA_SP SP+0
          CFI CFA_XSP16 add(XSP16, 9)
        ; Saved register size: 9
        ; Auto size: 0
// 1789   ZDApp_LeaveCtrlSet( ra );
        ; Setup parameters for call to function ZDApp_LeaveCtrlSet
        LCALL   ??ZDApp_LeaveCtrlSet?relay; Banked call to: ZDApp_LeaveCtrlSet
// 1790 
// 1791   ZDApp_ResetTimerStart( LEAVE_RESET_DELAY );
        ; Setup parameters for call to function ZDApp_ResetTimerStart
        MOV     R2,#-0x78
        MOV     R3,#0x13
        LCALL   ??ZDApp_ResetTimerStart?relay; Banked call to: ZDApp_ResetTimerStart
// 1792 }
        SJMP    ??Subroutine42_0
          CFI EndBlock cfiBlock61

        RSEG BANKED_CODE:CODE:NOROOT(0)
?Subroutine0:
          CFI Block cfiBlock62 Using cfiCommon0
          CFI NoFunction
          CFI CFA_SP SP+0
          CFI CFA_XSP16 add(XSP16, 9)
          CFI VB load(1, XDATA, add(CFA_XSP16, literal(-8)))
          CFI DPL0 load(1, XDATA, add(CFA_XSP16, literal(-2)))
          CFI DPH0 load(1, XDATA, add(CFA_XSP16, literal(-1)))
          CFI R6 load(1, XDATA, add(CFA_XSP16, literal(-9)))
          CFI R7 load(1, XDATA, add(CFA_XSP16, literal(-6)))
          CFI V0 load(1, XDATA, add(CFA_XSP16, literal(-7)))
          CFI ?BRET_EXT load(1, XDATA, add(CFA_XSP16, literal(-3)))
          CFI ?RET_HIGH load(1, XDATA, add(CFA_XSP16, literal(-4)))
          CFI ?RET_LOW load(1, XDATA, add(CFA_XSP16, literal(-5)))
        MOV     R3,#0x0
        MOV     DPTR,#ZDAppTaskID
        MOVX    A,@DPTR
        MOV     R1,A
        LCALL   ??osal_set_event?relay; Banked call to: osal_set_event
          CFI EndBlock cfiBlock62
        REQUIRE ??Subroutine42_0
        ; // Fall through to label ??Subroutine42_0

        RSEG BANKED_CODE:CODE:NOROOT(0)
??Subroutine42_0:
          CFI Block cfiBlock63 Using cfiCommon0
          CFI NoFunction
          CFI CFA_SP SP+0
          CFI CFA_XSP16 add(XSP16, 9)
          CFI VB load(1, XDATA, add(CFA_XSP16, literal(-8)))
          CFI DPL0 load(1, XDATA, add(CFA_XSP16, literal(-2)))
          CFI DPH0 load(1, XDATA, add(CFA_XSP16, literal(-1)))
          CFI R6 load(1, XDATA, add(CFA_XSP16, literal(-9)))
          CFI R7 load(1, XDATA, add(CFA_XSP16, literal(-6)))
          CFI V0 load(1, XDATA, add(CFA_XSP16, literal(-7)))
          CFI ?BRET_EXT load(1, XDATA, add(CFA_XSP16, literal(-3)))
          CFI ?RET_HIGH load(1, XDATA, add(CFA_XSP16, literal(-4)))
          CFI ?RET_LOW load(1, XDATA, add(CFA_XSP16, literal(-5)))
        MOV     R7,#0x1
        LJMP    ?BANKED_LEAVE_XDATA
          CFI EndBlock cfiBlock63
// 1793 
// 1794 /*********************************************************************
// 1795  * @fn      ZDApp_LeaveUpdate
// 1796  *
// 1797  * @brief   Update local device data related to leaving device.
// 1798  *
// 1799  * @param   nwkAddr        - NWK address of leaving device
// 1800  * @param   extAddr        - EXT address of leaving device
// 1801  * @param   removeChildren - remove children of leaving device
// 1802  *
// 1803  * @return  none
// 1804  */

        RSEG BANKED_CODE:CODE:NOROOT(0)
// 1805 void ZDApp_LeaveUpdate( uint16 nwkAddr, uint8* extAddr,
ZDApp_LeaveUpdate:
          CFI Block cfiBlock64 Using cfiCommon0
          CFI Function ZDApp_LeaveUpdate
        CODE
// 1806                         uint8 removeChildren )
// 1807 {
        FUNCALL ZDApp_LeaveUpdate, ZDSecMgrDeviceRemoveByExtAddr
        LOCFRAME ISTACK, 0, STACK
        LOCFRAME PSTACK, 0, STACK
        LOCFRAME XSTACK, 20, STACK
        LOCFRAME IOVERLAY, 0, STATIC
        LOCFRAME DOVERLAY, 0, STATIC
        ARGFRAME ISTACK, 0, STACK
        ARGFRAME PSTACK, 0, STACK
        ARGFRAME XSTACK, 20, STACK
        ARGFRAME IOVERLAY, 0, STATIC
        ARGFRAME DOVERLAY, 0, STATIC
        FUNCALL ZDApp_LeaveUpdate, ZDSecMgrAddrClear
        LOCFRAME ISTACK, 0, STACK
        LOCFRAME PSTACK, 0, STACK
        LOCFRAME XSTACK, 20, STACK
        LOCFRAME IOVERLAY, 0, STATIC
        LOCFRAME DOVERLAY, 0, STATIC
        ARGFRAME ISTACK, 0, STACK
        ARGFRAME PSTACK, 0, STACK
        ARGFRAME XSTACK, 20, STACK
        ARGFRAME IOVERLAY, 0, STATIC
        ARGFRAME DOVERLAY, 0, STATIC
        FUNCALL ZDApp_LeaveUpdate, osal_memcpy
        LOCFRAME ISTACK, 0, STACK
        LOCFRAME PSTACK, 0, STACK
        LOCFRAME XSTACK, 23, STACK
        LOCFRAME IOVERLAY, 0, STATIC
        LOCFRAME DOVERLAY, 0, STATIC
        ARGFRAME ISTACK, 0, STACK
        ARGFRAME PSTACK, 0, STACK
        ARGFRAME XSTACK, 23, STACK
        ARGFRAME IOVERLAY, 0, STATIC
        ARGFRAME DOVERLAY, 0, STATIC
        FUNCALL ZDApp_LeaveUpdate, RTG_RemoveRtgEntry
        LOCFRAME ISTACK, 0, STACK
        LOCFRAME PSTACK, 0, STACK
        LOCFRAME XSTACK, 20, STACK
        LOCFRAME IOVERLAY, 0, STATIC
        LOCFRAME DOVERLAY, 0, STATIC
        ARGFRAME ISTACK, 0, STACK
        ARGFRAME PSTACK, 0, STACK
        ARGFRAME XSTACK, 20, STACK
        ARGFRAME IOVERLAY, 0, STATIC
        ARGFRAME DOVERLAY, 0, STATIC
        FUNCALL ZDApp_LeaveUpdate, nwkNeighborRemove
        LOCFRAME ISTACK, 0, STACK
        LOCFRAME PSTACK, 0, STACK
        LOCFRAME XSTACK, 20, STACK
        LOCFRAME IOVERLAY, 0, STATIC
        LOCFRAME DOVERLAY, 0, STATIC
        ARGFRAME ISTACK, 0, STACK
        ARGFRAME PSTACK, 0, STACK
        ARGFRAME XSTACK, 20, STACK
        ARGFRAME IOVERLAY, 0, STATIC
        ARGFRAME DOVERLAY, 0, STATIC
        REQUIRE ?V0
        REQUIRE ?V1
        REQUIRE ?V2
        MOV     A,#-0xb
        LCALL   ?BANKED_ENTER_XDATA
          CFI DPH0 load(1, XDATA, add(CFA_XSP16, literal(-1)))
          CFI DPL0 load(1, XDATA, add(CFA_XSP16, literal(-2)))
          CFI ?BRET_EXT load(1, XDATA, add(CFA_XSP16, literal(-3)))
          CFI ?RET_HIGH load(1, XDATA, add(CFA_XSP16, literal(-4)))
          CFI ?RET_LOW load(1, XDATA, add(CFA_XSP16, literal(-5)))
          CFI R7 load(1, XDATA, add(CFA_XSP16, literal(-6)))
          CFI V2 load(1, XDATA, add(CFA_XSP16, literal(-7)))
          CFI V1 load(1, XDATA, add(CFA_XSP16, literal(-8)))
          CFI V0 load(1, XDATA, add(CFA_XSP16, literal(-9)))
          CFI VB load(1, XDATA, add(CFA_XSP16, literal(-10)))
          CFI R6 load(1, XDATA, add(CFA_XSP16, literal(-11)))
          CFI CFA_SP SP+0
          CFI CFA_XSP16 add(XSP16, 11)
        ; Saved register size: 11
        ; Auto size: 9
        MOV     A,#-0x9
        LCALL   ?ALLOC_XSTACK8
          CFI CFA_XSP16 add(XSP16, 20)
        MOV     A,R2
        MOV     R6,A
        MOV     A,R3
        MOV     R7,A
        MOV     ?V0,R4
        MOV     ?V1,R5
// 1808   // Remove Apps Key for leaving device
// 1809   ZDSecMgrDeviceRemoveByExtAddr(extAddr);
        ; Setup parameters for call to function ZDSecMgrDeviceRemoveByExtAddr
        MOV     R2,?V0
        MOV     R3,?V1
        LCALL   ??ZDSecMgrDeviceRemoveByExtAddr?relay; Banked call to: ZDSecMgrDeviceRemoveByExtAddr
// 1810 
// 1811   // Clear SECURITY bit from Address Manager
// 1812   ZDSecMgrAddrClear( extAddr );
        ; Setup parameters for call to function ZDSecMgrAddrClear
        MOV     R2,?V0
        MOV     R3,?V1
        LCALL   ??ZDSecMgrAddrClear?relay; Banked call to: ZDSecMgrAddrClear
// 1813 
// 1814   if ( pbindRemoveDev )
        MOV     DPTR,#pbindRemoveDev
        LCALL   ?Subroutine14 & 0xFFFF
??CrossCallReturnLabel_7:
        JZ      ??ZDApp_LeaveUpdate_0
// 1815   {
// 1816     zAddrType_t devAddr;
// 1817 
// 1818     // Remove bind entry and all related data
// 1819     devAddr.addrMode = Addr64Bit;
        MOV     A,#0x8
        LCALL   ?XSTACK_DISP0_8
        MOV     A,#0x3
        MOVX    @DPTR,A
// 1820     osal_memcpy(devAddr.addr.extAddr, extAddr, Z_EXTADDR_LEN);
        ; Setup parameters for call to function osal_memcpy
        MOV     ?V2,#0x0
        MOV     R0,#?V0
        LCALL   ?PUSH_XSTACK_I_THREE
          CFI CFA_XSP16 add(XSP16, 23)
        MOV     R4,#0x8
        MOV     R5,#0x0
        MOV     A,#0x3
        LCALL   ?XSTACK_DISP101_8
        LCALL   ??osal_memcpy?relay  ; Banked call to: osal_memcpy
        MOV     A,#0x3
        LCALL   ?DEALLOC_XSTACK8
          CFI CFA_XSP16 add(XSP16, 20)
// 1821 
// 1822     pbindRemoveDev(&devAddr);
        ; Setup parameters for indirect call
        MOV     R2,?XSP + 0
        MOV     R3,?XSP + 1
        MOV     DPTR,#pbindRemoveDev
        LCALL   ??Subroutine46_0 & 0xFFFF
// 1823   }
??CrossCallReturnLabel_75:
        LCALL   ?CALL_IND
// 1824 
// 1825   // Remove if child
// 1826   if ( ZSTACK_ROUTER_BUILD )
// 1827   {
// 1828     NLME_RemoveChild( extAddr, removeChildren );
// 1829   }
// 1830 
// 1831   // Remove Routing table related entry
// 1832   RTG_RemoveRtgEntry( nwkAddr, 0 );
??ZDApp_LeaveUpdate_0:
        ; Setup parameters for call to function RTG_RemoveRtgEntry
        MOV     R1,#0x0
        MOV     A,R6
        MOV     R2,A
        MOV     A,R7
        MOV     R3,A
        LCALL   ??RTG_RemoveRtgEntry?relay; Banked call to: RTG_RemoveRtgEntry
// 1833 
// 1834   // Remove entry from neighborTable
// 1835   nwkNeighborRemove( nwkAddr, _NIB.nwkPanId );
        ; Setup parameters for call to function nwkNeighborRemove
        MOV     DPTR,#_NIB + 33
        MOVX    A,@DPTR
        MOV     R4,A
        INC     DPTR
        MOVX    A,@DPTR
        MOV     R5,A
        MOV     A,R6
        MOV     R2,A
        MOV     A,R7
        MOV     R3,A
        LCALL   ??nwkNeighborRemove?relay; Banked call to: nwkNeighborRemove
// 1836 
// 1837   // Schedule to save data to NV
// 1838   ZDApp_NwkWriteNVRequest();
// 1839 }
        MOV     A,#0x9
        LCALL   ?DEALLOC_XSTACK8
          CFI CFA_XSP16 add(XSP16, 11)
        MOV     R7,#0x3
        LJMP    ?BANKED_LEAVE_XDATA
          CFI EndBlock cfiBlock64
// 1840 
// 1841 /*********************************************************************
// 1842  * @fn      ZDApp_NetworkDiscoveryReq
// 1843  *
// 1844  * @brief   Request a network discovery.
// 1845  *
// 1846  * @param  scanChannels -
// 1847  * @param  scanDuration -
// 1848  *
// 1849  * @return  ZStatus_t
// 1850  */

        RSEG BANKED_CODE:CODE:NOROOT(0)
// 1851 ZStatus_t ZDApp_NetworkDiscoveryReq( uint32 scanChannels, uint8 scanDuration)
ZDApp_NetworkDiscoveryReq:
          CFI Block cfiBlock65 Using cfiCommon0
          CFI Function ZDApp_NetworkDiscoveryReq
        CODE
// 1852 {
        FUNCALL ZDApp_NetworkDiscoveryReq, NLME_NetworkDiscoveryRequest
        LOCFRAME ISTACK, 0, STACK
        LOCFRAME PSTACK, 0, STACK
        LOCFRAME XSTACK, 12, STACK
        LOCFRAME IOVERLAY, 0, STATIC
        LOCFRAME DOVERLAY, 0, STATIC
        ARGFRAME ISTACK, 0, STACK
        ARGFRAME PSTACK, 0, STACK
        ARGFRAME XSTACK, 12, STACK
        ARGFRAME IOVERLAY, 0, STATIC
        ARGFRAME DOVERLAY, 0, STATIC
        REQUIRE ?V0
        REQUIRE ?V1
        REQUIRE ?V2
        REQUIRE ?V3
        MOV     A,#-0xc
        LCALL   ?BANKED_ENTER_XDATA
          CFI DPH0 load(1, XDATA, add(CFA_XSP16, literal(-1)))
          CFI DPL0 load(1, XDATA, add(CFA_XSP16, literal(-2)))
          CFI ?BRET_EXT load(1, XDATA, add(CFA_XSP16, literal(-3)))
          CFI ?RET_HIGH load(1, XDATA, add(CFA_XSP16, literal(-4)))
          CFI ?RET_LOW load(1, XDATA, add(CFA_XSP16, literal(-5)))
          CFI R7 load(1, XDATA, add(CFA_XSP16, literal(-6)))
          CFI V3 load(1, XDATA, add(CFA_XSP16, literal(-7)))
          CFI V2 load(1, XDATA, add(CFA_XSP16, literal(-8)))
          CFI V1 load(1, XDATA, add(CFA_XSP16, literal(-9)))
          CFI V0 load(1, XDATA, add(CFA_XSP16, literal(-10)))
          CFI VB load(1, XDATA, add(CFA_XSP16, literal(-11)))
          CFI R6 load(1, XDATA, add(CFA_XSP16, literal(-12)))
          CFI CFA_SP SP+0
          CFI CFA_XSP16 add(XSP16, 12)
        ; Saved register size: 12
        ; Auto size: 0
// 1853   // Setup optional filters - tbd
// 1854 
// 1855   // Request NLME network discovery
// 1856   return NLME_NetworkDiscoveryRequest(scanChannels, scanDuration);
        ; Setup parameters for call to function NLME_NetworkDiscoveryRequest
        LCALL   ??NLME_NetworkDiscoveryRequest?relay; Banked call to: NLME_NetworkDiscoveryRequest
        LJMP    ??Subroutine36_0 & 0xFFFF
          CFI EndBlock cfiBlock65
// 1857 }
// 1858 
// 1859 /*********************************************************************
// 1860  * @fn      ZDApp_JoinReq
// 1861  *
// 1862  * @brief   Request the device to join a parent in a network.
// 1863  *
// 1864  * @param   channel -
// 1865  * @param   panID -
// 1866  *
// 1867  * @return  ZStatus_t
// 1868  */

        RSEG BANKED_CODE:CODE:NOROOT(0)
// 1869 ZStatus_t ZDApp_JoinReq( uint8 channel, uint16 panID, uint8 *extendedPanID,
ZDApp_JoinReq:
          CFI Block cfiBlock66 Using cfiCommon0
          CFI Function ZDApp_JoinReq
        CODE
// 1870                          uint16 chosenParent, uint8 parentDepth, uint8 stackProfile )
// 1871 {
        FUNCALL ZDApp_JoinReq, ZDApp_NodeProfileSync
        LOCFRAME ISTACK, 0, STACK
        LOCFRAME PSTACK, 0, STACK
        LOCFRAME XSTACK, 12, STACK
        LOCFRAME IOVERLAY, 0, STATIC
        LOCFRAME DOVERLAY, 0, STATIC
        ARGFRAME ISTACK, 0, STACK
        ARGFRAME PSTACK, 0, STACK
        ARGFRAME XSTACK, 12, STACK
        ARGFRAME IOVERLAY, 0, STATIC
        ARGFRAME DOVERLAY, 0, STATIC
        FUNCALL ZDApp_JoinReq, NLME_JoinRequest
        LOCFRAME ISTACK, 0, STACK
        LOCFRAME PSTACK, 0, STACK
        LOCFRAME XSTACK, 16, STACK
        LOCFRAME IOVERLAY, 0, STATIC
        LOCFRAME DOVERLAY, 0, STATIC
        ARGFRAME ISTACK, 0, STACK
        ARGFRAME PSTACK, 0, STACK
        ARGFRAME XSTACK, 16, STACK
        ARGFRAME IOVERLAY, 0, STATIC
        ARGFRAME DOVERLAY, 0, STATIC
        REQUIRE ?V0
        REQUIRE ?V1
        REQUIRE ?V2
        REQUIRE ?V3
        MOV     A,#-0xc
        LCALL   ?BANKED_ENTER_XDATA
          CFI DPH0 load(1, XDATA, add(CFA_XSP16, literal(-1)))
          CFI DPL0 load(1, XDATA, add(CFA_XSP16, literal(-2)))
          CFI ?BRET_EXT load(1, XDATA, add(CFA_XSP16, literal(-3)))
          CFI ?RET_HIGH load(1, XDATA, add(CFA_XSP16, literal(-4)))
          CFI ?RET_LOW load(1, XDATA, add(CFA_XSP16, literal(-5)))
          CFI R7 load(1, XDATA, add(CFA_XSP16, literal(-6)))
          CFI V3 load(1, XDATA, add(CFA_XSP16, literal(-7)))
          CFI V2 load(1, XDATA, add(CFA_XSP16, literal(-8)))
          CFI V1 load(1, XDATA, add(CFA_XSP16, literal(-9)))
          CFI V0 load(1, XDATA, add(CFA_XSP16, literal(-10)))
          CFI VB load(1, XDATA, add(CFA_XSP16, literal(-11)))
          CFI R6 load(1, XDATA, add(CFA_XSP16, literal(-12)))
          CFI CFA_SP SP+0
          CFI CFA_XSP16 add(XSP16, 12)
        ; Saved register size: 12
        ; Auto size: 0
        MOV     ?V2,R1
        MOV     A,R2
        MOV     R6,A
        MOV     A,R3
        MOV     R7,A
        MOV     ?V0,R4
        MOV     ?V1,R5
// 1872   // Sync up the node with the stack profile (In the case where a pro device
// 1873   // joins a non-pro network, or verse versa)
// 1874   ZDApp_NodeProfileSync( stackProfile);
        ; Setup parameters for call to function ZDApp_NodeProfileSync
        MOV     A,#0xf
        LCALL   ?XSTACK_DISP0_8
        MOVX    A,@DPTR
        MOV     R1,A
        LCALL   ??ZDApp_NodeProfileSync?relay; Banked call to: ZDApp_NodeProfileSync
// 1875 
// 1876   // Request NLME Join Request
// 1877   return NLME_JoinRequest(extendedPanID, panID,channel,
// 1878                           ZDO_Config_Node_Descriptor.CapabilityFlags,
// 1879                           chosenParent, parentDepth);
        ; Setup parameters for call to function NLME_JoinRequest
        MOV     A,#0xe
        LCALL   ?XSTACK_DISP0_8
        MOVX    A,@DPTR
        MOV     ?V3,A
        MOV     R0,#?V3
        LCALL   ?PUSH_XSTACK_I_ONE
          CFI CFA_XSP16 add(XSP16, 13)
        MOV     A,#0xd
        LCALL   ?XSTACK_DISP0_8
        LCALL   ?PUSH_XSTACK8_X_TWO
          CFI CFA_XSP16 add(XSP16, 15)
        MOV     DPTR,#ZDO_Config_Node_Descriptor + 2
        MOVX    A,@DPTR
        MOV     ?V3,A
        MOV     R0,#?V3
        LCALL   ?PUSH_XSTACK_I_ONE
          CFI CFA_XSP16 add(XSP16, 16)
        MOV     R1,?V2
        MOV     A,R6
        MOV     R4,A
        MOV     A,R7
        MOV     R5,A
        MOV     R2,?V0
        MOV     R3,?V1
        LCALL   ??NLME_JoinRequest?relay; Banked call to: NLME_JoinRequest
        MOV     A,#0x4
        LJMP    ??Subroutine35_0 & 0xFFFF
          CFI EndBlock cfiBlock66
// 1880 
// 1881 }
// 1882 
// 1883 /*********************************************************************
// 1884  * @fn      ZDApp_DeviceConfigured
// 1885  *
// 1886  * @brief   Check to see if the local device is configured (i.e., part
// 1887  *          of a network).
// 1888  *
// 1889  * @param   none
// 1890  *
// 1891  * @return  TRUE if configured. FALSE, otherwise.
// 1892  */

        RSEG BANKED_CODE:CODE:NOROOT(0)
// 1893 uint8 ZDApp_DeviceConfigured( void )
ZDApp_DeviceConfigured:
          CFI Block cfiBlock67 Using cfiCommon0
          CFI Function ZDApp_DeviceConfigured
        CODE
// 1894 {
        FUNCALL ZDApp_DeviceConfigured, osal_nv_read
        LOCFRAME ISTACK, 0, STACK
        LOCFRAME PSTACK, 0, STACK
        LOCFRAME XSTACK, 16, STACK
        LOCFRAME IOVERLAY, 0, STATIC
        LOCFRAME DOVERLAY, 0, STATIC
        ARGFRAME ISTACK, 0, STACK
        ARGFRAME PSTACK, 0, STACK
        ARGFRAME XSTACK, 16, STACK
        ARGFRAME IOVERLAY, 0, STATIC
        ARGFRAME DOVERLAY, 0, STATIC
        REQUIRE ?V0
        REQUIRE ?V1
        MOV     A,#-0xa
        LCALL   ?BANKED_ENTER_XDATA
          CFI DPH0 load(1, XDATA, add(CFA_XSP16, literal(-1)))
          CFI DPL0 load(1, XDATA, add(CFA_XSP16, literal(-2)))
          CFI ?BRET_EXT load(1, XDATA, add(CFA_XSP16, literal(-3)))
          CFI ?RET_HIGH load(1, XDATA, add(CFA_XSP16, literal(-4)))
          CFI ?RET_LOW load(1, XDATA, add(CFA_XSP16, literal(-5)))
          CFI R7 load(1, XDATA, add(CFA_XSP16, literal(-6)))
          CFI V1 load(1, XDATA, add(CFA_XSP16, literal(-7)))
          CFI V0 load(1, XDATA, add(CFA_XSP16, literal(-8)))
          CFI VB load(1, XDATA, add(CFA_XSP16, literal(-9)))
          CFI R6 load(1, XDATA, add(CFA_XSP16, literal(-10)))
          CFI CFA_SP SP+0
          CFI CFA_XSP16 add(XSP16, 10)
        ; Saved register size: 10
        ; Auto size: 2
        MOV     A,#-0x2
        LCALL   ?ALLOC_XSTACK8
          CFI CFA_XSP16 add(XSP16, 12)
// 1895   uint16 nwkAddr = INVALID_NODE_ADDR;
        MOV     DPL,?XSP + 0
        MOV     DPH,?XSP + 1
        MOV     A,#-0x2
        MOVX    @DPTR,A
        INC     DPTR
        INC     A
        MOVX    @DPTR,A
// 1896 
// 1897   osal_nv_read( ZCD_NV_NIB, osal_offsetof( nwkIB_t, nwkDevAddress ),
// 1898                 sizeof( uint16), &nwkAddr );
        ; Setup parameters for call to function osal_nv_read
        MOV     R0,?XSP + 0
        MOV     R1,?XSP + 1
        MOV     ?V0,R0
        MOV     ?V1,R1
        MOV     R0,#?V0
        LCALL   ?PUSH_XSTACK_I_TWO
          CFI CFA_XSP16 add(XSP16, 14)
        MOV     ?V0,#0x2
        MOV     ?V1,#0x0
        MOV     R0,#?V0
        LCALL   ?PUSH_XSTACK_I_TWO
          CFI CFA_XSP16 add(XSP16, 16)
        MOV     R4,#0x14
        MOV     R5,#0x0
        MOV     R2,#0x21
        MOV     R3,#0x0
        LCALL   ??osal_nv_read?relay ; Banked call to: osal_nv_read
        MOV     A,#0x4
        LCALL   ?DEALLOC_XSTACK8
          CFI CFA_XSP16 add(XSP16, 12)
// 1899 
// 1900   // Does the NIB have anything more than default?
// 1901   return ( nwkAddr == INVALID_NODE_ADDR ? FALSE : TRUE );
        MOV     DPL,?XSP + 0
        MOV     DPH,?XSP + 1
        MOVX    A,@DPTR
        XRL     A,#0xfe
        JNZ     ??ZDApp_DeviceConfigured_0
        INC     DPTR
        MOVX    A,@DPTR
        CPL     A
??ZDApp_DeviceConfigured_0:
        JNZ     ??ZDApp_DeviceConfigured_1
        MOV     R1,#0x0
        SJMP    ??ZDApp_DeviceConfigured_2
??ZDApp_DeviceConfigured_1:
        MOV     R1,#0x1
??ZDApp_DeviceConfigured_2:
        LJMP    ?Subroutine7 & 0xFFFF
          CFI EndBlock cfiBlock67
// 1902 }
// 1903 
// 1904 /*********************************************************************
// 1905  * CALLBACK FUNCTIONS
// 1906  */
// 1907 
// 1908 
// 1909 /*********************************************************************
// 1910  * @fn      ZDApp_SendEventMsg()
// 1911  *
// 1912  * @brief
// 1913  *
// 1914  *   Sends a Network Join message
// 1915  *
// 1916  * @param  cmd - command ID
// 1917  * @param  len - length (in bytes) of the buf field
// 1918  * @param  buf - buffer for the rest of the message.
// 1919  *
// 1920  * @return  none
// 1921  */

        RSEG BANKED_CODE:CODE:NOROOT(0)
// 1922 void ZDApp_SendEventMsg( uint8 cmd, uint8 len, uint8 *buf )
ZDApp_SendEventMsg:
          CFI Block cfiBlock68 Using cfiCommon0
          CFI Function ZDApp_SendEventMsg
        CODE
// 1923 {
        FUNCALL ZDApp_SendEventMsg, ZDApp_SendMsg
        LOCFRAME ISTACK, 0, STACK
        LOCFRAME PSTACK, 0, STACK
        LOCFRAME XSTACK, 9, STACK
        LOCFRAME IOVERLAY, 0, STATIC
        LOCFRAME DOVERLAY, 0, STATIC
        ARGFRAME ISTACK, 0, STACK
        ARGFRAME PSTACK, 0, STACK
        ARGFRAME XSTACK, 9, STACK
        ARGFRAME IOVERLAY, 0, STATIC
        ARGFRAME DOVERLAY, 0, STATIC
        MOV     A,#-0x9
        LCALL   ?BANKED_ENTER_XDATA
          CFI DPH0 load(1, XDATA, add(CFA_XSP16, literal(-1)))
          CFI DPL0 load(1, XDATA, add(CFA_XSP16, literal(-2)))
          CFI ?BRET_EXT load(1, XDATA, add(CFA_XSP16, literal(-3)))
          CFI ?RET_HIGH load(1, XDATA, add(CFA_XSP16, literal(-4)))
          CFI ?RET_LOW load(1, XDATA, add(CFA_XSP16, literal(-5)))
          CFI R7 load(1, XDATA, add(CFA_XSP16, literal(-6)))
          CFI V0 load(1, XDATA, add(CFA_XSP16, literal(-7)))
          CFI VB load(1, XDATA, add(CFA_XSP16, literal(-8)))
          CFI R6 load(1, XDATA, add(CFA_XSP16, literal(-9)))
          CFI CFA_SP SP+0
          CFI CFA_XSP16 add(XSP16, 9)
        ; Saved register size: 9
        ; Auto size: 0
        MOV     A,R1
        MOV     R6,A
        MOV     A,R2
// 1924   ZDApp_SendMsg( ZDAppTaskID, cmd, len, buf );
        ; Setup parameters for call to function ZDApp_SendMsg
        MOV     R3,A
        MOV     A,R6
        MOV     R2,A
        MOV     DPTR,#ZDAppTaskID
        MOVX    A,@DPTR
        MOV     R1,A
        LCALL   ??ZDApp_SendMsg?relay; Banked call to: ZDApp_SendMsg
// 1925 }
        LJMP    ??Subroutine42_0 & 0xFFFF
          CFI EndBlock cfiBlock68
// 1926 
// 1927 /*********************************************************************
// 1928  * @fn      ZDApp_SendMsg()
// 1929  *
// 1930  * @brief   Sends a OSAL message
// 1931  *
// 1932  * @param  taskID - Where to send the message
// 1933  * @param  cmd - command ID
// 1934  * @param  len - length (in bytes) of the buf field
// 1935  * @param  buf - buffer for the rest of the message.
// 1936  *
// 1937  * @return  none
// 1938  */

        RSEG BANKED_CODE:CODE:NOROOT(0)
// 1939 void ZDApp_SendMsg( uint8 taskID, uint8 cmd, uint8 len, uint8 *buf )
ZDApp_SendMsg:
          CFI Block cfiBlock69 Using cfiCommon0
          CFI Function ZDApp_SendMsg
        CODE
// 1940 {
        FUNCALL ZDApp_SendMsg, osal_msg_allocate
        LOCFRAME ISTACK, 0, STACK
        LOCFRAME PSTACK, 0, STACK
        LOCFRAME XSTACK, 16, STACK
        LOCFRAME IOVERLAY, 0, STATIC
        LOCFRAME DOVERLAY, 0, STATIC
        ARGFRAME ISTACK, 0, STACK
        ARGFRAME PSTACK, 0, STACK
        ARGFRAME XSTACK, 16, STACK
        ARGFRAME IOVERLAY, 0, STATIC
        ARGFRAME DOVERLAY, 0, STATIC
        FUNCALL ZDApp_SendMsg, osal_memcpy
        LOCFRAME ISTACK, 0, STACK
        LOCFRAME PSTACK, 0, STACK
        LOCFRAME XSTACK, 19, STACK
        LOCFRAME IOVERLAY, 0, STATIC
        LOCFRAME DOVERLAY, 0, STATIC
        ARGFRAME ISTACK, 0, STACK
        ARGFRAME PSTACK, 0, STACK
        ARGFRAME XSTACK, 19, STACK
        ARGFRAME IOVERLAY, 0, STATIC
        ARGFRAME DOVERLAY, 0, STATIC
        FUNCALL ZDApp_SendMsg, osal_msg_send
        LOCFRAME ISTACK, 0, STACK
        LOCFRAME PSTACK, 0, STACK
        LOCFRAME XSTACK, 16, STACK
        LOCFRAME IOVERLAY, 0, STATIC
        LOCFRAME DOVERLAY, 0, STATIC
        ARGFRAME ISTACK, 0, STACK
        ARGFRAME PSTACK, 0, STACK
        ARGFRAME XSTACK, 16, STACK
        ARGFRAME IOVERLAY, 0, STATIC
        ARGFRAME DOVERLAY, 0, STATIC
        REQUIRE ?V0
        REQUIRE ?V1
        REQUIRE ?V2
        REQUIRE ?V3
        REQUIRE ?V4
        REQUIRE ?V5
        REQUIRE ?V6
        REQUIRE ?V7
        MOV     A,#-0x10
        LCALL   ?BANKED_ENTER_XDATA
          CFI DPH0 load(1, XDATA, add(CFA_XSP16, literal(-1)))
          CFI DPL0 load(1, XDATA, add(CFA_XSP16, literal(-2)))
          CFI ?BRET_EXT load(1, XDATA, add(CFA_XSP16, literal(-3)))
          CFI ?RET_HIGH load(1, XDATA, add(CFA_XSP16, literal(-4)))
          CFI ?RET_LOW load(1, XDATA, add(CFA_XSP16, literal(-5)))
          CFI R7 load(1, XDATA, add(CFA_XSP16, literal(-6)))
          CFI V7 load(1, XDATA, add(CFA_XSP16, literal(-7)))
          CFI V6 load(1, XDATA, add(CFA_XSP16, literal(-8)))
          CFI V5 load(1, XDATA, add(CFA_XSP16, literal(-9)))
          CFI V4 load(1, XDATA, add(CFA_XSP16, literal(-10)))
          CFI V3 load(1, XDATA, add(CFA_XSP16, literal(-11)))
          CFI V2 load(1, XDATA, add(CFA_XSP16, literal(-12)))
          CFI V1 load(1, XDATA, add(CFA_XSP16, literal(-13)))
          CFI V0 load(1, XDATA, add(CFA_XSP16, literal(-14)))
          CFI VB load(1, XDATA, add(CFA_XSP16, literal(-15)))
          CFI R6 load(1, XDATA, add(CFA_XSP16, literal(-16)))
          CFI CFA_SP SP+0
          CFI CFA_XSP16 add(XSP16, 16)
        ; Saved register size: 16
        ; Auto size: 0
        MOV     ?V7,R1
        MOV     ?V6,R2
        MOV     ?V3,R3
        MOV     ?V0,R4
        MOV     ?V1,R5
// 1941   osal_event_hdr_t *msgPtr;
// 1942 
// 1943   // Send the address to the task
// 1944   msgPtr = (osal_event_hdr_t *)osal_msg_allocate( len );
        ; Setup parameters for call to function osal_msg_allocate
        MOV     ?V4,R3
        MOV     R2,?V4
        MOV     R3,#0x0
        LCALL   ??osal_msg_allocate?relay; Banked call to: osal_msg_allocate
        MOV     ?V4,R2
        MOV     ?V5,R3
        MOV     R6,?V4
        MOV     R7,?V5
// 1945   if ( msgPtr )
        MOV     A,R6
        ORL     A,R7
        JZ      ??ZDApp_SendMsg_0
// 1946   {
// 1947     if ( (len > 0) && (buf != NULL) )
        MOV     A,?V3
        JZ      ??ZDApp_SendMsg_1
        MOV     A,?V0
        ORL     A,?V1
        JZ      ??ZDApp_SendMsg_1
// 1948       osal_memcpy( msgPtr, buf, len );
        ; Setup parameters for call to function osal_memcpy
        MOV     ?V2,#0x0
        MOV     R0,#?V0
        LCALL   ?PUSH_XSTACK_I_THREE
          CFI CFA_XSP16 add(XSP16, 19)
        MOV     ?V0,?V3
        MOV     R4,?V0
        MOV     R5,#0x0
        LCALL   ??osal_memcpy?relay  ; Banked call to: osal_memcpy
        MOV     A,#0x3
        LCALL   ?DEALLOC_XSTACK8
          CFI CFA_XSP16 add(XSP16, 16)
// 1949 
// 1950     msgPtr->event = cmd;
??ZDApp_SendMsg_1:
        MOV     DPL,R6
        MOV     DPH,R7
        MOV     A,?V6
        MOVX    @DPTR,A
// 1951     osal_msg_send( taskID, (uint8 *)msgPtr );
        ; Setup parameters for call to function osal_msg_send
        MOV     A,R6
        MOV     R2,A
        MOV     A,R7
        MOV     R3,A
        MOV     R1,?V7
        LCALL   ??osal_msg_send?relay; Banked call to: osal_msg_send
// 1952   }
// 1953 }
??ZDApp_SendMsg_0:
        MOV     R7,#0x8
        LJMP    ?BANKED_LEAVE_XDATA
          CFI EndBlock cfiBlock69
// 1954 
// 1955 /*********************************************************************
// 1956  * Call Back Functions from NWK  - API
// 1957  */
// 1958 
// 1959 /*********************************************************************
// 1960  * @fn          ZDO_NetworkDiscoveryConfirmCB
// 1961  *
// 1962  * @brief       This function returns a choice of PAN to join.
// 1963  *
// 1964  * @param       status - return status of the nwk discovery confirm
// 1965  *
// 1966  * @return      ZStatus_t
// 1967  */

        RSEG BANKED_CODE:CODE:NOROOT(0)
// 1968 ZStatus_t ZDO_NetworkDiscoveryConfirmCB(uint8 status)
ZDO_NetworkDiscoveryConfirmCB:
          CFI Block cfiBlock70 Using cfiCommon0
          CFI Function ZDO_NetworkDiscoveryConfirmCB
        CODE
// 1969 {
        FUNCALL ZDO_NetworkDiscoveryConfirmCB, ZDApp_SendMsg
        LOCFRAME ISTACK, 2, STACK
        LOCFRAME PSTACK, 0, STACK
        LOCFRAME XSTACK, 3, STACK
        LOCFRAME IOVERLAY, 0, STATIC
        LOCFRAME DOVERLAY, 0, STATIC
        ARGFRAME ISTACK, 2, STACK
        ARGFRAME PSTACK, 0, STACK
        ARGFRAME XSTACK, 3, STACK
        ARGFRAME IOVERLAY, 0, STATIC
        ARGFRAME DOVERLAY, 0, STATIC
        PUSH    DPL
          CFI DPL0 Frame(CFA_SP, 4)
          CFI CFA_SP SP+-4
        PUSH    DPH
          CFI DPH0 Frame(CFA_SP, 5)
          CFI CFA_SP SP+-5
        ; Saved register size: 2
        ; Auto size: 3
        MOV     A,#-0x3
        LCALL   ?ALLOC_XSTACK8
          CFI CFA_XSP16 add(XSP16, 3)
        MOV     A,R1
        MOV     DPL,?XSP + 0
        MOV     DPH,?XSP + 1
        MOVX    @DPTR,A
// 1970   osal_event_hdr_t msg;
// 1971 
// 1972   // If Scan is initiated by ZDO_MGMT_NWK_DISC_REQ
// 1973   // Send ZDO_MGMT_NWK_DISC_RSP back
// 1974 #if defined ( ZDO_MGMT_NWKDISC_RESPONSE )
// 1975   if ( zdappMgmtNwkDiscReqInProgress )
// 1976   {
// 1977     zdappMgmtNwkDiscReqInProgress = false;
// 1978     ZDO_FinishProcessingMgmtNwkDiscReq();
// 1979   }
// 1980   else
// 1981 #endif
// 1982   {
// 1983     // Pass the confirm to another task if it registers the callback
// 1984     // Otherwise, pass the confirm to ZDApp.
// 1985     if (zdoCBFunc[ZDO_NWK_DISCOVERY_CNF_CBID] != NULL )
        MOV     DPTR,#zdoCBFunc + 4
        LCALL   ?Subroutine14 & 0xFFFF
??CrossCallReturnLabel_8:
        JZ      ??ZDO_NetworkDiscoveryConfirmCB_0
// 1986     {
// 1987       zdoCBFunc[ZDO_NWK_DISCOVERY_CNF_CBID]( (void*)&status );
        ; Setup parameters for indirect call
        MOV     R2,?XSP + 0
        MOV     R3,?XSP + 1
        LCALL   ??Subroutine47_0 & 0xFFFF
// 1988     }
??CrossCallReturnLabel_69:
        LCALL   ?CALL_IND
        SJMP    ??ZDO_NetworkDiscoveryConfirmCB_1
// 1989     else
// 1990     {
// 1991       // Otherwise, send scan confirm to ZDApp task to proceed
// 1992       msg.status = ZDO_SUCCESS;
??ZDO_NetworkDiscoveryConfirmCB_0:
        MOV     A,#0x2
        LCALL   ?XSTACK_DISP0_8
        CLR     A
        MOVX    @DPTR,A
// 1993       ZDApp_SendMsg( ZDAppTaskID, ZDO_NWK_DISC_CNF, sizeof(osal_event_hdr_t), (uint8 *)&msg );
        ; Setup parameters for call to function ZDApp_SendMsg
        INC     A
        LCALL   ?XSTACK_DISP102_8
        MOV     R3,#0x2
        MOV     R2,#0x1
        MOV     DPTR,#ZDAppTaskID
        MOVX    A,@DPTR
        MOV     R1,A
        LCALL   ??ZDApp_SendMsg?relay; Banked call to: ZDApp_SendMsg
// 1994     }
// 1995   }
// 1996   return (ZSuccess);
??ZDO_NetworkDiscoveryConfirmCB_1:
        MOV     R1,#0x0
        MOV     A,#0x3
        LCALL   ?DEALLOC_XSTACK8
          CFI EndBlock cfiBlock70
        REQUIRE ?Subroutine3
        ; // Fall through to label ?Subroutine3
// 1997 }  // ZDO_NetworkDiscoveryConfirmCB

        RSEG BANKED_CODE:CODE:NOROOT(0)
?Subroutine3:
          CFI Block cfiBlock71 Using cfiCommon0
          CFI NoFunction
          CFI CFA_SP SP+-5
          CFI DPL0 Frame(CFA_SP, 4)
          CFI DPH0 Frame(CFA_SP, 5)
        POP     DPH
          CFI CFA_SP SP+-4
          CFI DPH0 SameValue
        POP     DPL
          CFI CFA_SP SP+-3
          CFI DPL0 SameValue
        LJMP    ?BRET
          CFI EndBlock cfiBlock71
// 1998 
// 1999 /*********************************************************************
// 2000  * @fn          ZDApp_NwkDescListProcessing
// 2001  *
// 2002  * @brief       This function process the network discovery result and select
// 2003  *              a parent device to join itself.
// 2004  *
// 2005  * @param       none
// 2006  *
// 2007  * @return      ZStatus_t
// 2008  */
// 2009 #define STACK_PROFILE_MAX 2

        RSEG BANKED_CODE:CODE:NOROOT(0)
// 2010 networkDesc_t* ZDApp_NwkDescListProcessing(void)
ZDApp_NwkDescListProcessing:
          CFI Block cfiBlock72 Using cfiCommon0
          CFI Function ZDApp_NwkDescListProcessing
        CODE
// 2011 {
        FUNCALL ZDApp_NwkDescListProcessing, nwk_getNwkDescList
        LOCFRAME ISTACK, 0, STACK
        LOCFRAME PSTACK, 0, STACK
        LOCFRAME XSTACK, 14, STACK
        LOCFRAME IOVERLAY, 0, STATIC
        LOCFRAME DOVERLAY, 0, STATIC
        ARGFRAME ISTACK, 0, STACK
        ARGFRAME PSTACK, 0, STACK
        ARGFRAME XSTACK, 14, STACK
        ARGFRAME IOVERLAY, 0, STATIC
        ARGFRAME DOVERLAY, 0, STATIC
        FUNCALL ZDApp_NwkDescListProcessing, nwk_getNwkDescList
        LOCFRAME ISTACK, 0, STACK
        LOCFRAME PSTACK, 0, STACK
        LOCFRAME XSTACK, 14, STACK
        LOCFRAME IOVERLAY, 0, STATIC
        LOCFRAME DOVERLAY, 0, STATIC
        ARGFRAME ISTACK, 0, STACK
        ARGFRAME PSTACK, 0, STACK
        ARGFRAME XSTACK, 14, STACK
        ARGFRAME IOVERLAY, 0, STATIC
        ARGFRAME DOVERLAY, 0, STATIC
        FUNCALL ZDApp_NwkDescListProcessing, nwk_ExtPANIDValid
        LOCFRAME ISTACK, 0, STACK
        LOCFRAME PSTACK, 0, STACK
        LOCFRAME XSTACK, 14, STACK
        LOCFRAME IOVERLAY, 0, STATIC
        LOCFRAME DOVERLAY, 0, STATIC
        ARGFRAME ISTACK, 0, STACK
        ARGFRAME PSTACK, 0, STACK
        ARGFRAME XSTACK, 14, STACK
        ARGFRAME IOVERLAY, 0, STATIC
        ARGFRAME DOVERLAY, 0, STATIC
        FUNCALL ZDApp_NwkDescListProcessing, sAddrExtCmp
        LOCFRAME ISTACK, 0, STACK
        LOCFRAME PSTACK, 0, STACK
        LOCFRAME XSTACK, 14, STACK
        LOCFRAME IOVERLAY, 0, STATIC
        LOCFRAME DOVERLAY, 0, STATIC
        ARGFRAME ISTACK, 0, STACK
        ARGFRAME PSTACK, 0, STACK
        ARGFRAME XSTACK, 14, STACK
        ARGFRAME IOVERLAY, 0, STATIC
        ARGFRAME DOVERLAY, 0, STATIC
        REQUIRE ?V0
        REQUIRE ?V1
        REQUIRE ?V2
        REQUIRE ?V3
        REQUIRE ?V4
        REQUIRE ?V5
        MOV     A,#-0xe
        LCALL   ?BANKED_ENTER_XDATA
          CFI DPH0 load(1, XDATA, add(CFA_XSP16, literal(-1)))
          CFI DPL0 load(1, XDATA, add(CFA_XSP16, literal(-2)))
          CFI ?BRET_EXT load(1, XDATA, add(CFA_XSP16, literal(-3)))
          CFI ?RET_HIGH load(1, XDATA, add(CFA_XSP16, literal(-4)))
          CFI ?RET_LOW load(1, XDATA, add(CFA_XSP16, literal(-5)))
          CFI R7 load(1, XDATA, add(CFA_XSP16, literal(-6)))
          CFI V5 load(1, XDATA, add(CFA_XSP16, literal(-7)))
          CFI V4 load(1, XDATA, add(CFA_XSP16, literal(-8)))
          CFI V3 load(1, XDATA, add(CFA_XSP16, literal(-9)))
          CFI V2 load(1, XDATA, add(CFA_XSP16, literal(-10)))
          CFI V1 load(1, XDATA, add(CFA_XSP16, literal(-11)))
          CFI V0 load(1, XDATA, add(CFA_XSP16, literal(-12)))
          CFI VB load(1, XDATA, add(CFA_XSP16, literal(-13)))
          CFI R6 load(1, XDATA, add(CFA_XSP16, literal(-14)))
          CFI CFA_SP SP+0
          CFI CFA_XSP16 add(XSP16, 14)
        ; Saved register size: 14
        ; Auto size: 0
// 2012   networkDesc_t *pNwkDesc;
// 2013   uint8 i, ResultCount = 0;
        MOV     ?V3,#0x0
// 2014   uint8 stackProfile;
// 2015   uint8 stackProfilePro;
// 2016   uint8 selected;
// 2017 
// 2018   // Count the number of nwk descriptors in the list
// 2019   pNwkDesc = nwk_getNwkDescList();
        ; Setup parameters for call to function nwk_getNwkDescList
        LCALL   ??nwk_getNwkDescList?relay; Banked call to: nwk_getNwkDescList
        MOV     ?V0,R2
        MOV     ?V1,R3
        MOV     R6,?V0
        MOV     R7,?V1
        SJMP    ??CrossCallReturnLabel_66
// 2020   while (pNwkDesc)
// 2021   {
// 2022     ResultCount++;
??ZDApp_NwkDescListProcessing_0:
        INC     ?V3
// 2023     pNwkDesc = pNwkDesc->nextDesc;
        LCALL   ?Subroutine18 & 0xFFFF
// 2024   }
??CrossCallReturnLabel_66:
        MOV     A,R6
        ORL     A,R7
        JNZ     ??ZDApp_NwkDescListProcessing_0
// 2025 
// 2026   // process discovery results
// 2027   stackProfilePro = FALSE;
        MOV     ?V2,#0x0
// 2028   selected = FALSE;
// 2029 
// 2030 
// 2031   for ( stackProfile = 0; stackProfile < STACK_PROFILE_MAX; stackProfile++ )
        MOV     ?V0,#0x0
// 2032   {
// 2033     pNwkDesc = nwk_getNwkDescList();
??ZDApp_NwkDescListProcessing_1:
        ; Setup parameters for call to function nwk_getNwkDescList
        LCALL   ??nwk_getNwkDescList?relay; Banked call to: nwk_getNwkDescList
        MOV     ?V4,R2
        MOV     ?V5,R3
        MOV     R6,?V4
        MOV     R7,?V5
// 2034     for ( i = 0; i < ResultCount; i++, pNwkDesc = pNwkDesc->nextDesc )
        MOV     ?V1,#0x0
        SJMP    ??CrossCallReturnLabel_67
// 2035     {
// 2036       if ( zgConfigPANID != 0xFFFF )
// 2037       {
// 2038         // PAN Id is preconfigured. check if it matches
// 2039         if ( pNwkDesc->panId != zgConfigPANID )
// 2040           continue;
// 2041       }
// 2042 
// 2043       if ( nwk_ExtPANIDValid( ZDO_UseExtendedPANID) == true )
// 2044       {
// 2045         // If the extended Pan ID is commissioned to a non zero value
// 2046         // Only join the Pan that has match EPID
// 2047         if ( osal_ExtAddrEqual( ZDO_UseExtendedPANID, pNwkDesc->extendedPANID) == false )
// 2048           continue;
// 2049 
// 2050       }
// 2051 
// 2052       // check that network is allowing joining
// 2053       if ( ZSTACK_ROUTER_BUILD )
// 2054       {
// 2055         if ( stackProfilePro == FALSE )
// 2056         {
// 2057           if ( !pNwkDesc->routerCapacity )
// 2058           {
// 2059             continue;
// 2060           }
// 2061         }
// 2062         else
// 2063         {
// 2064           if ( !pNwkDesc->deviceCapacity )
// 2065           {
// 2066             continue;
// 2067           }
// 2068         }
// 2069       }
// 2070       else if ( ZSTACK_END_DEVICE_BUILD )
// 2071       {
// 2072         if ( !pNwkDesc->deviceCapacity )
// 2073         {
// 2074           continue;
// 2075         }
// 2076       }
// 2077 
// 2078       // check version of zigbee protocol
// 2079       if ( pNwkDesc->version != _NIB.nwkProtocolVersion )
// 2080         continue;
// 2081 
// 2082       // check version of stack profile
// 2083       if ( pNwkDesc->stackProfile != zgStackProfile  )
// 2084       {
// 2085         if ( ((zgStackProfile == HOME_CONTROLS) && (pNwkDesc->stackProfile == ZIGBEEPRO_PROFILE))
// 2086             || ((zgStackProfile == ZIGBEEPRO_PROFILE) && (pNwkDesc->stackProfile == HOME_CONTROLS))  )
??ZDApp_NwkDescListProcessing_2:
        MOVX    A,@DPTR
        XRL     A,#0x2
        JNZ     ??ZDApp_NwkDescListProcessing_3
        MOV     DPL,R6
        MOV     DPH,R7
        INC     DPTR
        INC     DPTR
        INC     DPTR
        INC     DPTR
        INC     DPTR
        INC     DPTR
        MOVX    A,@DPTR
        XRL     A,#0x1
        JNZ     ??ZDApp_NwkDescListProcessing_3
// 2087         {
// 2088           stackProfilePro = TRUE;
??ZDApp_NwkDescListProcessing_4:
        MOV     ?V2,#0x1
// 2089         }
// 2090 
// 2091         if ( stackProfile == 0 )
??ZDApp_NwkDescListProcessing_3:
        MOV     A,?V0
        JZ      $+5
        LJMP    ??ZDApp_NwkDescListProcessing_5 & 0xFFFF
??ZDApp_NwkDescListProcessing_6:
        INC     ?V1
        LCALL   ?Subroutine18 & 0xFFFF
??CrossCallReturnLabel_67:
        MOV     A,?V1
        CLR     C
        SUBB    A,?V3
        JC      $+5
        LJMP    ??ZDApp_NwkDescListProcessing_7 & 0xFFFF
        MOV     DPTR,#zgConfigPANID
        MOVX    A,@DPTR
        CPL     A
        JNZ     ??ZDApp_NwkDescListProcessing_8
        INC     DPTR
        MOVX    A,@DPTR
        CPL     A
??ZDApp_NwkDescListProcessing_8:
        JZ      ??ZDApp_NwkDescListProcessing_9
        LCALL   ?Subroutine16 & 0xFFFF
??CrossCallReturnLabel_61:
        MOV     DPTR,#zgConfigPANID
        MOVX    A,@DPTR
        XRL     A,R0
        JNZ     ??ZDApp_NwkDescListProcessing_10
        INC     DPTR
        MOVX    A,@DPTR
        XRL     A,R1
??ZDApp_NwkDescListProcessing_10:
        JNZ     ??ZDApp_NwkDescListProcessing_6
??ZDApp_NwkDescListProcessing_9:
        ; Setup parameters for call to function nwk_ExtPANIDValid
        MOV     R2,#ZDO_UseExtendedPANID & 0xff
        MOV     R3,#(ZDO_UseExtendedPANID >> 8) & 0xff
        LCALL   ??nwk_ExtPANIDValid?relay; Banked call to: nwk_ExtPANIDValid
        MOV     A,R1
        XRL     A,#0x1
        JNZ     ??ZDApp_NwkDescListProcessing_11
        ; Setup parameters for call to function sAddrExtCmp
        MOV     A,R6
        ADD     A,#0xb
        MOV     R4,A
        CLR     A
        ADDC    A,R7
        MOV     R5,A
        MOV     R2,#ZDO_UseExtendedPANID & 0xff
        MOV     R3,#(ZDO_UseExtendedPANID >> 8) & 0xff
        LCALL   ??sAddrExtCmp?relay  ; Banked call to: sAddrExtCmp
        MOV     A,R1
        JZ      ??ZDApp_NwkDescListProcessing_6
??ZDApp_NwkDescListProcessing_11:
        MOV     DPL,R6
        MOV     DPH,R7
        INC     DPTR
        INC     DPTR
        INC     DPTR
        INC     DPTR
        MOVX    A,@DPTR
        JZ      ??ZDApp_NwkDescListProcessing_6
        MOV     DPL,R6
        MOV     DPH,R7
        INC     DPTR
        INC     DPTR
        INC     DPTR
        INC     DPTR
        INC     DPTR
        MOVX    A,@DPTR
        MOV     R0,A
        MOV     DPTR,#_NIB + 17
        MOVX    A,@DPTR
        XRL     A,R0
        JNZ     ??ZDApp_NwkDescListProcessing_6
        MOV     DPL,R6
        MOV     DPH,R7
        INC     DPTR
        INC     DPTR
        INC     DPTR
        INC     DPTR
        INC     DPTR
        INC     DPTR
        MOVX    A,@DPTR
        MOV     R0,A
        MOV     DPTR,#zgStackProfile
        MOVX    A,@DPTR
        XRL     A,R0
        JZ      ??ZDApp_NwkDescListProcessing_5
        MOVX    A,@DPTR
        XRL     A,#0x1
        JZ      $+5
        LJMP    ??ZDApp_NwkDescListProcessing_2 & 0xFFFF
        MOV     DPL,R6
        MOV     DPH,R7
        INC     DPTR
        INC     DPTR
        INC     DPTR
        INC     DPTR
        INC     DPTR
        INC     DPTR
        MOVX    A,@DPTR
        XRL     A,#0x2
        JZ      $+5
        LJMP    ??ZDApp_NwkDescListProcessing_3 & 0xFFFF
        LJMP    ??ZDApp_NwkDescListProcessing_4 & 0xFFFF
// 2092         {
// 2093           continue;
// 2094         }
// 2095       }
// 2096 
// 2097       break;
// 2098     }
// 2099 
// 2100     if (i < ResultCount)
// 2101     {
// 2102      selected = TRUE;
// 2103       break;
// 2104     }
// 2105 
// 2106     // break if selected or stack profile pro wasn't found
// 2107     if ( (selected == TRUE) || (stackProfilePro == FALSE) )
??ZDApp_NwkDescListProcessing_7:
        MOV     A,?V2
        JZ      ??ZDApp_NwkDescListProcessing_12
// 2108     {
// 2109       break;
// 2110     }
// 2111   }
        INC     ?V0
        MOV     A,?V0
        CLR     C
        SUBB    A,#0x2
        JNC     $+5
        LJMP    ??ZDApp_NwkDescListProcessing_1 & 0xFFFF
// 2112 
// 2113   if ( i == ResultCount )
??ZDApp_NwkDescListProcessing_12:
        MOV     A,?V3
        XRL     A,?V1
        JNZ     ??ZDApp_NwkDescListProcessing_5
// 2114   {
// 2115     return (NULL);   // couldn't find appropriate PAN to join !
        MOV     R2,#0x0
        MOV     R3,#0x0
        SJMP    ??ZDApp_NwkDescListProcessing_13
// 2116   }
// 2117   else
// 2118   {
// 2119     return (pNwkDesc);
??ZDApp_NwkDescListProcessing_5:
        MOV     A,R6
        MOV     R2,A
        MOV     A,R7
        MOV     R3,A
          CFI EndBlock cfiBlock72
// 2120   }
??ZDApp_NwkDescListProcessing_13:
        REQUIRE ?Subroutine5
        ; // Fall through to label ?Subroutine5
// 2121 }// ZDApp_NwkDescListProcessing()

        RSEG BANKED_CODE:CODE:NOROOT(0)
?Subroutine5:
          CFI Block cfiBlock73 Using cfiCommon0
          CFI NoFunction
          CFI CFA_SP SP+0
          CFI CFA_XSP16 add(XSP16, 14)
          CFI VB load(1, XDATA, add(CFA_XSP16, literal(-13)))
          CFI DPL0 load(1, XDATA, add(CFA_XSP16, literal(-2)))
          CFI DPH0 load(1, XDATA, add(CFA_XSP16, literal(-1)))
          CFI R6 load(1, XDATA, add(CFA_XSP16, literal(-14)))
          CFI R7 load(1, XDATA, add(CFA_XSP16, literal(-6)))
          CFI V0 load(1, XDATA, add(CFA_XSP16, literal(-12)))
          CFI V1 load(1, XDATA, add(CFA_XSP16, literal(-11)))
          CFI V2 load(1, XDATA, add(CFA_XSP16, literal(-10)))
          CFI V3 load(1, XDATA, add(CFA_XSP16, literal(-9)))
          CFI V4 load(1, XDATA, add(CFA_XSP16, literal(-8)))
          CFI V5 load(1, XDATA, add(CFA_XSP16, literal(-7)))
          CFI ?BRET_EXT load(1, XDATA, add(CFA_XSP16, literal(-3)))
          CFI ?RET_HIGH load(1, XDATA, add(CFA_XSP16, literal(-4)))
          CFI ?RET_LOW load(1, XDATA, add(CFA_XSP16, literal(-5)))
        MOV     R7,#0x6
        LJMP    ?BANKED_LEAVE_XDATA
          CFI EndBlock cfiBlock73
// 2122 
// 2123 /*********************************************************************
// 2124  * @fn          ZDO_NetworkFormationConfirmCB
// 2125  *
// 2126  * @brief       This function reports the results of the request to
// 2127  *              initialize a coordinator in a network.
// 2128  *
// 2129  * @param       Status - Result of NLME_NetworkFormationRequest()
// 2130  *
// 2131  * @return      none
// 2132  */

        RSEG BANKED_CODE:CODE:NOROOT(0)
// 2133 void ZDO_NetworkFormationConfirmCB( ZStatus_t Status )
ZDO_NetworkFormationConfirmCB:
          CFI Block cfiBlock74 Using cfiCommon0
          CFI Function ZDO_NetworkFormationConfirmCB
        CODE
// 2134 {
        FUNCALL ZDO_NetworkFormationConfirmCB, HalLedSet
        LOCFRAME ISTACK, 0, STACK
        LOCFRAME PSTACK, 0, STACK
        LOCFRAME XSTACK, 9, STACK
        LOCFRAME IOVERLAY, 0, STATIC
        LOCFRAME DOVERLAY, 0, STATIC
        ARGFRAME ISTACK, 0, STACK
        ARGFRAME PSTACK, 0, STACK
        ARGFRAME XSTACK, 9, STACK
        ARGFRAME IOVERLAY, 0, STATIC
        ARGFRAME DOVERLAY, 0, STATIC
        FUNCALL ZDO_NetworkFormationConfirmCB, HalLedSet
        LOCFRAME ISTACK, 0, STACK
        LOCFRAME PSTACK, 0, STACK
        LOCFRAME XSTACK, 9, STACK
        LOCFRAME IOVERLAY, 0, STATIC
        LOCFRAME DOVERLAY, 0, STATIC
        ARGFRAME ISTACK, 0, STACK
        ARGFRAME PSTACK, 0, STACK
        ARGFRAME XSTACK, 9, STACK
        ARGFRAME IOVERLAY, 0, STATIC
        ARGFRAME DOVERLAY, 0, STATIC
        FUNCALL ZDO_NetworkFormationConfirmCB, HalLedSet
        LOCFRAME ISTACK, 0, STACK
        LOCFRAME PSTACK, 0, STACK
        LOCFRAME XSTACK, 9, STACK
        LOCFRAME IOVERLAY, 0, STATIC
        LOCFRAME DOVERLAY, 0, STATIC
        ARGFRAME ISTACK, 0, STACK
        ARGFRAME PSTACK, 0, STACK
        ARGFRAME XSTACK, 9, STACK
        ARGFRAME IOVERLAY, 0, STATIC
        ARGFRAME DOVERLAY, 0, STATIC
        FUNCALL ZDO_NetworkFormationConfirmCB, osal_set_event
        LOCFRAME ISTACK, 0, STACK
        LOCFRAME PSTACK, 0, STACK
        LOCFRAME XSTACK, 9, STACK
        LOCFRAME IOVERLAY, 0, STATIC
        LOCFRAME DOVERLAY, 0, STATIC
        ARGFRAME ISTACK, 0, STACK
        ARGFRAME PSTACK, 0, STACK
        ARGFRAME XSTACK, 9, STACK
        ARGFRAME IOVERLAY, 0, STATIC
        ARGFRAME DOVERLAY, 0, STATIC
        MOV     A,#-0x9
        LCALL   ?BANKED_ENTER_XDATA
          CFI DPH0 load(1, XDATA, add(CFA_XSP16, literal(-1)))
          CFI DPL0 load(1, XDATA, add(CFA_XSP16, literal(-2)))
          CFI ?BRET_EXT load(1, XDATA, add(CFA_XSP16, literal(-3)))
          CFI ?RET_HIGH load(1, XDATA, add(CFA_XSP16, literal(-4)))
          CFI ?RET_LOW load(1, XDATA, add(CFA_XSP16, literal(-5)))
          CFI R7 load(1, XDATA, add(CFA_XSP16, literal(-6)))
          CFI V0 load(1, XDATA, add(CFA_XSP16, literal(-7)))
          CFI VB load(1, XDATA, add(CFA_XSP16, literal(-8)))
          CFI R6 load(1, XDATA, add(CFA_XSP16, literal(-9)))
          CFI CFA_SP SP+0
          CFI CFA_XSP16 add(XSP16, 9)
        ; Saved register size: 9
        ; Auto size: 0
        MOV     A,R1
// 2135   nwkStatus = (byte)Status;
        MOV     DPTR,#nwkStatus
        MOVX    @DPTR,A
// 2136 
// 2137   if ( Status == ZSUCCESS )
        JNZ     ??ZDO_NetworkFormationConfirmCB_0
// 2138   {
// 2139     // LED on shows Coordinator started
// 2140     HalLedSet ( HAL_LED_3, HAL_LED_MODE_ON );
        ; Setup parameters for call to function HalLedSet
        MOV     R2,#0x1
        MOV     R1,#0x4
        LCALL   ??HalLedSet?relay    ; Banked call to: HalLedSet
// 2141 
// 2142     // LED off forgets HOLD_AUTO_START
// 2143     HalLedSet (HAL_LED_4, HAL_LED_MODE_OFF);
        ; Setup parameters for call to function HalLedSet
        MOV     R2,#0x0
        MOV     R1,#0x8
        LCALL   ??HalLedSet?relay    ; Banked call to: HalLedSet
// 2144 
// 2145 #if defined ( ZBIT )
// 2146     SIM_SetColor(0xd0ffd0);
// 2147 #endif
// 2148 
// 2149     if ( devState == DEV_HOLD )
        MOV     DPTR,#devState
        MOVX    A,@DPTR
        JNZ     ??ZDO_NetworkFormationConfirmCB_1
// 2150     {
// 2151       // Began with HOLD_AUTO_START
// 2152       devState = DEV_COORD_STARTING;
        MOV     A,#0x8
        MOVX    @DPTR,A
        SJMP    ??ZDO_NetworkFormationConfirmCB_1
// 2153     }
// 2154   }
// 2155 #if defined(BLINK_LEDS)
// 2156   else
// 2157   {
// 2158     HalLedSet ( HAL_LED_3, HAL_LED_MODE_FLASH );  // Flash LED to show failure
??ZDO_NetworkFormationConfirmCB_0:
        ; Setup parameters for call to function HalLedSet
        MOV     R2,#0x4
        MOV     R1,#0x4
        LCALL   ??HalLedSet?relay    ; Banked call to: HalLedSet
// 2159   }
// 2160 #endif
// 2161 
// 2162   osal_set_event( ZDAppTaskID, ZDO_NETWORK_START );
??ZDO_NetworkFormationConfirmCB_1:
        ; Setup parameters for call to function osal_set_event
        MOV     R2,#0x2
        LJMP    ?Subroutine0 & 0xFFFF
          CFI EndBlock cfiBlock74
// 2163 }
// 2164 
// 2165 /****************************************************************************
// 2166  * @fn          ZDApp_beaconIndProcessing
// 2167  *
// 2168  * @brief       This function processes the incoming beacon indication.
// 2169  *
// 2170  *              When another task (MT or App) is registered to process
// 2171  *              beacon indication themselves, this function will parse the
// 2172  *              beacon payload and pass the beacon descriptor to that task
// 2173  *              If no other tasks registered, this function will process
// 2174  *              the beacon payload and generate the network descriptor link
// 2175  *              list.
// 2176  *
// 2177  * @param
// 2178  *
// 2179  * @return      none
// 2180  *
// 2181  */

        RSEG BANKED_CODE:CODE:NOROOT(0)
// 2182 void ZDO_beaconNotifyIndCB( NLME_beaconInd_t *pBeacon )
ZDO_beaconNotifyIndCB:
          CFI Block cfiBlock75 Using cfiCommon0
          CFI Function ZDO_beaconNotifyIndCB
        CODE
// 2183 {
        FUNCALL ZDO_beaconNotifyIndCB, osal_mem_alloc
        LOCFRAME ISTACK, 0, STACK
        LOCFRAME PSTACK, 0, STACK
        LOCFRAME XSTACK, 14, STACK
        LOCFRAME IOVERLAY, 0, STATIC
        LOCFRAME DOVERLAY, 0, STATIC
        ARGFRAME ISTACK, 0, STACK
        ARGFRAME PSTACK, 0, STACK
        ARGFRAME XSTACK, 14, STACK
        ARGFRAME IOVERLAY, 0, STATIC
        ARGFRAME DOVERLAY, 0, STATIC
        FUNCALL ZDO_beaconNotifyIndCB, osal_memset
        LOCFRAME ISTACK, 0, STACK
        LOCFRAME PSTACK, 0, STACK
        LOCFRAME XSTACK, 14, STACK
        LOCFRAME IOVERLAY, 0, STATIC
        LOCFRAME DOVERLAY, 0, STATIC
        ARGFRAME ISTACK, 0, STACK
        ARGFRAME PSTACK, 0, STACK
        ARGFRAME XSTACK, 14, STACK
        ARGFRAME IOVERLAY, 0, STATIC
        ARGFRAME DOVERLAY, 0, STATIC
        FUNCALL ZDO_beaconNotifyIndCB, sAddrExtCpy
        LOCFRAME ISTACK, 0, STACK
        LOCFRAME PSTACK, 0, STACK
        LOCFRAME XSTACK, 14, STACK
        LOCFRAME IOVERLAY, 0, STATIC
        LOCFRAME DOVERLAY, 0, STATIC
        ARGFRAME ISTACK, 0, STACK
        ARGFRAME PSTACK, 0, STACK
        ARGFRAME XSTACK, 14, STACK
        ARGFRAME IOVERLAY, 0, STATIC
        ARGFRAME DOVERLAY, 0, STATIC
        FUNCALL ZDO_beaconNotifyIndCB, osal_memset
        LOCFRAME ISTACK, 0, STACK
        LOCFRAME PSTACK, 0, STACK
        LOCFRAME XSTACK, 14, STACK
        LOCFRAME IOVERLAY, 0, STATIC
        LOCFRAME DOVERLAY, 0, STATIC
        ARGFRAME ISTACK, 0, STACK
        ARGFRAME PSTACK, 0, STACK
        ARGFRAME XSTACK, 14, STACK
        ARGFRAME IOVERLAY, 0, STATIC
        ARGFRAME DOVERLAY, 0, STATIC
        REQUIRE ?V0
        REQUIRE ?V1
        REQUIRE ?V2
        REQUIRE ?V3
        REQUIRE ?V4
        REQUIRE ?V5
        MOV     A,#-0xe
        LCALL   ?BANKED_ENTER_XDATA
          CFI DPH0 load(1, XDATA, add(CFA_XSP16, literal(-1)))
          CFI DPL0 load(1, XDATA, add(CFA_XSP16, literal(-2)))
          CFI ?BRET_EXT load(1, XDATA, add(CFA_XSP16, literal(-3)))
          CFI ?RET_HIGH load(1, XDATA, add(CFA_XSP16, literal(-4)))
          CFI ?RET_LOW load(1, XDATA, add(CFA_XSP16, literal(-5)))
          CFI R7 load(1, XDATA, add(CFA_XSP16, literal(-6)))
          CFI V5 load(1, XDATA, add(CFA_XSP16, literal(-7)))
          CFI V4 load(1, XDATA, add(CFA_XSP16, literal(-8)))
          CFI V3 load(1, XDATA, add(CFA_XSP16, literal(-9)))
          CFI V2 load(1, XDATA, add(CFA_XSP16, literal(-10)))
          CFI V1 load(1, XDATA, add(CFA_XSP16, literal(-11)))
          CFI V0 load(1, XDATA, add(CFA_XSP16, literal(-12)))
          CFI VB load(1, XDATA, add(CFA_XSP16, literal(-13)))
          CFI R6 load(1, XDATA, add(CFA_XSP16, literal(-14)))
          CFI CFA_SP SP+0
          CFI CFA_XSP16 add(XSP16, 14)
        ; Saved register size: 14
        ; Auto size: 0
        MOV     ?V0,R2
        MOV     ?V1,R3
// 2184   // Pass the beacon Indication to another task if it registers the callback
// 2185   // Otherwise, process the beacon notification here.
// 2186   if (zdoCBFunc[ZDO_BEACON_NOTIFY_IND_CBID] != NULL )
        MOV     DPTR,#zdoCBFunc + 6
        LCALL   ?Subroutine14 & 0xFFFF
??CrossCallReturnLabel_9:
        JZ      ??ZDO_beaconNotifyIndCB_0
// 2187   {
// 2188     zdoCBFunc[ZDO_BEACON_NOTIFY_IND_CBID]( (void*)pBeacon );
        ; Setup parameters for indirect call
        LCALL   ??Subroutine47_0 & 0xFFFF
// 2189   }
??CrossCallReturnLabel_70:
        LCALL   ?CALL_IND
        LJMP    ??ZDO_beaconNotifyIndCB_1 & 0xFFFF
// 2190   else
// 2191   {
// 2192     networkDesc_t *pNwkDesc;
// 2193     networkDesc_t *pLastNwkDesc;
// 2194     uint8 found = false;
// 2195 
// 2196     // Add the network to the Network Descriptor List
// 2197     pNwkDesc = NwkDescList;
??ZDO_beaconNotifyIndCB_0:
        MOV     DPTR,#NwkDescList
        LCALL   ??Subroutine44_0 & 0xFFFF
// 2198     pLastNwkDesc = NwkDescList;
??CrossCallReturnLabel_63:
        MOV     DPTR,#NwkDescList
        MOVX    A,@DPTR
        MOV     ?V2,A
        INC     DPTR
        MOVX    A,@DPTR
        MOV     ?V3,A
        SJMP    ??CrossCallReturnLabel_68
// 2199     while (pNwkDesc)
// 2200     {
// 2201       if ((pNwkDesc->panId == pBeacon->panID) &&
// 2202           (pNwkDesc->logicalChannel == pBeacon->logicalChannel))
??ZDO_beaconNotifyIndCB_2:
        LCALL   ?Subroutine16 & 0xFFFF
??CrossCallReturnLabel_62:
        MOV     DPL,R2
        MOV     DPH,R3
        INC     DPTR
        INC     DPTR
        MOVX    A,@DPTR
        XRL     A,R0
        JNZ     ??ZDO_beaconNotifyIndCB_3
        INC     DPTR
        MOVX    A,@DPTR
        XRL     A,R1
??ZDO_beaconNotifyIndCB_3:
        JNZ     ??ZDO_beaconNotifyIndCB_4
        MOV     DPL,R6
        MOV     DPH,R7
        INC     DPTR
        INC     DPTR
        MOVX    A,@DPTR
        MOV     R0,A
        MOV     DPL,R2
        MOV     DPH,R3
        INC     DPTR
        INC     DPTR
        INC     DPTR
        INC     DPTR
        MOVX    A,@DPTR
        XRL     A,R0
        JZ      ??ZDO_beaconNotifyIndCB_5
// 2203       {
// 2204         found = true;
// 2205         break;
// 2206       }
// 2207       pLastNwkDesc = pNwkDesc;
??ZDO_beaconNotifyIndCB_4:
        MOV     ?V2,R6
        MOV     ?V3,R7
// 2208       pNwkDesc = pNwkDesc->nextDesc;
        LCALL   ?Subroutine18 & 0xFFFF
// 2209     }
??CrossCallReturnLabel_68:
        MOV     A,R6
        ORL     A,R7
        JNZ     ??ZDO_beaconNotifyIndCB_2
// 2210 
// 2211     // If no existing descriptor found, make a new one and add to the list
// 2212     if (found == false)
// 2213     {
// 2214       pNwkDesc = osal_mem_alloc( sizeof(networkDesc_t)  );
        ; Setup parameters for call to function osal_mem_alloc
        MOV     R2,#0x16
        MOV     R3,#0x0
        LCALL   ??osal_mem_alloc?relay; Banked call to: osal_mem_alloc
        MOV     ?V4,R2
        MOV     ?V5,R3
        MOV     R6,?V4
        MOV     R7,?V5
// 2215       if ( !pNwkDesc )
        MOV     A,R6
        ORL     A,R7
        JNZ     $+5
        LJMP    ??ZDO_beaconNotifyIndCB_1 & 0xFFFF
// 2216       {
// 2217         // Memory alloc failed, discard this beacon
// 2218         return;
// 2219       }
// 2220 
// 2221       // Clear the network descriptor
// 2222       osal_memset( pNwkDesc, 0, sizeof(networkDesc_t)  );
        ; Setup parameters for call to function osal_memset
        MOV     R4,#0x16
        MOV     R5,#0x0
        MOV     R1,#0x0
        LCALL   ??osal_memset?relay  ; Banked call to: osal_memset
// 2223 
// 2224       // Initialize the descriptor
// 2225       pNwkDesc->chosenRouter = INVALID_NODE_ADDR;
        MOV     DPL,R6
        MOV     DPH,R7
        INC     DPTR
        INC     DPTR
        INC     DPTR
        INC     DPTR
        INC     DPTR
        INC     DPTR
        INC     DPTR
        MOV     A,#-0x2
        MOVX    @DPTR,A
        INC     DPTR
        INC     A
        LCALL   ?Subroutine10 & 0xFFFF
// 2226       pNwkDesc->chosenRouterDepth = 0xFF;
??CrossCallReturnLabel_1:
        INC     DPTR
        INC     DPTR
        INC     DPTR
        INC     DPTR
        MOVX    @DPTR,A
// 2227 
// 2228       // Save new entry into the descriptor list
// 2229       if ( !NwkDescList )
        MOV     DPTR,#NwkDescList
        LCALL   ?Subroutine14 & 0xFFFF
??CrossCallReturnLabel_10:
        JNZ     ??ZDO_beaconNotifyIndCB_6
// 2230       {
// 2231         NwkDescList = pNwkDesc;
        MOV     DPTR,#NwkDescList
        SJMP    ??ZDO_beaconNotifyIndCB_7
// 2232       }
// 2233       else
// 2234       {
// 2235         pLastNwkDesc->nextDesc = pNwkDesc;
??ZDO_beaconNotifyIndCB_6:
        MOV     A,?V2
        ADD     A,#0x14
        MOV     DPL,A
        CLR     A
        ADDC    A,?V3
        MOV     DPH,A
??ZDO_beaconNotifyIndCB_7:
        MOV     A,R6
        MOVX    @DPTR,A
        INC     DPTR
        MOV     A,R7
        MOVX    @DPTR,A
// 2236       }
// 2237     }
// 2238 
// 2239     // Update the descriptor with the incoming beacon
// 2240     pNwkDesc->stackProfile   = pBeacon->stackProfile;
??ZDO_beaconNotifyIndCB_5:
        MOV     DPL,?V0
        MOV     DPH,?V1
        INC     DPTR
        INC     DPTR
        INC     DPTR
        INC     DPTR
        INC     DPTR
        INC     DPTR
        INC     DPTR
        INC     DPTR
        INC     DPTR
        LCALL   ?Subroutine19 & 0xFFFF
??CrossCallReturnLabel_18:
        INC     DPTR
        MOVX    @DPTR,A
// 2241     pNwkDesc->version        = pBeacon->protocolVersion;
        MOV     A,?V0
        ADD     A,#0x8
        MOV     R0,A
        CLR     A
        ADDC    A,?V1
        MOV     R1,A
        MOV     DPL,R0
        MOV     DPH,R1
        LCALL   ?Subroutine19 & 0xFFFF
??CrossCallReturnLabel_19:
        LCALL   ?Subroutine11 & 0xFFFF
// 2242     pNwkDesc->logicalChannel = pBeacon->logicalChannel;
??CrossCallReturnLabel_2:
        MOVX    A,@DPTR
        MOV     DPL,R6
        MOV     DPH,R7
        INC     DPTR
        INC     DPTR
        LCALL   ?Subroutine28 & 0xFFFF
// 2243     pNwkDesc->panId          = pBeacon->panID;
??CrossCallReturnLabel_32:
        LCALL   ?Subroutine20 & 0xFFFF
??CrossCallReturnLabel_55:
        MOV     DPL,R6
        MOV     DPH,R7
        LCALL   ??Subroutine48_0 & 0xFFFF
// 2244     pNwkDesc->updateId       = pBeacon->updateID;
??CrossCallReturnLabel_83:
        MOV     A,?V0
        ADD     A,#0xc
        MOV     DPL,A
        CLR     A
        ADDC    A,?V1
        MOV     DPH,A
        MOVX    A,@DPTR
        PUSH    A
          CFI CFA_SP SP+-1
        MOV     A,R6
        ADD     A,#0x13
        MOV     DPL,A
        CLR     A
        ADDC    A,R7
        MOV     DPH,A
        POP     A
          CFI CFA_SP SP+0
        MOVX    @DPTR,A
// 2245 
// 2246     // Save the extended PAN ID from the beacon payload only if 1.1 version network
// 2247     if ( pBeacon->protocolVersion != ZB_PROT_V1_0 )
        MOV     DPL,R0
        MOV     DPH,R1
        MOVX    A,@DPTR
        XRL     A,#0x1
        JZ      ??ZDO_beaconNotifyIndCB_8
// 2248     {
// 2249       osal_cpyExtAddr( pNwkDesc->extendedPANID, pBeacon->extendedPanID );
        ; Setup parameters for call to function sAddrExtCpy
        MOV     A,?V0
        ADD     A,#0xd
        MOV     R4,A
        CLR     A
        ADDC    A,?V1
        LCALL   ?Subroutine25 & 0xFFFF
// 2250     }
??CrossCallReturnLabel_51:
        LCALL   ??sAddrExtCpy?relay  ; Banked call to: sAddrExtCpy
        SJMP    ??ZDO_beaconNotifyIndCB_9
// 2251     else
// 2252     {
// 2253       osal_memset( pNwkDesc->extendedPANID, 0xFF, Z_EXTADDR_LEN );
??ZDO_beaconNotifyIndCB_8:
        ; Setup parameters for call to function osal_memset
        MOV     R4,#0x8
        MOV     R5,#0x0
        MOV     R1,#-0x1
        LCALL   ??Subroutine38_0 & 0xFFFF
// 2254     }
??CrossCallReturnLabel_49:
        LCALL   ??osal_memset?relay  ; Banked call to: osal_memset
// 2255 
// 2256     // check if this device is a better choice to join...
// 2257     // ...dont bother checking assocPermit flag is doing a rejoin
// 2258     if ( ( pBeacon->LQI > gMIN_TREE_LINK_COST ) &&
// 2259         ( ( pBeacon->permitJoining == TRUE ) || ( _tmpRejoinState ) ) )
??ZDO_beaconNotifyIndCB_9:
        MOV     DPL,?V0
        MOV     DPH,?V1
        INC     DPTR
        INC     DPTR
        INC     DPTR
        INC     DPTR
        INC     DPTR
        INC     DPTR
        INC     DPTR
        INC     DPTR
        INC     DPTR
        INC     DPTR
        MOVX    A,@DPTR
        MOV     R0,A
        MOV     DPTR,#gMIN_TREE_LINK_COST
        MOVX    A,@DPTR
        CLR     C
        SUBB    A,R0
        JC      $+5
        LJMP    ??ZDO_beaconNotifyIndCB_1 & 0xFFFF
        MOV     DPL,?V0
        MOV     DPH,?V1
        INC     DPTR
        INC     DPTR
        INC     DPTR
        INC     DPTR
        INC     DPTR
        MOVX    A,@DPTR
        XRL     A,#0x1
        JZ      ??ZDO_beaconNotifyIndCB_10
        MOV     DPTR,#_tmpRejoinState
        MOVX    A,@DPTR
        JNZ     $+5
        LJMP    ??ZDO_beaconNotifyIndCB_1 & 0xFFFF
// 2260     {
// 2261       uint8 selected = FALSE;
??ZDO_beaconNotifyIndCB_10:
        MOV     R1,#0x0
// 2262       uint8 capacity = FALSE;
// 2263 
// 2264       if ( _NIB.nwkAddrAlloc == NWK_ADDRESSING_STOCHASTIC )
        MOV     DPTR,#_NIB + 96
        MOVX    A,@DPTR
        XRL     A,#0x2
        JNZ     ??ZDO_beaconNotifyIndCB_11
// 2265       {
// 2266         if ( ((pBeacon->LQI   > pNwkDesc->chosenRouterLinkQuality) &&
// 2267               (pBeacon->depth < MAX_NODE_DEPTH)) ||
// 2268             ((pBeacon->LQI   == pNwkDesc->chosenRouterLinkQuality) &&
// 2269              (pBeacon->depth < pNwkDesc->chosenRouterDepth)) )
        MOV     DPL,R6
        MOV     DPH,R7
        INC     DPTR
        INC     DPTR
        INC     DPTR
        INC     DPTR
        INC     DPTR
        INC     DPTR
        INC     DPTR
        INC     DPTR
        INC     DPTR
        MOVX    A,@DPTR
        CLR     C
        SUBB    A,R0
        JNC     ??ZDO_beaconNotifyIndCB_12
        LCALL   ?Subroutine23 & 0xFFFF
// 2270         {
// 2271           selected = TRUE;
// 2272         }
// 2273       }
??CrossCallReturnLabel_24:
        SUBB    A,#0x14
        JC      ??ZDO_beaconNotifyIndCB_13
        SJMP    ??ZDO_beaconNotifyIndCB_14
??ZDO_beaconNotifyIndCB_12:
        MOV     DPL,R6
        MOV     DPH,R7
        INC     DPTR
        INC     DPTR
        INC     DPTR
        INC     DPTR
        INC     DPTR
        INC     DPTR
        INC     DPTR
        INC     DPTR
        INC     DPTR
        MOVX    A,@DPTR
        XRL     A,R0
        JNZ     ??ZDO_beaconNotifyIndCB_15
// 2274       else
// 2275       {
// 2276         if ( pBeacon->depth < pNwkDesc->chosenRouterDepth )
??ZDO_beaconNotifyIndCB_11:
        MOV     DPL,R6
        MOV     DPH,R7
        INC     DPTR
        INC     DPTR
        INC     DPTR
        INC     DPTR
        INC     DPTR
        INC     DPTR
        INC     DPTR
        INC     DPTR
        INC     DPTR
        INC     DPTR
        MOVX    A,@DPTR
        MOV     R0,A
        LCALL   ?Subroutine23 & 0xFFFF
??CrossCallReturnLabel_25:
        SUBB    A,R0
        JNC     ??ZDO_beaconNotifyIndCB_15
// 2277         {
// 2278           selected = TRUE;
??ZDO_beaconNotifyIndCB_13:
        INC     R1
// 2279         }
// 2280       }
// 2281 
// 2282       if ( ZSTACK_ROUTER_BUILD )
// 2283       {
// 2284         capacity = pBeacon->routerCapacity;
// 2285       }
// 2286       else if ( ZSTACK_END_DEVICE_BUILD )
// 2287       {
// 2288         capacity = pBeacon->deviceCapacity;
// 2289       }
// 2290 
// 2291       if ( (capacity) && (selected) )
??ZDO_beaconNotifyIndCB_14:
        MOV     DPL,?V0
        MOV     DPH,?V1
        INC     DPTR
        INC     DPTR
        INC     DPTR
        INC     DPTR
        INC     DPTR
        INC     DPTR
        INC     DPTR
        MOVX    A,@DPTR
        JZ      ??ZDO_beaconNotifyIndCB_16
        MOV     A,R1
        MOV     C,0xE0 /* A   */.0
        JNC     ??ZDO_beaconNotifyIndCB_17
// 2292       {
// 2293         // this is the new chosen router for joining...
// 2294         pNwkDesc->chosenRouter            = pBeacon->sourceAddr;
        MOV     DPL,?V0
        MOV     DPH,?V1
        LCALL   ??Subroutine43_0 & 0xFFFF
??CrossCallReturnLabel_57:
        MOV     DPL,R6
        MOV     DPH,R7
        INC     DPTR
        INC     DPTR
        INC     DPTR
        INC     DPTR
        INC     DPTR
        INC     DPTR
        INC     DPTR
        MOV     A,R0
        MOVX    @DPTR,A
        INC     DPTR
        MOV     A,R1
        LCALL   ?Subroutine11 & 0xFFFF
// 2295         pNwkDesc->chosenRouterLinkQuality = pBeacon->LQI;
??CrossCallReturnLabel_3:
        INC     DPTR
        INC     DPTR
        INC     DPTR
        INC     DPTR
        INC     DPTR
        INC     DPTR
        LCALL   ?Subroutine17 & 0xFFFF
??CrossCallReturnLabel_16:
        MOVX    @DPTR,A
// 2296         pNwkDesc->chosenRouterDepth       = pBeacon->depth;
        LCALL   ?Subroutine31 & 0xFFFF
// 2297       }
??CrossCallReturnLabel_38:
        LCALL   ?Subroutine17 & 0xFFFF
??CrossCallReturnLabel_17:
        INC     DPTR
        MOVX    @DPTR,A
// 2298 
// 2299       if ( pBeacon->deviceCapacity )
??ZDO_beaconNotifyIndCB_15:
        MOV     DPL,?V0
        MOV     DPH,?V1
        INC     DPTR
        INC     DPTR
        INC     DPTR
        INC     DPTR
        INC     DPTR
        INC     DPTR
        INC     DPTR
        MOVX    A,@DPTR
        JZ      ??ZDO_beaconNotifyIndCB_16
// 2300         pNwkDesc->deviceCapacity = 1;
??ZDO_beaconNotifyIndCB_17:
        MOV     DPL,R6
        MOV     DPH,R7
        INC     DPTR
        INC     DPTR
        INC     DPTR
        INC     DPTR
        MOV     A,#0x1
        MOVX    @DPTR,A
// 2301 
// 2302       if ( pBeacon->routerCapacity )
??ZDO_beaconNotifyIndCB_16:
        MOV     DPL,?V0
        MOV     DPH,?V1
        INC     DPTR
        INC     DPTR
        INC     DPTR
        INC     DPTR
        INC     DPTR
        INC     DPTR
        MOVX    A,@DPTR
        JZ      ??ZDO_beaconNotifyIndCB_1
// 2303         pNwkDesc->routerCapacity = 1;
        MOV     DPL,R6
        MOV     DPH,R7
        INC     DPTR
        INC     DPTR
        INC     DPTR
        MOV     A,#0x1
        MOVX    @DPTR,A
// 2304     }
// 2305   }
// 2306 }
??ZDO_beaconNotifyIndCB_1:
        LJMP    ?Subroutine5 & 0xFFFF
          CFI EndBlock cfiBlock75

        RSEG BANKED_CODE:CODE:NOROOT(0)
?Subroutine23:
          CFI Block cfiCond76 Using cfiCommon0
          CFI Function ZDO_beaconNotifyIndCB
          CFI Conditional ??CrossCallReturnLabel_24
          CFI R6 load(1, XDATA, add(CFA_XSP16, literal(-14)))
          CFI VB load(1, XDATA, add(CFA_XSP16, literal(-13)))
          CFI V0 load(1, XDATA, add(CFA_XSP16, literal(-12)))
          CFI V1 load(1, XDATA, add(CFA_XSP16, literal(-11)))
          CFI V2 load(1, XDATA, add(CFA_XSP16, literal(-10)))
          CFI V3 load(1, XDATA, add(CFA_XSP16, literal(-9)))
          CFI V4 load(1, XDATA, add(CFA_XSP16, literal(-8)))
          CFI V5 load(1, XDATA, add(CFA_XSP16, literal(-7)))
          CFI R7 load(1, XDATA, add(CFA_XSP16, literal(-6)))
          CFI ?RET_LOW load(1, XDATA, add(CFA_XSP16, literal(-5)))
          CFI ?RET_HIGH load(1, XDATA, add(CFA_XSP16, literal(-4)))
          CFI ?BRET_EXT load(1, XDATA, add(CFA_XSP16, literal(-3)))
          CFI DPL0 load(1, XDATA, add(CFA_XSP16, literal(-2)))
          CFI DPH0 load(1, XDATA, add(CFA_XSP16, literal(-1)))
          CFI CFA_SP SP+-2
          CFI CFA_XSP16 add(XSP16, 14)
          CFI Block cfiCond77 Using cfiCommon0
          CFI (cfiCond77) Function ZDO_beaconNotifyIndCB
          CFI (cfiCond77) Conditional ??CrossCallReturnLabel_25
          CFI (cfiCond77) R6 load(1, XDATA, add(CFA_XSP16, literal(-14)))
          CFI (cfiCond77) VB load(1, XDATA, add(CFA_XSP16, literal(-13)))
          CFI (cfiCond77) V0 load(1, XDATA, add(CFA_XSP16, literal(-12)))
          CFI (cfiCond77) V1 load(1, XDATA, add(CFA_XSP16, literal(-11)))
          CFI (cfiCond77) V2 load(1, XDATA, add(CFA_XSP16, literal(-10)))
          CFI (cfiCond77) V3 load(1, XDATA, add(CFA_XSP16, literal(-9)))
          CFI (cfiCond77) V4 load(1, XDATA, add(CFA_XSP16, literal(-8)))
          CFI (cfiCond77) V5 load(1, XDATA, add(CFA_XSP16, literal(-7)))
          CFI (cfiCond77) R7 load(1, XDATA, add(CFA_XSP16, literal(-6)))
          CFI (cfiCond77) ?RET_LOW load(1, XDATA, add(CFA_XSP16, literal(-5)))
          CFI (cfiCond77) ?RET_HIGH load(1, XDATA, add(CFA_XSP16, literal(-4)))
          CFI (cfiCond77) ?BRET_EXT load(1, XDATA, add(CFA_XSP16, literal(-3)))
          CFI (cfiCond77) DPL0 load(1, XDATA, add(CFA_XSP16, literal(-2)))
          CFI (cfiCond77) DPH0 load(1, XDATA, add(CFA_XSP16, literal(-1)))
          CFI (cfiCond77) CFA_SP SP+-2
          CFI (cfiCond77) CFA_XSP16 add(XSP16, 14)
          CFI Block cfiPicker78 Using cfiCommon1
          CFI (cfiPicker78) NoFunction
          CFI (cfiPicker78) Picker
        LCALL   ?Subroutine31 & 0xFFFF
??CrossCallReturnLabel_39:
        MOVX    A,@DPTR
        CLR     C
        RET
          CFI EndBlock cfiCond76
          CFI EndBlock cfiCond77
          CFI EndBlock cfiPicker78

        RSEG BANKED_CODE:CODE:NOROOT(0)
?Subroutine31:
          CFI Block cfiCond79 Using cfiCommon0
          CFI Function ZDO_beaconNotifyIndCB
          CFI Conditional ??CrossCallReturnLabel_38
          CFI R6 load(1, XDATA, add(CFA_XSP16, literal(-14)))
          CFI VB load(1, XDATA, add(CFA_XSP16, literal(-13)))
          CFI V0 load(1, XDATA, add(CFA_XSP16, literal(-12)))
          CFI V1 load(1, XDATA, add(CFA_XSP16, literal(-11)))
          CFI V2 load(1, XDATA, add(CFA_XSP16, literal(-10)))
          CFI V3 load(1, XDATA, add(CFA_XSP16, literal(-9)))
          CFI V4 load(1, XDATA, add(CFA_XSP16, literal(-8)))
          CFI V5 load(1, XDATA, add(CFA_XSP16, literal(-7)))
          CFI R7 load(1, XDATA, add(CFA_XSP16, literal(-6)))
          CFI ?RET_LOW load(1, XDATA, add(CFA_XSP16, literal(-5)))
          CFI ?RET_HIGH load(1, XDATA, add(CFA_XSP16, literal(-4)))
          CFI ?BRET_EXT load(1, XDATA, add(CFA_XSP16, literal(-3)))
          CFI DPL0 load(1, XDATA, add(CFA_XSP16, literal(-2)))
          CFI DPH0 load(1, XDATA, add(CFA_XSP16, literal(-1)))
          CFI CFA_SP SP+-2
          CFI CFA_XSP16 add(XSP16, 14)
          CFI Block cfiCond80 Using cfiCommon0
          CFI (cfiCond80) Function ZDO_beaconNotifyIndCB
          CFI (cfiCond80) Conditional ??CrossCallReturnLabel_39, ??CrossCallReturnLabel_24
          CFI (cfiCond80) R6 load(1, XDATA, add(CFA_XSP16, literal(-14)))
          CFI (cfiCond80) VB load(1, XDATA, add(CFA_XSP16, literal(-13)))
          CFI (cfiCond80) V0 load(1, XDATA, add(CFA_XSP16, literal(-12)))
          CFI (cfiCond80) V1 load(1, XDATA, add(CFA_XSP16, literal(-11)))
          CFI (cfiCond80) V2 load(1, XDATA, add(CFA_XSP16, literal(-10)))
          CFI (cfiCond80) V3 load(1, XDATA, add(CFA_XSP16, literal(-9)))
          CFI (cfiCond80) V4 load(1, XDATA, add(CFA_XSP16, literal(-8)))
          CFI (cfiCond80) V5 load(1, XDATA, add(CFA_XSP16, literal(-7)))
          CFI (cfiCond80) R7 load(1, XDATA, add(CFA_XSP16, literal(-6)))
          CFI (cfiCond80) ?RET_LOW load(1, XDATA, add(CFA_XSP16, literal(-5)))
          CFI (cfiCond80) ?RET_HIGH load(1, XDATA, add(CFA_XSP16, literal(-4)))
          CFI (cfiCond80) ?BRET_EXT load(1, XDATA, add(CFA_XSP16, literal(-3)))
          CFI (cfiCond80) DPL0 load(1, XDATA, add(CFA_XSP16, literal(-2)))
          CFI (cfiCond80) DPH0 load(1, XDATA, add(CFA_XSP16, literal(-1)))
          CFI (cfiCond80) CFA_SP SP+-4
          CFI (cfiCond80) CFA_XSP16 add(XSP16, 14)
          CFI Block cfiCond81 Using cfiCommon0
          CFI (cfiCond81) Function ZDO_beaconNotifyIndCB
          CFI (cfiCond81) Conditional ??CrossCallReturnLabel_39, ??CrossCallReturnLabel_25
          CFI (cfiCond81) R6 load(1, XDATA, add(CFA_XSP16, literal(-14)))
          CFI (cfiCond81) VB load(1, XDATA, add(CFA_XSP16, literal(-13)))
          CFI (cfiCond81) V0 load(1, XDATA, add(CFA_XSP16, literal(-12)))
          CFI (cfiCond81) V1 load(1, XDATA, add(CFA_XSP16, literal(-11)))
          CFI (cfiCond81) V2 load(1, XDATA, add(CFA_XSP16, literal(-10)))
          CFI (cfiCond81) V3 load(1, XDATA, add(CFA_XSP16, literal(-9)))
          CFI (cfiCond81) V4 load(1, XDATA, add(CFA_XSP16, literal(-8)))
          CFI (cfiCond81) V5 load(1, XDATA, add(CFA_XSP16, literal(-7)))
          CFI (cfiCond81) R7 load(1, XDATA, add(CFA_XSP16, literal(-6)))
          CFI (cfiCond81) ?RET_LOW load(1, XDATA, add(CFA_XSP16, literal(-5)))
          CFI (cfiCond81) ?RET_HIGH load(1, XDATA, add(CFA_XSP16, literal(-4)))
          CFI (cfiCond81) ?BRET_EXT load(1, XDATA, add(CFA_XSP16, literal(-3)))
          CFI (cfiCond81) DPL0 load(1, XDATA, add(CFA_XSP16, literal(-2)))
          CFI (cfiCond81) DPH0 load(1, XDATA, add(CFA_XSP16, literal(-1)))
          CFI (cfiCond81) CFA_SP SP+-4
          CFI (cfiCond81) CFA_XSP16 add(XSP16, 14)
          CFI Block cfiPicker82 Using cfiCommon1
          CFI (cfiPicker82) NoFunction
          CFI (cfiPicker82) Picker
        MOV     A,?V0
        ADD     A,#0xb
        MOV     DPL,A
        CLR     A
        ADDC    A,?V1
        MOV     DPH,A
        RET
          CFI EndBlock cfiCond79
          CFI EndBlock cfiCond80
          CFI EndBlock cfiCond81
          CFI EndBlock cfiPicker82

        RSEG BANKED_CODE:CODE:NOROOT(0)
?Subroutine19:
          CFI Block cfiCond83 Using cfiCommon0
          CFI Function ZDO_beaconNotifyIndCB
          CFI Conditional ??CrossCallReturnLabel_18
          CFI R6 load(1, XDATA, add(CFA_XSP16, literal(-14)))
          CFI VB load(1, XDATA, add(CFA_XSP16, literal(-13)))
          CFI V0 load(1, XDATA, add(CFA_XSP16, literal(-12)))
          CFI V1 load(1, XDATA, add(CFA_XSP16, literal(-11)))
          CFI V2 load(1, XDATA, add(CFA_XSP16, literal(-10)))
          CFI V3 load(1, XDATA, add(CFA_XSP16, literal(-9)))
          CFI V4 load(1, XDATA, add(CFA_XSP16, literal(-8)))
          CFI V5 load(1, XDATA, add(CFA_XSP16, literal(-7)))
          CFI R7 load(1, XDATA, add(CFA_XSP16, literal(-6)))
          CFI ?RET_LOW load(1, XDATA, add(CFA_XSP16, literal(-5)))
          CFI ?RET_HIGH load(1, XDATA, add(CFA_XSP16, literal(-4)))
          CFI ?BRET_EXT load(1, XDATA, add(CFA_XSP16, literal(-3)))
          CFI DPL0 load(1, XDATA, add(CFA_XSP16, literal(-2)))
          CFI DPH0 load(1, XDATA, add(CFA_XSP16, literal(-1)))
          CFI CFA_SP SP+-2
          CFI CFA_XSP16 add(XSP16, 14)
          CFI Block cfiCond84 Using cfiCommon0
          CFI (cfiCond84) Function ZDO_beaconNotifyIndCB
          CFI (cfiCond84) Conditional ??CrossCallReturnLabel_19
          CFI (cfiCond84) R6 load(1, XDATA, add(CFA_XSP16, literal(-14)))
          CFI (cfiCond84) VB load(1, XDATA, add(CFA_XSP16, literal(-13)))
          CFI (cfiCond84) V0 load(1, XDATA, add(CFA_XSP16, literal(-12)))
          CFI (cfiCond84) V1 load(1, XDATA, add(CFA_XSP16, literal(-11)))
          CFI (cfiCond84) V2 load(1, XDATA, add(CFA_XSP16, literal(-10)))
          CFI (cfiCond84) V3 load(1, XDATA, add(CFA_XSP16, literal(-9)))
          CFI (cfiCond84) V4 load(1, XDATA, add(CFA_XSP16, literal(-8)))
          CFI (cfiCond84) V5 load(1, XDATA, add(CFA_XSP16, literal(-7)))
          CFI (cfiCond84) R7 load(1, XDATA, add(CFA_XSP16, literal(-6)))
          CFI (cfiCond84) ?RET_LOW load(1, XDATA, add(CFA_XSP16, literal(-5)))
          CFI (cfiCond84) ?RET_HIGH load(1, XDATA, add(CFA_XSP16, literal(-4)))
          CFI (cfiCond84) ?BRET_EXT load(1, XDATA, add(CFA_XSP16, literal(-3)))
          CFI (cfiCond84) DPL0 load(1, XDATA, add(CFA_XSP16, literal(-2)))
          CFI (cfiCond84) DPH0 load(1, XDATA, add(CFA_XSP16, literal(-1)))
          CFI (cfiCond84) CFA_SP SP+-2
          CFI (cfiCond84) CFA_XSP16 add(XSP16, 14)
          CFI Block cfiPicker85 Using cfiCommon1
          CFI (cfiPicker85) NoFunction
          CFI (cfiPicker85) Picker
        LCALL   ?Subroutine29 & 0xFFFF
??CrossCallReturnLabel_35:
        RET
          CFI EndBlock cfiCond83
          CFI EndBlock cfiCond84
          CFI EndBlock cfiPicker85

        RSEG BANKED_CODE:CODE:NOROOT(0)
?Subroutine29:
          CFI Block cfiCond86 Using cfiCommon0
          CFI Function ZDO_beaconNotifyIndCB
          CFI Conditional ??CrossCallReturnLabel_35, ??CrossCallReturnLabel_18
          CFI R6 load(1, XDATA, add(CFA_XSP16, literal(-14)))
          CFI VB load(1, XDATA, add(CFA_XSP16, literal(-13)))
          CFI V0 load(1, XDATA, add(CFA_XSP16, literal(-12)))
          CFI V1 load(1, XDATA, add(CFA_XSP16, literal(-11)))
          CFI V2 load(1, XDATA, add(CFA_XSP16, literal(-10)))
          CFI V3 load(1, XDATA, add(CFA_XSP16, literal(-9)))
          CFI V4 load(1, XDATA, add(CFA_XSP16, literal(-8)))
          CFI V5 load(1, XDATA, add(CFA_XSP16, literal(-7)))
          CFI R7 load(1, XDATA, add(CFA_XSP16, literal(-6)))
          CFI ?RET_LOW load(1, XDATA, add(CFA_XSP16, literal(-5)))
          CFI ?RET_HIGH load(1, XDATA, add(CFA_XSP16, literal(-4)))
          CFI ?BRET_EXT load(1, XDATA, add(CFA_XSP16, literal(-3)))
          CFI DPL0 load(1, XDATA, add(CFA_XSP16, literal(-2)))
          CFI DPH0 load(1, XDATA, add(CFA_XSP16, literal(-1)))
          CFI CFA_SP SP+-4
          CFI CFA_XSP16 add(XSP16, 14)
          CFI Block cfiCond87 Using cfiCommon0
          CFI (cfiCond87) Function ZDO_beaconNotifyIndCB
          CFI (cfiCond87) Conditional ??CrossCallReturnLabel_35, ??CrossCallReturnLabel_19
          CFI (cfiCond87) R6 load(1, XDATA, add(CFA_XSP16, literal(-14)))
          CFI (cfiCond87) VB load(1, XDATA, add(CFA_XSP16, literal(-13)))
          CFI (cfiCond87) V0 load(1, XDATA, add(CFA_XSP16, literal(-12)))
          CFI (cfiCond87) V1 load(1, XDATA, add(CFA_XSP16, literal(-11)))
          CFI (cfiCond87) V2 load(1, XDATA, add(CFA_XSP16, literal(-10)))
          CFI (cfiCond87) V3 load(1, XDATA, add(CFA_XSP16, literal(-9)))
          CFI (cfiCond87) V4 load(1, XDATA, add(CFA_XSP16, literal(-8)))
          CFI (cfiCond87) V5 load(1, XDATA, add(CFA_XSP16, literal(-7)))
          CFI (cfiCond87) R7 load(1, XDATA, add(CFA_XSP16, literal(-6)))
          CFI (cfiCond87) ?RET_LOW load(1, XDATA, add(CFA_XSP16, literal(-5)))
          CFI (cfiCond87) ?RET_HIGH load(1, XDATA, add(CFA_XSP16, literal(-4)))
          CFI (cfiCond87) ?BRET_EXT load(1, XDATA, add(CFA_XSP16, literal(-3)))
          CFI (cfiCond87) DPL0 load(1, XDATA, add(CFA_XSP16, literal(-2)))
          CFI (cfiCond87) DPH0 load(1, XDATA, add(CFA_XSP16, literal(-1)))
          CFI (cfiCond87) CFA_SP SP+-4
          CFI (cfiCond87) CFA_XSP16 add(XSP16, 14)
          CFI Block cfiCond88 Using cfiCommon0
          CFI (cfiCond88) Function ZDO_beaconNotifyIndCB
          CFI (cfiCond88) Conditional ??CrossCallReturnLabel_34, ??CrossCallReturnLabel_16
          CFI (cfiCond88) R6 load(1, XDATA, add(CFA_XSP16, literal(-14)))
          CFI (cfiCond88) VB load(1, XDATA, add(CFA_XSP16, literal(-13)))
          CFI (cfiCond88) V0 load(1, XDATA, add(CFA_XSP16, literal(-12)))
          CFI (cfiCond88) V1 load(1, XDATA, add(CFA_XSP16, literal(-11)))
          CFI (cfiCond88) V2 load(1, XDATA, add(CFA_XSP16, literal(-10)))
          CFI (cfiCond88) V3 load(1, XDATA, add(CFA_XSP16, literal(-9)))
          CFI (cfiCond88) V4 load(1, XDATA, add(CFA_XSP16, literal(-8)))
          CFI (cfiCond88) V5 load(1, XDATA, add(CFA_XSP16, literal(-7)))
          CFI (cfiCond88) R7 load(1, XDATA, add(CFA_XSP16, literal(-6)))
          CFI (cfiCond88) ?RET_LOW load(1, XDATA, add(CFA_XSP16, literal(-5)))
          CFI (cfiCond88) ?RET_HIGH load(1, XDATA, add(CFA_XSP16, literal(-4)))
          CFI (cfiCond88) ?BRET_EXT load(1, XDATA, add(CFA_XSP16, literal(-3)))
          CFI (cfiCond88) DPL0 load(1, XDATA, add(CFA_XSP16, literal(-2)))
          CFI (cfiCond88) DPH0 load(1, XDATA, add(CFA_XSP16, literal(-1)))
          CFI (cfiCond88) CFA_SP SP+-4
          CFI (cfiCond88) CFA_XSP16 add(XSP16, 14)
          CFI Block cfiCond89 Using cfiCommon0
          CFI (cfiCond89) Function ZDO_beaconNotifyIndCB
          CFI (cfiCond89) Conditional ??CrossCallReturnLabel_34, ??CrossCallReturnLabel_17
          CFI (cfiCond89) R6 load(1, XDATA, add(CFA_XSP16, literal(-14)))
          CFI (cfiCond89) VB load(1, XDATA, add(CFA_XSP16, literal(-13)))
          CFI (cfiCond89) V0 load(1, XDATA, add(CFA_XSP16, literal(-12)))
          CFI (cfiCond89) V1 load(1, XDATA, add(CFA_XSP16, literal(-11)))
          CFI (cfiCond89) V2 load(1, XDATA, add(CFA_XSP16, literal(-10)))
          CFI (cfiCond89) V3 load(1, XDATA, add(CFA_XSP16, literal(-9)))
          CFI (cfiCond89) V4 load(1, XDATA, add(CFA_XSP16, literal(-8)))
          CFI (cfiCond89) V5 load(1, XDATA, add(CFA_XSP16, literal(-7)))
          CFI (cfiCond89) R7 load(1, XDATA, add(CFA_XSP16, literal(-6)))
          CFI (cfiCond89) ?RET_LOW load(1, XDATA, add(CFA_XSP16, literal(-5)))
          CFI (cfiCond89) ?RET_HIGH load(1, XDATA, add(CFA_XSP16, literal(-4)))
          CFI (cfiCond89) ?BRET_EXT load(1, XDATA, add(CFA_XSP16, literal(-3)))
          CFI (cfiCond89) DPL0 load(1, XDATA, add(CFA_XSP16, literal(-2)))
          CFI (cfiCond89) DPH0 load(1, XDATA, add(CFA_XSP16, literal(-1)))
          CFI (cfiCond89) CFA_SP SP+-4
          CFI (cfiCond89) CFA_XSP16 add(XSP16, 14)
          CFI Block cfiPicker90 Using cfiCommon1
          CFI (cfiPicker90) NoFunction
          CFI (cfiPicker90) Picker
        MOVX    A,@DPTR
        MOV     DPL,R6
        MOV     DPH,R7
        INC     DPTR
        INC     DPTR
        INC     DPTR
        INC     DPTR
        INC     DPTR
        RET
          CFI EndBlock cfiCond86
          CFI EndBlock cfiCond87
          CFI EndBlock cfiCond88
          CFI EndBlock cfiCond89
          CFI EndBlock cfiPicker90

        RSEG BANKED_CODE:CODE:NOROOT(0)
?Subroutine17:
          CFI Block cfiCond91 Using cfiCommon0
          CFI Function ZDO_beaconNotifyIndCB
          CFI Conditional ??CrossCallReturnLabel_16
          CFI R6 load(1, XDATA, add(CFA_XSP16, literal(-14)))
          CFI VB load(1, XDATA, add(CFA_XSP16, literal(-13)))
          CFI V0 load(1, XDATA, add(CFA_XSP16, literal(-12)))
          CFI V1 load(1, XDATA, add(CFA_XSP16, literal(-11)))
          CFI V2 load(1, XDATA, add(CFA_XSP16, literal(-10)))
          CFI V3 load(1, XDATA, add(CFA_XSP16, literal(-9)))
          CFI V4 load(1, XDATA, add(CFA_XSP16, literal(-8)))
          CFI V5 load(1, XDATA, add(CFA_XSP16, literal(-7)))
          CFI R7 load(1, XDATA, add(CFA_XSP16, literal(-6)))
          CFI ?RET_LOW load(1, XDATA, add(CFA_XSP16, literal(-5)))
          CFI ?RET_HIGH load(1, XDATA, add(CFA_XSP16, literal(-4)))
          CFI ?BRET_EXT load(1, XDATA, add(CFA_XSP16, literal(-3)))
          CFI DPL0 load(1, XDATA, add(CFA_XSP16, literal(-2)))
          CFI DPH0 load(1, XDATA, add(CFA_XSP16, literal(-1)))
          CFI CFA_SP SP+-2
          CFI CFA_XSP16 add(XSP16, 14)
          CFI Block cfiCond92 Using cfiCommon0
          CFI (cfiCond92) Function ZDO_beaconNotifyIndCB
          CFI (cfiCond92) Conditional ??CrossCallReturnLabel_17
          CFI (cfiCond92) R6 load(1, XDATA, add(CFA_XSP16, literal(-14)))
          CFI (cfiCond92) VB load(1, XDATA, add(CFA_XSP16, literal(-13)))
          CFI (cfiCond92) V0 load(1, XDATA, add(CFA_XSP16, literal(-12)))
          CFI (cfiCond92) V1 load(1, XDATA, add(CFA_XSP16, literal(-11)))
          CFI (cfiCond92) V2 load(1, XDATA, add(CFA_XSP16, literal(-10)))
          CFI (cfiCond92) V3 load(1, XDATA, add(CFA_XSP16, literal(-9)))
          CFI (cfiCond92) V4 load(1, XDATA, add(CFA_XSP16, literal(-8)))
          CFI (cfiCond92) V5 load(1, XDATA, add(CFA_XSP16, literal(-7)))
          CFI (cfiCond92) R7 load(1, XDATA, add(CFA_XSP16, literal(-6)))
          CFI (cfiCond92) ?RET_LOW load(1, XDATA, add(CFA_XSP16, literal(-5)))
          CFI (cfiCond92) ?RET_HIGH load(1, XDATA, add(CFA_XSP16, literal(-4)))
          CFI (cfiCond92) ?BRET_EXT load(1, XDATA, add(CFA_XSP16, literal(-3)))
          CFI (cfiCond92) DPL0 load(1, XDATA, add(CFA_XSP16, literal(-2)))
          CFI (cfiCond92) DPH0 load(1, XDATA, add(CFA_XSP16, literal(-1)))
          CFI (cfiCond92) CFA_SP SP+-2
          CFI (cfiCond92) CFA_XSP16 add(XSP16, 14)
          CFI Block cfiPicker93 Using cfiCommon1
          CFI (cfiPicker93) NoFunction
          CFI (cfiPicker93) Picker
        LCALL   ?Subroutine29 & 0xFFFF
??CrossCallReturnLabel_34:
        INC     DPTR
        INC     DPTR
        INC     DPTR
        INC     DPTR
        RET
          CFI EndBlock cfiCond91
          CFI EndBlock cfiCond92
          CFI EndBlock cfiPicker93

        RSEG BANKED_CODE:CODE:NOROOT(0)
?Subroutine11:
          CFI Block cfiCond94 Using cfiCommon0
          CFI Function ZDO_beaconNotifyIndCB
          CFI Conditional ??CrossCallReturnLabel_2
          CFI R6 load(1, XDATA, add(CFA_XSP16, literal(-14)))
          CFI VB load(1, XDATA, add(CFA_XSP16, literal(-13)))
          CFI V0 load(1, XDATA, add(CFA_XSP16, literal(-12)))
          CFI V1 load(1, XDATA, add(CFA_XSP16, literal(-11)))
          CFI V2 load(1, XDATA, add(CFA_XSP16, literal(-10)))
          CFI V3 load(1, XDATA, add(CFA_XSP16, literal(-9)))
          CFI V4 load(1, XDATA, add(CFA_XSP16, literal(-8)))
          CFI V5 load(1, XDATA, add(CFA_XSP16, literal(-7)))
          CFI R7 load(1, XDATA, add(CFA_XSP16, literal(-6)))
          CFI ?RET_LOW load(1, XDATA, add(CFA_XSP16, literal(-5)))
          CFI ?RET_HIGH load(1, XDATA, add(CFA_XSP16, literal(-4)))
          CFI ?BRET_EXT load(1, XDATA, add(CFA_XSP16, literal(-3)))
          CFI DPL0 load(1, XDATA, add(CFA_XSP16, literal(-2)))
          CFI DPH0 load(1, XDATA, add(CFA_XSP16, literal(-1)))
          CFI CFA_SP SP+-2
          CFI CFA_XSP16 add(XSP16, 14)
          CFI Block cfiCond95 Using cfiCommon0
          CFI (cfiCond95) Function ZDO_beaconNotifyIndCB
          CFI (cfiCond95) Conditional ??CrossCallReturnLabel_3
          CFI (cfiCond95) R6 load(1, XDATA, add(CFA_XSP16, literal(-14)))
          CFI (cfiCond95) VB load(1, XDATA, add(CFA_XSP16, literal(-13)))
          CFI (cfiCond95) V0 load(1, XDATA, add(CFA_XSP16, literal(-12)))
          CFI (cfiCond95) V1 load(1, XDATA, add(CFA_XSP16, literal(-11)))
          CFI (cfiCond95) V2 load(1, XDATA, add(CFA_XSP16, literal(-10)))
          CFI (cfiCond95) V3 load(1, XDATA, add(CFA_XSP16, literal(-9)))
          CFI (cfiCond95) V4 load(1, XDATA, add(CFA_XSP16, literal(-8)))
          CFI (cfiCond95) V5 load(1, XDATA, add(CFA_XSP16, literal(-7)))
          CFI (cfiCond95) R7 load(1, XDATA, add(CFA_XSP16, literal(-6)))
          CFI (cfiCond95) ?RET_LOW load(1, XDATA, add(CFA_XSP16, literal(-5)))
          CFI (cfiCond95) ?RET_HIGH load(1, XDATA, add(CFA_XSP16, literal(-4)))
          CFI (cfiCond95) ?BRET_EXT load(1, XDATA, add(CFA_XSP16, literal(-3)))
          CFI (cfiCond95) DPL0 load(1, XDATA, add(CFA_XSP16, literal(-2)))
          CFI (cfiCond95) DPH0 load(1, XDATA, add(CFA_XSP16, literal(-1)))
          CFI (cfiCond95) CFA_SP SP+-2
          CFI (cfiCond95) CFA_XSP16 add(XSP16, 14)
          CFI Block cfiPicker96 Using cfiCommon1
          CFI (cfiPicker96) NoFunction
          CFI (cfiPicker96) Picker
        LCALL   ?Subroutine28 & 0xFFFF
??CrossCallReturnLabel_33:
        INC     DPTR
        INC     DPTR
        INC     DPTR
        RET
          CFI EndBlock cfiCond94
          CFI EndBlock cfiCond95
          CFI EndBlock cfiPicker96

        RSEG BANKED_CODE:CODE:NOROOT(0)
?Subroutine28:
          CFI Block cfiCond97 Using cfiCommon0
          CFI Function ZDO_beaconNotifyIndCB
          CFI Conditional ??CrossCallReturnLabel_32
          CFI R6 load(1, XDATA, add(CFA_XSP16, literal(-14)))
          CFI VB load(1, XDATA, add(CFA_XSP16, literal(-13)))
          CFI V0 load(1, XDATA, add(CFA_XSP16, literal(-12)))
          CFI V1 load(1, XDATA, add(CFA_XSP16, literal(-11)))
          CFI V2 load(1, XDATA, add(CFA_XSP16, literal(-10)))
          CFI V3 load(1, XDATA, add(CFA_XSP16, literal(-9)))
          CFI V4 load(1, XDATA, add(CFA_XSP16, literal(-8)))
          CFI V5 load(1, XDATA, add(CFA_XSP16, literal(-7)))
          CFI R7 load(1, XDATA, add(CFA_XSP16, literal(-6)))
          CFI ?RET_LOW load(1, XDATA, add(CFA_XSP16, literal(-5)))
          CFI ?RET_HIGH load(1, XDATA, add(CFA_XSP16, literal(-4)))
          CFI ?BRET_EXT load(1, XDATA, add(CFA_XSP16, literal(-3)))
          CFI DPL0 load(1, XDATA, add(CFA_XSP16, literal(-2)))
          CFI DPH0 load(1, XDATA, add(CFA_XSP16, literal(-1)))
          CFI CFA_SP SP+-2
          CFI CFA_XSP16 add(XSP16, 14)
          CFI Block cfiCond98 Using cfiCommon0
          CFI (cfiCond98) Function ZDO_beaconNotifyIndCB
          CFI (cfiCond98) Conditional ??CrossCallReturnLabel_33, ??CrossCallReturnLabel_2
          CFI (cfiCond98) R6 load(1, XDATA, add(CFA_XSP16, literal(-14)))
          CFI (cfiCond98) VB load(1, XDATA, add(CFA_XSP16, literal(-13)))
          CFI (cfiCond98) V0 load(1, XDATA, add(CFA_XSP16, literal(-12)))
          CFI (cfiCond98) V1 load(1, XDATA, add(CFA_XSP16, literal(-11)))
          CFI (cfiCond98) V2 load(1, XDATA, add(CFA_XSP16, literal(-10)))
          CFI (cfiCond98) V3 load(1, XDATA, add(CFA_XSP16, literal(-9)))
          CFI (cfiCond98) V4 load(1, XDATA, add(CFA_XSP16, literal(-8)))
          CFI (cfiCond98) V5 load(1, XDATA, add(CFA_XSP16, literal(-7)))
          CFI (cfiCond98) R7 load(1, XDATA, add(CFA_XSP16, literal(-6)))
          CFI (cfiCond98) ?RET_LOW load(1, XDATA, add(CFA_XSP16, literal(-5)))
          CFI (cfiCond98) ?RET_HIGH load(1, XDATA, add(CFA_XSP16, literal(-4)))
          CFI (cfiCond98) ?BRET_EXT load(1, XDATA, add(CFA_XSP16, literal(-3)))
          CFI (cfiCond98) DPL0 load(1, XDATA, add(CFA_XSP16, literal(-2)))
          CFI (cfiCond98) DPH0 load(1, XDATA, add(CFA_XSP16, literal(-1)))
          CFI (cfiCond98) CFA_SP SP+-4
          CFI (cfiCond98) CFA_XSP16 add(XSP16, 14)
          CFI Block cfiCond99 Using cfiCommon0
          CFI (cfiCond99) Function ZDO_beaconNotifyIndCB
          CFI (cfiCond99) Conditional ??CrossCallReturnLabel_33, ??CrossCallReturnLabel_3
          CFI (cfiCond99) R6 load(1, XDATA, add(CFA_XSP16, literal(-14)))
          CFI (cfiCond99) VB load(1, XDATA, add(CFA_XSP16, literal(-13)))
          CFI (cfiCond99) V0 load(1, XDATA, add(CFA_XSP16, literal(-12)))
          CFI (cfiCond99) V1 load(1, XDATA, add(CFA_XSP16, literal(-11)))
          CFI (cfiCond99) V2 load(1, XDATA, add(CFA_XSP16, literal(-10)))
          CFI (cfiCond99) V3 load(1, XDATA, add(CFA_XSP16, literal(-9)))
          CFI (cfiCond99) V4 load(1, XDATA, add(CFA_XSP16, literal(-8)))
          CFI (cfiCond99) V5 load(1, XDATA, add(CFA_XSP16, literal(-7)))
          CFI (cfiCond99) R7 load(1, XDATA, add(CFA_XSP16, literal(-6)))
          CFI (cfiCond99) ?RET_LOW load(1, XDATA, add(CFA_XSP16, literal(-5)))
          CFI (cfiCond99) ?RET_HIGH load(1, XDATA, add(CFA_XSP16, literal(-4)))
          CFI (cfiCond99) ?BRET_EXT load(1, XDATA, add(CFA_XSP16, literal(-3)))
          CFI (cfiCond99) DPL0 load(1, XDATA, add(CFA_XSP16, literal(-2)))
          CFI (cfiCond99) DPH0 load(1, XDATA, add(CFA_XSP16, literal(-1)))
          CFI (cfiCond99) CFA_SP SP+-4
          CFI (cfiCond99) CFA_XSP16 add(XSP16, 14)
          CFI Block cfiPicker100 Using cfiCommon1
          CFI (cfiPicker100) NoFunction
          CFI (cfiPicker100) Picker
        MOVX    @DPTR,A
        MOV     DPL,?V0
        MOV     DPH,?V1
        INC     DPTR
        RET
          CFI EndBlock cfiCond97
          CFI EndBlock cfiCond98
          CFI EndBlock cfiCond99
          CFI EndBlock cfiPicker100

        RSEG BANKED_CODE:CODE:NOROOT(0)
?Subroutine10:
          CFI Block cfiCond101 Using cfiCommon0
          CFI Function ZDApp_ProcessOSALMsg
          CFI Conditional ??CrossCallReturnLabel_0
          CFI R6 load(1, XDATA, add(CFA_XSP16, literal(-10)))
          CFI VB load(1, XDATA, add(CFA_XSP16, literal(-9)))
          CFI V0 load(1, XDATA, add(CFA_XSP16, literal(-8)))
          CFI V1 load(1, XDATA, add(CFA_XSP16, literal(-7)))
          CFI R7 load(1, XDATA, add(CFA_XSP16, literal(-6)))
          CFI ?RET_LOW load(1, XDATA, add(CFA_XSP16, literal(-5)))
          CFI ?RET_HIGH load(1, XDATA, add(CFA_XSP16, literal(-4)))
          CFI ?BRET_EXT load(1, XDATA, add(CFA_XSP16, literal(-3)))
          CFI DPL0 load(1, XDATA, add(CFA_XSP16, literal(-2)))
          CFI DPH0 load(1, XDATA, add(CFA_XSP16, literal(-1)))
          CFI CFA_SP SP+-2
          CFI CFA_XSP16 add(XSP16, 11)
          CFI Block cfiCond102 Using cfiCommon0
          CFI (cfiCond102) Function ZDO_beaconNotifyIndCB
          CFI (cfiCond102) Conditional ??CrossCallReturnLabel_1
          CFI (cfiCond102) R6 load(1, XDATA, add(CFA_XSP16, literal(-14)))
          CFI (cfiCond102) VB load(1, XDATA, add(CFA_XSP16, literal(-13)))
          CFI (cfiCond102) V0 load(1, XDATA, add(CFA_XSP16, literal(-12)))
          CFI (cfiCond102) V1 load(1, XDATA, add(CFA_XSP16, literal(-11)))
          CFI (cfiCond102) V2 load(1, XDATA, add(CFA_XSP16, literal(-10)))
          CFI (cfiCond102) V3 load(1, XDATA, add(CFA_XSP16, literal(-9)))
          CFI (cfiCond102) V4 load(1, XDATA, add(CFA_XSP16, literal(-8)))
          CFI (cfiCond102) V5 load(1, XDATA, add(CFA_XSP16, literal(-7)))
          CFI (cfiCond102) R7 load(1, XDATA, add(CFA_XSP16, literal(-6)))
          CFI (cfiCond102) ?RET_LOW load(1, XDATA, add(CFA_XSP16, literal(-5)))
          CFI (cfiCond102) ?RET_HIGH load(1, XDATA, add(CFA_XSP16, literal(-4)))
          CFI (cfiCond102) ?BRET_EXT load(1, XDATA, add(CFA_XSP16, literal(-3)))
          CFI (cfiCond102) DPL0 load(1, XDATA, add(CFA_XSP16, literal(-2)))
          CFI (cfiCond102) DPH0 load(1, XDATA, add(CFA_XSP16, literal(-1)))
          CFI (cfiCond102) CFA_SP SP+-2
          CFI (cfiCond102) CFA_XSP16 add(XSP16, 14)
          CFI Block cfiPicker103 Using cfiCommon1
          CFI (cfiPicker103) NoFunction
          CFI (cfiPicker103) Picker
        MOVX    @DPTR,A
        ; Setup parameters for call to function ZDApp_NodeProfileSync
        MOV     DPL,R6
        MOV     DPH,R7
        INC     DPTR
        INC     DPTR
        INC     DPTR
        INC     DPTR
        INC     DPTR
        INC     DPTR
        RET
          CFI EndBlock cfiCond101
          CFI EndBlock cfiCond102
          CFI EndBlock cfiPicker103
// 2307 
// 2308 /*********************************************************************
// 2309  * @fn          ZDO_StartRouterConfirmCB
// 2310  *
// 2311  * @brief       This function reports the results of the request to
// 2312  *              start functioning as a router in a network.
// 2313  *
// 2314  * @param       Status - Result of NLME_StartRouterRequest()
// 2315  *
// 2316  * @return      none
// 2317  */

        RSEG BANKED_CODE:CODE:NOROOT(0)
// 2318 void ZDO_StartRouterConfirmCB( ZStatus_t Status )
ZDO_StartRouterConfirmCB:
          CFI Block cfiBlock104 Using cfiCommon0
          CFI Function ZDO_StartRouterConfirmCB
        CODE
// 2319 {
        FUNCALL ZDO_StartRouterConfirmCB, HalLedSet
        LOCFRAME ISTACK, 0, STACK
        LOCFRAME PSTACK, 0, STACK
        LOCFRAME XSTACK, 9, STACK
        LOCFRAME IOVERLAY, 0, STATIC
        LOCFRAME DOVERLAY, 0, STATIC
        ARGFRAME ISTACK, 0, STACK
        ARGFRAME PSTACK, 0, STACK
        ARGFRAME XSTACK, 9, STACK
        ARGFRAME IOVERLAY, 0, STATIC
        ARGFRAME DOVERLAY, 0, STATIC
        FUNCALL ZDO_StartRouterConfirmCB, HalLedSet
        LOCFRAME ISTACK, 0, STACK
        LOCFRAME PSTACK, 0, STACK
        LOCFRAME XSTACK, 9, STACK
        LOCFRAME IOVERLAY, 0, STATIC
        LOCFRAME DOVERLAY, 0, STATIC
        ARGFRAME ISTACK, 0, STACK
        ARGFRAME PSTACK, 0, STACK
        ARGFRAME XSTACK, 9, STACK
        ARGFRAME IOVERLAY, 0, STATIC
        ARGFRAME DOVERLAY, 0, STATIC
        FUNCALL ZDO_StartRouterConfirmCB, HalLedSet
        LOCFRAME ISTACK, 0, STACK
        LOCFRAME PSTACK, 0, STACK
        LOCFRAME XSTACK, 9, STACK
        LOCFRAME IOVERLAY, 0, STATIC
        LOCFRAME DOVERLAY, 0, STATIC
        ARGFRAME ISTACK, 0, STACK
        ARGFRAME PSTACK, 0, STACK
        ARGFRAME XSTACK, 9, STACK
        ARGFRAME IOVERLAY, 0, STATIC
        ARGFRAME DOVERLAY, 0, STATIC
        FUNCALL ZDO_StartRouterConfirmCB, osal_set_event
        LOCFRAME ISTACK, 0, STACK
        LOCFRAME PSTACK, 0, STACK
        LOCFRAME XSTACK, 9, STACK
        LOCFRAME IOVERLAY, 0, STATIC
        LOCFRAME DOVERLAY, 0, STATIC
        ARGFRAME ISTACK, 0, STACK
        ARGFRAME PSTACK, 0, STACK
        ARGFRAME XSTACK, 9, STACK
        ARGFRAME IOVERLAY, 0, STATIC
        ARGFRAME DOVERLAY, 0, STATIC
        MOV     A,#-0x9
        LCALL   ?BANKED_ENTER_XDATA
          CFI DPH0 load(1, XDATA, add(CFA_XSP16, literal(-1)))
          CFI DPL0 load(1, XDATA, add(CFA_XSP16, literal(-2)))
          CFI ?BRET_EXT load(1, XDATA, add(CFA_XSP16, literal(-3)))
          CFI ?RET_HIGH load(1, XDATA, add(CFA_XSP16, literal(-4)))
          CFI ?RET_LOW load(1, XDATA, add(CFA_XSP16, literal(-5)))
          CFI R7 load(1, XDATA, add(CFA_XSP16, literal(-6)))
          CFI V0 load(1, XDATA, add(CFA_XSP16, literal(-7)))
          CFI VB load(1, XDATA, add(CFA_XSP16, literal(-8)))
          CFI R6 load(1, XDATA, add(CFA_XSP16, literal(-9)))
          CFI CFA_SP SP+0
          CFI CFA_XSP16 add(XSP16, 9)
        ; Saved register size: 9
        ; Auto size: 0
        MOV     A,R1
// 2320   nwkStatus = (byte)Status;
        MOV     DPTR,#nwkStatus
        MOVX    @DPTR,A
// 2321 
// 2322   if ( Status == ZSUCCESS )
        JNZ     ??ZDO_StartRouterConfirmCB_0
// 2323   {
// 2324     // LED on shows Router started
// 2325     HalLedSet ( HAL_LED_3, HAL_LED_MODE_ON );
        ; Setup parameters for call to function HalLedSet
        MOV     R2,#0x1
        MOV     R1,#0x4
        LCALL   ??HalLedSet?relay    ; Banked call to: HalLedSet
// 2326     // LED off forgets HOLD_AUTO_START
// 2327     HalLedSet ( HAL_LED_4, HAL_LED_MODE_OFF);
        ; Setup parameters for call to function HalLedSet
        MOV     R2,#0x0
        MOV     R1,#0x8
        LCALL   ??HalLedSet?relay    ; Banked call to: HalLedSet
// 2328     if ( devState == DEV_HOLD )
        MOV     DPTR,#devState
        MOVX    A,@DPTR
        JNZ     ??ZDO_StartRouterConfirmCB_1
// 2329     {
// 2330       // Began with HOLD_AUTO_START
// 2331       devState = DEV_END_DEVICE;
        MOV     A,#0x6
        MOVX    @DPTR,A
        SJMP    ??ZDO_StartRouterConfirmCB_1
// 2332     }
// 2333   }
// 2334 #if defined(BLINK_LEDS)
// 2335   else
// 2336   {
// 2337     HalLedSet( HAL_LED_3, HAL_LED_MODE_FLASH );  // Flash LED to show failure
??ZDO_StartRouterConfirmCB_0:
        ; Setup parameters for call to function HalLedSet
        MOV     R2,#0x4
        MOV     R1,#0x4
        LCALL   ??HalLedSet?relay    ; Banked call to: HalLedSet
// 2338   }
// 2339 #endif
// 2340 
// 2341   osal_set_event( ZDAppTaskID, ZDO_ROUTER_START );
??ZDO_StartRouterConfirmCB_1:
        ; Setup parameters for call to function osal_set_event
        MOV     R2,#0x20
        LJMP    ?Subroutine0 & 0xFFFF
          CFI EndBlock cfiBlock104
// 2342 }
// 2343 
// 2344 /*********************************************************************
// 2345  * @fn          ZDO_JoinConfirmCB
// 2346  *
// 2347  * @brief       This function allows the next hight layer to be notified
// 2348  *              of the results of its request to join itself or another
// 2349  *              device to a network.
// 2350  *
// 2351  * @param       Status - Result of NLME_JoinRequest()
// 2352  *
// 2353  * @return      none
// 2354  */

        RSEG BANKED_CODE:CODE:NOROOT(0)
// 2355 void ZDO_JoinConfirmCB( uint16 PanId, ZStatus_t Status )
ZDO_JoinConfirmCB:
          CFI Block cfiBlock105 Using cfiCommon0
          CFI Function ZDO_JoinConfirmCB
        CODE
// 2356 {
        FUNCALL ZDO_JoinConfirmCB, HalLedSet
        LOCFRAME ISTACK, 0, STACK
        LOCFRAME PSTACK, 0, STACK
        LOCFRAME XSTACK, 14, STACK
        LOCFRAME IOVERLAY, 0, STATIC
        LOCFRAME DOVERLAY, 0, STATIC
        ARGFRAME ISTACK, 0, STACK
        ARGFRAME PSTACK, 0, STACK
        ARGFRAME XSTACK, 14, STACK
        ARGFRAME IOVERLAY, 0, STATIC
        ARGFRAME DOVERLAY, 0, STATIC
        FUNCALL ZDO_JoinConfirmCB, HalLedSet
        LOCFRAME ISTACK, 0, STACK
        LOCFRAME PSTACK, 0, STACK
        LOCFRAME XSTACK, 14, STACK
        LOCFRAME IOVERLAY, 0, STATIC
        LOCFRAME DOVERLAY, 0, STATIC
        ARGFRAME ISTACK, 0, STACK
        ARGFRAME PSTACK, 0, STACK
        ARGFRAME XSTACK, 14, STACK
        ARGFRAME IOVERLAY, 0, STATIC
        ARGFRAME DOVERLAY, 0, STATIC
        FUNCALL ZDO_JoinConfirmCB, HalLedSet
        LOCFRAME ISTACK, 0, STACK
        LOCFRAME PSTACK, 0, STACK
        LOCFRAME XSTACK, 14, STACK
        LOCFRAME IOVERLAY, 0, STATIC
        LOCFRAME DOVERLAY, 0, STATIC
        ARGFRAME ISTACK, 0, STACK
        ARGFRAME PSTACK, 0, STACK
        ARGFRAME XSTACK, 14, STACK
        ARGFRAME IOVERLAY, 0, STATIC
        ARGFRAME DOVERLAY, 0, STATIC
        FUNCALL ZDO_JoinConfirmCB, ZDApp_SendMsg
        LOCFRAME ISTACK, 0, STACK
        LOCFRAME PSTACK, 0, STACK
        LOCFRAME XSTACK, 14, STACK
        LOCFRAME IOVERLAY, 0, STATIC
        LOCFRAME DOVERLAY, 0, STATIC
        ARGFRAME ISTACK, 0, STACK
        ARGFRAME PSTACK, 0, STACK
        ARGFRAME XSTACK, 14, STACK
        ARGFRAME IOVERLAY, 0, STATIC
        ARGFRAME DOVERLAY, 0, STATIC
        MOV     A,#-0x9
        LCALL   ?BANKED_ENTER_XDATA
          CFI DPH0 load(1, XDATA, add(CFA_XSP16, literal(-1)))
          CFI DPL0 load(1, XDATA, add(CFA_XSP16, literal(-2)))
          CFI ?BRET_EXT load(1, XDATA, add(CFA_XSP16, literal(-3)))
          CFI ?RET_HIGH load(1, XDATA, add(CFA_XSP16, literal(-4)))
          CFI ?RET_LOW load(1, XDATA, add(CFA_XSP16, literal(-5)))
          CFI R7 load(1, XDATA, add(CFA_XSP16, literal(-6)))
          CFI V0 load(1, XDATA, add(CFA_XSP16, literal(-7)))
          CFI VB load(1, XDATA, add(CFA_XSP16, literal(-8)))
          CFI R6 load(1, XDATA, add(CFA_XSP16, literal(-9)))
          CFI CFA_SP SP+0
          CFI CFA_XSP16 add(XSP16, 9)
        ; Saved register size: 9
        ; Auto size: 5
        MOV     A,#-0x5
        LCALL   ?ALLOC_XSTACK8
          CFI CFA_XSP16 add(XSP16, 14)
        MOV     A,R1
        MOV     R6,A
// 2357   (void)PanId;  // remove if this parameter is used.
// 2358 
// 2359   nwkStatus = (byte)Status;
        MOV     DPTR,#nwkStatus
        MOVX    @DPTR,A
// 2360 
// 2361   if ( Status == ZSUCCESS )
        JNZ     ??ZDO_JoinConfirmCB_0
// 2362   {
// 2363     // LED on shows device joined
// 2364     HalLedSet ( HAL_LED_3, HAL_LED_MODE_ON );
        ; Setup parameters for call to function HalLedSet
        MOV     R2,#0x1
        MOV     R1,#0x4
        LCALL   ??HalLedSet?relay    ; Banked call to: HalLedSet
// 2365     // LED off forgets HOLD_AUTO_START
// 2366     HalLedSet ( HAL_LED_4, HAL_LED_MODE_OFF);
        ; Setup parameters for call to function HalLedSet
        MOV     R2,#0x0
        MOV     R1,#0x8
        LCALL   ??HalLedSet?relay    ; Banked call to: HalLedSet
// 2367     if ( (devState == DEV_HOLD) )
        MOV     DPTR,#devState
        MOVX    A,@DPTR
        JNZ     ??ZDO_JoinConfirmCB_1
// 2368     {
// 2369       // Began with HOLD_AUTO_START
// 2370       devState = DEV_NWK_JOINING;
        MOV     A,#0x3
        MOVX    @DPTR,A
        SJMP    ??ZDO_JoinConfirmCB_1
// 2371     }
// 2372 
// 2373     if ( !ZG_SECURE_ENABLED )
// 2374     {
// 2375       // Notify to save info into NV
// 2376       ZDApp_NVUpdate();
// 2377     }
// 2378   }
// 2379   else
// 2380   {
// 2381 #if defined(BLINK_LEDS)
// 2382     HalLedSet ( HAL_LED_3, HAL_LED_MODE_FLASH );  // Flash LED to show failure
??ZDO_JoinConfirmCB_0:
        ; Setup parameters for call to function HalLedSet
        MOV     R2,#0x4
        MOV     R1,#0x4
        LCALL   ??HalLedSet?relay    ; Banked call to: HalLedSet
// 2383 #endif
// 2384   }
// 2385 
// 2386   // Pass the join confirm to higher layer if callback registered
// 2387   if (zdoCBFunc[ZDO_JOIN_CNF_CBID] != NULL )
??ZDO_JoinConfirmCB_1:
        MOV     DPTR,#zdoCBFunc + 8
        LCALL   ?Subroutine14 & 0xFFFF
??CrossCallReturnLabel_11:
        JZ      ??ZDO_JoinConfirmCB_2
// 2388   {
// 2389     zdoJoinCnf_t joinCnf;
// 2390 
// 2391     joinCnf.status = Status;
        MOV     A,R6
        MOV     DPL,?XSP + 0
        MOV     DPH,?XSP + 1
        MOVX    @DPTR,A
// 2392     joinCnf.deviceAddr = _NIB.nwkDevAddress;
        MOV     DPTR,#_NIB + 20
        LCALL   ??Subroutine43_0 & 0xFFFF
??CrossCallReturnLabel_58:
        MOV     A,#0x1
        LCALL   ?XSTACK_DISP0_8
        MOV     A,R0
        MOVX    @DPTR,A
        INC     DPTR
        MOV     A,R1
        MOVX    @DPTR,A
// 2393     joinCnf.parentAddr = _NIB.nwkCoordAddress;
        MOV     DPTR,#_NIB + 23
        LCALL   ??Subroutine43_0 & 0xFFFF
??CrossCallReturnLabel_59:
        MOV     A,#0x3
        LCALL   ?XSTACK_DISP0_8
        MOV     A,R0
        MOVX    @DPTR,A
        INC     DPTR
        MOV     A,R1
        MOVX    @DPTR,A
// 2394 
// 2395     zdoCBFunc[ZDO_JOIN_CNF_CBID]( (void*)&joinCnf );
        ; Setup parameters for indirect call
        MOV     R2,?XSP + 0
        MOV     R3,?XSP + 1
        MOV     DPTR,#zdoCBFunc + 8
        LCALL   ??Subroutine46_0 & 0xFFFF
// 2396   }
??CrossCallReturnLabel_76:
        LCALL   ?CALL_IND
// 2397 
// 2398   // Notify ZDApp
// 2399   ZDApp_SendMsg( ZDAppTaskID, ZDO_NWK_JOIN_IND, sizeof(osal_event_hdr_t), (byte*)NULL );
??ZDO_JoinConfirmCB_2:
        ; Setup parameters for call to function ZDApp_SendMsg
        MOV     R4,#0x0
        MOV     R5,#0x0
        MOV     R3,#0x2
        MOV     R2,#0x2
        MOV     DPTR,#ZDAppTaskID
        MOVX    A,@DPTR
        MOV     R1,A
        LCALL   ??ZDApp_SendMsg?relay; Banked call to: ZDApp_SendMsg
          CFI EndBlock cfiBlock105
// 2400 
// 2401 }
        REQUIRE ?Subroutine6
        ; // Fall through to label ?Subroutine6

        RSEG BANKED_CODE:CODE:NOROOT(0)
?Subroutine6:
          CFI Block cfiBlock106 Using cfiCommon0
          CFI NoFunction
          CFI CFA_SP SP+0
          CFI CFA_XSP16 add(XSP16, 14)
          CFI VB load(1, XDATA, add(CFA_XSP16, literal(-8)))
          CFI DPL0 load(1, XDATA, add(CFA_XSP16, literal(-2)))
          CFI DPH0 load(1, XDATA, add(CFA_XSP16, literal(-1)))
          CFI R6 load(1, XDATA, add(CFA_XSP16, literal(-9)))
          CFI R7 load(1, XDATA, add(CFA_XSP16, literal(-6)))
          CFI V0 load(1, XDATA, add(CFA_XSP16, literal(-7)))
          CFI ?BRET_EXT load(1, XDATA, add(CFA_XSP16, literal(-3)))
          CFI ?RET_HIGH load(1, XDATA, add(CFA_XSP16, literal(-4)))
          CFI ?RET_LOW load(1, XDATA, add(CFA_XSP16, literal(-5)))
        MOV     A,#0x5
        LCALL   ?DEALLOC_XSTACK8
          CFI CFA_XSP16 add(XSP16, 9)
        LJMP    ??Subroutine42_0 & 0xFFFF
          CFI EndBlock cfiBlock106

        RSEG BANKED_CODE:CODE:NOROOT(0)
?Subroutine16:
          CFI Block cfiCond107 Using cfiCommon0
          CFI Function ZDApp_ProcessOSALMsg
          CFI Conditional ??CrossCallReturnLabel_60
          CFI R6 load(1, XDATA, add(CFA_XSP16, literal(-10)))
          CFI VB load(1, XDATA, add(CFA_XSP16, literal(-9)))
          CFI V0 load(1, XDATA, add(CFA_XSP16, literal(-8)))
          CFI V1 load(1, XDATA, add(CFA_XSP16, literal(-7)))
          CFI R7 load(1, XDATA, add(CFA_XSP16, literal(-6)))
          CFI ?RET_LOW load(1, XDATA, add(CFA_XSP16, literal(-5)))
          CFI ?RET_HIGH load(1, XDATA, add(CFA_XSP16, literal(-4)))
          CFI ?BRET_EXT load(1, XDATA, add(CFA_XSP16, literal(-3)))
          CFI DPL0 load(1, XDATA, add(CFA_XSP16, literal(-2)))
          CFI DPH0 load(1, XDATA, add(CFA_XSP16, literal(-1)))
          CFI CFA_SP SP+-2
          CFI CFA_XSP16 add(XSP16, 11)
          CFI Block cfiCond108 Using cfiCommon0
          CFI (cfiCond108) Function ZDApp_NwkDescListProcessing
          CFI (cfiCond108) Conditional ??CrossCallReturnLabel_61
          CFI (cfiCond108) R6 load(1, XDATA, add(CFA_XSP16, literal(-14)))
          CFI (cfiCond108) VB load(1, XDATA, add(CFA_XSP16, literal(-13)))
          CFI (cfiCond108) V0 load(1, XDATA, add(CFA_XSP16, literal(-12)))
          CFI (cfiCond108) V1 load(1, XDATA, add(CFA_XSP16, literal(-11)))
          CFI (cfiCond108) V2 load(1, XDATA, add(CFA_XSP16, literal(-10)))
          CFI (cfiCond108) V3 load(1, XDATA, add(CFA_XSP16, literal(-9)))
          CFI (cfiCond108) V4 load(1, XDATA, add(CFA_XSP16, literal(-8)))
          CFI (cfiCond108) V5 load(1, XDATA, add(CFA_XSP16, literal(-7)))
          CFI (cfiCond108) R7 load(1, XDATA, add(CFA_XSP16, literal(-6)))
          CFI (cfiCond108) ?RET_LOW load(1, XDATA, add(CFA_XSP16, literal(-5)))
          CFI (cfiCond108) ?RET_HIGH load(1, XDATA, add(CFA_XSP16, literal(-4)))
          CFI (cfiCond108) ?BRET_EXT load(1, XDATA, add(CFA_XSP16, literal(-3)))
          CFI (cfiCond108) DPL0 load(1, XDATA, add(CFA_XSP16, literal(-2)))
          CFI (cfiCond108) DPH0 load(1, XDATA, add(CFA_XSP16, literal(-1)))
          CFI (cfiCond108) CFA_SP SP+-2
          CFI (cfiCond108) CFA_XSP16 add(XSP16, 14)
          CFI Block cfiCond109 Using cfiCommon0
          CFI (cfiCond109) Function ZDO_beaconNotifyIndCB
          CFI (cfiCond109) Conditional ??CrossCallReturnLabel_62
          CFI (cfiCond109) R6 load(1, XDATA, add(CFA_XSP16, literal(-14)))
          CFI (cfiCond109) VB load(1, XDATA, add(CFA_XSP16, literal(-13)))
          CFI (cfiCond109) V0 load(1, XDATA, add(CFA_XSP16, literal(-12)))
          CFI (cfiCond109) V1 load(1, XDATA, add(CFA_XSP16, literal(-11)))
          CFI (cfiCond109) V2 load(1, XDATA, add(CFA_XSP16, literal(-10)))
          CFI (cfiCond109) V3 load(1, XDATA, add(CFA_XSP16, literal(-9)))
          CFI (cfiCond109) V4 load(1, XDATA, add(CFA_XSP16, literal(-8)))
          CFI (cfiCond109) V5 load(1, XDATA, add(CFA_XSP16, literal(-7)))
          CFI (cfiCond109) R7 load(1, XDATA, add(CFA_XSP16, literal(-6)))
          CFI (cfiCond109) ?RET_LOW load(1, XDATA, add(CFA_XSP16, literal(-5)))
          CFI (cfiCond109) ?RET_HIGH load(1, XDATA, add(CFA_XSP16, literal(-4)))
          CFI (cfiCond109) ?BRET_EXT load(1, XDATA, add(CFA_XSP16, literal(-3)))
          CFI (cfiCond109) DPL0 load(1, XDATA, add(CFA_XSP16, literal(-2)))
          CFI (cfiCond109) DPH0 load(1, XDATA, add(CFA_XSP16, literal(-1)))
          CFI (cfiCond109) CFA_SP SP+-2
          CFI (cfiCond109) CFA_XSP16 add(XSP16, 14)
          CFI Block cfiPicker110 Using cfiCommon1
          CFI (cfiPicker110) NoFunction
          CFI (cfiPicker110) Picker
        MOV     DPL,R6
        MOV     DPH,R7
          CFI EndBlock cfiCond107
          CFI EndBlock cfiCond108
          CFI EndBlock cfiCond109
          CFI EndBlock cfiPicker110
        REQUIRE ??Subroutine43_0
        ; // Fall through to label ??Subroutine43_0

        RSEG BANKED_CODE:CODE:NOROOT(0)
??Subroutine43_0:
          CFI Block cfiCond111 Using cfiCommon0
          CFI Function ZDApp_ProcessSecEvent
          CFI Conditional ??CrossCallReturnLabel_56
          CFI R6 load(1, XDATA, add(CFA_XSP16, literal(-9)))
          CFI VB load(1, XDATA, add(CFA_XSP16, literal(-8)))
          CFI V0 load(1, XDATA, add(CFA_XSP16, literal(-7)))
          CFI R7 load(1, XDATA, add(CFA_XSP16, literal(-6)))
          CFI ?RET_LOW load(1, XDATA, add(CFA_XSP16, literal(-5)))
          CFI ?RET_HIGH load(1, XDATA, add(CFA_XSP16, literal(-4)))
          CFI ?BRET_EXT load(1, XDATA, add(CFA_XSP16, literal(-3)))
          CFI DPL0 load(1, XDATA, add(CFA_XSP16, literal(-2)))
          CFI DPH0 load(1, XDATA, add(CFA_XSP16, literal(-1)))
          CFI CFA_SP SP+-2
          CFI CFA_XSP16 add(XSP16, 9)
          CFI Block cfiCond112 Using cfiCommon0
          CFI (cfiCond112) Function ZDO_beaconNotifyIndCB
          CFI (cfiCond112) Conditional ??CrossCallReturnLabel_57
          CFI (cfiCond112) R6 load(1, XDATA, add(CFA_XSP16, literal(-14)))
          CFI (cfiCond112) VB load(1, XDATA, add(CFA_XSP16, literal(-13)))
          CFI (cfiCond112) V0 load(1, XDATA, add(CFA_XSP16, literal(-12)))
          CFI (cfiCond112) V1 load(1, XDATA, add(CFA_XSP16, literal(-11)))
          CFI (cfiCond112) V2 load(1, XDATA, add(CFA_XSP16, literal(-10)))
          CFI (cfiCond112) V3 load(1, XDATA, add(CFA_XSP16, literal(-9)))
          CFI (cfiCond112) V4 load(1, XDATA, add(CFA_XSP16, literal(-8)))
          CFI (cfiCond112) V5 load(1, XDATA, add(CFA_XSP16, literal(-7)))
          CFI (cfiCond112) R7 load(1, XDATA, add(CFA_XSP16, literal(-6)))
          CFI (cfiCond112) ?RET_LOW load(1, XDATA, add(CFA_XSP16, literal(-5)))
          CFI (cfiCond112) ?RET_HIGH load(1, XDATA, add(CFA_XSP16, literal(-4)))
          CFI (cfiCond112) ?BRET_EXT load(1, XDATA, add(CFA_XSP16, literal(-3)))
          CFI (cfiCond112) DPL0 load(1, XDATA, add(CFA_XSP16, literal(-2)))
          CFI (cfiCond112) DPH0 load(1, XDATA, add(CFA_XSP16, literal(-1)))
          CFI (cfiCond112) CFA_SP SP+-2
          CFI (cfiCond112) CFA_XSP16 add(XSP16, 14)
          CFI Block cfiCond113 Using cfiCommon0
          CFI (cfiCond113) Function ZDO_JoinConfirmCB
          CFI (cfiCond113) Conditional ??CrossCallReturnLabel_58
          CFI (cfiCond113) R6 load(1, XDATA, add(CFA_XSP16, literal(-9)))
          CFI (cfiCond113) VB load(1, XDATA, add(CFA_XSP16, literal(-8)))
          CFI (cfiCond113) V0 load(1, XDATA, add(CFA_XSP16, literal(-7)))
          CFI (cfiCond113) R7 load(1, XDATA, add(CFA_XSP16, literal(-6)))
          CFI (cfiCond113) ?RET_LOW load(1, XDATA, add(CFA_XSP16, literal(-5)))
          CFI (cfiCond113) ?RET_HIGH load(1, XDATA, add(CFA_XSP16, literal(-4)))
          CFI (cfiCond113) ?BRET_EXT load(1, XDATA, add(CFA_XSP16, literal(-3)))
          CFI (cfiCond113) DPL0 load(1, XDATA, add(CFA_XSP16, literal(-2)))
          CFI (cfiCond113) DPH0 load(1, XDATA, add(CFA_XSP16, literal(-1)))
          CFI (cfiCond113) CFA_SP SP+-2
          CFI (cfiCond113) CFA_XSP16 add(XSP16, 14)
          CFI Block cfiCond114 Using cfiCommon0
          CFI (cfiCond114) Function ZDO_JoinConfirmCB
          CFI (cfiCond114) Conditional ??CrossCallReturnLabel_59
          CFI (cfiCond114) R6 load(1, XDATA, add(CFA_XSP16, literal(-9)))
          CFI (cfiCond114) VB load(1, XDATA, add(CFA_XSP16, literal(-8)))
          CFI (cfiCond114) V0 load(1, XDATA, add(CFA_XSP16, literal(-7)))
          CFI (cfiCond114) R7 load(1, XDATA, add(CFA_XSP16, literal(-6)))
          CFI (cfiCond114) ?RET_LOW load(1, XDATA, add(CFA_XSP16, literal(-5)))
          CFI (cfiCond114) ?RET_HIGH load(1, XDATA, add(CFA_XSP16, literal(-4)))
          CFI (cfiCond114) ?BRET_EXT load(1, XDATA, add(CFA_XSP16, literal(-3)))
          CFI (cfiCond114) DPL0 load(1, XDATA, add(CFA_XSP16, literal(-2)))
          CFI (cfiCond114) DPH0 load(1, XDATA, add(CFA_XSP16, literal(-1)))
          CFI (cfiCond114) CFA_SP SP+-2
          CFI (cfiCond114) CFA_XSP16 add(XSP16, 14)
          CFI Block cfiCond115 Using cfiCommon0
          CFI (cfiCond115) Function ZDApp_ProcessOSALMsg
          CFI (cfiCond115) Conditional ??CrossCallReturnLabel_60
          CFI (cfiCond115) R6 load(1, XDATA, add(CFA_XSP16, literal(-10)))
          CFI (cfiCond115) VB load(1, XDATA, add(CFA_XSP16, literal(-9)))
          CFI (cfiCond115) V0 load(1, XDATA, add(CFA_XSP16, literal(-8)))
          CFI (cfiCond115) V1 load(1, XDATA, add(CFA_XSP16, literal(-7)))
          CFI (cfiCond115) R7 load(1, XDATA, add(CFA_XSP16, literal(-6)))
          CFI (cfiCond115) ?RET_LOW load(1, XDATA, add(CFA_XSP16, literal(-5)))
          CFI (cfiCond115) ?RET_HIGH load(1, XDATA, add(CFA_XSP16, literal(-4)))
          CFI (cfiCond115) ?BRET_EXT load(1, XDATA, add(CFA_XSP16, literal(-3)))
          CFI (cfiCond115) DPL0 load(1, XDATA, add(CFA_XSP16, literal(-2)))
          CFI (cfiCond115) DPH0 load(1, XDATA, add(CFA_XSP16, literal(-1)))
          CFI (cfiCond115) CFA_SP SP+-2
          CFI (cfiCond115) CFA_XSP16 add(XSP16, 11)
          CFI Block cfiCond116 Using cfiCommon0
          CFI (cfiCond116) Function ZDApp_NwkDescListProcessing
          CFI (cfiCond116) Conditional ??CrossCallReturnLabel_61
          CFI (cfiCond116) R6 load(1, XDATA, add(CFA_XSP16, literal(-14)))
          CFI (cfiCond116) VB load(1, XDATA, add(CFA_XSP16, literal(-13)))
          CFI (cfiCond116) V0 load(1, XDATA, add(CFA_XSP16, literal(-12)))
          CFI (cfiCond116) V1 load(1, XDATA, add(CFA_XSP16, literal(-11)))
          CFI (cfiCond116) V2 load(1, XDATA, add(CFA_XSP16, literal(-10)))
          CFI (cfiCond116) V3 load(1, XDATA, add(CFA_XSP16, literal(-9)))
          CFI (cfiCond116) V4 load(1, XDATA, add(CFA_XSP16, literal(-8)))
          CFI (cfiCond116) V5 load(1, XDATA, add(CFA_XSP16, literal(-7)))
          CFI (cfiCond116) R7 load(1, XDATA, add(CFA_XSP16, literal(-6)))
          CFI (cfiCond116) ?RET_LOW load(1, XDATA, add(CFA_XSP16, literal(-5)))
          CFI (cfiCond116) ?RET_HIGH load(1, XDATA, add(CFA_XSP16, literal(-4)))
          CFI (cfiCond116) ?BRET_EXT load(1, XDATA, add(CFA_XSP16, literal(-3)))
          CFI (cfiCond116) DPL0 load(1, XDATA, add(CFA_XSP16, literal(-2)))
          CFI (cfiCond116) DPH0 load(1, XDATA, add(CFA_XSP16, literal(-1)))
          CFI (cfiCond116) CFA_SP SP+-2
          CFI (cfiCond116) CFA_XSP16 add(XSP16, 14)
          CFI Block cfiCond117 Using cfiCommon0
          CFI (cfiCond117) Function ZDO_beaconNotifyIndCB
          CFI (cfiCond117) Conditional ??CrossCallReturnLabel_62
          CFI (cfiCond117) R6 load(1, XDATA, add(CFA_XSP16, literal(-14)))
          CFI (cfiCond117) VB load(1, XDATA, add(CFA_XSP16, literal(-13)))
          CFI (cfiCond117) V0 load(1, XDATA, add(CFA_XSP16, literal(-12)))
          CFI (cfiCond117) V1 load(1, XDATA, add(CFA_XSP16, literal(-11)))
          CFI (cfiCond117) V2 load(1, XDATA, add(CFA_XSP16, literal(-10)))
          CFI (cfiCond117) V3 load(1, XDATA, add(CFA_XSP16, literal(-9)))
          CFI (cfiCond117) V4 load(1, XDATA, add(CFA_XSP16, literal(-8)))
          CFI (cfiCond117) V5 load(1, XDATA, add(CFA_XSP16, literal(-7)))
          CFI (cfiCond117) R7 load(1, XDATA, add(CFA_XSP16, literal(-6)))
          CFI (cfiCond117) ?RET_LOW load(1, XDATA, add(CFA_XSP16, literal(-5)))
          CFI (cfiCond117) ?RET_HIGH load(1, XDATA, add(CFA_XSP16, literal(-4)))
          CFI (cfiCond117) ?BRET_EXT load(1, XDATA, add(CFA_XSP16, literal(-3)))
          CFI (cfiCond117) DPL0 load(1, XDATA, add(CFA_XSP16, literal(-2)))
          CFI (cfiCond117) DPH0 load(1, XDATA, add(CFA_XSP16, literal(-1)))
          CFI (cfiCond117) CFA_SP SP+-2
          CFI (cfiCond117) CFA_XSP16 add(XSP16, 14)
          CFI Block cfiPicker118 Using cfiCommon1
          CFI (cfiPicker118) NoFunction
          CFI (cfiPicker118) Picker
        MOVX    A,@DPTR
        MOV     R0,A
        INC     DPTR
        MOVX    A,@DPTR
        MOV     R1,A
        RET
          CFI EndBlock cfiCond111
          CFI EndBlock cfiCond112
          CFI EndBlock cfiCond113
          CFI EndBlock cfiCond114
          CFI EndBlock cfiCond115
          CFI EndBlock cfiCond116
          CFI EndBlock cfiCond117
          CFI EndBlock cfiPicker118

        RSEG BANKED_CODE:CODE:NOROOT(0)
?Subroutine14:
          CFI Block cfiCond119 Using cfiCommon0
          CFI Function ZDApp_RestoreNetworkState
          CFI Conditional ??CrossCallReturnLabel_6
          CFI R6 load(1, XDATA, add(CFA_XSP16, literal(-9)))
          CFI VB load(1, XDATA, add(CFA_XSP16, literal(-8)))
          CFI V0 load(1, XDATA, add(CFA_XSP16, literal(-7)))
          CFI R7 load(1, XDATA, add(CFA_XSP16, literal(-6)))
          CFI ?RET_LOW load(1, XDATA, add(CFA_XSP16, literal(-5)))
          CFI ?RET_HIGH load(1, XDATA, add(CFA_XSP16, literal(-4)))
          CFI ?BRET_EXT load(1, XDATA, add(CFA_XSP16, literal(-3)))
          CFI DPL0 load(1, XDATA, add(CFA_XSP16, literal(-2)))
          CFI DPH0 load(1, XDATA, add(CFA_XSP16, literal(-1)))
          CFI CFA_SP SP+-2
          CFI CFA_XSP16 add(XSP16, 9)
          CFI Block cfiCond120 Using cfiCommon0
          CFI (cfiCond120) Function ZDApp_LeaveUpdate
          CFI (cfiCond120) Conditional ??CrossCallReturnLabel_7
          CFI (cfiCond120) R6 load(1, XDATA, add(CFA_XSP16, literal(-11)))
          CFI (cfiCond120) VB load(1, XDATA, add(CFA_XSP16, literal(-10)))
          CFI (cfiCond120) V0 load(1, XDATA, add(CFA_XSP16, literal(-9)))
          CFI (cfiCond120) V1 load(1, XDATA, add(CFA_XSP16, literal(-8)))
          CFI (cfiCond120) V2 load(1, XDATA, add(CFA_XSP16, literal(-7)))
          CFI (cfiCond120) R7 load(1, XDATA, add(CFA_XSP16, literal(-6)))
          CFI (cfiCond120) ?RET_LOW load(1, XDATA, add(CFA_XSP16, literal(-5)))
          CFI (cfiCond120) ?RET_HIGH load(1, XDATA, add(CFA_XSP16, literal(-4)))
          CFI (cfiCond120) ?BRET_EXT load(1, XDATA, add(CFA_XSP16, literal(-3)))
          CFI (cfiCond120) DPL0 load(1, XDATA, add(CFA_XSP16, literal(-2)))
          CFI (cfiCond120) DPH0 load(1, XDATA, add(CFA_XSP16, literal(-1)))
          CFI (cfiCond120) CFA_SP SP+-2
          CFI (cfiCond120) CFA_XSP16 add(XSP16, 20)
          CFI Block cfiCond121 Using cfiCommon0
          CFI (cfiCond121) Function ZDO_NetworkDiscoveryConfirmCB
          CFI (cfiCond121) Conditional ??CrossCallReturnLabel_8
          CFI (cfiCond121) DPL0 Frame(CFA_SP, 4)
          CFI (cfiCond121) DPH0 Frame(CFA_SP, 5)
          CFI (cfiCond121) CFA_SP SP+-7
          CFI (cfiCond121) CFA_XSP16 add(XSP16, 3)
          CFI Block cfiCond122 Using cfiCommon0
          CFI (cfiCond122) Function ZDO_beaconNotifyIndCB
          CFI (cfiCond122) Conditional ??CrossCallReturnLabel_9
          CFI (cfiCond122) R6 load(1, XDATA, add(CFA_XSP16, literal(-14)))
          CFI (cfiCond122) VB load(1, XDATA, add(CFA_XSP16, literal(-13)))
          CFI (cfiCond122) V0 load(1, XDATA, add(CFA_XSP16, literal(-12)))
          CFI (cfiCond122) V1 load(1, XDATA, add(CFA_XSP16, literal(-11)))
          CFI (cfiCond122) V2 load(1, XDATA, add(CFA_XSP16, literal(-10)))
          CFI (cfiCond122) V3 load(1, XDATA, add(CFA_XSP16, literal(-9)))
          CFI (cfiCond122) V4 load(1, XDATA, add(CFA_XSP16, literal(-8)))
          CFI (cfiCond122) V5 load(1, XDATA, add(CFA_XSP16, literal(-7)))
          CFI (cfiCond122) R7 load(1, XDATA, add(CFA_XSP16, literal(-6)))
          CFI (cfiCond122) ?RET_LOW load(1, XDATA, add(CFA_XSP16, literal(-5)))
          CFI (cfiCond122) ?RET_HIGH load(1, XDATA, add(CFA_XSP16, literal(-4)))
          CFI (cfiCond122) ?BRET_EXT load(1, XDATA, add(CFA_XSP16, literal(-3)))
          CFI (cfiCond122) DPL0 load(1, XDATA, add(CFA_XSP16, literal(-2)))
          CFI (cfiCond122) DPH0 load(1, XDATA, add(CFA_XSP16, literal(-1)))
          CFI (cfiCond122) CFA_SP SP+-2
          CFI (cfiCond122) CFA_XSP16 add(XSP16, 14)
          CFI Block cfiCond123 Using cfiCommon0
          CFI (cfiCond123) Function ZDO_beaconNotifyIndCB
          CFI (cfiCond123) Conditional ??CrossCallReturnLabel_10
          CFI (cfiCond123) R6 load(1, XDATA, add(CFA_XSP16, literal(-14)))
          CFI (cfiCond123) VB load(1, XDATA, add(CFA_XSP16, literal(-13)))
          CFI (cfiCond123) V0 load(1, XDATA, add(CFA_XSP16, literal(-12)))
          CFI (cfiCond123) V1 load(1, XDATA, add(CFA_XSP16, literal(-11)))
          CFI (cfiCond123) V2 load(1, XDATA, add(CFA_XSP16, literal(-10)))
          CFI (cfiCond123) V3 load(1, XDATA, add(CFA_XSP16, literal(-9)))
          CFI (cfiCond123) V4 load(1, XDATA, add(CFA_XSP16, literal(-8)))
          CFI (cfiCond123) V5 load(1, XDATA, add(CFA_XSP16, literal(-7)))
          CFI (cfiCond123) R7 load(1, XDATA, add(CFA_XSP16, literal(-6)))
          CFI (cfiCond123) ?RET_LOW load(1, XDATA, add(CFA_XSP16, literal(-5)))
          CFI (cfiCond123) ?RET_HIGH load(1, XDATA, add(CFA_XSP16, literal(-4)))
          CFI (cfiCond123) ?BRET_EXT load(1, XDATA, add(CFA_XSP16, literal(-3)))
          CFI (cfiCond123) DPL0 load(1, XDATA, add(CFA_XSP16, literal(-2)))
          CFI (cfiCond123) DPH0 load(1, XDATA, add(CFA_XSP16, literal(-1)))
          CFI (cfiCond123) CFA_SP SP+-2
          CFI (cfiCond123) CFA_XSP16 add(XSP16, 14)
          CFI Block cfiCond124 Using cfiCommon0
          CFI (cfiCond124) Function ZDO_JoinConfirmCB
          CFI (cfiCond124) Conditional ??CrossCallReturnLabel_11
          CFI (cfiCond124) R6 load(1, XDATA, add(CFA_XSP16, literal(-9)))
          CFI (cfiCond124) VB load(1, XDATA, add(CFA_XSP16, literal(-8)))
          CFI (cfiCond124) V0 load(1, XDATA, add(CFA_XSP16, literal(-7)))
          CFI (cfiCond124) R7 load(1, XDATA, add(CFA_XSP16, literal(-6)))
          CFI (cfiCond124) ?RET_LOW load(1, XDATA, add(CFA_XSP16, literal(-5)))
          CFI (cfiCond124) ?RET_HIGH load(1, XDATA, add(CFA_XSP16, literal(-4)))
          CFI (cfiCond124) ?BRET_EXT load(1, XDATA, add(CFA_XSP16, literal(-3)))
          CFI (cfiCond124) DPL0 load(1, XDATA, add(CFA_XSP16, literal(-2)))
          CFI (cfiCond124) DPH0 load(1, XDATA, add(CFA_XSP16, literal(-1)))
          CFI (cfiCond124) CFA_SP SP+-2
          CFI (cfiCond124) CFA_XSP16 add(XSP16, 14)
          CFI Block cfiCond125 Using cfiCommon0
          CFI (cfiCond125) Function ZDO_ConcentratorIndicationCB
          CFI (cfiCond125) Conditional ??CrossCallReturnLabel_12
          CFI (cfiCond125) R6 load(1, XDATA, add(CFA_XSP16, literal(-9)))
          CFI (cfiCond125) VB load(1, XDATA, add(CFA_XSP16, literal(-8)))
          CFI (cfiCond125) V0 load(1, XDATA, add(CFA_XSP16, literal(-7)))
          CFI (cfiCond125) R7 load(1, XDATA, add(CFA_XSP16, literal(-6)))
          CFI (cfiCond125) ?RET_LOW load(1, XDATA, add(CFA_XSP16, literal(-5)))
          CFI (cfiCond125) ?RET_HIGH load(1, XDATA, add(CFA_XSP16, literal(-4)))
          CFI (cfiCond125) ?BRET_EXT load(1, XDATA, add(CFA_XSP16, literal(-3)))
          CFI (cfiCond125) DPL0 load(1, XDATA, add(CFA_XSP16, literal(-2)))
          CFI (cfiCond125) DPH0 load(1, XDATA, add(CFA_XSP16, literal(-1)))
          CFI (cfiCond125) CFA_SP SP+-2
          CFI (cfiCond125) CFA_XSP16 add(XSP16, 14)
          CFI Block cfiCond126 Using cfiCommon0
          CFI (cfiCond126) Function ZDO_LeaveCnf
          CFI (cfiCond126) Conditional ??CrossCallReturnLabel_13
          CFI (cfiCond126) R6 load(1, XDATA, add(CFA_XSP16, literal(-10)))
          CFI (cfiCond126) VB load(1, XDATA, add(CFA_XSP16, literal(-9)))
          CFI (cfiCond126) V0 load(1, XDATA, add(CFA_XSP16, literal(-8)))
          CFI (cfiCond126) V1 load(1, XDATA, add(CFA_XSP16, literal(-7)))
          CFI (cfiCond126) R7 load(1, XDATA, add(CFA_XSP16, literal(-6)))
          CFI (cfiCond126) ?RET_LOW load(1, XDATA, add(CFA_XSP16, literal(-5)))
          CFI (cfiCond126) ?RET_HIGH load(1, XDATA, add(CFA_XSP16, literal(-4)))
          CFI (cfiCond126) ?BRET_EXT load(1, XDATA, add(CFA_XSP16, literal(-3)))
          CFI (cfiCond126) DPL0 load(1, XDATA, add(CFA_XSP16, literal(-2)))
          CFI (cfiCond126) DPH0 load(1, XDATA, add(CFA_XSP16, literal(-1)))
          CFI (cfiCond126) CFA_SP SP+-2
          CFI (cfiCond126) CFA_XSP16 add(XSP16, 10)
          CFI Block cfiCond127 Using cfiCommon0
          CFI (cfiCond127) Function ZDO_LeaveInd
          CFI (cfiCond127) Conditional ??CrossCallReturnLabel_14
          CFI (cfiCond127) R6 load(1, XDATA, add(CFA_XSP16, literal(-10)))
          CFI (cfiCond127) VB load(1, XDATA, add(CFA_XSP16, literal(-9)))
          CFI (cfiCond127) V0 load(1, XDATA, add(CFA_XSP16, literal(-8)))
          CFI (cfiCond127) V1 load(1, XDATA, add(CFA_XSP16, literal(-7)))
          CFI (cfiCond127) R7 load(1, XDATA, add(CFA_XSP16, literal(-6)))
          CFI (cfiCond127) ?RET_LOW load(1, XDATA, add(CFA_XSP16, literal(-5)))
          CFI (cfiCond127) ?RET_HIGH load(1, XDATA, add(CFA_XSP16, literal(-4)))
          CFI (cfiCond127) ?BRET_EXT load(1, XDATA, add(CFA_XSP16, literal(-3)))
          CFI (cfiCond127) DPL0 load(1, XDATA, add(CFA_XSP16, literal(-2)))
          CFI (cfiCond127) DPH0 load(1, XDATA, add(CFA_XSP16, literal(-1)))
          CFI (cfiCond127) CFA_SP SP+-2
          CFI (cfiCond127) CFA_XSP16 add(XSP16, 10)
          CFI Block cfiCond128 Using cfiCommon0
          CFI (cfiCond128) Function ZDO_SrcRtgIndCB
          CFI (cfiCond128) Conditional ??CrossCallReturnLabel_15
          CFI (cfiCond128) R6 load(1, XDATA, add(CFA_XSP16, literal(-9)))
          CFI (cfiCond128) VB load(1, XDATA, add(CFA_XSP16, literal(-8)))
          CFI (cfiCond128) V0 load(1, XDATA, add(CFA_XSP16, literal(-7)))
          CFI (cfiCond128) R7 load(1, XDATA, add(CFA_XSP16, literal(-6)))
          CFI (cfiCond128) ?RET_LOW load(1, XDATA, add(CFA_XSP16, literal(-5)))
          CFI (cfiCond128) ?RET_HIGH load(1, XDATA, add(CFA_XSP16, literal(-4)))
          CFI (cfiCond128) ?BRET_EXT load(1, XDATA, add(CFA_XSP16, literal(-3)))
          CFI (cfiCond128) DPL0 load(1, XDATA, add(CFA_XSP16, literal(-2)))
          CFI (cfiCond128) DPH0 load(1, XDATA, add(CFA_XSP16, literal(-1)))
          CFI (cfiCond128) CFA_SP SP+-2
          CFI (cfiCond128) CFA_XSP16 add(XSP16, 14)
          CFI Block cfiPicker129 Using cfiCommon1
          CFI (cfiPicker129) NoFunction
          CFI (cfiPicker129) Picker
        MOVX    A,@DPTR
        MOV     R0,A
        INC     DPTR
        MOVX    A,@DPTR
        MOV     R1,A
        MOV     A,R0
        ORL     A,R1
        RET
          CFI EndBlock cfiCond119
          CFI EndBlock cfiCond120
          CFI EndBlock cfiCond121
          CFI EndBlock cfiCond122
          CFI EndBlock cfiCond123
          CFI EndBlock cfiCond124
          CFI EndBlock cfiCond125
          CFI EndBlock cfiCond126
          CFI EndBlock cfiCond127
          CFI EndBlock cfiCond128
          CFI EndBlock cfiPicker129
// 2402 
// 2403 /*********************************************************************
// 2404  * @fn          ZDO_AddrChangeIndicationCB
// 2405  *
// 2406  * @brief       This function notifies the application that this
// 2407  *              device's address has changed.  Could happen in
// 2408  *              a network with stochastic addressing (PRO).
// 2409  *
// 2410  * @param       newAddr - the new address
// 2411  *
// 2412  * @return      none
// 2413  */

        RSEG BANKED_CODE:CODE:NOROOT(0)
// 2414 void ZDO_AddrChangeIndicationCB( uint16 newAddr )
ZDO_AddrChangeIndicationCB:
          CFI Block cfiBlock130 Using cfiCommon0
          CFI Function ZDO_AddrChangeIndicationCB
        CODE
// 2415 {
        FUNCALL ZDO_AddrChangeIndicationCB, osal_set_event
        LOCFRAME ISTACK, 0, STACK
        LOCFRAME PSTACK, 0, STACK
        LOCFRAME XSTACK, 12, STACK
        LOCFRAME IOVERLAY, 0, STATIC
        LOCFRAME DOVERLAY, 0, STATIC
        ARGFRAME ISTACK, 0, STACK
        ARGFRAME PSTACK, 0, STACK
        ARGFRAME XSTACK, 12, STACK
        ARGFRAME IOVERLAY, 0, STATIC
        ARGFRAME DOVERLAY, 0, STATIC
        FUNCALL ZDO_AddrChangeIndicationCB, osal_msg_allocate
        LOCFRAME ISTACK, 0, STACK
        LOCFRAME PSTACK, 0, STACK
        LOCFRAME XSTACK, 12, STACK
        LOCFRAME IOVERLAY, 0, STATIC
        LOCFRAME DOVERLAY, 0, STATIC
        ARGFRAME ISTACK, 0, STACK
        ARGFRAME PSTACK, 0, STACK
        ARGFRAME XSTACK, 12, STACK
        ARGFRAME IOVERLAY, 0, STATIC
        ARGFRAME DOVERLAY, 0, STATIC
        FUNCALL ZDO_AddrChangeIndicationCB, osal_msg_send
        LOCFRAME ISTACK, 0, STACK
        LOCFRAME PSTACK, 0, STACK
        LOCFRAME XSTACK, 12, STACK
        LOCFRAME IOVERLAY, 0, STATIC
        LOCFRAME DOVERLAY, 0, STATIC
        ARGFRAME ISTACK, 0, STACK
        ARGFRAME PSTACK, 0, STACK
        ARGFRAME XSTACK, 12, STACK
        ARGFRAME IOVERLAY, 0, STATIC
        ARGFRAME DOVERLAY, 0, STATIC
        FUNCALL ZDO_AddrChangeIndicationCB, ZDApp_AnnounceNewAddress
        LOCFRAME ISTACK, 0, STACK
        LOCFRAME PSTACK, 0, STACK
        LOCFRAME XSTACK, 12, STACK
        LOCFRAME IOVERLAY, 0, STATIC
        LOCFRAME DOVERLAY, 0, STATIC
        ARGFRAME ISTACK, 0, STACK
        ARGFRAME PSTACK, 0, STACK
        ARGFRAME XSTACK, 12, STACK
        ARGFRAME IOVERLAY, 0, STATIC
        ARGFRAME DOVERLAY, 0, STATIC
        REQUIRE ?V0
        REQUIRE ?V1
        REQUIRE ?V2
        REQUIRE ?V3
        MOV     A,#-0xc
        LCALL   ?BANKED_ENTER_XDATA
          CFI DPH0 load(1, XDATA, add(CFA_XSP16, literal(-1)))
          CFI DPL0 load(1, XDATA, add(CFA_XSP16, literal(-2)))
          CFI ?BRET_EXT load(1, XDATA, add(CFA_XSP16, literal(-3)))
          CFI ?RET_HIGH load(1, XDATA, add(CFA_XSP16, literal(-4)))
          CFI ?RET_LOW load(1, XDATA, add(CFA_XSP16, literal(-5)))
          CFI R7 load(1, XDATA, add(CFA_XSP16, literal(-6)))
          CFI V3 load(1, XDATA, add(CFA_XSP16, literal(-7)))
          CFI V2 load(1, XDATA, add(CFA_XSP16, literal(-8)))
          CFI V1 load(1, XDATA, add(CFA_XSP16, literal(-9)))
          CFI V0 load(1, XDATA, add(CFA_XSP16, literal(-10)))
          CFI VB load(1, XDATA, add(CFA_XSP16, literal(-11)))
          CFI R6 load(1, XDATA, add(CFA_XSP16, literal(-12)))
          CFI CFA_SP SP+0
          CFI CFA_XSP16 add(XSP16, 12)
        ; Saved register size: 12
        ; Auto size: 0
        MOV     ?V0,R2
        MOV     ?V1,R3
// 2416   ZDO_AddrChangeInd_t *pZDOAddrChangeMsg;
// 2417   epList_t *pItem = epList;
        MOV     DPTR,#epList
        LCALL   ??Subroutine44_0 & 0xFFFF
// 2418 
// 2419   // Notify to save info into NV
// 2420   ZDApp_NVUpdate();
// 2421 
// 2422   // Notify the applications
// 2423   osal_set_event( ZDAppTaskID, ZDO_STATE_CHANGE_EVT );
??CrossCallReturnLabel_64:
        ; Setup parameters for call to function osal_set_event
        MOV     R2,#0x10
        MOV     R3,#0x0
        MOV     DPTR,#ZDAppTaskID
        MOVX    A,@DPTR
        MOV     R1,A
        LCALL   ??osal_set_event?relay; Banked call to: osal_set_event
        SJMP    ??CrossCallReturnLabel_65
// 2424 
// 2425   while (pItem != NULL)
// 2426   {
// 2427     if (pItem->epDesc->endPoint != ZDO_EP)
??ZDO_AddrChangeIndicationCB_0:
        LCALL   ?Subroutine15 & 0xFFFF
??CrossCallReturnLabel_78:
        MOVX    A,@DPTR
        JZ      ??ZDO_AddrChangeIndicationCB_1
// 2428     {
// 2429       pZDOAddrChangeMsg = (ZDO_AddrChangeInd_t *)osal_msg_allocate( sizeof( ZDO_AddrChangeInd_t ) );
        ; Setup parameters for call to function osal_msg_allocate
        MOV     R2,#0x4
        MOV     R3,#0x0
        LCALL   ??osal_msg_allocate?relay; Banked call to: osal_msg_allocate
// 2430       if (pZDOAddrChangeMsg != NULL)
        MOV     A,R2
        ORL     A,R3
        JZ      ??ZDO_AddrChangeIndicationCB_1
// 2431       {
// 2432         pZDOAddrChangeMsg->hdr.event = ZDO_ADDR_CHANGE_IND;
        MOV     DPL,R2
        MOV     DPH,R3
        MOV     A,#-0x2a
        MOVX    @DPTR,A
// 2433         pZDOAddrChangeMsg->shortAddr = newAddr;
        INC     DPTR
        INC     DPTR
        MOV     A,?V0
        MOVX    @DPTR,A
        INC     DPTR
        MOV     A,?V1
        MOVX    @DPTR,A
// 2434         osal_msg_send( *(pItem->epDesc->task_id), (uint8 *)pZDOAddrChangeMsg );
        ; Setup parameters for call to function osal_msg_send
        LCALL   ?Subroutine15 & 0xFFFF
// 2435       }
// 2436     }
??CrossCallReturnLabel_79:
        LCALL   ??Subroutine45_0 & 0xFFFF
??CrossCallReturnLabel_77:
        MOVX    A,@DPTR
        MOV     R1,A
        LCALL   ??osal_msg_send?relay; Banked call to: osal_msg_send
// 2437     pItem = pItem->nextDesc;
??ZDO_AddrChangeIndicationCB_1:
        MOV     DPL,R6
        MOV     DPH,R7
        LCALL   ??Subroutine44_0 & 0xFFFF
// 2438   }
??CrossCallReturnLabel_65:
        MOV     A,R6
        ORL     A,R7
        JNZ     ??ZDO_AddrChangeIndicationCB_0
// 2439 
// 2440   // Send out a device announce
// 2441   ZDApp_AnnounceNewAddress();
        ; Setup parameters for call to function ZDApp_AnnounceNewAddress
        LCALL   ??ZDApp_AnnounceNewAddress?relay; Banked call to: ZDApp_AnnounceNewAddress
// 2442 }
        LJMP    ??Subroutine36_0 & 0xFFFF
          CFI EndBlock cfiBlock130

        RSEG BANKED_CODE:CODE:NOROOT(0)
?Subroutine18:
          CFI Block cfiCond131 Using cfiCommon0
          CFI Function ZDApp_NwkDescListProcessing
          CFI Conditional ??CrossCallReturnLabel_66
          CFI R6 load(1, XDATA, add(CFA_XSP16, literal(-14)))
          CFI VB load(1, XDATA, add(CFA_XSP16, literal(-13)))
          CFI V0 load(1, XDATA, add(CFA_XSP16, literal(-12)))
          CFI V1 load(1, XDATA, add(CFA_XSP16, literal(-11)))
          CFI V2 load(1, XDATA, add(CFA_XSP16, literal(-10)))
          CFI V3 load(1, XDATA, add(CFA_XSP16, literal(-9)))
          CFI V4 load(1, XDATA, add(CFA_XSP16, literal(-8)))
          CFI V5 load(1, XDATA, add(CFA_XSP16, literal(-7)))
          CFI R7 load(1, XDATA, add(CFA_XSP16, literal(-6)))
          CFI ?RET_LOW load(1, XDATA, add(CFA_XSP16, literal(-5)))
          CFI ?RET_HIGH load(1, XDATA, add(CFA_XSP16, literal(-4)))
          CFI ?BRET_EXT load(1, XDATA, add(CFA_XSP16, literal(-3)))
          CFI DPL0 load(1, XDATA, add(CFA_XSP16, literal(-2)))
          CFI DPH0 load(1, XDATA, add(CFA_XSP16, literal(-1)))
          CFI CFA_SP SP+-2
          CFI CFA_XSP16 add(XSP16, 14)
          CFI Block cfiCond132 Using cfiCommon0
          CFI (cfiCond132) Function ZDApp_NwkDescListProcessing
          CFI (cfiCond132) Conditional ??CrossCallReturnLabel_67
          CFI (cfiCond132) R6 load(1, XDATA, add(CFA_XSP16, literal(-14)))
          CFI (cfiCond132) VB load(1, XDATA, add(CFA_XSP16, literal(-13)))
          CFI (cfiCond132) V0 load(1, XDATA, add(CFA_XSP16, literal(-12)))
          CFI (cfiCond132) V1 load(1, XDATA, add(CFA_XSP16, literal(-11)))
          CFI (cfiCond132) V2 load(1, XDATA, add(CFA_XSP16, literal(-10)))
          CFI (cfiCond132) V3 load(1, XDATA, add(CFA_XSP16, literal(-9)))
          CFI (cfiCond132) V4 load(1, XDATA, add(CFA_XSP16, literal(-8)))
          CFI (cfiCond132) V5 load(1, XDATA, add(CFA_XSP16, literal(-7)))
          CFI (cfiCond132) R7 load(1, XDATA, add(CFA_XSP16, literal(-6)))
          CFI (cfiCond132) ?RET_LOW load(1, XDATA, add(CFA_XSP16, literal(-5)))
          CFI (cfiCond132) ?RET_HIGH load(1, XDATA, add(CFA_XSP16, literal(-4)))
          CFI (cfiCond132) ?BRET_EXT load(1, XDATA, add(CFA_XSP16, literal(-3)))
          CFI (cfiCond132) DPL0 load(1, XDATA, add(CFA_XSP16, literal(-2)))
          CFI (cfiCond132) DPH0 load(1, XDATA, add(CFA_XSP16, literal(-1)))
          CFI (cfiCond132) CFA_SP SP+-2
          CFI (cfiCond132) CFA_XSP16 add(XSP16, 14)
          CFI Block cfiCond133 Using cfiCommon0
          CFI (cfiCond133) Function ZDO_beaconNotifyIndCB
          CFI (cfiCond133) Conditional ??CrossCallReturnLabel_68
          CFI (cfiCond133) R6 load(1, XDATA, add(CFA_XSP16, literal(-14)))
          CFI (cfiCond133) VB load(1, XDATA, add(CFA_XSP16, literal(-13)))
          CFI (cfiCond133) V0 load(1, XDATA, add(CFA_XSP16, literal(-12)))
          CFI (cfiCond133) V1 load(1, XDATA, add(CFA_XSP16, literal(-11)))
          CFI (cfiCond133) V2 load(1, XDATA, add(CFA_XSP16, literal(-10)))
          CFI (cfiCond133) V3 load(1, XDATA, add(CFA_XSP16, literal(-9)))
          CFI (cfiCond133) V4 load(1, XDATA, add(CFA_XSP16, literal(-8)))
          CFI (cfiCond133) V5 load(1, XDATA, add(CFA_XSP16, literal(-7)))
          CFI (cfiCond133) R7 load(1, XDATA, add(CFA_XSP16, literal(-6)))
          CFI (cfiCond133) ?RET_LOW load(1, XDATA, add(CFA_XSP16, literal(-5)))
          CFI (cfiCond133) ?RET_HIGH load(1, XDATA, add(CFA_XSP16, literal(-4)))
          CFI (cfiCond133) ?BRET_EXT load(1, XDATA, add(CFA_XSP16, literal(-3)))
          CFI (cfiCond133) DPL0 load(1, XDATA, add(CFA_XSP16, literal(-2)))
          CFI (cfiCond133) DPH0 load(1, XDATA, add(CFA_XSP16, literal(-1)))
          CFI (cfiCond133) CFA_SP SP+-2
          CFI (cfiCond133) CFA_XSP16 add(XSP16, 14)
          CFI Block cfiPicker134 Using cfiCommon1
          CFI (cfiPicker134) NoFunction
          CFI (cfiPicker134) Picker
        MOV     A,R6
        ADD     A,#0x14
        MOV     DPL,A
        CLR     A
        ADDC    A,R7
        MOV     DPH,A
          CFI EndBlock cfiCond131
          CFI EndBlock cfiCond132
          CFI EndBlock cfiCond133
          CFI EndBlock cfiPicker134
        REQUIRE ??Subroutine44_0
        ; // Fall through to label ??Subroutine44_0

        RSEG BANKED_CODE:CODE:NOROOT(0)
??Subroutine44_0:
          CFI Block cfiCond135 Using cfiCommon0
          CFI Function ZDO_beaconNotifyIndCB
          CFI Conditional ??CrossCallReturnLabel_63
          CFI R6 load(1, XDATA, add(CFA_XSP16, literal(-14)))
          CFI VB load(1, XDATA, add(CFA_XSP16, literal(-13)))
          CFI V0 load(1, XDATA, add(CFA_XSP16, literal(-12)))
          CFI V1 load(1, XDATA, add(CFA_XSP16, literal(-11)))
          CFI V2 load(1, XDATA, add(CFA_XSP16, literal(-10)))
          CFI V3 load(1, XDATA, add(CFA_XSP16, literal(-9)))
          CFI V4 load(1, XDATA, add(CFA_XSP16, literal(-8)))
          CFI V5 load(1, XDATA, add(CFA_XSP16, literal(-7)))
          CFI R7 load(1, XDATA, add(CFA_XSP16, literal(-6)))
          CFI ?RET_LOW load(1, XDATA, add(CFA_XSP16, literal(-5)))
          CFI ?RET_HIGH load(1, XDATA, add(CFA_XSP16, literal(-4)))
          CFI ?BRET_EXT load(1, XDATA, add(CFA_XSP16, literal(-3)))
          CFI DPL0 load(1, XDATA, add(CFA_XSP16, literal(-2)))
          CFI DPH0 load(1, XDATA, add(CFA_XSP16, literal(-1)))
          CFI CFA_SP SP+-2
          CFI CFA_XSP16 add(XSP16, 14)
          CFI Block cfiCond136 Using cfiCommon0
          CFI (cfiCond136) Function ZDO_AddrChangeIndicationCB
          CFI (cfiCond136) Conditional ??CrossCallReturnLabel_64
          CFI (cfiCond136) R6 load(1, XDATA, add(CFA_XSP16, literal(-12)))
          CFI (cfiCond136) VB load(1, XDATA, add(CFA_XSP16, literal(-11)))
          CFI (cfiCond136) V0 load(1, XDATA, add(CFA_XSP16, literal(-10)))
          CFI (cfiCond136) V1 load(1, XDATA, add(CFA_XSP16, literal(-9)))
          CFI (cfiCond136) V2 load(1, XDATA, add(CFA_XSP16, literal(-8)))
          CFI (cfiCond136) V3 load(1, XDATA, add(CFA_XSP16, literal(-7)))
          CFI (cfiCond136) R7 load(1, XDATA, add(CFA_XSP16, literal(-6)))
          CFI (cfiCond136) ?RET_LOW load(1, XDATA, add(CFA_XSP16, literal(-5)))
          CFI (cfiCond136) ?RET_HIGH load(1, XDATA, add(CFA_XSP16, literal(-4)))
          CFI (cfiCond136) ?BRET_EXT load(1, XDATA, add(CFA_XSP16, literal(-3)))
          CFI (cfiCond136) DPL0 load(1, XDATA, add(CFA_XSP16, literal(-2)))
          CFI (cfiCond136) DPH0 load(1, XDATA, add(CFA_XSP16, literal(-1)))
          CFI (cfiCond136) CFA_SP SP+-2
          CFI (cfiCond136) CFA_XSP16 add(XSP16, 12)
          CFI Block cfiCond137 Using cfiCommon0
          CFI (cfiCond137) Function ZDO_AddrChangeIndicationCB
          CFI (cfiCond137) Conditional ??CrossCallReturnLabel_65
          CFI (cfiCond137) R6 load(1, XDATA, add(CFA_XSP16, literal(-12)))
          CFI (cfiCond137) VB load(1, XDATA, add(CFA_XSP16, literal(-11)))
          CFI (cfiCond137) V0 load(1, XDATA, add(CFA_XSP16, literal(-10)))
          CFI (cfiCond137) V1 load(1, XDATA, add(CFA_XSP16, literal(-9)))
          CFI (cfiCond137) V2 load(1, XDATA, add(CFA_XSP16, literal(-8)))
          CFI (cfiCond137) V3 load(1, XDATA, add(CFA_XSP16, literal(-7)))
          CFI (cfiCond137) R7 load(1, XDATA, add(CFA_XSP16, literal(-6)))
          CFI (cfiCond137) ?RET_LOW load(1, XDATA, add(CFA_XSP16, literal(-5)))
          CFI (cfiCond137) ?RET_HIGH load(1, XDATA, add(CFA_XSP16, literal(-4)))
          CFI (cfiCond137) ?BRET_EXT load(1, XDATA, add(CFA_XSP16, literal(-3)))
          CFI (cfiCond137) DPL0 load(1, XDATA, add(CFA_XSP16, literal(-2)))
          CFI (cfiCond137) DPH0 load(1, XDATA, add(CFA_XSP16, literal(-1)))
          CFI (cfiCond137) CFA_SP SP+-2
          CFI (cfiCond137) CFA_XSP16 add(XSP16, 12)
          CFI Block cfiCond138 Using cfiCommon0
          CFI (cfiCond138) Function ZDApp_NwkDescListProcessing
          CFI (cfiCond138) Conditional ??CrossCallReturnLabel_66
          CFI (cfiCond138) R6 load(1, XDATA, add(CFA_XSP16, literal(-14)))
          CFI (cfiCond138) VB load(1, XDATA, add(CFA_XSP16, literal(-13)))
          CFI (cfiCond138) V0 load(1, XDATA, add(CFA_XSP16, literal(-12)))
          CFI (cfiCond138) V1 load(1, XDATA, add(CFA_XSP16, literal(-11)))
          CFI (cfiCond138) V2 load(1, XDATA, add(CFA_XSP16, literal(-10)))
          CFI (cfiCond138) V3 load(1, XDATA, add(CFA_XSP16, literal(-9)))
          CFI (cfiCond138) V4 load(1, XDATA, add(CFA_XSP16, literal(-8)))
          CFI (cfiCond138) V5 load(1, XDATA, add(CFA_XSP16, literal(-7)))
          CFI (cfiCond138) R7 load(1, XDATA, add(CFA_XSP16, literal(-6)))
          CFI (cfiCond138) ?RET_LOW load(1, XDATA, add(CFA_XSP16, literal(-5)))
          CFI (cfiCond138) ?RET_HIGH load(1, XDATA, add(CFA_XSP16, literal(-4)))
          CFI (cfiCond138) ?BRET_EXT load(1, XDATA, add(CFA_XSP16, literal(-3)))
          CFI (cfiCond138) DPL0 load(1, XDATA, add(CFA_XSP16, literal(-2)))
          CFI (cfiCond138) DPH0 load(1, XDATA, add(CFA_XSP16, literal(-1)))
          CFI (cfiCond138) CFA_SP SP+-2
          CFI (cfiCond138) CFA_XSP16 add(XSP16, 14)
          CFI Block cfiCond139 Using cfiCommon0
          CFI (cfiCond139) Function ZDApp_NwkDescListProcessing
          CFI (cfiCond139) Conditional ??CrossCallReturnLabel_67
          CFI (cfiCond139) R6 load(1, XDATA, add(CFA_XSP16, literal(-14)))
          CFI (cfiCond139) VB load(1, XDATA, add(CFA_XSP16, literal(-13)))
          CFI (cfiCond139) V0 load(1, XDATA, add(CFA_XSP16, literal(-12)))
          CFI (cfiCond139) V1 load(1, XDATA, add(CFA_XSP16, literal(-11)))
          CFI (cfiCond139) V2 load(1, XDATA, add(CFA_XSP16, literal(-10)))
          CFI (cfiCond139) V3 load(1, XDATA, add(CFA_XSP16, literal(-9)))
          CFI (cfiCond139) V4 load(1, XDATA, add(CFA_XSP16, literal(-8)))
          CFI (cfiCond139) V5 load(1, XDATA, add(CFA_XSP16, literal(-7)))
          CFI (cfiCond139) R7 load(1, XDATA, add(CFA_XSP16, literal(-6)))
          CFI (cfiCond139) ?RET_LOW load(1, XDATA, add(CFA_XSP16, literal(-5)))
          CFI (cfiCond139) ?RET_HIGH load(1, XDATA, add(CFA_XSP16, literal(-4)))
          CFI (cfiCond139) ?BRET_EXT load(1, XDATA, add(CFA_XSP16, literal(-3)))
          CFI (cfiCond139) DPL0 load(1, XDATA, add(CFA_XSP16, literal(-2)))
          CFI (cfiCond139) DPH0 load(1, XDATA, add(CFA_XSP16, literal(-1)))
          CFI (cfiCond139) CFA_SP SP+-2
          CFI (cfiCond139) CFA_XSP16 add(XSP16, 14)
          CFI Block cfiCond140 Using cfiCommon0
          CFI (cfiCond140) Function ZDO_beaconNotifyIndCB
          CFI (cfiCond140) Conditional ??CrossCallReturnLabel_68
          CFI (cfiCond140) R6 load(1, XDATA, add(CFA_XSP16, literal(-14)))
          CFI (cfiCond140) VB load(1, XDATA, add(CFA_XSP16, literal(-13)))
          CFI (cfiCond140) V0 load(1, XDATA, add(CFA_XSP16, literal(-12)))
          CFI (cfiCond140) V1 load(1, XDATA, add(CFA_XSP16, literal(-11)))
          CFI (cfiCond140) V2 load(1, XDATA, add(CFA_XSP16, literal(-10)))
          CFI (cfiCond140) V3 load(1, XDATA, add(CFA_XSP16, literal(-9)))
          CFI (cfiCond140) V4 load(1, XDATA, add(CFA_XSP16, literal(-8)))
          CFI (cfiCond140) V5 load(1, XDATA, add(CFA_XSP16, literal(-7)))
          CFI (cfiCond140) R7 load(1, XDATA, add(CFA_XSP16, literal(-6)))
          CFI (cfiCond140) ?RET_LOW load(1, XDATA, add(CFA_XSP16, literal(-5)))
          CFI (cfiCond140) ?RET_HIGH load(1, XDATA, add(CFA_XSP16, literal(-4)))
          CFI (cfiCond140) ?BRET_EXT load(1, XDATA, add(CFA_XSP16, literal(-3)))
          CFI (cfiCond140) DPL0 load(1, XDATA, add(CFA_XSP16, literal(-2)))
          CFI (cfiCond140) DPH0 load(1, XDATA, add(CFA_XSP16, literal(-1)))
          CFI (cfiCond140) CFA_SP SP+-2
          CFI (cfiCond140) CFA_XSP16 add(XSP16, 14)
          CFI Block cfiPicker141 Using cfiCommon1
          CFI (cfiPicker141) NoFunction
          CFI (cfiPicker141) Picker
        MOVX    A,@DPTR
        MOV     R6,A
        INC     DPTR
        MOVX    A,@DPTR
        MOV     R7,A
        RET
          CFI EndBlock cfiCond135
          CFI EndBlock cfiCond136
          CFI EndBlock cfiCond137
          CFI EndBlock cfiCond138
          CFI EndBlock cfiCond139
          CFI EndBlock cfiCond140
          CFI EndBlock cfiPicker141
// 2443 
// 2444 /*********************************************************************
// 2445  * @fn          ZDO_JoinIndicationCB
// 2446  *
// 2447  * @brief       This function allows the next higher layer of a
// 2448  *              coordinator to be notified of a remote join request.
// 2449  *
// 2450  * @param       ShortAddress - 16-bit address
// 2451  * @param       ExtendedAddress - IEEE (64-bit) address
// 2452  * @param       CapabilityFlags - Association Capability Flags
// 2453  * @param       type - of joining -
// 2454  *                          NWK_ASSOC_JOIN
// 2455  *                          NWK_ASSOC_REJOIN_UNSECURE
// 2456  *                          NWK_ASSOC_REJOIN_SECURE
// 2457  *
// 2458  * @return      ZStatus_t
// 2459  */

        RSEG BANKED_CODE:CODE:NOROOT(0)
// 2460 ZStatus_t ZDO_JoinIndicationCB(uint16 ShortAddress, uint8 *ExtendedAddress,
ZDO_JoinIndicationCB:
        CODE
// 2461                                 uint8 CapabilityFlags, uint8 type)
// 2462 {
        ; Saved register size: 0
        ; Auto size: 0
// 2463   (void)ShortAddress;
// 2464   (void)ExtendedAddress;
// 2465 #if ZDO_NV_SAVE_RFDs
// 2466   (void)CapabilityFlags;
// 2467 
// 2468 #else  // if !ZDO_NV_SAVE_RFDs
// 2469   if (CapabilityFlags & CAPINFO_DEVICETYPE_FFD)
// 2470 #endif
// 2471   {
// 2472     ZDApp_NVUpdate();  // Notify to save info into NV.
// 2473   }
// 2474 
// 2475   if (ZG_SECURE_ENABLED)  // Send notification to TC of new device.
// 2476   {
// 2477     if (type == NWK_ASSOC_JOIN || type == NWK_ASSOC_REJOIN_UNSECURE)
// 2478     {
// 2479       osal_start_timerEx( ZDAppTaskID, ZDO_NEW_DEVICE, 600 );
// 2480     }
// 2481   }
// 2482 
// 2483   return ZSuccess;
        REQUIRE ?Subroutine4
        ; // Fall through to label ?Subroutine4

        RSEG BANKED_CODE:CODE:NOROOT(0)
?Subroutine4:
          CFI Block cfiBlock142 Using cfiCommon0
          CFI NoFunction
        MOV     R1,#0x0
        LJMP    ?BRET
          CFI EndBlock cfiBlock142
// 2484 }
// 2485 
// 2486 /*********************************************************************
// 2487  * @fn          ZDO_ConcentratorIndicationCB
// 2488  *
// 2489  * @brief       This function allows the next higher layer of a
// 2490  *              device to be notified of existence of the concentrator.
// 2491  *
// 2492  * @param       nwkAddr - 16-bit NWK address of the concentrator
// 2493  * @param       extAddr - pointer to extended Address
// 2494  *                        NULL if not available
// 2495  * @param       pktCost - PktCost from RREQ
// 2496  *
// 2497  * @return      void
// 2498  */

        RSEG BANKED_CODE:CODE:NOROOT(0)
// 2499 void ZDO_ConcentratorIndicationCB( uint16 nwkAddr, uint8 *extAddr, uint8 pktCost )
ZDO_ConcentratorIndicationCB:
          CFI Block cfiBlock143 Using cfiCommon0
          CFI Function ZDO_ConcentratorIndicationCB
        CODE
// 2500 {
        MOV     A,#-0x9
        LCALL   ?BANKED_ENTER_XDATA
          CFI DPH0 load(1, XDATA, add(CFA_XSP16, literal(-1)))
          CFI DPL0 load(1, XDATA, add(CFA_XSP16, literal(-2)))
          CFI ?BRET_EXT load(1, XDATA, add(CFA_XSP16, literal(-3)))
          CFI ?RET_HIGH load(1, XDATA, add(CFA_XSP16, literal(-4)))
          CFI ?RET_LOW load(1, XDATA, add(CFA_XSP16, literal(-5)))
          CFI R7 load(1, XDATA, add(CFA_XSP16, literal(-6)))
          CFI V0 load(1, XDATA, add(CFA_XSP16, literal(-7)))
          CFI VB load(1, XDATA, add(CFA_XSP16, literal(-8)))
          CFI R6 load(1, XDATA, add(CFA_XSP16, literal(-9)))
          CFI CFA_SP SP+0
          CFI CFA_XSP16 add(XSP16, 9)
        ; Saved register size: 9
        ; Auto size: 5
        MOV     A,#-0x5
        LCALL   ?ALLOC_XSTACK8
          CFI CFA_XSP16 add(XSP16, 14)
// 2501   zdoConcentratorInd_t conInd;
// 2502 
// 2503   conInd.nwkAddr = nwkAddr;
        LCALL   ?Subroutine12 & 0xFFFF
// 2504   conInd.extAddr = extAddr;
??CrossCallReturnLabel_86:
        MOV     A,#0x2
        LCALL   ?XSTACK_DISP0_8
        MOV     A,R4
        MOVX    @DPTR,A
        INC     DPTR
        MOV     A,R5
        MOVX    @DPTR,A
// 2505   conInd.pktCost = pktCost;
        MOV     A,#0x4
        LCALL   ?XSTACK_DISP0_8
        MOV     A,R1
        MOVX    @DPTR,A
// 2506 
// 2507   if( zdoCBFunc[ZDO_CONCENTRATOR_IND_CBID] != NULL )
        MOV     DPTR,#zdoCBFunc + 2
        LCALL   ?Subroutine14 & 0xFFFF
??CrossCallReturnLabel_12:
        JZ      ??ZDO_ConcentratorIndicationCB_0
// 2508   {
// 2509     zdoCBFunc[ZDO_CONCENTRATOR_IND_CBID]( (void*)&conInd );
        ; Setup parameters for indirect call
        MOV     R2,?XSP + 0
        MOV     R3,?XSP + 1
        LCALL   ??Subroutine47_0 & 0xFFFF
// 2510   }
??CrossCallReturnLabel_71:
        LCALL   ?CALL_IND
// 2511 }
??ZDO_ConcentratorIndicationCB_0:
        LJMP    ?Subroutine6 & 0xFFFF
          CFI EndBlock cfiBlock143
// 2512 
// 2513 /*********************************************************************
// 2514  * @fn          ZDO_LeaveCnf
// 2515  *
// 2516  * @brief       This function allows the next higher layer to be
// 2517  *              notified of the results of its request for this or
// 2518  *              a child device to leave the network.
// 2519  *
// 2520  * @param       cnf - NLME_LeaveCnf_t
// 2521  *
// 2522  * @return      none
// 2523  */

        RSEG BANKED_CODE:CODE:NOROOT(0)
// 2524 void ZDO_LeaveCnf( NLME_LeaveCnf_t* cnf )
ZDO_LeaveCnf:
          CFI Block cfiBlock144 Using cfiCommon0
          CFI Function ZDO_LeaveCnf
        CODE
// 2525 {
        FUNCALL ZDO_LeaveCnf, NLME_GetExtAddr
        LOCFRAME ISTACK, 0, STACK
        LOCFRAME PSTACK, 0, STACK
        LOCFRAME XSTACK, 10, STACK
        LOCFRAME IOVERLAY, 0, STATIC
        LOCFRAME DOVERLAY, 0, STATIC
        ARGFRAME ISTACK, 0, STACK
        ARGFRAME PSTACK, 0, STACK
        ARGFRAME XSTACK, 10, STACK
        ARGFRAME IOVERLAY, 0, STATIC
        ARGFRAME DOVERLAY, 0, STATIC
        FUNCALL ZDO_LeaveCnf, sAddrExtCmp
        LOCFRAME ISTACK, 0, STACK
        LOCFRAME PSTACK, 0, STACK
        LOCFRAME XSTACK, 10, STACK
        LOCFRAME IOVERLAY, 0, STATIC
        LOCFRAME DOVERLAY, 0, STATIC
        ARGFRAME ISTACK, 0, STACK
        ARGFRAME PSTACK, 0, STACK
        ARGFRAME XSTACK, 10, STACK
        ARGFRAME IOVERLAY, 0, STATIC
        ARGFRAME DOVERLAY, 0, STATIC
        FUNCALL ZDO_LeaveCnf, ZDApp_LeaveReset
        LOCFRAME ISTACK, 0, STACK
        LOCFRAME PSTACK, 0, STACK
        LOCFRAME XSTACK, 10, STACK
        LOCFRAME IOVERLAY, 0, STATIC
        LOCFRAME DOVERLAY, 0, STATIC
        ARGFRAME ISTACK, 0, STACK
        ARGFRAME PSTACK, 0, STACK
        ARGFRAME XSTACK, 10, STACK
        ARGFRAME IOVERLAY, 0, STATIC
        ARGFRAME DOVERLAY, 0, STATIC
        REQUIRE ?V0
        REQUIRE ?V1
        MOV     A,#-0xa
        LCALL   ?BANKED_ENTER_XDATA
          CFI DPH0 load(1, XDATA, add(CFA_XSP16, literal(-1)))
          CFI DPL0 load(1, XDATA, add(CFA_XSP16, literal(-2)))
          CFI ?BRET_EXT load(1, XDATA, add(CFA_XSP16, literal(-3)))
          CFI ?RET_HIGH load(1, XDATA, add(CFA_XSP16, literal(-4)))
          CFI ?RET_LOW load(1, XDATA, add(CFA_XSP16, literal(-5)))
          CFI R7 load(1, XDATA, add(CFA_XSP16, literal(-6)))
          CFI V1 load(1, XDATA, add(CFA_XSP16, literal(-7)))
          CFI V0 load(1, XDATA, add(CFA_XSP16, literal(-8)))
          CFI VB load(1, XDATA, add(CFA_XSP16, literal(-9)))
          CFI R6 load(1, XDATA, add(CFA_XSP16, literal(-10)))
          CFI CFA_SP SP+0
          CFI CFA_XSP16 add(XSP16, 10)
        ; Saved register size: 10
        ; Auto size: 0
        MOV     A,R2
        MOV     R6,A
        MOV     A,R3
        MOV     R7,A
// 2526   // Check for this device
// 2527   if ( osal_ExtAddrEqual( cnf->extAddr,
// 2528                           NLME_GetExtAddr() ) == TRUE )
        ; Setup parameters for call to function sAddrExtCmp
        ; Setup parameters for call to function NLME_GetExtAddr
        LCALL   ??NLME_GetExtAddr?relay; Banked call to: NLME_GetExtAddr
        MOV     A,R2
        MOV     R4,A
        MOV     A,R3
        MOV     R5,A
        MOV     A,R6
        ADD     A,#0x2
        MOV     R2,A
        CLR     A
        ADDC    A,R7
        MOV     R3,A
        LCALL   ??sAddrExtCmp?relay  ; Banked call to: sAddrExtCmp
        MOV     A,R1
        XRL     A,#0x1
        JNZ     ??ZDO_LeaveCnf_0
// 2529   {
// 2530     // Pass the leave confirm to higher layer if callback registered
// 2531     if ( ( zdoCBFunc[ZDO_LEAVE_CNF_CBID] == NULL ) ||
// 2532          ( (*zdoCBFunc[ZDO_LEAVE_CNF_CBID])( cnf ) == NULL ) )
        MOV     DPTR,#zdoCBFunc + 10
        LCALL   ?Subroutine14 & 0xFFFF
??CrossCallReturnLabel_13:
        JZ      ??ZDO_LeaveCnf_1
        ; Setup parameters for indirect call
        MOV     A,R6
        MOV     R2,A
        MOV     A,R7
        MOV     R3,A
        LCALL   ??Subroutine47_0 & 0xFFFF
??CrossCallReturnLabel_72:
        LCALL   ?CALL_IND
        MOV     ?V1,R3
        MOV     A,R2
        ORL     A,?V1
        JNZ     ??ZDO_LeaveCnf_0
// 2533     {
// 2534       // Prepare to leave with reset
// 2535       ZDApp_LeaveReset( cnf->rejoin );
??ZDO_LeaveCnf_1:
        ; Setup parameters for call to function ZDApp_LeaveReset
        LCALL   ?Subroutine24 & 0xFFFF
// 2536     }
// 2537   }
??CrossCallReturnLabel_26:
        LCALL   ??ZDApp_LeaveReset?relay; Banked call to: ZDApp_LeaveReset
// 2538   else if ( ZSTACK_ROUTER_BUILD )
// 2539   {
// 2540     // Remove device address(optionally descendents) from data
// 2541     ZDApp_LeaveUpdate( cnf->dstAddr,
// 2542                        cnf->extAddr,
// 2543                        cnf->removeChildren );
// 2544   }
// 2545 }
??ZDO_LeaveCnf_0:
        LJMP    ??Subroutine41_0 & 0xFFFF
          CFI EndBlock cfiBlock144
// 2546 
// 2547 /*********************************************************************
// 2548  * @fn          ZDO_LeaveInd
// 2549  *
// 2550  * @brief       This function allows the next higher layer of a
// 2551  *              device to be notified of a remote leave request or
// 2552  *              indication.
// 2553  *
// 2554  * @param       ind - NLME_LeaveInd_t
// 2555  *
// 2556  * @return      none
// 2557  */

        RSEG BANKED_CODE:CODE:NOROOT(0)
// 2558 void ZDO_LeaveInd( NLME_LeaveInd_t* ind )
ZDO_LeaveInd:
          CFI Block cfiBlock145 Using cfiCommon0
          CFI Function ZDO_LeaveInd
        CODE
// 2559 {
        FUNCALL ZDO_LeaveInd, NLME_GetCoordShortAddr
        LOCFRAME ISTACK, 0, STACK
        LOCFRAME PSTACK, 0, STACK
        LOCFRAME XSTACK, 10, STACK
        LOCFRAME IOVERLAY, 0, STATIC
        LOCFRAME DOVERLAY, 0, STATIC
        ARGFRAME ISTACK, 0, STACK
        ARGFRAME PSTACK, 0, STACK
        ARGFRAME XSTACK, 10, STACK
        ARGFRAME IOVERLAY, 0, STATIC
        ARGFRAME DOVERLAY, 0, STATIC
        FUNCALL ZDO_LeaveInd, ZDApp_LeaveReset
        LOCFRAME ISTACK, 0, STACK
        LOCFRAME PSTACK, 0, STACK
        LOCFRAME XSTACK, 10, STACK
        LOCFRAME IOVERLAY, 0, STATIC
        LOCFRAME DOVERLAY, 0, STATIC
        ARGFRAME ISTACK, 0, STACK
        ARGFRAME PSTACK, 0, STACK
        ARGFRAME XSTACK, 10, STACK
        ARGFRAME IOVERLAY, 0, STATIC
        ARGFRAME DOVERLAY, 0, STATIC
        FUNCALL ZDO_LeaveInd, ZDApp_LeaveUpdate
        LOCFRAME ISTACK, 0, STACK
        LOCFRAME PSTACK, 0, STACK
        LOCFRAME XSTACK, 10, STACK
        LOCFRAME IOVERLAY, 0, STATIC
        LOCFRAME DOVERLAY, 0, STATIC
        ARGFRAME ISTACK, 0, STACK
        ARGFRAME PSTACK, 0, STACK
        ARGFRAME XSTACK, 10, STACK
        ARGFRAME IOVERLAY, 0, STATIC
        ARGFRAME DOVERLAY, 0, STATIC
        REQUIRE ?V0
        REQUIRE ?V1
        MOV     A,#-0xa
        LCALL   ?BANKED_ENTER_XDATA
          CFI DPH0 load(1, XDATA, add(CFA_XSP16, literal(-1)))
          CFI DPL0 load(1, XDATA, add(CFA_XSP16, literal(-2)))
          CFI ?BRET_EXT load(1, XDATA, add(CFA_XSP16, literal(-3)))
          CFI ?RET_HIGH load(1, XDATA, add(CFA_XSP16, literal(-4)))
          CFI ?RET_LOW load(1, XDATA, add(CFA_XSP16, literal(-5)))
          CFI R7 load(1, XDATA, add(CFA_XSP16, literal(-6)))
          CFI V1 load(1, XDATA, add(CFA_XSP16, literal(-7)))
          CFI V0 load(1, XDATA, add(CFA_XSP16, literal(-8)))
          CFI VB load(1, XDATA, add(CFA_XSP16, literal(-9)))
          CFI R6 load(1, XDATA, add(CFA_XSP16, literal(-10)))
          CFI CFA_SP SP+0
          CFI CFA_XSP16 add(XSP16, 10)
        ; Saved register size: 10
        ; Auto size: 0
        MOV     A,R2
        MOV     R6,A
        MOV     A,R3
        MOV     R7,A
// 2560   uint8 leave;
// 2561 
// 2562 
// 2563   // Parent is requesting the leave - NWK layer filters out illegal
// 2564   // requests
// 2565   if ( ind->request == TRUE )
        MOV     DPL,R6
        MOV     DPH,R7
        INC     DPTR
        INC     DPTR
        INC     DPTR
        INC     DPTR
        INC     DPTR
        INC     DPTR
        INC     DPTR
        INC     DPTR
        INC     DPTR
        INC     DPTR
        MOVX    A,@DPTR
        XRL     A,#0x1
        JZ      ??ZDO_LeaveInd_0
// 2566   {
// 2567     // Notify network of leave
// 2568     if ( ZSTACK_ROUTER_BUILD )
// 2569     {
// 2570       NLME_LeaveRsp_t rsp;
// 2571       rsp.rejoin         = ind->rejoin;
// 2572       rsp.removeChildren = ind->removeChildren;
// 2573       NLME_LeaveRsp( &rsp );
// 2574     }
// 2575 
// 2576     // Prepare to leave with reset
// 2577     ZDApp_LeaveReset( ind->rejoin );
// 2578   }
// 2579   else
// 2580   {
// 2581     leave = FALSE;
// 2582 
// 2583     // Check if this device needs to leave as a child or descendent
// 2584     if ( ind->srcAddr == NLME_GetCoordShortAddr() )
        ; Setup parameters for call to function NLME_GetCoordShortAddr
        LCALL   ??NLME_GetCoordShortAddr?relay; Banked call to: NLME_GetCoordShortAddr
        MOV     ?V0,R2
        MOV     ?V1,R3
        MOV     R0,?V0
        MOV     R1,?V1
        MOV     DPL,R6
        MOV     DPH,R7
        MOVX    A,@DPTR
        XRL     A,R0
        JNZ     ??ZDO_LeaveInd_1
        INC     DPTR
        MOVX    A,@DPTR
        XRL     A,R1
??ZDO_LeaveInd_1:
        JNZ     ??ZDO_LeaveInd_2
// 2585     {
// 2586       if ( ( ind->removeChildren == TRUE               ) ||
// 2587            ( ZDO_Config_Node_Descriptor.LogicalType ==
// 2588              NODETYPE_DEVICE                           )    )
        LCALL   ?Subroutine26 & 0xFFFF
// 2589       {
// 2590         leave = TRUE;
// 2591       }
// 2592     }
??CrossCallReturnLabel_28:
        XRL     A,#0x1
        JZ      ??ZDO_LeaveInd_0
        MOV     DPTR,#ZDO_Config_Node_Descriptor
        MOVX    A,@DPTR
        ANL     A,#0x7
        XRL     A,#0x2
        JNZ     ??ZDO_LeaveInd_2
// 2593     else if ( ind->removeChildren == TRUE )
// 2594     {
// 2595       // Check NWK address allocation algorithm
// 2596       //leave = RTG_ANCESTOR(nwkAddr,thisAddr);
// 2597     }
// 2598 
// 2599     if ( leave == TRUE )
// 2600     {
// 2601       // Prepare to leave with reset
// 2602       ZDApp_LeaveReset( ind->rejoin );
??ZDO_LeaveInd_0:
        ; Setup parameters for call to function ZDApp_LeaveReset
        LCALL   ?Subroutine27 & 0xFFFF
// 2603     }
??CrossCallReturnLabel_30:
        MOV     R1,A
        LCALL   ??ZDApp_LeaveReset?relay; Banked call to: ZDApp_LeaveReset
        SJMP    ??ZDO_LeaveInd_3
// 2604     else
// 2605     {
// 2606       // Remove device address(optionally descendents) from data
// 2607       ZDApp_LeaveUpdate( ind->srcAddr,
// 2608                          ind->extAddr,
// 2609                          ind->removeChildren );
??ZDO_LeaveInd_2:
        ; Setup parameters for call to function ZDApp_LeaveUpdate
        LCALL   ?Subroutine24 & 0xFFFF
// 2610     }
// 2611   }
??CrossCallReturnLabel_27:
        MOV     A,R6
        ADD     A,#0x2
        MOV     R4,A
        CLR     A
        ADDC    A,R7
        MOV     R5,A
        MOV     DPL,R6
        MOV     DPH,R7
        LCALL   ??Subroutine39_0 & 0xFFFF
??CrossCallReturnLabel_53:
        LCALL   ??ZDApp_LeaveUpdate?relay; Banked call to: ZDApp_LeaveUpdate
// 2612 
// 2613   // Pass the leave indication to higher layer if callback registered.
// 2614   if (zdoCBFunc[ZDO_LEAVE_IND_CBID] != NULL)
??ZDO_LeaveInd_3:
        MOV     DPTR,#zdoCBFunc + 12
        LCALL   ?Subroutine14 & 0xFFFF
??CrossCallReturnLabel_14:
        JZ      ??ZDO_LeaveInd_4
// 2615   {
// 2616     (void)zdoCBFunc[ZDO_LEAVE_IND_CBID](ind);
        ; Setup parameters for indirect call
        MOV     A,R6
        MOV     R2,A
        MOV     A,R7
        MOV     R3,A
        LCALL   ??Subroutine47_0 & 0xFFFF
// 2617   }
??CrossCallReturnLabel_73:
        LCALL   ?CALL_IND
// 2618 }
??ZDO_LeaveInd_4:
        LJMP    ??Subroutine41_0 & 0xFFFF
          CFI EndBlock cfiBlock145

        RSEG BANKED_CODE:CODE:NOROOT(0)
?Subroutine24:
          CFI Block cfiCond146 Using cfiCommon0
          CFI Function ZDO_LeaveCnf
          CFI Conditional ??CrossCallReturnLabel_26
          CFI R6 load(1, XDATA, add(CFA_XSP16, literal(-10)))
          CFI VB load(1, XDATA, add(CFA_XSP16, literal(-9)))
          CFI V0 load(1, XDATA, add(CFA_XSP16, literal(-8)))
          CFI V1 load(1, XDATA, add(CFA_XSP16, literal(-7)))
          CFI R7 load(1, XDATA, add(CFA_XSP16, literal(-6)))
          CFI ?RET_LOW load(1, XDATA, add(CFA_XSP16, literal(-5)))
          CFI ?RET_HIGH load(1, XDATA, add(CFA_XSP16, literal(-4)))
          CFI ?BRET_EXT load(1, XDATA, add(CFA_XSP16, literal(-3)))
          CFI DPL0 load(1, XDATA, add(CFA_XSP16, literal(-2)))
          CFI DPH0 load(1, XDATA, add(CFA_XSP16, literal(-1)))
          CFI CFA_SP SP+-2
          CFI CFA_XSP16 add(XSP16, 10)
          CFI Block cfiCond147 Using cfiCommon0
          CFI (cfiCond147) Function ZDO_LeaveInd
          CFI (cfiCond147) Conditional ??CrossCallReturnLabel_27
          CFI (cfiCond147) R6 load(1, XDATA, add(CFA_XSP16, literal(-10)))
          CFI (cfiCond147) VB load(1, XDATA, add(CFA_XSP16, literal(-9)))
          CFI (cfiCond147) V0 load(1, XDATA, add(CFA_XSP16, literal(-8)))
          CFI (cfiCond147) V1 load(1, XDATA, add(CFA_XSP16, literal(-7)))
          CFI (cfiCond147) R7 load(1, XDATA, add(CFA_XSP16, literal(-6)))
          CFI (cfiCond147) ?RET_LOW load(1, XDATA, add(CFA_XSP16, literal(-5)))
          CFI (cfiCond147) ?RET_HIGH load(1, XDATA, add(CFA_XSP16, literal(-4)))
          CFI (cfiCond147) ?BRET_EXT load(1, XDATA, add(CFA_XSP16, literal(-3)))
          CFI (cfiCond147) DPL0 load(1, XDATA, add(CFA_XSP16, literal(-2)))
          CFI (cfiCond147) DPH0 load(1, XDATA, add(CFA_XSP16, literal(-1)))
          CFI (cfiCond147) CFA_SP SP+-2
          CFI (cfiCond147) CFA_XSP16 add(XSP16, 10)
          CFI Block cfiPicker148 Using cfiCommon1
          CFI (cfiPicker148) NoFunction
          CFI (cfiPicker148) Picker
        LCALL   ?Subroutine32 & 0xFFFF
??CrossCallReturnLabel_40:
        MOV     R1,A
        RET
          CFI EndBlock cfiCond146
          CFI EndBlock cfiCond147
          CFI EndBlock cfiPicker148

        RSEG BANKED_CODE:CODE:NOROOT(0)
?Subroutine15:
          CFI Block cfiCond149 Using cfiCommon0
          CFI Function ZDO_AddrChangeIndicationCB
          CFI Conditional ??CrossCallReturnLabel_78
          CFI R6 load(1, XDATA, add(CFA_XSP16, literal(-12)))
          CFI VB load(1, XDATA, add(CFA_XSP16, literal(-11)))
          CFI V0 load(1, XDATA, add(CFA_XSP16, literal(-10)))
          CFI V1 load(1, XDATA, add(CFA_XSP16, literal(-9)))
          CFI V2 load(1, XDATA, add(CFA_XSP16, literal(-8)))
          CFI V3 load(1, XDATA, add(CFA_XSP16, literal(-7)))
          CFI R7 load(1, XDATA, add(CFA_XSP16, literal(-6)))
          CFI ?RET_LOW load(1, XDATA, add(CFA_XSP16, literal(-5)))
          CFI ?RET_HIGH load(1, XDATA, add(CFA_XSP16, literal(-4)))
          CFI ?BRET_EXT load(1, XDATA, add(CFA_XSP16, literal(-3)))
          CFI DPL0 load(1, XDATA, add(CFA_XSP16, literal(-2)))
          CFI DPH0 load(1, XDATA, add(CFA_XSP16, literal(-1)))
          CFI CFA_SP SP+-2
          CFI CFA_XSP16 add(XSP16, 12)
          CFI Block cfiCond150 Using cfiCommon0
          CFI (cfiCond150) Function ZDO_AddrChangeIndicationCB
          CFI (cfiCond150) Conditional ??CrossCallReturnLabel_79
          CFI (cfiCond150) R6 load(1, XDATA, add(CFA_XSP16, literal(-12)))
          CFI (cfiCond150) VB load(1, XDATA, add(CFA_XSP16, literal(-11)))
          CFI (cfiCond150) V0 load(1, XDATA, add(CFA_XSP16, literal(-10)))
          CFI (cfiCond150) V1 load(1, XDATA, add(CFA_XSP16, literal(-9)))
          CFI (cfiCond150) V2 load(1, XDATA, add(CFA_XSP16, literal(-8)))
          CFI (cfiCond150) V3 load(1, XDATA, add(CFA_XSP16, literal(-7)))
          CFI (cfiCond150) R7 load(1, XDATA, add(CFA_XSP16, literal(-6)))
          CFI (cfiCond150) ?RET_LOW load(1, XDATA, add(CFA_XSP16, literal(-5)))
          CFI (cfiCond150) ?RET_HIGH load(1, XDATA, add(CFA_XSP16, literal(-4)))
          CFI (cfiCond150) ?BRET_EXT load(1, XDATA, add(CFA_XSP16, literal(-3)))
          CFI (cfiCond150) DPL0 load(1, XDATA, add(CFA_XSP16, literal(-2)))
          CFI (cfiCond150) DPH0 load(1, XDATA, add(CFA_XSP16, literal(-1)))
          CFI (cfiCond150) CFA_SP SP+-2
          CFI (cfiCond150) CFA_XSP16 add(XSP16, 12)
          CFI Block cfiPicker151 Using cfiCommon1
          CFI (cfiPicker151) NoFunction
          CFI (cfiPicker151) Picker
        MOV     DPL,R6
        MOV     DPH,R7
        INC     DPTR
          CFI EndBlock cfiCond149
          CFI EndBlock cfiCond150
          CFI EndBlock cfiPicker151
        REQUIRE ??Subroutine45_0
        ; // Fall through to label ??Subroutine45_0

        RSEG BANKED_CODE:CODE:NOROOT(0)
??Subroutine45_0:
          CFI Block cfiCond152 Using cfiCommon0
          CFI Function ZDO_AddrChangeIndicationCB
          CFI Conditional ??CrossCallReturnLabel_77
          CFI R6 load(1, XDATA, add(CFA_XSP16, literal(-12)))
          CFI VB load(1, XDATA, add(CFA_XSP16, literal(-11)))
          CFI V0 load(1, XDATA, add(CFA_XSP16, literal(-10)))
          CFI V1 load(1, XDATA, add(CFA_XSP16, literal(-9)))
          CFI V2 load(1, XDATA, add(CFA_XSP16, literal(-8)))
          CFI V3 load(1, XDATA, add(CFA_XSP16, literal(-7)))
          CFI R7 load(1, XDATA, add(CFA_XSP16, literal(-6)))
          CFI ?RET_LOW load(1, XDATA, add(CFA_XSP16, literal(-5)))
          CFI ?RET_HIGH load(1, XDATA, add(CFA_XSP16, literal(-4)))
          CFI ?BRET_EXT load(1, XDATA, add(CFA_XSP16, literal(-3)))
          CFI DPL0 load(1, XDATA, add(CFA_XSP16, literal(-2)))
          CFI DPH0 load(1, XDATA, add(CFA_XSP16, literal(-1)))
          CFI CFA_SP SP+-2
          CFI CFA_XSP16 add(XSP16, 12)
          CFI Block cfiCond153 Using cfiCommon0
          CFI (cfiCond153) Function ZDO_AddrChangeIndicationCB
          CFI (cfiCond153) Conditional ??CrossCallReturnLabel_78
          CFI (cfiCond153) R6 load(1, XDATA, add(CFA_XSP16, literal(-12)))
          CFI (cfiCond153) VB load(1, XDATA, add(CFA_XSP16, literal(-11)))
          CFI (cfiCond153) V0 load(1, XDATA, add(CFA_XSP16, literal(-10)))
          CFI (cfiCond153) V1 load(1, XDATA, add(CFA_XSP16, literal(-9)))
          CFI (cfiCond153) V2 load(1, XDATA, add(CFA_XSP16, literal(-8)))
          CFI (cfiCond153) V3 load(1, XDATA, add(CFA_XSP16, literal(-7)))
          CFI (cfiCond153) R7 load(1, XDATA, add(CFA_XSP16, literal(-6)))
          CFI (cfiCond153) ?RET_LOW load(1, XDATA, add(CFA_XSP16, literal(-5)))
          CFI (cfiCond153) ?RET_HIGH load(1, XDATA, add(CFA_XSP16, literal(-4)))
          CFI (cfiCond153) ?BRET_EXT load(1, XDATA, add(CFA_XSP16, literal(-3)))
          CFI (cfiCond153) DPL0 load(1, XDATA, add(CFA_XSP16, literal(-2)))
          CFI (cfiCond153) DPH0 load(1, XDATA, add(CFA_XSP16, literal(-1)))
          CFI (cfiCond153) CFA_SP SP+-2
          CFI (cfiCond153) CFA_XSP16 add(XSP16, 12)
          CFI Block cfiCond154 Using cfiCommon0
          CFI (cfiCond154) Function ZDO_AddrChangeIndicationCB
          CFI (cfiCond154) Conditional ??CrossCallReturnLabel_79
          CFI (cfiCond154) R6 load(1, XDATA, add(CFA_XSP16, literal(-12)))
          CFI (cfiCond154) VB load(1, XDATA, add(CFA_XSP16, literal(-11)))
          CFI (cfiCond154) V0 load(1, XDATA, add(CFA_XSP16, literal(-10)))
          CFI (cfiCond154) V1 load(1, XDATA, add(CFA_XSP16, literal(-9)))
          CFI (cfiCond154) V2 load(1, XDATA, add(CFA_XSP16, literal(-8)))
          CFI (cfiCond154) V3 load(1, XDATA, add(CFA_XSP16, literal(-7)))
          CFI (cfiCond154) R7 load(1, XDATA, add(CFA_XSP16, literal(-6)))
          CFI (cfiCond154) ?RET_LOW load(1, XDATA, add(CFA_XSP16, literal(-5)))
          CFI (cfiCond154) ?RET_HIGH load(1, XDATA, add(CFA_XSP16, literal(-4)))
          CFI (cfiCond154) ?BRET_EXT load(1, XDATA, add(CFA_XSP16, literal(-3)))
          CFI (cfiCond154) DPL0 load(1, XDATA, add(CFA_XSP16, literal(-2)))
          CFI (cfiCond154) DPH0 load(1, XDATA, add(CFA_XSP16, literal(-1)))
          CFI (cfiCond154) CFA_SP SP+-2
          CFI (cfiCond154) CFA_XSP16 add(XSP16, 12)
          CFI Block cfiPicker155 Using cfiCommon1
          CFI (cfiPicker155) NoFunction
          CFI (cfiPicker155) Picker
        INC     DPTR
          CFI EndBlock cfiCond152
          CFI EndBlock cfiCond153
          CFI EndBlock cfiCond154
          CFI EndBlock cfiPicker155
        REQUIRE ??Subroutine46_0
        ; // Fall through to label ??Subroutine46_0

        RSEG BANKED_CODE:CODE:NOROOT(0)
??Subroutine46_0:
          CFI Block cfiCond156 Using cfiCommon0
          CFI Function ZDApp_LeaveUpdate
          CFI Conditional ??CrossCallReturnLabel_75
          CFI R6 load(1, XDATA, add(CFA_XSP16, literal(-11)))
          CFI VB load(1, XDATA, add(CFA_XSP16, literal(-10)))
          CFI V0 load(1, XDATA, add(CFA_XSP16, literal(-9)))
          CFI V1 load(1, XDATA, add(CFA_XSP16, literal(-8)))
          CFI V2 load(1, XDATA, add(CFA_XSP16, literal(-7)))
          CFI R7 load(1, XDATA, add(CFA_XSP16, literal(-6)))
          CFI ?RET_LOW load(1, XDATA, add(CFA_XSP16, literal(-5)))
          CFI ?RET_HIGH load(1, XDATA, add(CFA_XSP16, literal(-4)))
          CFI ?BRET_EXT load(1, XDATA, add(CFA_XSP16, literal(-3)))
          CFI DPL0 load(1, XDATA, add(CFA_XSP16, literal(-2)))
          CFI DPH0 load(1, XDATA, add(CFA_XSP16, literal(-1)))
          CFI CFA_SP SP+-2
          CFI CFA_XSP16 add(XSP16, 20)
          CFI Block cfiCond157 Using cfiCommon0
          CFI (cfiCond157) Function ZDO_JoinConfirmCB
          CFI (cfiCond157) Conditional ??CrossCallReturnLabel_76
          CFI (cfiCond157) R6 load(1, XDATA, add(CFA_XSP16, literal(-9)))
          CFI (cfiCond157) VB load(1, XDATA, add(CFA_XSP16, literal(-8)))
          CFI (cfiCond157) V0 load(1, XDATA, add(CFA_XSP16, literal(-7)))
          CFI (cfiCond157) R7 load(1, XDATA, add(CFA_XSP16, literal(-6)))
          CFI (cfiCond157) ?RET_LOW load(1, XDATA, add(CFA_XSP16, literal(-5)))
          CFI (cfiCond157) ?RET_HIGH load(1, XDATA, add(CFA_XSP16, literal(-4)))
          CFI (cfiCond157) ?BRET_EXT load(1, XDATA, add(CFA_XSP16, literal(-3)))
          CFI (cfiCond157) DPL0 load(1, XDATA, add(CFA_XSP16, literal(-2)))
          CFI (cfiCond157) DPH0 load(1, XDATA, add(CFA_XSP16, literal(-1)))
          CFI (cfiCond157) CFA_SP SP+-2
          CFI (cfiCond157) CFA_XSP16 add(XSP16, 14)
          CFI Block cfiCond158 Using cfiCommon0
          CFI (cfiCond158) Function ZDO_AddrChangeIndicationCB
          CFI (cfiCond158) Conditional ??CrossCallReturnLabel_77
          CFI (cfiCond158) R6 load(1, XDATA, add(CFA_XSP16, literal(-12)))
          CFI (cfiCond158) VB load(1, XDATA, add(CFA_XSP16, literal(-11)))
          CFI (cfiCond158) V0 load(1, XDATA, add(CFA_XSP16, literal(-10)))
          CFI (cfiCond158) V1 load(1, XDATA, add(CFA_XSP16, literal(-9)))
          CFI (cfiCond158) V2 load(1, XDATA, add(CFA_XSP16, literal(-8)))
          CFI (cfiCond158) V3 load(1, XDATA, add(CFA_XSP16, literal(-7)))
          CFI (cfiCond158) R7 load(1, XDATA, add(CFA_XSP16, literal(-6)))
          CFI (cfiCond158) ?RET_LOW load(1, XDATA, add(CFA_XSP16, literal(-5)))
          CFI (cfiCond158) ?RET_HIGH load(1, XDATA, add(CFA_XSP16, literal(-4)))
          CFI (cfiCond158) ?BRET_EXT load(1, XDATA, add(CFA_XSP16, literal(-3)))
          CFI (cfiCond158) DPL0 load(1, XDATA, add(CFA_XSP16, literal(-2)))
          CFI (cfiCond158) DPH0 load(1, XDATA, add(CFA_XSP16, literal(-1)))
          CFI (cfiCond158) CFA_SP SP+-2
          CFI (cfiCond158) CFA_XSP16 add(XSP16, 12)
          CFI Block cfiCond159 Using cfiCommon0
          CFI (cfiCond159) Function ZDO_AddrChangeIndicationCB
          CFI (cfiCond159) Conditional ??CrossCallReturnLabel_78
          CFI (cfiCond159) R6 load(1, XDATA, add(CFA_XSP16, literal(-12)))
          CFI (cfiCond159) VB load(1, XDATA, add(CFA_XSP16, literal(-11)))
          CFI (cfiCond159) V0 load(1, XDATA, add(CFA_XSP16, literal(-10)))
          CFI (cfiCond159) V1 load(1, XDATA, add(CFA_XSP16, literal(-9)))
          CFI (cfiCond159) V2 load(1, XDATA, add(CFA_XSP16, literal(-8)))
          CFI (cfiCond159) V3 load(1, XDATA, add(CFA_XSP16, literal(-7)))
          CFI (cfiCond159) R7 load(1, XDATA, add(CFA_XSP16, literal(-6)))
          CFI (cfiCond159) ?RET_LOW load(1, XDATA, add(CFA_XSP16, literal(-5)))
          CFI (cfiCond159) ?RET_HIGH load(1, XDATA, add(CFA_XSP16, literal(-4)))
          CFI (cfiCond159) ?BRET_EXT load(1, XDATA, add(CFA_XSP16, literal(-3)))
          CFI (cfiCond159) DPL0 load(1, XDATA, add(CFA_XSP16, literal(-2)))
          CFI (cfiCond159) DPH0 load(1, XDATA, add(CFA_XSP16, literal(-1)))
          CFI (cfiCond159) CFA_SP SP+-2
          CFI (cfiCond159) CFA_XSP16 add(XSP16, 12)
          CFI Block cfiCond160 Using cfiCommon0
          CFI (cfiCond160) Function ZDO_AddrChangeIndicationCB
          CFI (cfiCond160) Conditional ??CrossCallReturnLabel_79
          CFI (cfiCond160) R6 load(1, XDATA, add(CFA_XSP16, literal(-12)))
          CFI (cfiCond160) VB load(1, XDATA, add(CFA_XSP16, literal(-11)))
          CFI (cfiCond160) V0 load(1, XDATA, add(CFA_XSP16, literal(-10)))
          CFI (cfiCond160) V1 load(1, XDATA, add(CFA_XSP16, literal(-9)))
          CFI (cfiCond160) V2 load(1, XDATA, add(CFA_XSP16, literal(-8)))
          CFI (cfiCond160) V3 load(1, XDATA, add(CFA_XSP16, literal(-7)))
          CFI (cfiCond160) R7 load(1, XDATA, add(CFA_XSP16, literal(-6)))
          CFI (cfiCond160) ?RET_LOW load(1, XDATA, add(CFA_XSP16, literal(-5)))
          CFI (cfiCond160) ?RET_HIGH load(1, XDATA, add(CFA_XSP16, literal(-4)))
          CFI (cfiCond160) ?BRET_EXT load(1, XDATA, add(CFA_XSP16, literal(-3)))
          CFI (cfiCond160) DPL0 load(1, XDATA, add(CFA_XSP16, literal(-2)))
          CFI (cfiCond160) DPH0 load(1, XDATA, add(CFA_XSP16, literal(-1)))
          CFI (cfiCond160) CFA_SP SP+-2
          CFI (cfiCond160) CFA_XSP16 add(XSP16, 12)
          CFI Block cfiPicker161 Using cfiCommon1
          CFI (cfiPicker161) NoFunction
          CFI (cfiPicker161) Picker
        MOVX    A,@DPTR
        MOV     R0,A
        INC     DPTR
          CFI EndBlock cfiCond156
          CFI EndBlock cfiCond157
          CFI EndBlock cfiCond158
          CFI EndBlock cfiCond159
          CFI EndBlock cfiCond160
          CFI EndBlock cfiPicker161
        REQUIRE ??Subroutine47_0
        ; // Fall through to label ??Subroutine47_0

        RSEG BANKED_CODE:CODE:NOROOT(0)
??Subroutine47_0:
          CFI Block cfiCond162 Using cfiCommon0
          CFI Function ZDO_NetworkDiscoveryConfirmCB
          CFI Conditional ??CrossCallReturnLabel_69
          CFI DPL0 Frame(CFA_SP, 4)
          CFI DPH0 Frame(CFA_SP, 5)
          CFI CFA_SP SP+-7
          CFI CFA_XSP16 add(XSP16, 3)
          CFI Block cfiCond163 Using cfiCommon0
          CFI (cfiCond163) Function ZDO_beaconNotifyIndCB
          CFI (cfiCond163) Conditional ??CrossCallReturnLabel_70
          CFI (cfiCond163) R6 load(1, XDATA, add(CFA_XSP16, literal(-14)))
          CFI (cfiCond163) VB load(1, XDATA, add(CFA_XSP16, literal(-13)))
          CFI (cfiCond163) V0 load(1, XDATA, add(CFA_XSP16, literal(-12)))
          CFI (cfiCond163) V1 load(1, XDATA, add(CFA_XSP16, literal(-11)))
          CFI (cfiCond163) V2 load(1, XDATA, add(CFA_XSP16, literal(-10)))
          CFI (cfiCond163) V3 load(1, XDATA, add(CFA_XSP16, literal(-9)))
          CFI (cfiCond163) V4 load(1, XDATA, add(CFA_XSP16, literal(-8)))
          CFI (cfiCond163) V5 load(1, XDATA, add(CFA_XSP16, literal(-7)))
          CFI (cfiCond163) R7 load(1, XDATA, add(CFA_XSP16, literal(-6)))
          CFI (cfiCond163) ?RET_LOW load(1, XDATA, add(CFA_XSP16, literal(-5)))
          CFI (cfiCond163) ?RET_HIGH load(1, XDATA, add(CFA_XSP16, literal(-4)))
          CFI (cfiCond163) ?BRET_EXT load(1, XDATA, add(CFA_XSP16, literal(-3)))
          CFI (cfiCond163) DPL0 load(1, XDATA, add(CFA_XSP16, literal(-2)))
          CFI (cfiCond163) DPH0 load(1, XDATA, add(CFA_XSP16, literal(-1)))
          CFI (cfiCond163) CFA_SP SP+-2
          CFI (cfiCond163) CFA_XSP16 add(XSP16, 14)
          CFI Block cfiCond164 Using cfiCommon0
          CFI (cfiCond164) Function ZDO_ConcentratorIndicationCB
          CFI (cfiCond164) Conditional ??CrossCallReturnLabel_71
          CFI (cfiCond164) R6 load(1, XDATA, add(CFA_XSP16, literal(-9)))
          CFI (cfiCond164) VB load(1, XDATA, add(CFA_XSP16, literal(-8)))
          CFI (cfiCond164) V0 load(1, XDATA, add(CFA_XSP16, literal(-7)))
          CFI (cfiCond164) R7 load(1, XDATA, add(CFA_XSP16, literal(-6)))
          CFI (cfiCond164) ?RET_LOW load(1, XDATA, add(CFA_XSP16, literal(-5)))
          CFI (cfiCond164) ?RET_HIGH load(1, XDATA, add(CFA_XSP16, literal(-4)))
          CFI (cfiCond164) ?BRET_EXT load(1, XDATA, add(CFA_XSP16, literal(-3)))
          CFI (cfiCond164) DPL0 load(1, XDATA, add(CFA_XSP16, literal(-2)))
          CFI (cfiCond164) DPH0 load(1, XDATA, add(CFA_XSP16, literal(-1)))
          CFI (cfiCond164) CFA_SP SP+-2
          CFI (cfiCond164) CFA_XSP16 add(XSP16, 14)
          CFI Block cfiCond165 Using cfiCommon0
          CFI (cfiCond165) Function ZDO_LeaveCnf
          CFI (cfiCond165) Conditional ??CrossCallReturnLabel_72
          CFI (cfiCond165) R6 load(1, XDATA, add(CFA_XSP16, literal(-10)))
          CFI (cfiCond165) VB load(1, XDATA, add(CFA_XSP16, literal(-9)))
          CFI (cfiCond165) V0 load(1, XDATA, add(CFA_XSP16, literal(-8)))
          CFI (cfiCond165) V1 load(1, XDATA, add(CFA_XSP16, literal(-7)))
          CFI (cfiCond165) R7 load(1, XDATA, add(CFA_XSP16, literal(-6)))
          CFI (cfiCond165) ?RET_LOW load(1, XDATA, add(CFA_XSP16, literal(-5)))
          CFI (cfiCond165) ?RET_HIGH load(1, XDATA, add(CFA_XSP16, literal(-4)))
          CFI (cfiCond165) ?BRET_EXT load(1, XDATA, add(CFA_XSP16, literal(-3)))
          CFI (cfiCond165) DPL0 load(1, XDATA, add(CFA_XSP16, literal(-2)))
          CFI (cfiCond165) DPH0 load(1, XDATA, add(CFA_XSP16, literal(-1)))
          CFI (cfiCond165) CFA_SP SP+-2
          CFI (cfiCond165) CFA_XSP16 add(XSP16, 10)
          CFI Block cfiCond166 Using cfiCommon0
          CFI (cfiCond166) Function ZDO_LeaveInd
          CFI (cfiCond166) Conditional ??CrossCallReturnLabel_73
          CFI (cfiCond166) R6 load(1, XDATA, add(CFA_XSP16, literal(-10)))
          CFI (cfiCond166) VB load(1, XDATA, add(CFA_XSP16, literal(-9)))
          CFI (cfiCond166) V0 load(1, XDATA, add(CFA_XSP16, literal(-8)))
          CFI (cfiCond166) V1 load(1, XDATA, add(CFA_XSP16, literal(-7)))
          CFI (cfiCond166) R7 load(1, XDATA, add(CFA_XSP16, literal(-6)))
          CFI (cfiCond166) ?RET_LOW load(1, XDATA, add(CFA_XSP16, literal(-5)))
          CFI (cfiCond166) ?RET_HIGH load(1, XDATA, add(CFA_XSP16, literal(-4)))
          CFI (cfiCond166) ?BRET_EXT load(1, XDATA, add(CFA_XSP16, literal(-3)))
          CFI (cfiCond166) DPL0 load(1, XDATA, add(CFA_XSP16, literal(-2)))
          CFI (cfiCond166) DPH0 load(1, XDATA, add(CFA_XSP16, literal(-1)))
          CFI (cfiCond166) CFA_SP SP+-2
          CFI (cfiCond166) CFA_XSP16 add(XSP16, 10)
          CFI Block cfiCond167 Using cfiCommon0
          CFI (cfiCond167) Function ZDO_SrcRtgIndCB
          CFI (cfiCond167) Conditional ??CrossCallReturnLabel_74
          CFI (cfiCond167) R6 load(1, XDATA, add(CFA_XSP16, literal(-9)))
          CFI (cfiCond167) VB load(1, XDATA, add(CFA_XSP16, literal(-8)))
          CFI (cfiCond167) V0 load(1, XDATA, add(CFA_XSP16, literal(-7)))
          CFI (cfiCond167) R7 load(1, XDATA, add(CFA_XSP16, literal(-6)))
          CFI (cfiCond167) ?RET_LOW load(1, XDATA, add(CFA_XSP16, literal(-5)))
          CFI (cfiCond167) ?RET_HIGH load(1, XDATA, add(CFA_XSP16, literal(-4)))
          CFI (cfiCond167) ?BRET_EXT load(1, XDATA, add(CFA_XSP16, literal(-3)))
          CFI (cfiCond167) DPL0 load(1, XDATA, add(CFA_XSP16, literal(-2)))
          CFI (cfiCond167) DPH0 load(1, XDATA, add(CFA_XSP16, literal(-1)))
          CFI (cfiCond167) CFA_SP SP+-2
          CFI (cfiCond167) CFA_XSP16 add(XSP16, 14)
          CFI Block cfiCond168 Using cfiCommon0
          CFI (cfiCond168) Function ZDApp_LeaveUpdate
          CFI (cfiCond168) Conditional ??CrossCallReturnLabel_75
          CFI (cfiCond168) R6 load(1, XDATA, add(CFA_XSP16, literal(-11)))
          CFI (cfiCond168) VB load(1, XDATA, add(CFA_XSP16, literal(-10)))
          CFI (cfiCond168) V0 load(1, XDATA, add(CFA_XSP16, literal(-9)))
          CFI (cfiCond168) V1 load(1, XDATA, add(CFA_XSP16, literal(-8)))
          CFI (cfiCond168) V2 load(1, XDATA, add(CFA_XSP16, literal(-7)))
          CFI (cfiCond168) R7 load(1, XDATA, add(CFA_XSP16, literal(-6)))
          CFI (cfiCond168) ?RET_LOW load(1, XDATA, add(CFA_XSP16, literal(-5)))
          CFI (cfiCond168) ?RET_HIGH load(1, XDATA, add(CFA_XSP16, literal(-4)))
          CFI (cfiCond168) ?BRET_EXT load(1, XDATA, add(CFA_XSP16, literal(-3)))
          CFI (cfiCond168) DPL0 load(1, XDATA, add(CFA_XSP16, literal(-2)))
          CFI (cfiCond168) DPH0 load(1, XDATA, add(CFA_XSP16, literal(-1)))
          CFI (cfiCond168) CFA_SP SP+-2
          CFI (cfiCond168) CFA_XSP16 add(XSP16, 20)
          CFI Block cfiCond169 Using cfiCommon0
          CFI (cfiCond169) Function ZDO_JoinConfirmCB
          CFI (cfiCond169) Conditional ??CrossCallReturnLabel_76
          CFI (cfiCond169) R6 load(1, XDATA, add(CFA_XSP16, literal(-9)))
          CFI (cfiCond169) VB load(1, XDATA, add(CFA_XSP16, literal(-8)))
          CFI (cfiCond169) V0 load(1, XDATA, add(CFA_XSP16, literal(-7)))
          CFI (cfiCond169) R7 load(1, XDATA, add(CFA_XSP16, literal(-6)))
          CFI (cfiCond169) ?RET_LOW load(1, XDATA, add(CFA_XSP16, literal(-5)))
          CFI (cfiCond169) ?RET_HIGH load(1, XDATA, add(CFA_XSP16, literal(-4)))
          CFI (cfiCond169) ?BRET_EXT load(1, XDATA, add(CFA_XSP16, literal(-3)))
          CFI (cfiCond169) DPL0 load(1, XDATA, add(CFA_XSP16, literal(-2)))
          CFI (cfiCond169) DPH0 load(1, XDATA, add(CFA_XSP16, literal(-1)))
          CFI (cfiCond169) CFA_SP SP+-2
          CFI (cfiCond169) CFA_XSP16 add(XSP16, 14)
          CFI Block cfiCond170 Using cfiCommon0
          CFI (cfiCond170) Function ZDO_AddrChangeIndicationCB
          CFI (cfiCond170) Conditional ??CrossCallReturnLabel_77
          CFI (cfiCond170) R6 load(1, XDATA, add(CFA_XSP16, literal(-12)))
          CFI (cfiCond170) VB load(1, XDATA, add(CFA_XSP16, literal(-11)))
          CFI (cfiCond170) V0 load(1, XDATA, add(CFA_XSP16, literal(-10)))
          CFI (cfiCond170) V1 load(1, XDATA, add(CFA_XSP16, literal(-9)))
          CFI (cfiCond170) V2 load(1, XDATA, add(CFA_XSP16, literal(-8)))
          CFI (cfiCond170) V3 load(1, XDATA, add(CFA_XSP16, literal(-7)))
          CFI (cfiCond170) R7 load(1, XDATA, add(CFA_XSP16, literal(-6)))
          CFI (cfiCond170) ?RET_LOW load(1, XDATA, add(CFA_XSP16, literal(-5)))
          CFI (cfiCond170) ?RET_HIGH load(1, XDATA, add(CFA_XSP16, literal(-4)))
          CFI (cfiCond170) ?BRET_EXT load(1, XDATA, add(CFA_XSP16, literal(-3)))
          CFI (cfiCond170) DPL0 load(1, XDATA, add(CFA_XSP16, literal(-2)))
          CFI (cfiCond170) DPH0 load(1, XDATA, add(CFA_XSP16, literal(-1)))
          CFI (cfiCond170) CFA_SP SP+-2
          CFI (cfiCond170) CFA_XSP16 add(XSP16, 12)
          CFI Block cfiCond171 Using cfiCommon0
          CFI (cfiCond171) Function ZDO_AddrChangeIndicationCB
          CFI (cfiCond171) Conditional ??CrossCallReturnLabel_78
          CFI (cfiCond171) R6 load(1, XDATA, add(CFA_XSP16, literal(-12)))
          CFI (cfiCond171) VB load(1, XDATA, add(CFA_XSP16, literal(-11)))
          CFI (cfiCond171) V0 load(1, XDATA, add(CFA_XSP16, literal(-10)))
          CFI (cfiCond171) V1 load(1, XDATA, add(CFA_XSP16, literal(-9)))
          CFI (cfiCond171) V2 load(1, XDATA, add(CFA_XSP16, literal(-8)))
          CFI (cfiCond171) V3 load(1, XDATA, add(CFA_XSP16, literal(-7)))
          CFI (cfiCond171) R7 load(1, XDATA, add(CFA_XSP16, literal(-6)))
          CFI (cfiCond171) ?RET_LOW load(1, XDATA, add(CFA_XSP16, literal(-5)))
          CFI (cfiCond171) ?RET_HIGH load(1, XDATA, add(CFA_XSP16, literal(-4)))
          CFI (cfiCond171) ?BRET_EXT load(1, XDATA, add(CFA_XSP16, literal(-3)))
          CFI (cfiCond171) DPL0 load(1, XDATA, add(CFA_XSP16, literal(-2)))
          CFI (cfiCond171) DPH0 load(1, XDATA, add(CFA_XSP16, literal(-1)))
          CFI (cfiCond171) CFA_SP SP+-2
          CFI (cfiCond171) CFA_XSP16 add(XSP16, 12)
          CFI Block cfiCond172 Using cfiCommon0
          CFI (cfiCond172) Function ZDO_AddrChangeIndicationCB
          CFI (cfiCond172) Conditional ??CrossCallReturnLabel_79
          CFI (cfiCond172) R6 load(1, XDATA, add(CFA_XSP16, literal(-12)))
          CFI (cfiCond172) VB load(1, XDATA, add(CFA_XSP16, literal(-11)))
          CFI (cfiCond172) V0 load(1, XDATA, add(CFA_XSP16, literal(-10)))
          CFI (cfiCond172) V1 load(1, XDATA, add(CFA_XSP16, literal(-9)))
          CFI (cfiCond172) V2 load(1, XDATA, add(CFA_XSP16, literal(-8)))
          CFI (cfiCond172) V3 load(1, XDATA, add(CFA_XSP16, literal(-7)))
          CFI (cfiCond172) R7 load(1, XDATA, add(CFA_XSP16, literal(-6)))
          CFI (cfiCond172) ?RET_LOW load(1, XDATA, add(CFA_XSP16, literal(-5)))
          CFI (cfiCond172) ?RET_HIGH load(1, XDATA, add(CFA_XSP16, literal(-4)))
          CFI (cfiCond172) ?BRET_EXT load(1, XDATA, add(CFA_XSP16, literal(-3)))
          CFI (cfiCond172) DPL0 load(1, XDATA, add(CFA_XSP16, literal(-2)))
          CFI (cfiCond172) DPH0 load(1, XDATA, add(CFA_XSP16, literal(-1)))
          CFI (cfiCond172) CFA_SP SP+-2
          CFI (cfiCond172) CFA_XSP16 add(XSP16, 12)
          CFI Block cfiPicker173 Using cfiCommon1
          CFI (cfiPicker173) NoFunction
          CFI (cfiPicker173) Picker
        MOVX    A,@DPTR
        MOV     DPH,A
        MOV     DPL,R0
        RET
          CFI EndBlock cfiCond162
          CFI EndBlock cfiCond163
          CFI EndBlock cfiCond164
          CFI EndBlock cfiCond165
          CFI EndBlock cfiCond166
          CFI EndBlock cfiCond167
          CFI EndBlock cfiCond168
          CFI EndBlock cfiCond169
          CFI EndBlock cfiCond170
          CFI EndBlock cfiCond171
          CFI EndBlock cfiCond172
          CFI EndBlock cfiPicker173
// 2619 
// 2620 /*********************************************************************
// 2621  * @fn          ZDO_SyncIndicationCB
// 2622  *
// 2623  * @brief       This function allows the next higher layer of a
// 2624  *              coordinator to be notified of a loss of synchronization
// 2625  *                          with the parent/child device.
// 2626  *
// 2627  * @param       type: 0 - child; 1 - parent
// 2628  *
// 2629  *
// 2630  * @return      none
// 2631  */

        RSEG BANKED_CODE:CODE:NOROOT(0)
// 2632 void ZDO_SyncIndicationCB( uint8 type, uint16 shortAddr )
ZDO_SyncIndicationCB:
          CFI Block cfiBlock174 Using cfiCommon0
          CFI Function ZDO_SyncIndicationCB
        CODE
// 2633 {
        FUNCALL ZDO_SyncIndicationCB, nwkNeighborInitTable
        LOCFRAME ISTACK, 0, STACK
        LOCFRAME PSTACK, 0, STACK
        LOCFRAME XSTACK, 9, STACK
        LOCFRAME IOVERLAY, 0, STATIC
        LOCFRAME DOVERLAY, 0, STATIC
        ARGFRAME ISTACK, 0, STACK
        ARGFRAME PSTACK, 0, STACK
        ARGFRAME XSTACK, 9, STACK
        ARGFRAME IOVERLAY, 0, STATIC
        ARGFRAME DOVERLAY, 0, STATIC
        FUNCALL ZDO_SyncIndicationCB, ZDApp_SendMsg
        LOCFRAME ISTACK, 0, STACK
        LOCFRAME PSTACK, 0, STACK
        LOCFRAME XSTACK, 9, STACK
        LOCFRAME IOVERLAY, 0, STATIC
        LOCFRAME DOVERLAY, 0, STATIC
        ARGFRAME ISTACK, 0, STACK
        ARGFRAME PSTACK, 0, STACK
        ARGFRAME XSTACK, 9, STACK
        ARGFRAME IOVERLAY, 0, STATIC
        ARGFRAME DOVERLAY, 0, STATIC
        MOV     A,#-0x9
        LCALL   ?BANKED_ENTER_XDATA
          CFI DPH0 load(1, XDATA, add(CFA_XSP16, literal(-1)))
          CFI DPL0 load(1, XDATA, add(CFA_XSP16, literal(-2)))
          CFI ?BRET_EXT load(1, XDATA, add(CFA_XSP16, literal(-3)))
          CFI ?RET_HIGH load(1, XDATA, add(CFA_XSP16, literal(-4)))
          CFI ?RET_LOW load(1, XDATA, add(CFA_XSP16, literal(-5)))
          CFI R7 load(1, XDATA, add(CFA_XSP16, literal(-6)))
          CFI V0 load(1, XDATA, add(CFA_XSP16, literal(-7)))
          CFI VB load(1, XDATA, add(CFA_XSP16, literal(-8)))
          CFI R6 load(1, XDATA, add(CFA_XSP16, literal(-9)))
          CFI CFA_SP SP+0
          CFI CFA_XSP16 add(XSP16, 9)
        ; Saved register size: 9
        ; Auto size: 0
        MOV     A,R1
        MOV     R6,A
// 2634   (void)shortAddr;  // Remove this line if this parameter is used.
// 2635 
// 2636   if ( ZSTACK_END_DEVICE_BUILD
// 2637     || (ZSTACK_ROUTER_BUILD && ((_NIB.CapabilityFlags & ZMAC_ASSOC_CAPINFO_FFD_TYPE) == 0)))
// 2638   {
// 2639     if ( type == 1 )
        MOV     A,#0x1
        XRL     A,R6
        JNZ     ??ZDO_SyncIndicationCB_0
// 2640     {
// 2641       // We lost contact with our parent.  Clear the neighbor Table.
// 2642       nwkNeighborInitTable();
        ; Setup parameters for call to function nwkNeighborInitTable
        LCALL   ??nwkNeighborInitTable?relay; Banked call to: nwkNeighborInitTable
// 2643 
// 2644       // Start the rejoin process.
// 2645       ZDApp_SendMsg( ZDAppTaskID, ZDO_NWK_JOIN_REQ, sizeof(osal_event_hdr_t), NULL );
        ; Setup parameters for call to function ZDApp_SendMsg
        MOV     R4,#0x0
        MOV     R5,#0x0
        MOV     R3,#0x2
        MOV     R2,#0x3
        MOV     DPTR,#ZDAppTaskID
        MOVX    A,@DPTR
        MOV     R1,A
        LCALL   ??ZDApp_SendMsg?relay; Banked call to: ZDApp_SendMsg
// 2646     }
// 2647   }
// 2648 }
??ZDO_SyncIndicationCB_0:
        LJMP    ??Subroutine42_0 & 0xFFFF
          CFI EndBlock cfiBlock174
// 2649 
// 2650 /*********************************************************************
// 2651  * @fn          ZDO_ManytoOneFailureIndicationCB
// 2652  *
// 2653  * @brief       This function allows the next higher layer of a
// 2654  *              concentrator to be notified of a many-to-one route
// 2655  *              failure.
// 2656  *
// 2657  * @param       none
// 2658  *
// 2659  *
// 2660  * @return      none
// 2661  */

        RSEG BANKED_CODE:CODE:NOROOT(0)
// 2662 void ZDO_ManytoOneFailureIndicationCB()
ZDO_ManytoOneFailureIndicationCB:
          CFI Block cfiBlock175 Using cfiCommon0
          CFI Function ZDO_ManytoOneFailureIndicationCB
        CODE
// 2663 {
        FUNCALL ZDO_ManytoOneFailureIndicationCB, RTG_MTORouteReq
        LOCFRAME ISTACK, 2, STACK
        LOCFRAME PSTACK, 0, STACK
        LOCFRAME XSTACK, 0, STACK
        LOCFRAME IOVERLAY, 0, STATIC
        LOCFRAME DOVERLAY, 0, STATIC
        ARGFRAME ISTACK, 2, STACK
        ARGFRAME PSTACK, 0, STACK
        ARGFRAME XSTACK, 0, STACK
        ARGFRAME IOVERLAY, 0, STATIC
        ARGFRAME DOVERLAY, 0, STATIC
        PUSH    DPL
          CFI DPL0 Frame(CFA_SP, 4)
          CFI CFA_SP SP+-4
        PUSH    DPH
          CFI DPH0 Frame(CFA_SP, 5)
          CFI CFA_SP SP+-5
        ; Saved register size: 2
        ; Auto size: 0
// 2664   // By default, the concentrator automatically redo many-to-one route
// 2665   // discovery to update all many-to-one routes in the network
// 2666   // If you want anything processing other than the default,
// 2667   // please replace the following code.
// 2668 
// 2669   RTG_MTORouteReq();
        ; Setup parameters for call to function RTG_MTORouteReq
        LCALL   ??RTG_MTORouteReq?relay; Banked call to: RTG_MTORouteReq
// 2670 }
        LJMP    ?Subroutine3 & 0xFFFF
          CFI EndBlock cfiBlock175
// 2671 
// 2672 /*********************************************************************
// 2673  * @fn          ZDO_PollConfirmCB
// 2674  *
// 2675  * @brief       This function allows the next higher layer to be
// 2676  *              notified of a Poll Confirm.
// 2677  *
// 2678  * @param       none
// 2679  *
// 2680  * @return      none
// 2681  */

        RSEG BANKED_CODE:CODE:NOROOT(0)
// 2682 void ZDO_PollConfirmCB( uint8 status )
ZDO_PollConfirmCB:
          CFI Block cfiBlock176 Using cfiCommon0
          CFI Function ZDO_PollConfirmCB
        CODE
// 2683 {
        ; Saved register size: 0
        ; Auto size: 0
// 2684   (void)status;  // Remove this line if this parameter is used.
// 2685   return;
        LJMP    ?BRET
          CFI EndBlock cfiBlock176
// 2686 }
// 2687 
// 2688 /******************************************************************************
// 2689  * @fn          ZDApp_NwkWriteNVRequest (stubs AddrMgrWriteNVRequest)
// 2690  *
// 2691  * @brief       Stub routine implemented by NHLE. NHLE should call
// 2692  *              <AddrMgrWriteNV> when appropriate.
// 2693  *
// 2694  * @param       none
// 2695  *
// 2696  * @return      none
// 2697  */

        RSEG BANKED_CODE:CODE:NOROOT(0)
// 2698 void ZDApp_NwkWriteNVRequest( void )
AddrMgrWriteNVRequest:
          CFI Block cfiBlock177 Using cfiCommon0
          CFI Function AddrMgrWriteNVRequest
        CODE
// 2699 {
        ; Saved register size: 0
        ; Auto size: 0
// 2700 #if defined ( NV_RESTORE )
// 2701   if ( !osal_get_timeoutEx( ZDAppTaskID, ZDO_NWK_UPDATE_NV ) )
// 2702   {
// 2703     // Trigger to save info into NV
// 2704     ZDApp_NVUpdate();
// 2705   }
// 2706 #endif
// 2707 }
        LJMP    ?BRET
          CFI EndBlock cfiBlock177
// 2708 
// 2709 /*********************************************************************
// 2710  * Call Back Functions from Security  - API
// 2711  */
// 2712 
// 2713  /*********************************************************************
// 2714  * @fn          ZDO_UpdateDeviceIndication
// 2715  *
// 2716  * @brief       This function notifies the "Trust Center" of a
// 2717  *              network when a device joins or leaves the network.
// 2718  *
// 2719  * @param       extAddr - pointer to 64 bit address of new device
// 2720  * @param       status  - 0 if a new device joined securely
// 2721  *                      - 1 if a new device joined un-securely
// 2722  *                      - 2 if a device left the network
// 2723  *
// 2724  * @return      true if newly joined device should be allowed to
// 2725  *                                              remain on network
// 2726  */

        RSEG BANKED_CODE:CODE:NOROOT(0)
// 2727 ZStatus_t ZDO_UpdateDeviceIndication( uint8 *extAddr, uint8 status )
ZDO_UpdateDeviceIndication:
          CFI Block cfiBlock178 Using cfiCommon0
          CFI Function ZDO_UpdateDeviceIndication
        CODE
// 2728 {
        ; Saved register size: 0
        ; Auto size: 0
// 2729   // can implement a network access policy based on the
// 2730   // IEEE address of newly joining devices...
// 2731   (void)extAddr;
// 2732   (void)status;
// 2733 
// 2734   return ZSuccess;
        LJMP    ?Subroutine4 & 0xFFFF
          CFI EndBlock cfiBlock178
// 2735 }
// 2736 
// 2737 /*********************************************************************
// 2738  * @fn          ZDApp_InMsgCB
// 2739  *
// 2740  * @brief       This function is called to pass up any message that is
// 2741  *              not yet supported.  This allows for the developer to
// 2742  *              support features themselves..
// 2743  *
// 2744  * @return      none
// 2745  */

        RSEG BANKED_CODE:CODE:NOROOT(0)
// 2746 void ZDApp_InMsgCB( zdoIncomingMsg_t *inMsg )
ZDApp_InMsgCB:
          CFI Block cfiBlock179 Using cfiCommon0
          CFI Function ZDApp_InMsgCB
        CODE
// 2747 {
        FUNCALL ZDApp_InMsgCB, ZDP_GenericRsp
        LOCFRAME ISTACK, 0, STACK
        LOCFRAME PSTACK, 0, STACK
        LOCFRAME XSTACK, 14, STACK
        LOCFRAME IOVERLAY, 0, STATIC
        LOCFRAME DOVERLAY, 0, STATIC
        ARGFRAME ISTACK, 0, STACK
        ARGFRAME PSTACK, 0, STACK
        ARGFRAME XSTACK, 14, STACK
        ARGFRAME IOVERLAY, 0, STATIC
        ARGFRAME DOVERLAY, 0, STATIC
        REQUIRE ?V0
        REQUIRE ?V1
        MOV     A,#-0xa
        LCALL   ?BANKED_ENTER_XDATA
          CFI DPH0 load(1, XDATA, add(CFA_XSP16, literal(-1)))
          CFI DPL0 load(1, XDATA, add(CFA_XSP16, literal(-2)))
          CFI ?BRET_EXT load(1, XDATA, add(CFA_XSP16, literal(-3)))
          CFI ?RET_HIGH load(1, XDATA, add(CFA_XSP16, literal(-4)))
          CFI ?RET_LOW load(1, XDATA, add(CFA_XSP16, literal(-5)))
          CFI R7 load(1, XDATA, add(CFA_XSP16, literal(-6)))
          CFI V1 load(1, XDATA, add(CFA_XSP16, literal(-7)))
          CFI V0 load(1, XDATA, add(CFA_XSP16, literal(-8)))
          CFI VB load(1, XDATA, add(CFA_XSP16, literal(-9)))
          CFI R6 load(1, XDATA, add(CFA_XSP16, literal(-10)))
          CFI CFA_SP SP+0
          CFI CFA_XSP16 add(XSP16, 10)
        ; Saved register size: 10
        ; Auto size: 0
        MOV     A,R2
        MOV     R6,A
        MOV     A,R3
        MOV     R7,A
// 2748   if ( inMsg->clusterID & ZDO_RESPONSE_BIT )
        LCALL   ?Subroutine34 & 0xFFFF
??CrossCallReturnLabel_44:
        INC     DPTR
        MOVX    A,@DPTR
        ANL     A,#0x80
        JNZ     ??ZDApp_InMsgCB_0
// 2749   {
// 2750     // Handle the response message
// 2751   }
// 2752   else
// 2753   {
// 2754     // Handle the request message by sending a generic "not supported".
// 2755     // Device Announce doesn't have a response.
// 2756     if ( !(inMsg->wasBroadcast) && inMsg->clusterID != Device_annce )
        LCALL   ?Subroutine26 & 0xFFFF
??CrossCallReturnLabel_29:
        JNZ     ??ZDApp_InMsgCB_0
        LCALL   ?Subroutine27 & 0xFFFF
??CrossCallReturnLabel_31:
        XRL     A,#0x13
        JNZ     ??ZDApp_InMsgCB_1
        INC     DPTR
        MOVX    A,@DPTR
??ZDApp_InMsgCB_1:
        JZ      ??ZDApp_InMsgCB_0
// 2757     {
// 2758       ZDP_GenericRsp( inMsg->TransSeq, &(inMsg->srcAddr), ZDP_NOT_SUPPORTED, 0,
// 2759                       (uint16)(inMsg->clusterID | ZDO_RESPONSE_BIT), inMsg->SecurityUse );
        ; Setup parameters for call to function ZDP_GenericRsp
        LCALL   ?Subroutine22 & 0xFFFF
// 2760     }
// 2761   }
??CrossCallReturnLabel_23:
        ORL     A,#0x80
        MOV     ?V1,A
        MOV     R0,#?V0
        LCALL   ?PUSH_XSTACK_I_TWO
          CFI CFA_XSP16 add(XSP16, 12)
        CLR     A
        MOV     ?V0,A
        MOV     ?V1,A
        MOV     R0,#?V0
        LCALL   ?PUSH_XSTACK_I_TWO
          CFI CFA_XSP16 add(XSP16, 14)
        MOV     A,R6
        ADD     A,#0xe
        MOV     DPL,A
        CLR     A
        ADDC    A,R7
        MOV     DPH,A
        MOVX    A,@DPTR
        MOV     R5,A
        MOV     R4,#-0x7c
        MOV     A,R6
        ADD     A,#0x2
        MOV     R2,A
        CLR     A
        ADDC    A,R7
        MOV     R3,A
        MOV     A,R6
        ADD     A,#0xf
        MOV     DPL,A
        CLR     A
        ADDC    A,R7
        MOV     DPH,A
        MOVX    A,@DPTR
        MOV     R1,A
        LCALL   ??ZDP_GenericRsp?relay; Banked call to: ZDP_GenericRsp
        MOV     A,#0x4
        LCALL   ?DEALLOC_XSTACK8
          CFI CFA_XSP16 add(XSP16, 10)
// 2762 }
??ZDApp_InMsgCB_0:
        LJMP    ??Subroutine41_0 & 0xFFFF
          CFI EndBlock cfiBlock179

        RSEG BANKED_CODE:CODE:NOROOT(0)
?Subroutine27:
          CFI Block cfiCond180 Using cfiCommon0
          CFI Function ZDO_LeaveInd
          CFI Conditional ??CrossCallReturnLabel_30
          CFI R6 load(1, XDATA, add(CFA_XSP16, literal(-10)))
          CFI VB load(1, XDATA, add(CFA_XSP16, literal(-9)))
          CFI V0 load(1, XDATA, add(CFA_XSP16, literal(-8)))
          CFI V1 load(1, XDATA, add(CFA_XSP16, literal(-7)))
          CFI R7 load(1, XDATA, add(CFA_XSP16, literal(-6)))
          CFI ?RET_LOW load(1, XDATA, add(CFA_XSP16, literal(-5)))
          CFI ?RET_HIGH load(1, XDATA, add(CFA_XSP16, literal(-4)))
          CFI ?BRET_EXT load(1, XDATA, add(CFA_XSP16, literal(-3)))
          CFI DPL0 load(1, XDATA, add(CFA_XSP16, literal(-2)))
          CFI DPH0 load(1, XDATA, add(CFA_XSP16, literal(-1)))
          CFI CFA_SP SP+-2
          CFI CFA_XSP16 add(XSP16, 10)
          CFI Block cfiCond181 Using cfiCommon0
          CFI (cfiCond181) Function ZDApp_InMsgCB
          CFI (cfiCond181) Conditional ??CrossCallReturnLabel_31
          CFI (cfiCond181) R6 load(1, XDATA, add(CFA_XSP16, literal(-10)))
          CFI (cfiCond181) VB load(1, XDATA, add(CFA_XSP16, literal(-9)))
          CFI (cfiCond181) V0 load(1, XDATA, add(CFA_XSP16, literal(-8)))
          CFI (cfiCond181) V1 load(1, XDATA, add(CFA_XSP16, literal(-7)))
          CFI (cfiCond181) R7 load(1, XDATA, add(CFA_XSP16, literal(-6)))
          CFI (cfiCond181) ?RET_LOW load(1, XDATA, add(CFA_XSP16, literal(-5)))
          CFI (cfiCond181) ?RET_HIGH load(1, XDATA, add(CFA_XSP16, literal(-4)))
          CFI (cfiCond181) ?BRET_EXT load(1, XDATA, add(CFA_XSP16, literal(-3)))
          CFI (cfiCond181) DPL0 load(1, XDATA, add(CFA_XSP16, literal(-2)))
          CFI (cfiCond181) DPH0 load(1, XDATA, add(CFA_XSP16, literal(-1)))
          CFI (cfiCond181) CFA_SP SP+-2
          CFI (cfiCond181) CFA_XSP16 add(XSP16, 10)
          CFI Block cfiPicker182 Using cfiCommon1
          CFI (cfiPicker182) NoFunction
          CFI (cfiPicker182) Picker
        LCALL   ?Subroutine33 & 0xFFFF
??CrossCallReturnLabel_43:
        RET
          CFI EndBlock cfiCond180
          CFI EndBlock cfiCond181
          CFI EndBlock cfiPicker182

        RSEG BANKED_CODE:CODE:NOROOT(0)
?Subroutine33:
          CFI Block cfiCond183 Using cfiCommon0
          CFI Function ZDO_LeaveInd
          CFI Conditional ??CrossCallReturnLabel_43, ??CrossCallReturnLabel_30
          CFI R6 load(1, XDATA, add(CFA_XSP16, literal(-10)))
          CFI VB load(1, XDATA, add(CFA_XSP16, literal(-9)))
          CFI V0 load(1, XDATA, add(CFA_XSP16, literal(-8)))
          CFI V1 load(1, XDATA, add(CFA_XSP16, literal(-7)))
          CFI R7 load(1, XDATA, add(CFA_XSP16, literal(-6)))
          CFI ?RET_LOW load(1, XDATA, add(CFA_XSP16, literal(-5)))
          CFI ?RET_HIGH load(1, XDATA, add(CFA_XSP16, literal(-4)))
          CFI ?BRET_EXT load(1, XDATA, add(CFA_XSP16, literal(-3)))
          CFI DPL0 load(1, XDATA, add(CFA_XSP16, literal(-2)))
          CFI DPH0 load(1, XDATA, add(CFA_XSP16, literal(-1)))
          CFI CFA_SP SP+-4
          CFI CFA_XSP16 add(XSP16, 10)
          CFI Block cfiCond184 Using cfiCommon0
          CFI (cfiCond184) Function ZDApp_InMsgCB
          CFI (cfiCond184) Conditional ??CrossCallReturnLabel_43, ??CrossCallReturnLabel_31
          CFI (cfiCond184) R6 load(1, XDATA, add(CFA_XSP16, literal(-10)))
          CFI (cfiCond184) VB load(1, XDATA, add(CFA_XSP16, literal(-9)))
          CFI (cfiCond184) V0 load(1, XDATA, add(CFA_XSP16, literal(-8)))
          CFI (cfiCond184) V1 load(1, XDATA, add(CFA_XSP16, literal(-7)))
          CFI (cfiCond184) R7 load(1, XDATA, add(CFA_XSP16, literal(-6)))
          CFI (cfiCond184) ?RET_LOW load(1, XDATA, add(CFA_XSP16, literal(-5)))
          CFI (cfiCond184) ?RET_HIGH load(1, XDATA, add(CFA_XSP16, literal(-4)))
          CFI (cfiCond184) ?BRET_EXT load(1, XDATA, add(CFA_XSP16, literal(-3)))
          CFI (cfiCond184) DPL0 load(1, XDATA, add(CFA_XSP16, literal(-2)))
          CFI (cfiCond184) DPH0 load(1, XDATA, add(CFA_XSP16, literal(-1)))
          CFI (cfiCond184) CFA_SP SP+-4
          CFI (cfiCond184) CFA_XSP16 add(XSP16, 10)
          CFI Block cfiCond185 Using cfiCommon0
          CFI (cfiCond185) Function ZDApp_ProcessMsgCBs
          CFI (cfiCond185) Conditional ??CrossCallReturnLabel_42, ??CrossCallReturnLabel_22
          CFI (cfiCond185) R6 load(1, XDATA, add(CFA_XSP16, literal(-10)))
          CFI (cfiCond185) VB load(1, XDATA, add(CFA_XSP16, literal(-9)))
          CFI (cfiCond185) V0 load(1, XDATA, add(CFA_XSP16, literal(-8)))
          CFI (cfiCond185) V1 load(1, XDATA, add(CFA_XSP16, literal(-7)))
          CFI (cfiCond185) R7 load(1, XDATA, add(CFA_XSP16, literal(-6)))
          CFI (cfiCond185) ?RET_LOW load(1, XDATA, add(CFA_XSP16, literal(-5)))
          CFI (cfiCond185) ?RET_HIGH load(1, XDATA, add(CFA_XSP16, literal(-4)))
          CFI (cfiCond185) ?BRET_EXT load(1, XDATA, add(CFA_XSP16, literal(-3)))
          CFI (cfiCond185) DPL0 load(1, XDATA, add(CFA_XSP16, literal(-2)))
          CFI (cfiCond185) DPH0 load(1, XDATA, add(CFA_XSP16, literal(-1)))
          CFI (cfiCond185) CFA_SP SP+-4
          CFI (cfiCond185) CFA_XSP16 add(XSP16, 31)
          CFI Block cfiCond186 Using cfiCommon0
          CFI (cfiCond186) Function ZDApp_InMsgCB
          CFI (cfiCond186) Conditional ??CrossCallReturnLabel_42, ??CrossCallReturnLabel_23
          CFI (cfiCond186) R6 load(1, XDATA, add(CFA_XSP16, literal(-10)))
          CFI (cfiCond186) VB load(1, XDATA, add(CFA_XSP16, literal(-9)))
          CFI (cfiCond186) V0 load(1, XDATA, add(CFA_XSP16, literal(-8)))
          CFI (cfiCond186) V1 load(1, XDATA, add(CFA_XSP16, literal(-7)))
          CFI (cfiCond186) R7 load(1, XDATA, add(CFA_XSP16, literal(-6)))
          CFI (cfiCond186) ?RET_LOW load(1, XDATA, add(CFA_XSP16, literal(-5)))
          CFI (cfiCond186) ?RET_HIGH load(1, XDATA, add(CFA_XSP16, literal(-4)))
          CFI (cfiCond186) ?BRET_EXT load(1, XDATA, add(CFA_XSP16, literal(-3)))
          CFI (cfiCond186) DPL0 load(1, XDATA, add(CFA_XSP16, literal(-2)))
          CFI (cfiCond186) DPH0 load(1, XDATA, add(CFA_XSP16, literal(-1)))
          CFI (cfiCond186) CFA_SP SP+-4
          CFI (cfiCond186) CFA_XSP16 add(XSP16, 10)
          CFI Block cfiPicker187 Using cfiCommon1
          CFI (cfiPicker187) NoFunction
          CFI (cfiPicker187) Picker
        LCALL   ?Subroutine34 & 0xFFFF
??CrossCallReturnLabel_45:
        MOVX    A,@DPTR
        RET
          CFI EndBlock cfiCond183
          CFI EndBlock cfiCond184
          CFI EndBlock cfiCond185
          CFI EndBlock cfiCond186
          CFI EndBlock cfiPicker187

        RSEG BANKED_CODE:CODE:NOROOT(0)
?Subroutine34:
          CFI Block cfiCond188 Using cfiCommon0
          CFI Function ZDApp_InMsgCB
          CFI Conditional ??CrossCallReturnLabel_44
          CFI R6 load(1, XDATA, add(CFA_XSP16, literal(-10)))
          CFI VB load(1, XDATA, add(CFA_XSP16, literal(-9)))
          CFI V0 load(1, XDATA, add(CFA_XSP16, literal(-8)))
          CFI V1 load(1, XDATA, add(CFA_XSP16, literal(-7)))
          CFI R7 load(1, XDATA, add(CFA_XSP16, literal(-6)))
          CFI ?RET_LOW load(1, XDATA, add(CFA_XSP16, literal(-5)))
          CFI ?RET_HIGH load(1, XDATA, add(CFA_XSP16, literal(-4)))
          CFI ?BRET_EXT load(1, XDATA, add(CFA_XSP16, literal(-3)))
          CFI DPL0 load(1, XDATA, add(CFA_XSP16, literal(-2)))
          CFI DPH0 load(1, XDATA, add(CFA_XSP16, literal(-1)))
          CFI CFA_SP SP+-2
          CFI CFA_XSP16 add(XSP16, 10)
          CFI Block cfiCond189 Using cfiCommon0
          CFI (cfiCond189) Function ZDO_LeaveInd
          CFI (cfiCond189) Conditional ??CrossCallReturnLabel_45, ??CrossCallReturnLabel_43, ??CrossCallReturnLabel_30
          CFI (cfiCond189) R6 load(1, XDATA, add(CFA_XSP16, literal(-10)))
          CFI (cfiCond189) VB load(1, XDATA, add(CFA_XSP16, literal(-9)))
          CFI (cfiCond189) V0 load(1, XDATA, add(CFA_XSP16, literal(-8)))
          CFI (cfiCond189) V1 load(1, XDATA, add(CFA_XSP16, literal(-7)))
          CFI (cfiCond189) R7 load(1, XDATA, add(CFA_XSP16, literal(-6)))
          CFI (cfiCond189) ?RET_LOW load(1, XDATA, add(CFA_XSP16, literal(-5)))
          CFI (cfiCond189) ?RET_HIGH load(1, XDATA, add(CFA_XSP16, literal(-4)))
          CFI (cfiCond189) ?BRET_EXT load(1, XDATA, add(CFA_XSP16, literal(-3)))
          CFI (cfiCond189) DPL0 load(1, XDATA, add(CFA_XSP16, literal(-2)))
          CFI (cfiCond189) DPH0 load(1, XDATA, add(CFA_XSP16, literal(-1)))
          CFI (cfiCond189) CFA_SP SP+-6
          CFI (cfiCond189) CFA_XSP16 add(XSP16, 10)
          CFI Block cfiCond190 Using cfiCommon0
          CFI (cfiCond190) Function ZDApp_InMsgCB
          CFI (cfiCond190) Conditional ??CrossCallReturnLabel_45, ??CrossCallReturnLabel_43, ??CrossCallReturnLabel_31
          CFI (cfiCond190) R6 load(1, XDATA, add(CFA_XSP16, literal(-10)))
          CFI (cfiCond190) VB load(1, XDATA, add(CFA_XSP16, literal(-9)))
          CFI (cfiCond190) V0 load(1, XDATA, add(CFA_XSP16, literal(-8)))
          CFI (cfiCond190) V1 load(1, XDATA, add(CFA_XSP16, literal(-7)))
          CFI (cfiCond190) R7 load(1, XDATA, add(CFA_XSP16, literal(-6)))
          CFI (cfiCond190) ?RET_LOW load(1, XDATA, add(CFA_XSP16, literal(-5)))
          CFI (cfiCond190) ?RET_HIGH load(1, XDATA, add(CFA_XSP16, literal(-4)))
          CFI (cfiCond190) ?BRET_EXT load(1, XDATA, add(CFA_XSP16, literal(-3)))
          CFI (cfiCond190) DPL0 load(1, XDATA, add(CFA_XSP16, literal(-2)))
          CFI (cfiCond190) DPH0 load(1, XDATA, add(CFA_XSP16, literal(-1)))
          CFI (cfiCond190) CFA_SP SP+-6
          CFI (cfiCond190) CFA_XSP16 add(XSP16, 10)
          CFI Block cfiCond191 Using cfiCommon0
          CFI (cfiCond191) Function ZDApp_ProcessMsgCBs
          CFI (cfiCond191) Conditional ??CrossCallReturnLabel_45, ??CrossCallReturnLabel_42, ??CrossCallReturnLabel_22
          CFI (cfiCond191) R6 load(1, XDATA, add(CFA_XSP16, literal(-10)))
          CFI (cfiCond191) VB load(1, XDATA, add(CFA_XSP16, literal(-9)))
          CFI (cfiCond191) V0 load(1, XDATA, add(CFA_XSP16, literal(-8)))
          CFI (cfiCond191) V1 load(1, XDATA, add(CFA_XSP16, literal(-7)))
          CFI (cfiCond191) R7 load(1, XDATA, add(CFA_XSP16, literal(-6)))
          CFI (cfiCond191) ?RET_LOW load(1, XDATA, add(CFA_XSP16, literal(-5)))
          CFI (cfiCond191) ?RET_HIGH load(1, XDATA, add(CFA_XSP16, literal(-4)))
          CFI (cfiCond191) ?BRET_EXT load(1, XDATA, add(CFA_XSP16, literal(-3)))
          CFI (cfiCond191) DPL0 load(1, XDATA, add(CFA_XSP16, literal(-2)))
          CFI (cfiCond191) DPH0 load(1, XDATA, add(CFA_XSP16, literal(-1)))
          CFI (cfiCond191) CFA_SP SP+-6
          CFI (cfiCond191) CFA_XSP16 add(XSP16, 31)
          CFI Block cfiCond192 Using cfiCommon0
          CFI (cfiCond192) Function ZDApp_InMsgCB
          CFI (cfiCond192) Conditional ??CrossCallReturnLabel_45, ??CrossCallReturnLabel_42, ??CrossCallReturnLabel_23
          CFI (cfiCond192) R6 load(1, XDATA, add(CFA_XSP16, literal(-10)))
          CFI (cfiCond192) VB load(1, XDATA, add(CFA_XSP16, literal(-9)))
          CFI (cfiCond192) V0 load(1, XDATA, add(CFA_XSP16, literal(-8)))
          CFI (cfiCond192) V1 load(1, XDATA, add(CFA_XSP16, literal(-7)))
          CFI (cfiCond192) R7 load(1, XDATA, add(CFA_XSP16, literal(-6)))
          CFI (cfiCond192) ?RET_LOW load(1, XDATA, add(CFA_XSP16, literal(-5)))
          CFI (cfiCond192) ?RET_HIGH load(1, XDATA, add(CFA_XSP16, literal(-4)))
          CFI (cfiCond192) ?BRET_EXT load(1, XDATA, add(CFA_XSP16, literal(-3)))
          CFI (cfiCond192) DPL0 load(1, XDATA, add(CFA_XSP16, literal(-2)))
          CFI (cfiCond192) DPH0 load(1, XDATA, add(CFA_XSP16, literal(-1)))
          CFI (cfiCond192) CFA_SP SP+-6
          CFI (cfiCond192) CFA_XSP16 add(XSP16, 10)
          CFI Block cfiPicker193 Using cfiCommon1
          CFI (cfiPicker193) NoFunction
          CFI (cfiPicker193) Picker
        MOV     A,R6
        ADD     A,#0xc
        MOV     DPL,A
        CLR     A
        ADDC    A,R7
        MOV     DPH,A
        RET
          CFI EndBlock cfiCond188
          CFI EndBlock cfiCond189
          CFI EndBlock cfiCond190
          CFI EndBlock cfiCond191
          CFI EndBlock cfiCond192
          CFI EndBlock cfiPicker193

        RSEG BANKED_CODE:CODE:NOROOT(0)
?Subroutine26:
          CFI Block cfiCond194 Using cfiCommon0
          CFI Function ZDO_LeaveInd
          CFI Conditional ??CrossCallReturnLabel_28
          CFI R6 load(1, XDATA, add(CFA_XSP16, literal(-10)))
          CFI VB load(1, XDATA, add(CFA_XSP16, literal(-9)))
          CFI V0 load(1, XDATA, add(CFA_XSP16, literal(-8)))
          CFI V1 load(1, XDATA, add(CFA_XSP16, literal(-7)))
          CFI R7 load(1, XDATA, add(CFA_XSP16, literal(-6)))
          CFI ?RET_LOW load(1, XDATA, add(CFA_XSP16, literal(-5)))
          CFI ?RET_HIGH load(1, XDATA, add(CFA_XSP16, literal(-4)))
          CFI ?BRET_EXT load(1, XDATA, add(CFA_XSP16, literal(-3)))
          CFI DPL0 load(1, XDATA, add(CFA_XSP16, literal(-2)))
          CFI DPH0 load(1, XDATA, add(CFA_XSP16, literal(-1)))
          CFI CFA_SP SP+-2
          CFI CFA_XSP16 add(XSP16, 10)
          CFI Block cfiCond195 Using cfiCommon0
          CFI (cfiCond195) Function ZDApp_InMsgCB
          CFI (cfiCond195) Conditional ??CrossCallReturnLabel_29
          CFI (cfiCond195) R6 load(1, XDATA, add(CFA_XSP16, literal(-10)))
          CFI (cfiCond195) VB load(1, XDATA, add(CFA_XSP16, literal(-9)))
          CFI (cfiCond195) V0 load(1, XDATA, add(CFA_XSP16, literal(-8)))
          CFI (cfiCond195) V1 load(1, XDATA, add(CFA_XSP16, literal(-7)))
          CFI (cfiCond195) R7 load(1, XDATA, add(CFA_XSP16, literal(-6)))
          CFI (cfiCond195) ?RET_LOW load(1, XDATA, add(CFA_XSP16, literal(-5)))
          CFI (cfiCond195) ?RET_HIGH load(1, XDATA, add(CFA_XSP16, literal(-4)))
          CFI (cfiCond195) ?BRET_EXT load(1, XDATA, add(CFA_XSP16, literal(-3)))
          CFI (cfiCond195) DPL0 load(1, XDATA, add(CFA_XSP16, literal(-2)))
          CFI (cfiCond195) DPH0 load(1, XDATA, add(CFA_XSP16, literal(-1)))
          CFI (cfiCond195) CFA_SP SP+-2
          CFI (cfiCond195) CFA_XSP16 add(XSP16, 10)
          CFI Block cfiPicker196 Using cfiCommon1
          CFI (cfiPicker196) NoFunction
          CFI (cfiPicker196) Picker
        LCALL   ?Subroutine32 & 0xFFFF
??CrossCallReturnLabel_41:
        RET
          CFI EndBlock cfiCond194
          CFI EndBlock cfiCond195
          CFI EndBlock cfiPicker196

        RSEG BANKED_CODE:CODE:NOROOT(0)
?Subroutine32:
          CFI Block cfiCond197 Using cfiCommon0
          CFI Function ZDO_LeaveCnf
          CFI Conditional ??CrossCallReturnLabel_40, ??CrossCallReturnLabel_26
          CFI R6 load(1, XDATA, add(CFA_XSP16, literal(-10)))
          CFI VB load(1, XDATA, add(CFA_XSP16, literal(-9)))
          CFI V0 load(1, XDATA, add(CFA_XSP16, literal(-8)))
          CFI V1 load(1, XDATA, add(CFA_XSP16, literal(-7)))
          CFI R7 load(1, XDATA, add(CFA_XSP16, literal(-6)))
          CFI ?RET_LOW load(1, XDATA, add(CFA_XSP16, literal(-5)))
          CFI ?RET_HIGH load(1, XDATA, add(CFA_XSP16, literal(-4)))
          CFI ?BRET_EXT load(1, XDATA, add(CFA_XSP16, literal(-3)))
          CFI DPL0 load(1, XDATA, add(CFA_XSP16, literal(-2)))
          CFI DPH0 load(1, XDATA, add(CFA_XSP16, literal(-1)))
          CFI CFA_SP SP+-4
          CFI CFA_XSP16 add(XSP16, 10)
          CFI Block cfiCond198 Using cfiCommon0
          CFI (cfiCond198) Function ZDO_LeaveInd
          CFI (cfiCond198) Conditional ??CrossCallReturnLabel_40, ??CrossCallReturnLabel_27
          CFI (cfiCond198) R6 load(1, XDATA, add(CFA_XSP16, literal(-10)))
          CFI (cfiCond198) VB load(1, XDATA, add(CFA_XSP16, literal(-9)))
          CFI (cfiCond198) V0 load(1, XDATA, add(CFA_XSP16, literal(-8)))
          CFI (cfiCond198) V1 load(1, XDATA, add(CFA_XSP16, literal(-7)))
          CFI (cfiCond198) R7 load(1, XDATA, add(CFA_XSP16, literal(-6)))
          CFI (cfiCond198) ?RET_LOW load(1, XDATA, add(CFA_XSP16, literal(-5)))
          CFI (cfiCond198) ?RET_HIGH load(1, XDATA, add(CFA_XSP16, literal(-4)))
          CFI (cfiCond198) ?BRET_EXT load(1, XDATA, add(CFA_XSP16, literal(-3)))
          CFI (cfiCond198) DPL0 load(1, XDATA, add(CFA_XSP16, literal(-2)))
          CFI (cfiCond198) DPH0 load(1, XDATA, add(CFA_XSP16, literal(-1)))
          CFI (cfiCond198) CFA_SP SP+-4
          CFI (cfiCond198) CFA_XSP16 add(XSP16, 10)
          CFI Block cfiCond199 Using cfiCommon0
          CFI (cfiCond199) Function ZDO_LeaveInd
          CFI (cfiCond199) Conditional ??CrossCallReturnLabel_41, ??CrossCallReturnLabel_28
          CFI (cfiCond199) R6 load(1, XDATA, add(CFA_XSP16, literal(-10)))
          CFI (cfiCond199) VB load(1, XDATA, add(CFA_XSP16, literal(-9)))
          CFI (cfiCond199) V0 load(1, XDATA, add(CFA_XSP16, literal(-8)))
          CFI (cfiCond199) V1 load(1, XDATA, add(CFA_XSP16, literal(-7)))
          CFI (cfiCond199) R7 load(1, XDATA, add(CFA_XSP16, literal(-6)))
          CFI (cfiCond199) ?RET_LOW load(1, XDATA, add(CFA_XSP16, literal(-5)))
          CFI (cfiCond199) ?RET_HIGH load(1, XDATA, add(CFA_XSP16, literal(-4)))
          CFI (cfiCond199) ?BRET_EXT load(1, XDATA, add(CFA_XSP16, literal(-3)))
          CFI (cfiCond199) DPL0 load(1, XDATA, add(CFA_XSP16, literal(-2)))
          CFI (cfiCond199) DPH0 load(1, XDATA, add(CFA_XSP16, literal(-1)))
          CFI (cfiCond199) CFA_SP SP+-4
          CFI (cfiCond199) CFA_XSP16 add(XSP16, 10)
          CFI Block cfiCond200 Using cfiCommon0
          CFI (cfiCond200) Function ZDApp_InMsgCB
          CFI (cfiCond200) Conditional ??CrossCallReturnLabel_41, ??CrossCallReturnLabel_29
          CFI (cfiCond200) R6 load(1, XDATA, add(CFA_XSP16, literal(-10)))
          CFI (cfiCond200) VB load(1, XDATA, add(CFA_XSP16, literal(-9)))
          CFI (cfiCond200) V0 load(1, XDATA, add(CFA_XSP16, literal(-8)))
          CFI (cfiCond200) V1 load(1, XDATA, add(CFA_XSP16, literal(-7)))
          CFI (cfiCond200) R7 load(1, XDATA, add(CFA_XSP16, literal(-6)))
          CFI (cfiCond200) ?RET_LOW load(1, XDATA, add(CFA_XSP16, literal(-5)))
          CFI (cfiCond200) ?RET_HIGH load(1, XDATA, add(CFA_XSP16, literal(-4)))
          CFI (cfiCond200) ?BRET_EXT load(1, XDATA, add(CFA_XSP16, literal(-3)))
          CFI (cfiCond200) DPL0 load(1, XDATA, add(CFA_XSP16, literal(-2)))
          CFI (cfiCond200) DPH0 load(1, XDATA, add(CFA_XSP16, literal(-1)))
          CFI (cfiCond200) CFA_SP SP+-4
          CFI (cfiCond200) CFA_XSP16 add(XSP16, 10)
          CFI Block cfiPicker201 Using cfiCommon1
          CFI (cfiPicker201) NoFunction
          CFI (cfiPicker201) Picker
        MOV     A,R6
        ADD     A,#0xb
        MOV     DPL,A
        CLR     A
        ADDC    A,R7
        MOV     DPH,A
        MOVX    A,@DPTR
        RET
          CFI EndBlock cfiCond197
          CFI EndBlock cfiCond198
          CFI EndBlock cfiCond199
          CFI EndBlock cfiCond200
          CFI EndBlock cfiPicker201

        RSEG BANKED_CODE:CODE:NOROOT(0)
?Subroutine22:
          CFI Block cfiCond202 Using cfiCommon0
          CFI Function ZDApp_ProcessMsgCBs
          CFI Conditional ??CrossCallReturnLabel_22
          CFI R6 load(1, XDATA, add(CFA_XSP16, literal(-10)))
          CFI VB load(1, XDATA, add(CFA_XSP16, literal(-9)))
          CFI V0 load(1, XDATA, add(CFA_XSP16, literal(-8)))
          CFI V1 load(1, XDATA, add(CFA_XSP16, literal(-7)))
          CFI R7 load(1, XDATA, add(CFA_XSP16, literal(-6)))
          CFI ?RET_LOW load(1, XDATA, add(CFA_XSP16, literal(-5)))
          CFI ?RET_HIGH load(1, XDATA, add(CFA_XSP16, literal(-4)))
          CFI ?BRET_EXT load(1, XDATA, add(CFA_XSP16, literal(-3)))
          CFI DPL0 load(1, XDATA, add(CFA_XSP16, literal(-2)))
          CFI DPH0 load(1, XDATA, add(CFA_XSP16, literal(-1)))
          CFI CFA_SP SP+-2
          CFI CFA_XSP16 add(XSP16, 31)
          CFI Block cfiCond203 Using cfiCommon0
          CFI (cfiCond203) Function ZDApp_InMsgCB
          CFI (cfiCond203) Conditional ??CrossCallReturnLabel_23
          CFI (cfiCond203) R6 load(1, XDATA, add(CFA_XSP16, literal(-10)))
          CFI (cfiCond203) VB load(1, XDATA, add(CFA_XSP16, literal(-9)))
          CFI (cfiCond203) V0 load(1, XDATA, add(CFA_XSP16, literal(-8)))
          CFI (cfiCond203) V1 load(1, XDATA, add(CFA_XSP16, literal(-7)))
          CFI (cfiCond203) R7 load(1, XDATA, add(CFA_XSP16, literal(-6)))
          CFI (cfiCond203) ?RET_LOW load(1, XDATA, add(CFA_XSP16, literal(-5)))
          CFI (cfiCond203) ?RET_HIGH load(1, XDATA, add(CFA_XSP16, literal(-4)))
          CFI (cfiCond203) ?BRET_EXT load(1, XDATA, add(CFA_XSP16, literal(-3)))
          CFI (cfiCond203) DPL0 load(1, XDATA, add(CFA_XSP16, literal(-2)))
          CFI (cfiCond203) DPH0 load(1, XDATA, add(CFA_XSP16, literal(-1)))
          CFI (cfiCond203) CFA_SP SP+-2
          CFI (cfiCond203) CFA_XSP16 add(XSP16, 10)
          CFI Block cfiPicker204 Using cfiCommon1
          CFI (cfiPicker204) NoFunction
          CFI (cfiPicker204) Picker
        LCALL   ?Subroutine33 & 0xFFFF
??CrossCallReturnLabel_42:
        MOV     ?V0,A
        INC     DPTR
        MOVX    A,@DPTR
        RET
          CFI EndBlock cfiCond202
          CFI EndBlock cfiCond203
          CFI EndBlock cfiPicker204
// 2763 
// 2764 
// 2765 /*********************************************************************
// 2766  * @fn      ZDApp_ChangeMatchDescRespPermission()
// 2767  *
// 2768  * @brief   Changes the Match Descriptor Response permission.
// 2769  *
// 2770  * @param   endpoint - endpoint to allow responses
// 2771  * @param   action - true to allow responses, false to not
// 2772  *
// 2773  * @return  none
// 2774  */

        RSEG BANKED_CODE:CODE:NOROOT(0)
// 2775 void ZDApp_ChangeMatchDescRespPermission( uint8 endpoint, uint8 action )
ZDApp_ChangeMatchDescRespPermission:
          CFI Block cfiBlock205 Using cfiCommon0
          CFI Function ZDApp_ChangeMatchDescRespPermission
        CODE
// 2776 {
        FUNCALL ZDApp_ChangeMatchDescRespPermission, afSetMatch
        LOCFRAME ISTACK, 0, STACK
        LOCFRAME PSTACK, 0, STACK
        LOCFRAME XSTACK, 9, STACK
        LOCFRAME IOVERLAY, 0, STATIC
        LOCFRAME DOVERLAY, 0, STATIC
        ARGFRAME ISTACK, 0, STACK
        ARGFRAME PSTACK, 0, STACK
        ARGFRAME XSTACK, 9, STACK
        ARGFRAME IOVERLAY, 0, STATIC
        ARGFRAME DOVERLAY, 0, STATIC
        MOV     A,#-0x9
        LCALL   ?BANKED_ENTER_XDATA
          CFI DPH0 load(1, XDATA, add(CFA_XSP16, literal(-1)))
          CFI DPL0 load(1, XDATA, add(CFA_XSP16, literal(-2)))
          CFI ?BRET_EXT load(1, XDATA, add(CFA_XSP16, literal(-3)))
          CFI ?RET_HIGH load(1, XDATA, add(CFA_XSP16, literal(-4)))
          CFI ?RET_LOW load(1, XDATA, add(CFA_XSP16, literal(-5)))
          CFI R7 load(1, XDATA, add(CFA_XSP16, literal(-6)))
          CFI V0 load(1, XDATA, add(CFA_XSP16, literal(-7)))
          CFI VB load(1, XDATA, add(CFA_XSP16, literal(-8)))
          CFI R6 load(1, XDATA, add(CFA_XSP16, literal(-9)))
          CFI CFA_SP SP+0
          CFI CFA_XSP16 add(XSP16, 9)
        ; Saved register size: 9
        ; Auto size: 0
// 2777   // Store the action
// 2778   afSetMatch( endpoint, action );
        ; Setup parameters for call to function afSetMatch
        LCALL   ??afSetMatch?relay   ; Banked call to: afSetMatch
// 2779 }
        LJMP    ??Subroutine42_0 & 0xFFFF
          CFI EndBlock cfiBlock205
// 2780 
// 2781 /*********************************************************************
// 2782  * @fn      ZDApp_NetworkInit()
// 2783  *
// 2784  * @brief   Used to start the network joining process
// 2785  *
// 2786  * @param   delay - mSec delay to wait before starting
// 2787  *
// 2788  * @return  none
// 2789  */

        RSEG BANKED_CODE:CODE:NOROOT(0)
// 2790 void ZDApp_NetworkInit( uint16 delay )
ZDApp_NetworkInit:
          CFI Block cfiBlock206 Using cfiCommon0
          CFI Function ZDApp_NetworkInit
        CODE
// 2791 {
        FUNCALL ZDApp_NetworkInit, osal_start_timerEx
        LOCFRAME ISTACK, 2, STACK
        LOCFRAME PSTACK, 0, STACK
        LOCFRAME XSTACK, 0, STACK
        LOCFRAME IOVERLAY, 0, STATIC
        LOCFRAME DOVERLAY, 0, STATIC
        ARGFRAME ISTACK, 2, STACK
        ARGFRAME PSTACK, 0, STACK
        ARGFRAME XSTACK, 0, STACK
        ARGFRAME IOVERLAY, 0, STATIC
        ARGFRAME DOVERLAY, 0, STATIC
        FUNCALL ZDApp_NetworkInit, osal_set_event
        LOCFRAME ISTACK, 2, STACK
        LOCFRAME PSTACK, 0, STACK
        LOCFRAME XSTACK, 0, STACK
        LOCFRAME IOVERLAY, 0, STATIC
        LOCFRAME DOVERLAY, 0, STATIC
        ARGFRAME ISTACK, 2, STACK
        ARGFRAME PSTACK, 0, STACK
        ARGFRAME XSTACK, 0, STACK
        ARGFRAME IOVERLAY, 0, STATIC
        ARGFRAME DOVERLAY, 0, STATIC
        PUSH    DPL
          CFI DPL0 Frame(CFA_SP, 4)
          CFI CFA_SP SP+-4
        PUSH    DPH
          CFI DPH0 Frame(CFA_SP, 5)
          CFI CFA_SP SP+-5
        ; Saved register size: 2
        ; Auto size: 0
// 2792   if ( delay )
        MOV     A,R2
        ORL     A,R3
        JZ      ??ZDApp_NetworkInit_0
// 2793   {
// 2794     // Wait awhile before starting the device发送ZDO_NETWORK_INIT（网络初始化）消息到ZDApp层
// 2795     osal_start_timerEx( ZDAppTaskID, ZDO_NETWORK_INIT, delay );
        ; Setup parameters for call to function osal_start_timerEx
        MOV     A,R2
        MOV     R4,A
        MOV     A,R3
        MOV     R5,A
        MOV     R2,#0x1
        MOV     R3,#0x0
        MOV     DPTR,#ZDAppTaskID
        MOVX    A,@DPTR
        MOV     R1,A
        LCALL   ??osal_start_timerEx?relay; Banked call to: osal_start_timerEx
        SJMP    ??ZDApp_NetworkInit_1
// 2796   }
// 2797   else
// 2798   {
// 2799     osal_set_event( ZDAppTaskID, ZDO_NETWORK_INIT );
??ZDApp_NetworkInit_0:
        ; Setup parameters for call to function osal_set_event
        MOV     R2,#0x1
        MOV     R3,#0x0
        MOV     DPTR,#ZDAppTaskID
        MOVX    A,@DPTR
        MOV     R1,A
        LCALL   ??osal_set_event?relay; Banked call to: osal_set_event
// 2800   }
// 2801 }
??ZDApp_NetworkInit_1:
        LJMP    ?Subroutine3 & 0xFFFF
          CFI EndBlock cfiBlock206
// 2802 
// 2803 /*********************************************************************
// 2804  * @fn      ZDApp_NwkStateUpdateCB()
// 2805  *
// 2806  * @brief   This function notifies that this device's network
// 2807  *          state info has been changed.
// 2808  *
// 2809  * @param   none
// 2810  *
// 2811  * @return  none
// 2812  */

        RSEG BANKED_CODE:CODE:NOROOT(0)
// 2813 void ZDApp_NwkStateUpdateCB( void )
ZDApp_NwkStateUpdateCB:
          CFI Block cfiBlock207 Using cfiCommon0
          CFI Function ZDApp_NwkStateUpdateCB
        CODE
// 2814 {
        FUNCALL ZDApp_NwkStateUpdateCB, osal_get_timeoutEx
        LOCFRAME ISTACK, 2, STACK
        LOCFRAME PSTACK, 0, STACK
        LOCFRAME XSTACK, 0, STACK
        LOCFRAME IOVERLAY, 0, STATIC
        LOCFRAME DOVERLAY, 0, STATIC
        ARGFRAME ISTACK, 2, STACK
        ARGFRAME PSTACK, 0, STACK
        ARGFRAME XSTACK, 0, STACK
        ARGFRAME IOVERLAY, 0, STATIC
        ARGFRAME DOVERLAY, 0, STATIC
        PUSH    DPL
          CFI DPL0 Frame(CFA_SP, 4)
          CFI CFA_SP SP+-4
        PUSH    DPH
          CFI DPH0 Frame(CFA_SP, 5)
          CFI CFA_SP SP+-5
        ; Saved register size: 2
        ; Auto size: 0
// 2815   // Notify to save info into NV
// 2816   if ( !osal_get_timeoutEx( ZDAppTaskID, ZDO_NWK_UPDATE_NV ) )
        ; Setup parameters for call to function osal_get_timeoutEx
        MOV     R2,#0x0
        MOV     R3,#0x2
        MOV     DPTR,#ZDAppTaskID
        MOVX    A,@DPTR
        MOV     R1,A
        LCALL   ??osal_get_timeoutEx?relay; Banked call to: osal_get_timeoutEx
// 2817   {
// 2818     // Trigger to save info into NV
// 2819     ZDApp_NVUpdate();
// 2820   }
// 2821 }
        LJMP    ?Subroutine3 & 0xFFFF
          CFI EndBlock cfiBlock207
// 2822 
// 2823 /*********************************************************************
// 2824  * @fn      ZDApp_NodeProfileSync()
// 2825  *
// 2826  * @brief   Sync node with stack profile.
// 2827  *
// 2828  * @param   stackProfile - stack profile of the network to join
// 2829  *
// 2830  * @return  none
// 2831  */

        RSEG BANKED_CODE:CODE:NOROOT(0)
// 2832 void ZDApp_NodeProfileSync( uint8 stackProfile )
ZDApp_NodeProfileSync:
          CFI Block cfiBlock208 Using cfiCommon0
          CFI Function ZDApp_NodeProfileSync
        CODE
// 2833 {
        FUNCALL ZDApp_NodeProfileSync, NLME_SetBroadcastFilter
        LOCFRAME ISTACK, 0, STACK
        LOCFRAME PSTACK, 0, STACK
        LOCFRAME XSTACK, 9, STACK
        LOCFRAME IOVERLAY, 0, STATIC
        LOCFRAME DOVERLAY, 0, STATIC
        ARGFRAME ISTACK, 0, STACK
        ARGFRAME PSTACK, 0, STACK
        ARGFRAME XSTACK, 9, STACK
        ARGFRAME IOVERLAY, 0, STATIC
        ARGFRAME DOVERLAY, 0, STATIC
        MOV     A,#-0x9
        LCALL   ?BANKED_ENTER_XDATA
          CFI DPH0 load(1, XDATA, add(CFA_XSP16, literal(-1)))
          CFI DPL0 load(1, XDATA, add(CFA_XSP16, literal(-2)))
          CFI ?BRET_EXT load(1, XDATA, add(CFA_XSP16, literal(-3)))
          CFI ?RET_HIGH load(1, XDATA, add(CFA_XSP16, literal(-4)))
          CFI ?RET_LOW load(1, XDATA, add(CFA_XSP16, literal(-5)))
          CFI R7 load(1, XDATA, add(CFA_XSP16, literal(-6)))
          CFI V0 load(1, XDATA, add(CFA_XSP16, literal(-7)))
          CFI VB load(1, XDATA, add(CFA_XSP16, literal(-8)))
          CFI R6 load(1, XDATA, add(CFA_XSP16, literal(-9)))
          CFI CFA_SP SP+0
          CFI CFA_XSP16 add(XSP16, 9)
        ; Saved register size: 9
        ; Auto size: 0
        MOV     A,R1
        MOV     R6,A
// 2834   if ( ZDO_Config_Node_Descriptor.CapabilityFlags & CAPINFO_DEVICETYPE_FFD  )
        MOV     DPTR,#ZDO_Config_Node_Descriptor + 2
        MOVX    A,@DPTR
        MOV     C,0xE0 /* A   */.1
        JNC     ??ZDApp_NodeProfileSync_0
// 2835   {
// 2836     if ( stackProfile != zgStackProfile )
        MOV     DPTR,#zgStackProfile
        MOVX    A,@DPTR
        XRL     A,R6
        JZ      ??ZDApp_NodeProfileSync_0
// 2837     {
// 2838       ZDO_Config_Node_Descriptor.LogicalType = NODETYPE_DEVICE;
        MOV     DPTR,#ZDO_Config_Node_Descriptor
        MOVX    A,@DPTR
        ANL     A,#0xf8
        ORL     A,#0x2
        MOVX    @DPTR,A
// 2839       ZDO_Config_Node_Descriptor.CapabilityFlags = CAPINFO_DEVICETYPE_RFD | CAPINFO_POWER_AC | CAPINFO_RCVR_ON_IDLE;
        MOV     DPTR,#ZDO_Config_Node_Descriptor + 2
        MOV     A,#0xc
        MOVX    @DPTR,A
// 2840       NLME_SetBroadcastFilter( ZDO_Config_Node_Descriptor.CapabilityFlags );
        ; Setup parameters for call to function NLME_SetBroadcastFilter
        MOV     R1,A
        LCALL   ??NLME_SetBroadcastFilter?relay; Banked call to: NLME_SetBroadcastFilter
// 2841     }
// 2842   }
// 2843 }
??ZDApp_NodeProfileSync_0:
        LJMP    ??Subroutine42_0 & 0xFFFF
          CFI EndBlock cfiBlock208
// 2844 
// 2845 /*********************************************************************
// 2846  * @fn      ZDApp_StartJoiningCycle()
// 2847  *
// 2848  * @brief   Starts the joining cycle of a device.  This will only
// 2849  *          continue an already started (or stopped) joining cycle.
// 2850  *
// 2851  * @param   none
// 2852  *
// 2853  * @return  TRUE if joining stopped, FALSE if joining or rejoining
// 2854  */

        RSEG BANKED_CODE:CODE:NOROOT(0)
// 2855 uint8 ZDApp_StartJoiningCycle( void )
ZDApp_StartJoiningCycle:
          CFI Block cfiBlock209 Using cfiCommon0
          CFI Function ZDApp_StartJoiningCycle
        CODE
// 2856 {
        FUNCALL ZDApp_StartJoiningCycle, ZDApp_NetworkInit
        LOCFRAME ISTACK, 2, STACK
        LOCFRAME PSTACK, 0, STACK
        LOCFRAME XSTACK, 0, STACK
        LOCFRAME IOVERLAY, 0, STATIC
        LOCFRAME DOVERLAY, 0, STATIC
        ARGFRAME ISTACK, 2, STACK
        ARGFRAME PSTACK, 0, STACK
        ARGFRAME XSTACK, 0, STACK
        ARGFRAME IOVERLAY, 0, STATIC
        ARGFRAME DOVERLAY, 0, STATIC
        PUSH    DPL
          CFI DPL0 Frame(CFA_SP, 4)
          CFI CFA_SP SP+-4
        PUSH    DPH
          CFI DPH0 Frame(CFA_SP, 5)
          CFI CFA_SP SP+-5
        ; Saved register size: 2
        ; Auto size: 0
// 2857   if ( devState == DEV_INIT || devState == DEV_NWK_DISC )
        MOV     DPTR,#devState
        MOVX    A,@DPTR
        XRL     A,#0x1
        JZ      ??ZDApp_StartJoiningCycle_0
        MOVX    A,@DPTR
        XRL     A,#0x2
        JNZ     ??ZDApp_StartJoiningCycle_1
// 2858   {
// 2859     continueJoining = TRUE;
??ZDApp_StartJoiningCycle_0:
        MOV     DPTR,#continueJoining
        MOV     A,#0x1
        MOVX    @DPTR,A
// 2860     ZDApp_NetworkInit( 0 );
        ; Setup parameters for call to function ZDApp_NetworkInit
        MOV     R2,#0x0
        MOV     R3,#0x0
        LCALL   ??ZDApp_NetworkInit?relay; Banked call to: ZDApp_NetworkInit
// 2861 
// 2862     return ( TRUE );
        MOV     R1,#0x1
        SJMP    ??ZDApp_StartJoiningCycle_2
// 2863   }
// 2864   else
// 2865     return ( FALSE );
??ZDApp_StartJoiningCycle_1:
        MOV     R1,#0x0
??ZDApp_StartJoiningCycle_2:
        LJMP    ?Subroutine3 & 0xFFFF
          CFI EndBlock cfiBlock209
// 2866 }
// 2867 
// 2868 /*********************************************************************
// 2869  * @fn      ZDApp_StopJoiningCycle()
// 2870  *
// 2871  * @brief   Stops the joining or rejoining process of a device.
// 2872  *
// 2873  * @param   none
// 2874  *
// 2875  * @return  TRUE if joining stopped, FALSE if joining or rejoining
// 2876  */

        RSEG BANKED_CODE:CODE:NOROOT(0)
// 2877 uint8 ZDApp_StopJoiningCycle( void )
ZDApp_StopJoiningCycle:
          CFI Block cfiBlock210 Using cfiCommon0
          CFI Function ZDApp_StopJoiningCycle
        CODE
// 2878 {
        PUSH    DPL
          CFI DPL0 Frame(CFA_SP, 4)
          CFI CFA_SP SP+-4
        PUSH    DPH
          CFI DPH0 Frame(CFA_SP, 5)
          CFI CFA_SP SP+-5
        ; Saved register size: 2
        ; Auto size: 0
// 2879   if ( devState == DEV_INIT || devState == DEV_NWK_DISC )
        MOV     DPTR,#devState
        MOVX    A,@DPTR
        XRL     A,#0x1
        JZ      ??ZDApp_StopJoiningCycle_0
        MOVX    A,@DPTR
        XRL     A,#0x2
        JNZ     ??ZDApp_StopJoiningCycle_1
// 2880   {
// 2881     continueJoining = FALSE;
??ZDApp_StopJoiningCycle_0:
        MOV     DPTR,#continueJoining
        CLR     A
        MOVX    @DPTR,A
// 2882     return ( TRUE );
        MOV     R1,#0x1
        SJMP    ??ZDApp_StopJoiningCycle_2
// 2883   }
// 2884   else
// 2885     return ( FALSE );
??ZDApp_StopJoiningCycle_1:
        MOV     R1,#0x0
??ZDApp_StopJoiningCycle_2:
        LJMP    ?Subroutine3 & 0xFFFF
          CFI EndBlock cfiBlock210
// 2886 }
// 2887 
// 2888 /*********************************************************************
// 2889  * @fn      ZDApp_AnnounceNewAddress()
// 2890  *
// 2891  * @brief   Send Device Announce and hold all transmissions for
// 2892  *          new address timeout.
// 2893  *
// 2894  * @param   none
// 2895  *
// 2896  * @return  none
// 2897  */

        RSEG BANKED_CODE:CODE:NOROOT(0)
// 2898 void ZDApp_AnnounceNewAddress( void )
ZDApp_AnnounceNewAddress:
          CFI Block cfiBlock211 Using cfiCommon0
          CFI Function ZDApp_AnnounceNewAddress
        CODE
// 2899 {
        FUNCALL ZDApp_AnnounceNewAddress, APSME_HoldDataRequests
        LOCFRAME ISTACK, 0, STACK
        LOCFRAME PSTACK, 0, STACK
        LOCFRAME XSTACK, 10, STACK
        LOCFRAME IOVERLAY, 0, STATIC
        LOCFRAME DOVERLAY, 0, STATIC
        ARGFRAME ISTACK, 0, STACK
        ARGFRAME PSTACK, 0, STACK
        ARGFRAME XSTACK, 10, STACK
        ARGFRAME IOVERLAY, 0, STATIC
        ARGFRAME DOVERLAY, 0, STATIC
        FUNCALL ZDApp_AnnounceNewAddress, NLME_GetExtAddr
        LOCFRAME ISTACK, 0, STACK
        LOCFRAME PSTACK, 0, STACK
        LOCFRAME XSTACK, 10, STACK
        LOCFRAME IOVERLAY, 0, STATIC
        LOCFRAME DOVERLAY, 0, STATIC
        ARGFRAME ISTACK, 0, STACK
        ARGFRAME PSTACK, 0, STACK
        ARGFRAME XSTACK, 10, STACK
        ARGFRAME IOVERLAY, 0, STATIC
        ARGFRAME DOVERLAY, 0, STATIC
        FUNCALL ZDApp_AnnounceNewAddress, NLME_GetShortAddr
        LOCFRAME ISTACK, 0, STACK
        LOCFRAME PSTACK, 0, STACK
        LOCFRAME XSTACK, 10, STACK
        LOCFRAME IOVERLAY, 0, STATIC
        LOCFRAME DOVERLAY, 0, STATIC
        ARGFRAME ISTACK, 0, STACK
        ARGFRAME PSTACK, 0, STACK
        ARGFRAME XSTACK, 10, STACK
        ARGFRAME IOVERLAY, 0, STATIC
        ARGFRAME DOVERLAY, 0, STATIC
        FUNCALL ZDApp_AnnounceNewAddress, ZDP_DeviceAnnce
        LOCFRAME ISTACK, 0, STACK
        LOCFRAME PSTACK, 0, STACK
        LOCFRAME XSTACK, 11, STACK
        LOCFRAME IOVERLAY, 0, STATIC
        LOCFRAME DOVERLAY, 0, STATIC
        ARGFRAME ISTACK, 0, STACK
        ARGFRAME PSTACK, 0, STACK
        ARGFRAME XSTACK, 11, STACK
        ARGFRAME IOVERLAY, 0, STATIC
        ARGFRAME DOVERLAY, 0, STATIC
        FUNCALL ZDApp_AnnounceNewAddress, APSME_HoldDataRequests
        LOCFRAME ISTACK, 0, STACK
        LOCFRAME PSTACK, 0, STACK
        LOCFRAME XSTACK, 10, STACK
        LOCFRAME IOVERLAY, 0, STATIC
        LOCFRAME DOVERLAY, 0, STATIC
        ARGFRAME ISTACK, 0, STACK
        ARGFRAME PSTACK, 0, STACK
        ARGFRAME XSTACK, 10, STACK
        ARGFRAME IOVERLAY, 0, STATIC
        ARGFRAME DOVERLAY, 0, STATIC
        REQUIRE ?V0
        REQUIRE ?V1
        MOV     A,#-0xa
        LCALL   ?BANKED_ENTER_XDATA
          CFI DPH0 load(1, XDATA, add(CFA_XSP16, literal(-1)))
          CFI DPL0 load(1, XDATA, add(CFA_XSP16, literal(-2)))
          CFI ?BRET_EXT load(1, XDATA, add(CFA_XSP16, literal(-3)))
          CFI ?RET_HIGH load(1, XDATA, add(CFA_XSP16, literal(-4)))
          CFI ?RET_LOW load(1, XDATA, add(CFA_XSP16, literal(-5)))
          CFI R7 load(1, XDATA, add(CFA_XSP16, literal(-6)))
          CFI V1 load(1, XDATA, add(CFA_XSP16, literal(-7)))
          CFI V0 load(1, XDATA, add(CFA_XSP16, literal(-8)))
          CFI VB load(1, XDATA, add(CFA_XSP16, literal(-9)))
          CFI R6 load(1, XDATA, add(CFA_XSP16, literal(-10)))
          CFI CFA_SP SP+0
          CFI CFA_XSP16 add(XSP16, 10)
        ; Saved register size: 10
        ; Auto size: 0
// 2900 #if defined ( ZIGBEE_NWK_UNIQUE_ADDR_CHECK )
// 2901   // Turn off data request hold
// 2902   APSME_HoldDataRequests( 0 );
        ; Setup parameters for call to function APSME_HoldDataRequests
        MOV     R2,#0x0
        MOV     R3,#0x0
        LCALL   ??APSME_HoldDataRequests?relay; Banked call to: APSME_HoldDataRequests
// 2903 #endif
// 2904 
// 2905   ZDP_DeviceAnnce( NLME_GetShortAddr(), NLME_GetExtAddr(),
// 2906                      ZDO_Config_Node_Descriptor.CapabilityFlags, 0 );
        ; Setup parameters for call to function NLME_GetExtAddr
        LCALL   ??NLME_GetExtAddr?relay; Banked call to: NLME_GetExtAddr
        MOV     ?V0,R2
        MOV     ?V1,R3
        MOV     R6,?V0
        ; Setup parameters for call to function NLME_GetShortAddr
        LCALL   ??NLME_GetShortAddr?relay; Banked call to: NLME_GetShortAddr
        ; Setup parameters for call to function ZDP_DeviceAnnce
        MOV     ?V0,#0x0
        MOV     R0,#?V0
        LCALL   ?PUSH_XSTACK_I_ONE
          CFI CFA_XSP16 add(XSP16, 11)
        MOV     DPTR,#ZDO_Config_Node_Descriptor + 2
        MOVX    A,@DPTR
        MOV     R1,A
        MOV     A,R6
        MOV     R4,A
        MOV     R5,?V1
        LCALL   ??ZDP_DeviceAnnce?relay; Banked call to: ZDP_DeviceAnnce
        MOV     A,#0x1
        LCALL   ?DEALLOC_XSTACK8
          CFI CFA_XSP16 add(XSP16, 10)
// 2907 
// 2908 #if defined ( ZIGBEE_NWK_UNIQUE_ADDR_CHECK )
// 2909   // Setup the timeout
// 2910   APSME_HoldDataRequests( ZDAPP_HOLD_DATA_REQUESTS_TIMEOUT );
        ; Setup parameters for call to function APSME_HoldDataRequests
        MOV     R2,#0x0
        MOV     R3,#0x0
        LCALL   ??APSME_HoldDataRequests?relay; Banked call to: APSME_HoldDataRequests
// 2911 #endif
// 2912 }
        LJMP    ??Subroutine41_0 & 0xFFFF
          CFI EndBlock cfiBlock211
// 2913 
// 2914 /*********************************************************************
// 2915  * @fn          ZDApp_NVUpdate
// 2916  *
// 2917  * @brief       Set the NV Update Timer.
// 2918  *
// 2919  * @param       none
// 2920  *
// 2921  * @return      none
// 2922  */

        RSEG BANKED_CODE:CODE:NOROOT(0)
// 2923 void ZDApp_NVUpdate( void )
ZDApp_NVUpdate:
          CFI Block cfiBlock212 Using cfiCommon0
          CFI Function ZDApp_NVUpdate
        CODE
// 2924 {
        ; Saved register size: 0
        ; Auto size: 0
// 2925 #if defined ( NV_RESTORE )
// 2926   osal_start_timerEx( ZDAppTaskID, ZDO_NWK_UPDATE_NV, ZDAPP_UPDATE_NWK_NV_TIME );
// 2927 #endif
// 2928 }
        LJMP    ?BRET
          CFI EndBlock cfiBlock212
// 2929 
// 2930 /*********************************************************************
// 2931  * @fn      ZDApp_CoordStartPANIDConflictCB()
// 2932  *
// 2933  * @brief   Returns a PAN ID for the network layer to use during
// 2934  *          a coordinator start and there is another network with
// 2935  *          the intended PANID.
// 2936  *
// 2937  * @param   panid - the intended PAN ID
// 2938  *
// 2939  * @return  PANID to try
// 2940  */

        RSEG BANKED_CODE:CODE:NOROOT(0)
// 2941 uint16 ZDApp_CoordStartPANIDConflictCB( uint16 panid )
ZDApp_CoordStartPANIDConflictCB:
          CFI Block cfiBlock213 Using cfiCommon0
          CFI Function ZDApp_CoordStartPANIDConflictCB
        CODE
// 2942 {
        ; Saved register size: 0
        ; Auto size: 0
// 2943   return ( panid + 1 );
        MOV     A,R2
        ADD     A,#0x1
        INC     R2
        JNC     ??ZDApp_CoordStartPANIDConflictCB_0
        INC     R3
??ZDApp_CoordStartPANIDConflictCB_0:
        LJMP    ?BRET
          CFI EndBlock cfiBlock213
// 2944 }
// 2945 
// 2946 /*********************************************************************
// 2947  * @fn          ZDO_SrcRtgIndCB
// 2948  *
// 2949  * @brief       This function notifies the ZDO available src route record received.
// 2950  *
// 2951  * @param       srcAddr - source address of the source route
// 2952  * @param       relayCnt - number of devices in the relay list
// 2953  * @param       relayList - relay list of the source route
// 2954  *
// 2955  * @return      none
// 2956  */

        RSEG BANKED_CODE:CODE:NOROOT(0)
// 2957 void ZDO_SrcRtgIndCB (uint16 srcAddr, uint8 relayCnt, uint16* pRelayList )
ZDO_SrcRtgIndCB:
          CFI Block cfiBlock214 Using cfiCommon0
          CFI Function ZDO_SrcRtgIndCB
        CODE
// 2958 {
        MOV     A,#-0x9
        LCALL   ?BANKED_ENTER_XDATA
          CFI DPH0 load(1, XDATA, add(CFA_XSP16, literal(-1)))
          CFI DPL0 load(1, XDATA, add(CFA_XSP16, literal(-2)))
          CFI ?BRET_EXT load(1, XDATA, add(CFA_XSP16, literal(-3)))
          CFI ?RET_HIGH load(1, XDATA, add(CFA_XSP16, literal(-4)))
          CFI ?RET_LOW load(1, XDATA, add(CFA_XSP16, literal(-5)))
          CFI R7 load(1, XDATA, add(CFA_XSP16, literal(-6)))
          CFI V0 load(1, XDATA, add(CFA_XSP16, literal(-7)))
          CFI VB load(1, XDATA, add(CFA_XSP16, literal(-8)))
          CFI R6 load(1, XDATA, add(CFA_XSP16, literal(-9)))
          CFI CFA_SP SP+0
          CFI CFA_XSP16 add(XSP16, 9)
        ; Saved register size: 9
        ; Auto size: 5
        MOV     A,#-0x5
        LCALL   ?ALLOC_XSTACK8
          CFI CFA_XSP16 add(XSP16, 14)
// 2959   zdoSrcRtg_t srcRtg;
// 2960 
// 2961   srcRtg.srcAddr = srcAddr;
        LCALL   ?Subroutine12 & 0xFFFF
// 2962   srcRtg.relayCnt = relayCnt;
??CrossCallReturnLabel_87:
        MOV     A,#0x2
        LCALL   ?XSTACK_DISP0_8
        MOV     A,R1
        MOVX    @DPTR,A
// 2963   srcRtg.pRelayList = pRelayList;
        MOV     A,#0x3
        LCALL   ?XSTACK_DISP0_8
        MOV     A,R4
        MOVX    @DPTR,A
        INC     DPTR
        MOV     A,R5
        MOVX    @DPTR,A
// 2964 
// 2965   if( zdoCBFunc[ZDO_SRC_RTG_IND_CBID] != NULL )
        MOV     DPTR,#zdoCBFunc
        LCALL   ?Subroutine14 & 0xFFFF
??CrossCallReturnLabel_15:
        JZ      ??ZDO_SrcRtgIndCB_0
// 2966   {
// 2967     zdoCBFunc[ZDO_SRC_RTG_IND_CBID]( (void*)&srcRtg );
        ; Setup parameters for indirect call
        MOV     R2,?XSP + 0
        MOV     R3,?XSP + 1
        LCALL   ??Subroutine47_0 & 0xFFFF
// 2968   }
??CrossCallReturnLabel_74:
        LCALL   ?CALL_IND
// 2969 }
??ZDO_SrcRtgIndCB_0:
        LJMP    ?Subroutine6 & 0xFFFF
          CFI EndBlock cfiBlock214
// 2970 
// 2971 /*********************************************************************
// 2972  * @fn          ZDApp_InitZdoCBFunc
// 2973  *
// 2974  * @brief       Call this function to initialize zdoCBFunc[]
// 2975  *
// 2976  * @param       none
// 2977  *
// 2978  * @return      none
// 2979  */

        RSEG BANKED_CODE:CODE:NOROOT(0)
// 2980 void ZDApp_InitZdoCBFunc( void )
ZDApp_InitZdoCBFunc:
          CFI Block cfiBlock215 Using cfiCommon0
          CFI Function ZDApp_InitZdoCBFunc
        CODE
// 2981 {
        PUSH    DPL
          CFI DPL0 Frame(CFA_SP, 4)
          CFI CFA_SP SP+-4
        PUSH    DPH
          CFI DPH0 Frame(CFA_SP, 5)
          CFI CFA_SP SP+-5
        ; Saved register size: 2
        ; Auto size: 0
// 2982   uint8 i;
// 2983 
// 2984   for ( i=0; i< MAX_ZDO_CB_FUNC; i++ )
        MOV     R2,#0x0
// 2985   {
// 2986     zdoCBFunc[i] = NULL;
??ZDApp_InitZdoCBFunc_0:
        MOV     A,R2
        ADD     A,0xE0 /* A   */
        LCALL   ?Subroutine21 & 0xFFFF
// 2987   }
??CrossCallReturnLabel_20:
        INC     R2
        MOV     A,R2
        CLR     C
        SUBB    A,#0x7
        JC      ??ZDApp_InitZdoCBFunc_0
// 2988 }
        LJMP    ?Subroutine3 & 0xFFFF
          CFI EndBlock cfiBlock215
// 2989 
// 2990 /*********************************************************************
// 2991  * @fn          ZDO_RegisterForZdoCB
// 2992  *
// 2993  * @brief       Call this function to register the higher layer (for
// 2994  *              example, the Application layer or MT layer) with ZDO
// 2995  *              callbacks to get notified of some ZDO indication like
// 2996  *              existence of a concentrator or receipt of a source
// 2997  *              route record.
// 2998  *
// 2999  * @param       indID - ZDO Indication ID
// 3000  * @param       pFn   - Callback function pointer
// 3001  *
// 3002  * @return      ZSuccess - successful, ZInvalidParameter if not
// 3003  */

        RSEG BANKED_CODE:CODE:NOROOT(0)
// 3004 ZStatus_t ZDO_RegisterForZdoCB( uint8 indID, pfnZdoCb pFn )
ZDO_RegisterForZdoCB:
          CFI Block cfiBlock216 Using cfiCommon0
          CFI Function ZDO_RegisterForZdoCB
        CODE
// 3005 {
        PUSH    DPL
          CFI DPL0 Frame(CFA_SP, 4)
          CFI CFA_SP SP+-4
        PUSH    DPH
          CFI DPH0 Frame(CFA_SP, 5)
          CFI CFA_SP SP+-5
        ; Saved register size: 2
        ; Auto size: 0
        MOV     A,R1
        MOV     R4,A
// 3006   // Check the range of the indication ID
// 3007   if ( indID < MAX_ZDO_CB_FUNC )
        CLR     C
        SUBB    A,#0x7
        JNC     ??ZDO_RegisterForZdoCB_0
// 3008   {
// 3009     zdoCBFunc[indID] = pFn;
        MOV     A,R4
        ADD     A,R1
        LCALL   ?Subroutine30 & 0xFFFF
??CrossCallReturnLabel_36:
        LCALL   ??Subroutine48_0 & 0xFFFF
// 3010     return ZSuccess;
??CrossCallReturnLabel_84:
        MOV     R1,#0x0
        SJMP    ??ZDO_RegisterForZdoCB_1
// 3011   }
// 3012 
// 3013   return ZInvalidParameter;
??ZDO_RegisterForZdoCB_0:
        MOV     R1,#0x2
??ZDO_RegisterForZdoCB_1:
        LJMP    ?Subroutine3 & 0xFFFF
          CFI EndBlock cfiBlock216
// 3014 }

        RSEG BANKED_CODE:CODE:NOROOT(0)
?Subroutine12:
          CFI Block cfiCond217 Using cfiCommon0
          CFI Function ZDOInitDevice
          CFI Conditional ??CrossCallReturnLabel_85
          CFI R6 load(1, XDATA, add(CFA_XSP16, literal(-10)))
          CFI VB load(1, XDATA, add(CFA_XSP16, literal(-9)))
          CFI V0 load(1, XDATA, add(CFA_XSP16, literal(-8)))
          CFI V1 load(1, XDATA, add(CFA_XSP16, literal(-7)))
          CFI R7 load(1, XDATA, add(CFA_XSP16, literal(-6)))
          CFI ?RET_LOW load(1, XDATA, add(CFA_XSP16, literal(-5)))
          CFI ?RET_HIGH load(1, XDATA, add(CFA_XSP16, literal(-4)))
          CFI ?BRET_EXT load(1, XDATA, add(CFA_XSP16, literal(-3)))
          CFI DPL0 load(1, XDATA, add(CFA_XSP16, literal(-2)))
          CFI DPH0 load(1, XDATA, add(CFA_XSP16, literal(-1)))
          CFI CFA_SP SP+-2
          CFI CFA_XSP16 add(XSP16, 12)
          CFI Block cfiCond218 Using cfiCommon0
          CFI (cfiCond218) Function ZDO_ConcentratorIndicationCB
          CFI (cfiCond218) Conditional ??CrossCallReturnLabel_86
          CFI (cfiCond218) R6 load(1, XDATA, add(CFA_XSP16, literal(-9)))
          CFI (cfiCond218) VB load(1, XDATA, add(CFA_XSP16, literal(-8)))
          CFI (cfiCond218) V0 load(1, XDATA, add(CFA_XSP16, literal(-7)))
          CFI (cfiCond218) R7 load(1, XDATA, add(CFA_XSP16, literal(-6)))
          CFI (cfiCond218) ?RET_LOW load(1, XDATA, add(CFA_XSP16, literal(-5)))
          CFI (cfiCond218) ?RET_HIGH load(1, XDATA, add(CFA_XSP16, literal(-4)))
          CFI (cfiCond218) ?BRET_EXT load(1, XDATA, add(CFA_XSP16, literal(-3)))
          CFI (cfiCond218) DPL0 load(1, XDATA, add(CFA_XSP16, literal(-2)))
          CFI (cfiCond218) DPH0 load(1, XDATA, add(CFA_XSP16, literal(-1)))
          CFI (cfiCond218) CFA_SP SP+-2
          CFI (cfiCond218) CFA_XSP16 add(XSP16, 14)
          CFI Block cfiCond219 Using cfiCommon0
          CFI (cfiCond219) Function ZDO_SrcRtgIndCB
          CFI (cfiCond219) Conditional ??CrossCallReturnLabel_87
          CFI (cfiCond219) R6 load(1, XDATA, add(CFA_XSP16, literal(-9)))
          CFI (cfiCond219) VB load(1, XDATA, add(CFA_XSP16, literal(-8)))
          CFI (cfiCond219) V0 load(1, XDATA, add(CFA_XSP16, literal(-7)))
          CFI (cfiCond219) R7 load(1, XDATA, add(CFA_XSP16, literal(-6)))
          CFI (cfiCond219) ?RET_LOW load(1, XDATA, add(CFA_XSP16, literal(-5)))
          CFI (cfiCond219) ?RET_HIGH load(1, XDATA, add(CFA_XSP16, literal(-4)))
          CFI (cfiCond219) ?BRET_EXT load(1, XDATA, add(CFA_XSP16, literal(-3)))
          CFI (cfiCond219) DPL0 load(1, XDATA, add(CFA_XSP16, literal(-2)))
          CFI (cfiCond219) DPH0 load(1, XDATA, add(CFA_XSP16, literal(-1)))
          CFI (cfiCond219) CFA_SP SP+-2
          CFI (cfiCond219) CFA_XSP16 add(XSP16, 14)
          CFI Block cfiPicker220 Using cfiCommon1
          CFI (cfiPicker220) NoFunction
          CFI (cfiPicker220) Picker
        MOV     DPL,?XSP + 0
        MOV     DPH,?XSP + 1
          CFI EndBlock cfiCond217
          CFI EndBlock cfiCond218
          CFI EndBlock cfiCond219
          CFI EndBlock cfiPicker220
        REQUIRE ??Subroutine48_0
        ; // Fall through to label ??Subroutine48_0

        RSEG BANKED_CODE:CODE:NOROOT(0)
??Subroutine48_0:
          CFI Block cfiCond221 Using cfiCommon0
          CFI Function ZDApp_ProcessSecEvent
          CFI Conditional ??CrossCallReturnLabel_80
          CFI R6 load(1, XDATA, add(CFA_XSP16, literal(-9)))
          CFI VB load(1, XDATA, add(CFA_XSP16, literal(-8)))
          CFI V0 load(1, XDATA, add(CFA_XSP16, literal(-7)))
          CFI R7 load(1, XDATA, add(CFA_XSP16, literal(-6)))
          CFI ?RET_LOW load(1, XDATA, add(CFA_XSP16, literal(-5)))
          CFI ?RET_HIGH load(1, XDATA, add(CFA_XSP16, literal(-4)))
          CFI ?BRET_EXT load(1, XDATA, add(CFA_XSP16, literal(-3)))
          CFI DPL0 load(1, XDATA, add(CFA_XSP16, literal(-2)))
          CFI DPH0 load(1, XDATA, add(CFA_XSP16, literal(-1)))
          CFI CFA_SP SP+-2
          CFI CFA_XSP16 add(XSP16, 9)
          CFI Block cfiCond222 Using cfiCommon0
          CFI (cfiCond222) Function ZDApp_RestoreNetworkState
          CFI (cfiCond222) Conditional ??CrossCallReturnLabel_81
          CFI (cfiCond222) R6 load(1, XDATA, add(CFA_XSP16, literal(-9)))
          CFI (cfiCond222) VB load(1, XDATA, add(CFA_XSP16, literal(-8)))
          CFI (cfiCond222) V0 load(1, XDATA, add(CFA_XSP16, literal(-7)))
          CFI (cfiCond222) R7 load(1, XDATA, add(CFA_XSP16, literal(-6)))
          CFI (cfiCond222) ?RET_LOW load(1, XDATA, add(CFA_XSP16, literal(-5)))
          CFI (cfiCond222) ?RET_HIGH load(1, XDATA, add(CFA_XSP16, literal(-4)))
          CFI (cfiCond222) ?BRET_EXT load(1, XDATA, add(CFA_XSP16, literal(-3)))
          CFI (cfiCond222) DPL0 load(1, XDATA, add(CFA_XSP16, literal(-2)))
          CFI (cfiCond222) DPH0 load(1, XDATA, add(CFA_XSP16, literal(-1)))
          CFI (cfiCond222) CFA_SP SP+-2
          CFI (cfiCond222) CFA_XSP16 add(XSP16, 9)
          CFI Block cfiCond223 Using cfiCommon0
          CFI (cfiCond223) Function ZDApp_ProcessOSALMsg
          CFI (cfiCond223) Conditional ??CrossCallReturnLabel_82
          CFI (cfiCond223) R6 load(1, XDATA, add(CFA_XSP16, literal(-10)))
          CFI (cfiCond223) VB load(1, XDATA, add(CFA_XSP16, literal(-9)))
          CFI (cfiCond223) V0 load(1, XDATA, add(CFA_XSP16, literal(-8)))
          CFI (cfiCond223) V1 load(1, XDATA, add(CFA_XSP16, literal(-7)))
          CFI (cfiCond223) R7 load(1, XDATA, add(CFA_XSP16, literal(-6)))
          CFI (cfiCond223) ?RET_LOW load(1, XDATA, add(CFA_XSP16, literal(-5)))
          CFI (cfiCond223) ?RET_HIGH load(1, XDATA, add(CFA_XSP16, literal(-4)))
          CFI (cfiCond223) ?BRET_EXT load(1, XDATA, add(CFA_XSP16, literal(-3)))
          CFI (cfiCond223) DPL0 load(1, XDATA, add(CFA_XSP16, literal(-2)))
          CFI (cfiCond223) DPH0 load(1, XDATA, add(CFA_XSP16, literal(-1)))
          CFI (cfiCond223) CFA_SP SP+-2
          CFI (cfiCond223) CFA_XSP16 add(XSP16, 11)
          CFI Block cfiCond224 Using cfiCommon0
          CFI (cfiCond224) Function ZDO_beaconNotifyIndCB
          CFI (cfiCond224) Conditional ??CrossCallReturnLabel_83
          CFI (cfiCond224) R6 load(1, XDATA, add(CFA_XSP16, literal(-14)))
          CFI (cfiCond224) VB load(1, XDATA, add(CFA_XSP16, literal(-13)))
          CFI (cfiCond224) V0 load(1, XDATA, add(CFA_XSP16, literal(-12)))
          CFI (cfiCond224) V1 load(1, XDATA, add(CFA_XSP16, literal(-11)))
          CFI (cfiCond224) V2 load(1, XDATA, add(CFA_XSP16, literal(-10)))
          CFI (cfiCond224) V3 load(1, XDATA, add(CFA_XSP16, literal(-9)))
          CFI (cfiCond224) V4 load(1, XDATA, add(CFA_XSP16, literal(-8)))
          CFI (cfiCond224) V5 load(1, XDATA, add(CFA_XSP16, literal(-7)))
          CFI (cfiCond224) R7 load(1, XDATA, add(CFA_XSP16, literal(-6)))
          CFI (cfiCond224) ?RET_LOW load(1, XDATA, add(CFA_XSP16, literal(-5)))
          CFI (cfiCond224) ?RET_HIGH load(1, XDATA, add(CFA_XSP16, literal(-4)))
          CFI (cfiCond224) ?BRET_EXT load(1, XDATA, add(CFA_XSP16, literal(-3)))
          CFI (cfiCond224) DPL0 load(1, XDATA, add(CFA_XSP16, literal(-2)))
          CFI (cfiCond224) DPH0 load(1, XDATA, add(CFA_XSP16, literal(-1)))
          CFI (cfiCond224) CFA_SP SP+-2
          CFI (cfiCond224) CFA_XSP16 add(XSP16, 14)
          CFI Block cfiCond225 Using cfiCommon0
          CFI (cfiCond225) Function ZDO_RegisterForZdoCB
          CFI (cfiCond225) Conditional ??CrossCallReturnLabel_84
          CFI (cfiCond225) DPL0 Frame(CFA_SP, 4)
          CFI (cfiCond225) DPH0 Frame(CFA_SP, 5)
          CFI (cfiCond225) CFA_SP SP+-7
          CFI Block cfiCond226 Using cfiCommon0
          CFI (cfiCond226) Function ZDOInitDevice
          CFI (cfiCond226) Conditional ??CrossCallReturnLabel_85
          CFI (cfiCond226) R6 load(1, XDATA, add(CFA_XSP16, literal(-10)))
          CFI (cfiCond226) VB load(1, XDATA, add(CFA_XSP16, literal(-9)))
          CFI (cfiCond226) V0 load(1, XDATA, add(CFA_XSP16, literal(-8)))
          CFI (cfiCond226) V1 load(1, XDATA, add(CFA_XSP16, literal(-7)))
          CFI (cfiCond226) R7 load(1, XDATA, add(CFA_XSP16, literal(-6)))
          CFI (cfiCond226) ?RET_LOW load(1, XDATA, add(CFA_XSP16, literal(-5)))
          CFI (cfiCond226) ?RET_HIGH load(1, XDATA, add(CFA_XSP16, literal(-4)))
          CFI (cfiCond226) ?BRET_EXT load(1, XDATA, add(CFA_XSP16, literal(-3)))
          CFI (cfiCond226) DPL0 load(1, XDATA, add(CFA_XSP16, literal(-2)))
          CFI (cfiCond226) DPH0 load(1, XDATA, add(CFA_XSP16, literal(-1)))
          CFI (cfiCond226) CFA_SP SP+-2
          CFI (cfiCond226) CFA_XSP16 add(XSP16, 12)
          CFI Block cfiCond227 Using cfiCommon0
          CFI (cfiCond227) Function ZDO_ConcentratorIndicationCB
          CFI (cfiCond227) Conditional ??CrossCallReturnLabel_86
          CFI (cfiCond227) R6 load(1, XDATA, add(CFA_XSP16, literal(-9)))
          CFI (cfiCond227) VB load(1, XDATA, add(CFA_XSP16, literal(-8)))
          CFI (cfiCond227) V0 load(1, XDATA, add(CFA_XSP16, literal(-7)))
          CFI (cfiCond227) R7 load(1, XDATA, add(CFA_XSP16, literal(-6)))
          CFI (cfiCond227) ?RET_LOW load(1, XDATA, add(CFA_XSP16, literal(-5)))
          CFI (cfiCond227) ?RET_HIGH load(1, XDATA, add(CFA_XSP16, literal(-4)))
          CFI (cfiCond227) ?BRET_EXT load(1, XDATA, add(CFA_XSP16, literal(-3)))
          CFI (cfiCond227) DPL0 load(1, XDATA, add(CFA_XSP16, literal(-2)))
          CFI (cfiCond227) DPH0 load(1, XDATA, add(CFA_XSP16, literal(-1)))
          CFI (cfiCond227) CFA_SP SP+-2
          CFI (cfiCond227) CFA_XSP16 add(XSP16, 14)
          CFI Block cfiCond228 Using cfiCommon0
          CFI (cfiCond228) Function ZDO_SrcRtgIndCB
          CFI (cfiCond228) Conditional ??CrossCallReturnLabel_87
          CFI (cfiCond228) R6 load(1, XDATA, add(CFA_XSP16, literal(-9)))
          CFI (cfiCond228) VB load(1, XDATA, add(CFA_XSP16, literal(-8)))
          CFI (cfiCond228) V0 load(1, XDATA, add(CFA_XSP16, literal(-7)))
          CFI (cfiCond228) R7 load(1, XDATA, add(CFA_XSP16, literal(-6)))
          CFI (cfiCond228) ?RET_LOW load(1, XDATA, add(CFA_XSP16, literal(-5)))
          CFI (cfiCond228) ?RET_HIGH load(1, XDATA, add(CFA_XSP16, literal(-4)))
          CFI (cfiCond228) ?BRET_EXT load(1, XDATA, add(CFA_XSP16, literal(-3)))
          CFI (cfiCond228) DPL0 load(1, XDATA, add(CFA_XSP16, literal(-2)))
          CFI (cfiCond228) DPH0 load(1, XDATA, add(CFA_XSP16, literal(-1)))
          CFI (cfiCond228) CFA_SP SP+-2
          CFI (cfiCond228) CFA_XSP16 add(XSP16, 14)
          CFI Block cfiPicker229 Using cfiCommon1
          CFI (cfiPicker229) NoFunction
          CFI (cfiPicker229) Picker
        MOV     A,R2
        MOVX    @DPTR,A
        INC     DPTR
        MOV     A,R3
        MOVX    @DPTR,A
        RET
          CFI EndBlock cfiCond221
          CFI EndBlock cfiCond222
          CFI EndBlock cfiCond223
          CFI EndBlock cfiCond224
          CFI EndBlock cfiCond225
          CFI EndBlock cfiCond226
          CFI EndBlock cfiCond227
          CFI EndBlock cfiCond228
          CFI EndBlock cfiPicker229
// 3015 
// 3016 /*********************************************************************
// 3017  * @fn          ZDO_DeregisterForZdoCB
// 3018  *
// 3019  * @brief       Call this function to de-register the higher layer (for
// 3020  *              example, the Application layer or MT layer) with ZDO
// 3021  *              callbacks to get notified of some ZDO indication like
// 3022  *              existence of a concentrator or receipt of a source
// 3023  *              route record.
// 3024  *
// 3025  * @param       indID - ZDO Indication ID
// 3026  *
// 3027  * @return      ZSuccess - successful, ZInvalidParameter if not
// 3028  */

        RSEG BANKED_CODE:CODE:NOROOT(0)
// 3029 ZStatus_t ZDO_DeregisterForZdoCB( uint8 indID )
ZDO_DeregisterForZdoCB:
          CFI Block cfiBlock230 Using cfiCommon0
          CFI Function ZDO_DeregisterForZdoCB
        CODE
// 3030 {
        PUSH    DPL
          CFI DPL0 Frame(CFA_SP, 4)
          CFI CFA_SP SP+-4
        PUSH    DPH
          CFI DPH0 Frame(CFA_SP, 5)
          CFI CFA_SP SP+-5
        ; Saved register size: 2
        ; Auto size: 0
        MOV     A,R1
        MOV     R2,A
// 3031   // Check the range of the indication ID
// 3032   if ( indID < MAX_ZDO_CB_FUNC )
        CLR     C
        SUBB    A,#0x7
        JNC     ??ZDO_DeregisterForZdoCB_0
// 3033   {
// 3034     zdoCBFunc[indID] = NULL;
        MOV     A,R2
        ADD     A,R1
        LCALL   ?Subroutine21 & 0xFFFF
// 3035     return ZSuccess;
??CrossCallReturnLabel_21:
        MOV     R1,A
        SJMP    ??ZDO_DeregisterForZdoCB_1
// 3036   }
// 3037 
// 3038   return ZInvalidParameter;
??ZDO_DeregisterForZdoCB_0:
        MOV     R1,#0x2
??ZDO_DeregisterForZdoCB_1:
        LJMP    ?Subroutine3 & 0xFFFF
          CFI EndBlock cfiBlock230
// 3039 }

        RSEG BANKED_CODE:CODE:NOROOT(0)
?Subroutine21:
          CFI Block cfiCond231 Using cfiCommon0
          CFI Function ZDApp_InitZdoCBFunc
          CFI Conditional ??CrossCallReturnLabel_20
          CFI DPL0 Frame(CFA_SP, 4)
          CFI DPH0 Frame(CFA_SP, 5)
          CFI CFA_SP SP+-7
          CFI Block cfiCond232 Using cfiCommon0
          CFI (cfiCond232) Function ZDO_DeregisterForZdoCB
          CFI (cfiCond232) Conditional ??CrossCallReturnLabel_21
          CFI (cfiCond232) DPL0 Frame(CFA_SP, 4)
          CFI (cfiCond232) DPH0 Frame(CFA_SP, 5)
          CFI (cfiCond232) CFA_SP SP+-7
          CFI Block cfiPicker233 Using cfiCommon1
          CFI (cfiPicker233) NoFunction
          CFI (cfiPicker233) Picker
        LCALL   ?Subroutine30 & 0xFFFF
??CrossCallReturnLabel_37:
        CLR     A
        MOVX    @DPTR,A
        INC     DPTR
        MOVX    @DPTR,A
        RET
          CFI EndBlock cfiCond231
          CFI EndBlock cfiCond232
          CFI EndBlock cfiPicker233

        RSEG BANKED_CODE:CODE:NOROOT(0)
?Subroutine30:
          CFI Block cfiCond234 Using cfiCommon0
          CFI Function ZDO_RegisterForZdoCB
          CFI Conditional ??CrossCallReturnLabel_36
          CFI DPL0 Frame(CFA_SP, 4)
          CFI DPH0 Frame(CFA_SP, 5)
          CFI CFA_SP SP+-7
          CFI Block cfiCond235 Using cfiCommon0
          CFI (cfiCond235) Function ZDApp_InitZdoCBFunc
          CFI (cfiCond235) Conditional ??CrossCallReturnLabel_37, ??CrossCallReturnLabel_20
          CFI (cfiCond235) DPL0 Frame(CFA_SP, 4)
          CFI (cfiCond235) DPH0 Frame(CFA_SP, 5)
          CFI (cfiCond235) CFA_SP SP+-9
          CFI Block cfiCond236 Using cfiCommon0
          CFI (cfiCond236) Function ZDO_DeregisterForZdoCB
          CFI (cfiCond236) Conditional ??CrossCallReturnLabel_37, ??CrossCallReturnLabel_21
          CFI (cfiCond236) DPL0 Frame(CFA_SP, 4)
          CFI (cfiCond236) DPH0 Frame(CFA_SP, 5)
          CFI (cfiCond236) CFA_SP SP+-9
          CFI Block cfiPicker237 Using cfiCommon1
          CFI (cfiPicker237) NoFunction
          CFI (cfiPicker237) Picker
        MOV     R0,A
        CLR     A
        RLC     A
        MOV     R1,A
        MOV     A,#zdoCBFunc & 0xff
        ADD     A,R0
        MOV     DPL,A
        MOV     A,#(zdoCBFunc >> 8) & 0xff
        ADDC    A,R1
        MOV     DPH,A
        RET
          CFI EndBlock cfiCond234
          CFI EndBlock cfiCond235
          CFI EndBlock cfiCond236
          CFI EndBlock cfiPicker237

        RSEG XDATA_ID:CODE:NOROOT(0)
`?<Initializer for zdoDiscCounter>`:
        DATA8
        DB 1

        RSEG XDATA_ID:CODE:NOROOT(0)
`?<Initializer for continueJoining>`:
        DATA8
        DB 1

        RSEG XDATA_ID:CODE:NOROOT(0)
`?<Initializer for devState>`:
        DATA8
        DB 1

        RSEG XDATA_ID:CODE:NOROOT(0)
`?<Initializer for ZDApp_epDesc>`:
        DATA8
        DB 0
        DATA16
        DW ZDAppTaskID
        DW 0H
        DATA8
        DB 0

        RSEG XDATA_ID:CODE:NOROOT(0)
`?<Initializer for ZDApp_SavedPollRate>`:
        DATA16
        DW 1000

        RSEG XDATA_ROM_C:CONST:REORDER:NOROOT(0)
        DATA32
__Constant_1:
        DD 1

        RSEG XDATA_ROM_C:CONST:REORDER:NOROOT(0)
        DATA32
__Constant_3e8:
        DD 1000

        RSEG BANK_RELAYS:CODE:REORDER:NOROOT(0)
??ZDApp_Init?relay:
        CODE
        LCALL   ?BDISPATCH
        DATA24
        DC24    ZDApp_Init

        RSEG BANK_RELAYS:CODE:REORDER:NOROOT(0)
??ZDApp_SecInit?relay:
        CODE
        LCALL   ?BDISPATCH
        DATA24
        DC24    ZDApp_SecInit

        RSEG BANK_RELAYS:CODE:REORDER:NOROOT(0)
??ZDApp_event_loop?relay:
        CODE
        LCALL   ?BDISPATCH
        DATA24
        DC24    ZDApp_event_loop

        RSEG BANK_RELAYS:CODE:REORDER:NOROOT(0)
??ZDApp_ProcessSecEvent?relay:
        CODE
        LCALL   ?BDISPATCH
        DATA24
        DC24    ZDApp_ProcessSecEvent

        RSEG BANK_RELAYS:CODE:REORDER:NOROOT(0)
??ZDOInitDevice?relay:
        CODE
        LCALL   ?BDISPATCH
        DATA24
        DC24    ZDOInitDevice

        RSEG BANK_RELAYS:CODE:REORDER:NOROOT(0)
??ZDApp_ReadNetworkRestoreState?relay:
        CODE
        LCALL   ?BDISPATCH
        DATA24
        DC24    ZDApp_ReadNetworkRestoreState

        RSEG BANK_RELAYS:CODE:REORDER:NOROOT(0)
??ZDAppDetermineDeviceType?relay:
        CODE
        LCALL   ?BDISPATCH
        DATA24
        DC24    ZDAppDetermineDeviceType

        RSEG BANK_RELAYS:CODE:REORDER:NOROOT(0)
??ZDApp_NetworkStartEvt?relay:
        CODE
        LCALL   ?BDISPATCH
        DATA24
        DC24    ZDApp_NetworkStartEvt

        RSEG BANK_RELAYS:CODE:REORDER:NOROOT(0)
??ZDApp_DeviceAuthEvt?relay:
        CODE
        LCALL   ?BDISPATCH
        DATA24
        DC24    ZDApp_DeviceAuthEvt

        RSEG BANK_RELAYS:CODE:REORDER:NOROOT(0)
??ZDApp_SaveNetworkStateEvt?relay:
        CODE
        LCALL   ?BDISPATCH
        DATA24
        DC24    ZDApp_SaveNetworkStateEvt

        RSEG BANK_RELAYS:CODE:REORDER:NOROOT(0)
??ZDApp_RestoreNetworkState?relay:
        CODE
        LCALL   ?BDISPATCH
        DATA24
        DC24    ZDApp_RestoreNetworkState

        RSEG BANK_RELAYS:CODE:REORDER:NOROOT(0)
??ZDApp_InitUserDesc?relay:
        CODE
        LCALL   ?BDISPATCH
        DATA24
        DC24    ZDApp_InitUserDesc

        RSEG BANK_RELAYS:CODE:REORDER:NOROOT(0)
??ZDAppCheckForHoldKey?relay:
        CODE
        LCALL   ?BDISPATCH
        DATA24
        DC24    ZDAppCheckForHoldKey

        RSEG BANK_RELAYS:CODE:REORDER:NOROOT(0)
??ZDApp_ProcessOSALMsg?relay:
        CODE
        LCALL   ?BDISPATCH
        DATA24
        DC24    ZDApp_ProcessOSALMsg

        RSEG BANK_RELAYS:CODE:REORDER:NOROOT(0)
??ZDApp_ProcessMsgCBs?relay:
        CODE
        LCALL   ?BDISPATCH
        DATA24
        DC24    ZDApp_ProcessMsgCBs

        RSEG BANK_RELAYS:CODE:REORDER:NOROOT(0)
??ZDApp_RegisterCBs?relay:
        CODE
        LCALL   ?BDISPATCH
        DATA24
        DC24    ZDApp_RegisterCBs

        RSEG BANK_RELAYS:CODE:REORDER:NOROOT(0)
??ZDApp_ProcessSecMsg?relay:
        CODE
        LCALL   ?BDISPATCH
        DATA24
        DC24    ZDApp_ProcessSecMsg

        RSEG BANK_RELAYS:CODE:REORDER:NOROOT(0)
??ZDApp_ProcessNetworkJoin?relay:
        CODE
        LCALL   ?BDISPATCH
        DATA24
        DC24    ZDApp_ProcessNetworkJoin

        RSEG BANK_RELAYS:CODE:REORDER:NOROOT(0)
??ZDApp_SaveNwkKey?relay:
        CODE
        LCALL   ?BDISPATCH
        DATA24
        DC24    ZDApp_SaveNwkKey

        RSEG BANK_RELAYS:CODE:REORDER:NOROOT(0)
??ZDApp_ResetNwkKey?relay:
        CODE
        LCALL   ?BDISPATCH
        DATA24
        DC24    ZDApp_ResetNwkKey

        RSEG BANK_RELAYS:CODE:REORDER:NOROOT(0)
??ZDApp_RestoreNwkKey?relay:
        CODE
        LCALL   ?BDISPATCH
        DATA24
        DC24    ZDApp_RestoreNwkKey

        RSEG BANK_RELAYS:CODE:REORDER:NOROOT(0)
??ZDApp_ResetTimerStart?relay:
        CODE
        LCALL   ?BDISPATCH
        DATA24
        DC24    ZDApp_ResetTimerStart

        RSEG BANK_RELAYS:CODE:REORDER:NOROOT(0)
??ZDApp_ResetTimerCancel?relay:
        CODE
        LCALL   ?BDISPATCH
        DATA24
        DC24    ZDApp_ResetTimerCancel

        RSEG BANK_RELAYS:CODE:REORDER:NOROOT(0)
??ZDApp_LeaveCtrlInit?relay:
        CODE
        LCALL   ?BDISPATCH
        DATA24
        DC24    ZDApp_LeaveCtrlInit

        RSEG BANK_RELAYS:CODE:REORDER:NOROOT(0)
??ZDApp_LeaveCtrlSet?relay:
        CODE
        LCALL   ?BDISPATCH
        DATA24
        DC24    ZDApp_LeaveCtrlSet

        RSEG BANK_RELAYS:CODE:REORDER:NOROOT(0)
??ZDApp_LeaveCtrlReset?relay:
        CODE
        LCALL   ?BDISPATCH
        DATA24
        DC24    ZDApp_LeaveCtrlReset

        RSEG BANK_RELAYS:CODE:REORDER:NOROOT(0)
??ZDApp_LeaveCtrlBypass?relay:
        CODE
        LCALL   ?BDISPATCH
        DATA24
        DC24    ZDApp_LeaveCtrlBypass

        RSEG BANK_RELAYS:CODE:REORDER:NOROOT(0)
??ZDApp_LeaveCtrlStartup?relay:
        CODE
        LCALL   ?BDISPATCH
        DATA24
        DC24    ZDApp_LeaveCtrlStartup

        RSEG BANK_RELAYS:CODE:REORDER:NOROOT(0)
??ZDApp_LeaveReset?relay:
        CODE
        LCALL   ?BDISPATCH
        DATA24
        DC24    ZDApp_LeaveReset

        RSEG BANK_RELAYS:CODE:REORDER:NOROOT(0)
??ZDApp_LeaveUpdate?relay:
        CODE
        LCALL   ?BDISPATCH
        DATA24
        DC24    ZDApp_LeaveUpdate

        RSEG BANK_RELAYS:CODE:REORDER:NOROOT(0)
??ZDApp_NetworkDiscoveryReq?relay:
        CODE
        LCALL   ?BDISPATCH
        DATA24
        DC24    ZDApp_NetworkDiscoveryReq

        RSEG BANK_RELAYS:CODE:REORDER:NOROOT(0)
??ZDApp_JoinReq?relay:
        CODE
        LCALL   ?BDISPATCH
        DATA24
        DC24    ZDApp_JoinReq

        RSEG BANK_RELAYS:CODE:REORDER:NOROOT(0)
??ZDApp_DeviceConfigured?relay:
        CODE
        LCALL   ?BDISPATCH
        DATA24
        DC24    ZDApp_DeviceConfigured

        RSEG BANK_RELAYS:CODE:REORDER:NOROOT(0)
??ZDApp_SendEventMsg?relay:
        CODE
        LCALL   ?BDISPATCH
        DATA24
        DC24    ZDApp_SendEventMsg

        RSEG BANK_RELAYS:CODE:REORDER:NOROOT(0)
??ZDApp_SendMsg?relay:
        CODE
        LCALL   ?BDISPATCH
        DATA24
        DC24    ZDApp_SendMsg

        RSEG BANK_RELAYS:CODE:REORDER:NOROOT(0)
??ZDO_NetworkDiscoveryConfirmCB?relay:
        CODE
        LCALL   ?BDISPATCH
        DATA24
        DC24    ZDO_NetworkDiscoveryConfirmCB

        RSEG BANK_RELAYS:CODE:REORDER:NOROOT(0)
??ZDApp_NwkDescListProcessing?relay:
        CODE
        LCALL   ?BDISPATCH
        DATA24
        DC24    ZDApp_NwkDescListProcessing

        RSEG BANK_RELAYS:CODE:REORDER:NOROOT(0)
??ZDO_NetworkFormationConfirmCB?relay:
        CODE
        LCALL   ?BDISPATCH
        DATA24
        DC24    ZDO_NetworkFormationConfirmCB

        RSEG BANK_RELAYS:CODE:REORDER:NOROOT(0)
??ZDO_beaconNotifyIndCB?relay:
        CODE
        LCALL   ?BDISPATCH
        DATA24
        DC24    ZDO_beaconNotifyIndCB

        RSEG BANK_RELAYS:CODE:REORDER:NOROOT(0)
??ZDO_StartRouterConfirmCB?relay:
        CODE
        LCALL   ?BDISPATCH
        DATA24
        DC24    ZDO_StartRouterConfirmCB

        RSEG BANK_RELAYS:CODE:REORDER:NOROOT(0)
??ZDO_JoinConfirmCB?relay:
        CODE
        LCALL   ?BDISPATCH
        DATA24
        DC24    ZDO_JoinConfirmCB

        RSEG BANK_RELAYS:CODE:REORDER:NOROOT(0)
??ZDO_AddrChangeIndicationCB?relay:
        CODE
        LCALL   ?BDISPATCH
        DATA24
        DC24    ZDO_AddrChangeIndicationCB

        RSEG BANK_RELAYS:CODE:REORDER:NOROOT(0)
??ZDO_JoinIndicationCB?relay:
        CODE
        LCALL   ?BDISPATCH
        DATA24
        DC24    ZDO_JoinIndicationCB

        RSEG BANK_RELAYS:CODE:REORDER:NOROOT(0)
??ZDO_ConcentratorIndicationCB?relay:
        CODE
        LCALL   ?BDISPATCH
        DATA24
        DC24    ZDO_ConcentratorIndicationCB

        RSEG BANK_RELAYS:CODE:REORDER:NOROOT(0)
??ZDO_LeaveCnf?relay:
        CODE
        LCALL   ?BDISPATCH
        DATA24
        DC24    ZDO_LeaveCnf

        RSEG BANK_RELAYS:CODE:REORDER:NOROOT(0)
??ZDO_LeaveInd?relay:
        CODE
        LCALL   ?BDISPATCH
        DATA24
        DC24    ZDO_LeaveInd

        RSEG BANK_RELAYS:CODE:REORDER:NOROOT(0)
??ZDO_SyncIndicationCB?relay:
        CODE
        LCALL   ?BDISPATCH
        DATA24
        DC24    ZDO_SyncIndicationCB

        RSEG BANK_RELAYS:CODE:REORDER:NOROOT(0)
??ZDO_ManytoOneFailureIndicationCB?relay:
        CODE
        LCALL   ?BDISPATCH
        DATA24
        DC24    ZDO_ManytoOneFailureIndicationCB

        RSEG BANK_RELAYS:CODE:REORDER:NOROOT(0)
??ZDO_PollConfirmCB?relay:
        CODE
        LCALL   ?BDISPATCH
        DATA24
        DC24    ZDO_PollConfirmCB

        RSEG BANK_RELAYS:CODE:REORDER:NOROOT(0)
??AddrMgrWriteNVRequest?relay:
        CODE
        LCALL   ?BDISPATCH
        DATA24
        DC24    AddrMgrWriteNVRequest

        RSEG BANK_RELAYS:CODE:REORDER:NOROOT(0)
??ZDO_UpdateDeviceIndication?relay:
        CODE
        LCALL   ?BDISPATCH
        DATA24
        DC24    ZDO_UpdateDeviceIndication

        RSEG BANK_RELAYS:CODE:REORDER:NOROOT(0)
??ZDApp_InMsgCB?relay:
        CODE
        LCALL   ?BDISPATCH
        DATA24
        DC24    ZDApp_InMsgCB

        RSEG BANK_RELAYS:CODE:REORDER:NOROOT(0)
??ZDApp_ChangeMatchDescRespPermission?relay:
        CODE
        LCALL   ?BDISPATCH
        DATA24
        DC24    ZDApp_ChangeMatchDescRespPermission

        RSEG BANK_RELAYS:CODE:REORDER:NOROOT(0)
??ZDApp_NetworkInit?relay:
        CODE
        LCALL   ?BDISPATCH
        DATA24
        DC24    ZDApp_NetworkInit

        RSEG BANK_RELAYS:CODE:REORDER:NOROOT(0)
??ZDApp_NwkStateUpdateCB?relay:
        CODE
        LCALL   ?BDISPATCH
        DATA24
        DC24    ZDApp_NwkStateUpdateCB

        RSEG BANK_RELAYS:CODE:REORDER:NOROOT(0)
??ZDApp_NodeProfileSync?relay:
        CODE
        LCALL   ?BDISPATCH
        DATA24
        DC24    ZDApp_NodeProfileSync

        RSEG BANK_RELAYS:CODE:REORDER:NOROOT(0)
??ZDApp_StartJoiningCycle?relay:
        CODE
        LCALL   ?BDISPATCH
        DATA24
        DC24    ZDApp_StartJoiningCycle

        RSEG BANK_RELAYS:CODE:REORDER:NOROOT(0)
??ZDApp_StopJoiningCycle?relay:
        CODE
        LCALL   ?BDISPATCH
        DATA24
        DC24    ZDApp_StopJoiningCycle

        RSEG BANK_RELAYS:CODE:REORDER:NOROOT(0)
??ZDApp_AnnounceNewAddress?relay:
        CODE
        LCALL   ?BDISPATCH
        DATA24
        DC24    ZDApp_AnnounceNewAddress

        RSEG BANK_RELAYS:CODE:REORDER:NOROOT(0)
??ZDApp_NVUpdate?relay:
        CODE
        LCALL   ?BDISPATCH
        DATA24
        DC24    ZDApp_NVUpdate

        RSEG BANK_RELAYS:CODE:REORDER:NOROOT(0)
??ZDApp_CoordStartPANIDConflictCB?relay:
        CODE
        LCALL   ?BDISPATCH
        DATA24
        DC24    ZDApp_CoordStartPANIDConflictCB

        RSEG BANK_RELAYS:CODE:REORDER:NOROOT(0)
??ZDO_SrcRtgIndCB?relay:
        CODE
        LCALL   ?BDISPATCH
        DATA24
        DC24    ZDO_SrcRtgIndCB

        RSEG BANK_RELAYS:CODE:REORDER:NOROOT(0)
??ZDApp_InitZdoCBFunc?relay:
        CODE
        LCALL   ?BDISPATCH
        DATA24
        DC24    ZDApp_InitZdoCBFunc

        RSEG BANK_RELAYS:CODE:REORDER:NOROOT(0)
??ZDO_RegisterForZdoCB?relay:
        CODE
        LCALL   ?BDISPATCH
        DATA24
        DC24    ZDO_RegisterForZdoCB

        RSEG BANK_RELAYS:CODE:REORDER:NOROOT(0)
??ZDO_DeregisterForZdoCB?relay:
        CODE
        LCALL   ?BDISPATCH
        DATA24
        DC24    ZDO_DeregisterForZdoCB

        END
// 3040 
// 3041 /*********************************************************************
// 3042 *********************************************************************/
// 
// 5 223 bytes in segment BANKED_CODE
//   390 bytes in segment BANK_RELAYS
//    11 bytes in segment XDATA_I
//    11 bytes in segment XDATA_ID
//     8 bytes in segment XDATA_ROM_C
//    54 bytes in segment XDATA_Z
// 
// 5 624 bytes of CODE  memory
//     0 bytes of CONST memory (+ 8 bytes shared)
//    65 bytes of XDATA memory
//
//Errors: none
//Warnings: none
